ARM GAS  C:\Users\Doug\AppData\Local\Temp\cciOAmpG.s 			page 1


   1              		.syntax unified
   2              		.cpu cortex-m3
   3              		.fpu softvfp
   4              		.eabi_attribute 20, 1
   5              		.eabi_attribute 21, 1
   6              		.eabi_attribute 23, 3
   7              		.eabi_attribute 24, 1
   8              		.eabi_attribute 25, 1
   9              		.eabi_attribute 26, 1
  10              		.eabi_attribute 30, 6
  11              		.eabi_attribute 34, 1
  12              		.eabi_attribute 18, 4
  13              		.thumb
  14              		.syntax unified
  15              		.file	"cyfitter_cfg.c"
  16              		.text
  17              	.Ltext0:
  18              		.cfi_sections	.debug_frame
  19              		.section	.text.CYMEMZERO,"ax",%progbits
  20              		.align	2
  21              		.thumb
  22              		.thumb_func
  23              		.type	CYMEMZERO, %function
  24              	CYMEMZERO:
  25              	.LFB0:
  26              		.file 1 "Generated_Source\\PSoC5\\cyfitter_cfg.c"
   1:Generated_Source\PSoC5/cyfitter_cfg.c **** 
   2:Generated_Source\PSoC5/cyfitter_cfg.c **** /*******************************************************************************
   3:Generated_Source\PSoC5/cyfitter_cfg.c **** * File Name: cyfitter_cfg.c
   4:Generated_Source\PSoC5/cyfitter_cfg.c **** * 
   5:Generated_Source\PSoC5/cyfitter_cfg.c **** * PSoC Creator  4.2
   6:Generated_Source\PSoC5/cyfitter_cfg.c **** *
   7:Generated_Source\PSoC5/cyfitter_cfg.c **** * Description:
   8:Generated_Source\PSoC5/cyfitter_cfg.c **** * This file contains device initialization code.
   9:Generated_Source\PSoC5/cyfitter_cfg.c **** * Except for the user defined sections in CyClockStartupError(), this file should not be modified.
  10:Generated_Source\PSoC5/cyfitter_cfg.c **** * This file is automatically generated by PSoC Creator.
  11:Generated_Source\PSoC5/cyfitter_cfg.c **** *
  12:Generated_Source\PSoC5/cyfitter_cfg.c **** ********************************************************************************
  13:Generated_Source\PSoC5/cyfitter_cfg.c **** * Copyright (c) 2007-2018 Cypress Semiconductor.  All rights reserved.
  14:Generated_Source\PSoC5/cyfitter_cfg.c **** * You may use this file only in accordance with the license, terms, conditions, 
  15:Generated_Source\PSoC5/cyfitter_cfg.c **** * disclaimers, and limitations in the end user license agreement accompanying 
  16:Generated_Source\PSoC5/cyfitter_cfg.c **** * the software package with which this file was provided.
  17:Generated_Source\PSoC5/cyfitter_cfg.c **** ********************************************************************************/
  18:Generated_Source\PSoC5/cyfitter_cfg.c **** 
  19:Generated_Source\PSoC5/cyfitter_cfg.c **** #include <string.h>
  20:Generated_Source\PSoC5/cyfitter_cfg.c **** #include "cytypes.h"
  21:Generated_Source\PSoC5/cyfitter_cfg.c **** #include "cydevice_trm.h"
  22:Generated_Source\PSoC5/cyfitter_cfg.c **** #include "cyfitter.h"
  23:Generated_Source\PSoC5/cyfitter_cfg.c **** #include "CyLib.h"
  24:Generated_Source\PSoC5/cyfitter_cfg.c **** #include "cyfitter_cfg.h"
  25:Generated_Source\PSoC5/cyfitter_cfg.c **** #include "cyapicallbacks.h"
  26:Generated_Source\PSoC5/cyfitter_cfg.c **** 
  27:Generated_Source\PSoC5/cyfitter_cfg.c **** #define CY_NEED_CYCLOCKSTARTUPERROR 1
  28:Generated_Source\PSoC5/cyfitter_cfg.c **** 
  29:Generated_Source\PSoC5/cyfitter_cfg.c **** 
  30:Generated_Source\PSoC5/cyfitter_cfg.c **** #if defined(__GNUC__) || defined(__ARMCC_VERSION)
  31:Generated_Source\PSoC5/cyfitter_cfg.c ****     #define CYPACKED 
ARM GAS  C:\Users\Doug\AppData\Local\Temp\cciOAmpG.s 			page 2


  32:Generated_Source\PSoC5/cyfitter_cfg.c ****     #define CYPACKED_ATTR __attribute__ ((packed))
  33:Generated_Source\PSoC5/cyfitter_cfg.c ****     #define CYALIGNED __attribute__ ((aligned))
  34:Generated_Source\PSoC5/cyfitter_cfg.c ****     #define CY_CFG_UNUSED __attribute__ ((unused))
  35:Generated_Source\PSoC5/cyfitter_cfg.c ****     #ifndef CY_CFG_SECTION
  36:Generated_Source\PSoC5/cyfitter_cfg.c ****         #define CY_CFG_SECTION __attribute__ ((section(".psocinit")))
  37:Generated_Source\PSoC5/cyfitter_cfg.c ****     #endif
  38:Generated_Source\PSoC5/cyfitter_cfg.c ****     
  39:Generated_Source\PSoC5/cyfitter_cfg.c ****     #if CYDEV_CONFIGURATION_DMA
  40:Generated_Source\PSoC5/cyfitter_cfg.c ****         #if (defined(__ARMCC_VERSION) || defined(__GNUC__))
  41:Generated_Source\PSoC5/cyfitter_cfg.c ****             #ifndef DMAINITSEC
  42:Generated_Source\PSoC5/cyfitter_cfg.c ****                 #define DMAINITSEC __attribute__ ((section(".dma_init")))
  43:Generated_Source\PSoC5/cyfitter_cfg.c ****             #endif
  44:Generated_Source\PSoC5/cyfitter_cfg.c ****         #elif defined(__ICCARM__)
  45:Generated_Source\PSoC5/cyfitter_cfg.c ****             #define DMAINITSEC _Pragma("location=\".dma_init\"")
  46:Generated_Source\PSoC5/cyfitter_cfg.c ****         #endif
  47:Generated_Source\PSoC5/cyfitter_cfg.c ****     #else
  48:Generated_Source\PSoC5/cyfitter_cfg.c ****         #define DMAINITSEC
  49:Generated_Source\PSoC5/cyfitter_cfg.c ****     #endif
  50:Generated_Source\PSoC5/cyfitter_cfg.c **** 
  51:Generated_Source\PSoC5/cyfitter_cfg.c ****     #if defined(__ARMCC_VERSION)
  52:Generated_Source\PSoC5/cyfitter_cfg.c ****         #define CY_CFG_MEMORY_BARRIER() __memory_changed()
  53:Generated_Source\PSoC5/cyfitter_cfg.c ****     #else
  54:Generated_Source\PSoC5/cyfitter_cfg.c ****         #define CY_CFG_MEMORY_BARRIER() __sync_synchronize()
  55:Generated_Source\PSoC5/cyfitter_cfg.c ****     #endif
  56:Generated_Source\PSoC5/cyfitter_cfg.c ****     
  57:Generated_Source\PSoC5/cyfitter_cfg.c **** #elif defined(__ICCARM__)
  58:Generated_Source\PSoC5/cyfitter_cfg.c ****     #include <intrinsics.h>
  59:Generated_Source\PSoC5/cyfitter_cfg.c **** 
  60:Generated_Source\PSoC5/cyfitter_cfg.c ****     #define CYPACKED __packed
  61:Generated_Source\PSoC5/cyfitter_cfg.c ****     #define CYPACKED_ATTR 
  62:Generated_Source\PSoC5/cyfitter_cfg.c ****     #define CYALIGNED _Pragma("data_alignment=4")
  63:Generated_Source\PSoC5/cyfitter_cfg.c ****     #define CY_CFG_UNUSED _Pragma("diag_suppress=Pe177")
  64:Generated_Source\PSoC5/cyfitter_cfg.c ****     #define CY_CFG_SECTION _Pragma("location=\".psocinit\"")
  65:Generated_Source\PSoC5/cyfitter_cfg.c ****     
  66:Generated_Source\PSoC5/cyfitter_cfg.c ****     #if CYDEV_CONFIGURATION_DMA
  67:Generated_Source\PSoC5/cyfitter_cfg.c ****         #if (defined(__ARMCC_VERSION) || defined(__GNUC__))
  68:Generated_Source\PSoC5/cyfitter_cfg.c ****             #ifndef DMAINITSEC
  69:Generated_Source\PSoC5/cyfitter_cfg.c ****                 #define DMAINITSEC __attribute__ ((section(".dma_init")))
  70:Generated_Source\PSoC5/cyfitter_cfg.c ****             #endif
  71:Generated_Source\PSoC5/cyfitter_cfg.c ****         #elif defined(__ICCARM__)
  72:Generated_Source\PSoC5/cyfitter_cfg.c ****             #define DMAINITSEC _Pragma("location=\".dma_init\"")
  73:Generated_Source\PSoC5/cyfitter_cfg.c ****         #endif
  74:Generated_Source\PSoC5/cyfitter_cfg.c ****     #else
  75:Generated_Source\PSoC5/cyfitter_cfg.c ****         #define DMAINITSEC
  76:Generated_Source\PSoC5/cyfitter_cfg.c ****     #endif
  77:Generated_Source\PSoC5/cyfitter_cfg.c **** 
  78:Generated_Source\PSoC5/cyfitter_cfg.c ****     #define CY_CFG_MEMORY_BARRIER() __DMB()
  79:Generated_Source\PSoC5/cyfitter_cfg.c ****     
  80:Generated_Source\PSoC5/cyfitter_cfg.c **** #else
  81:Generated_Source\PSoC5/cyfitter_cfg.c ****     #error Unsupported toolchain
  82:Generated_Source\PSoC5/cyfitter_cfg.c **** #endif
  83:Generated_Source\PSoC5/cyfitter_cfg.c **** 
  84:Generated_Source\PSoC5/cyfitter_cfg.c **** #ifndef CYCODE
  85:Generated_Source\PSoC5/cyfitter_cfg.c ****     #define CYCODE
  86:Generated_Source\PSoC5/cyfitter_cfg.c **** #endif
  87:Generated_Source\PSoC5/cyfitter_cfg.c **** #ifndef CYDATA
  88:Generated_Source\PSoC5/cyfitter_cfg.c ****     #define CYDATA
ARM GAS  C:\Users\Doug\AppData\Local\Temp\cciOAmpG.s 			page 3


  89:Generated_Source\PSoC5/cyfitter_cfg.c **** #endif
  90:Generated_Source\PSoC5/cyfitter_cfg.c **** #ifndef CYFAR
  91:Generated_Source\PSoC5/cyfitter_cfg.c ****     #define CYFAR
  92:Generated_Source\PSoC5/cyfitter_cfg.c **** #endif
  93:Generated_Source\PSoC5/cyfitter_cfg.c **** #ifndef CYXDATA
  94:Generated_Source\PSoC5/cyfitter_cfg.c ****     #define CYXDATA
  95:Generated_Source\PSoC5/cyfitter_cfg.c **** #endif
  96:Generated_Source\PSoC5/cyfitter_cfg.c **** 
  97:Generated_Source\PSoC5/cyfitter_cfg.c **** 
  98:Generated_Source\PSoC5/cyfitter_cfg.c **** CY_CFG_UNUSED
  99:Generated_Source\PSoC5/cyfitter_cfg.c **** static void CYMEMZERO(void *s, size_t n);
 100:Generated_Source\PSoC5/cyfitter_cfg.c **** CY_CFG_UNUSED
 101:Generated_Source\PSoC5/cyfitter_cfg.c **** static void CYMEMZERO(void *s, size_t n)
 102:Generated_Source\PSoC5/cyfitter_cfg.c **** {
  27              		.loc 1 102 0
  28              		.cfi_startproc
  29              		@ args = 0, pretend = 0, frame = 8
  30              		@ frame_needed = 1, uses_anonymous_args = 0
  31 0000 80B5     		push	{r7, lr}
  32              		.cfi_def_cfa_offset 8
  33              		.cfi_offset 7, -8
  34              		.cfi_offset 14, -4
  35 0002 82B0     		sub	sp, sp, #8
  36              		.cfi_def_cfa_offset 16
  37 0004 00AF     		add	r7, sp, #0
  38              		.cfi_def_cfa_register 7
  39 0006 7860     		str	r0, [r7, #4]
  40 0008 3960     		str	r1, [r7]
 103:Generated_Source\PSoC5/cyfitter_cfg.c **** 	(void)memset(s, 0, n);
  41              		.loc 1 103 0
  42 000a 3A68     		ldr	r2, [r7]
  43 000c 0021     		movs	r1, #0
  44 000e 7868     		ldr	r0, [r7, #4]
  45 0010 FFF7FEFF 		bl	memset
 104:Generated_Source\PSoC5/cyfitter_cfg.c **** }
  46              		.loc 1 104 0
  47 0014 00BF     		nop
  48 0016 0837     		adds	r7, r7, #8
  49              		.cfi_def_cfa_offset 8
  50 0018 BD46     		mov	sp, r7
  51              		.cfi_def_cfa_register 13
  52              		@ sp needed
  53 001a 80BD     		pop	{r7, pc}
  54              		.cfi_endproc
  55              	.LFE0:
  56              		.size	CYMEMZERO, .-CYMEMZERO
  57              		.section	.text.CYCONFIGCPY,"ax",%progbits
  58              		.align	2
  59              		.thumb
  60              		.thumb_func
  61              		.type	CYCONFIGCPY, %function
  62              	CYCONFIGCPY:
  63              	.LFB1:
 105:Generated_Source\PSoC5/cyfitter_cfg.c **** CY_CFG_UNUSED
 106:Generated_Source\PSoC5/cyfitter_cfg.c **** static void CYCONFIGCPY(void *dest, const void *src, size_t n);
 107:Generated_Source\PSoC5/cyfitter_cfg.c **** CY_CFG_UNUSED
 108:Generated_Source\PSoC5/cyfitter_cfg.c **** static void CYCONFIGCPY(void *dest, const void *src, size_t n)
ARM GAS  C:\Users\Doug\AppData\Local\Temp\cciOAmpG.s 			page 4


 109:Generated_Source\PSoC5/cyfitter_cfg.c **** {
  64              		.loc 1 109 0
  65              		.cfi_startproc
  66              		@ args = 0, pretend = 0, frame = 16
  67              		@ frame_needed = 1, uses_anonymous_args = 0
  68 0000 80B5     		push	{r7, lr}
  69              		.cfi_def_cfa_offset 8
  70              		.cfi_offset 7, -8
  71              		.cfi_offset 14, -4
  72 0002 84B0     		sub	sp, sp, #16
  73              		.cfi_def_cfa_offset 24
  74 0004 00AF     		add	r7, sp, #0
  75              		.cfi_def_cfa_register 7
  76 0006 F860     		str	r0, [r7, #12]
  77 0008 B960     		str	r1, [r7, #8]
  78 000a 7A60     		str	r2, [r7, #4]
 110:Generated_Source\PSoC5/cyfitter_cfg.c **** 	(void)memcpy(dest, src, n);
  79              		.loc 1 110 0
  80 000c 7A68     		ldr	r2, [r7, #4]
  81 000e B968     		ldr	r1, [r7, #8]
  82 0010 F868     		ldr	r0, [r7, #12]
  83 0012 FFF7FEFF 		bl	memcpy
 111:Generated_Source\PSoC5/cyfitter_cfg.c **** }
  84              		.loc 1 111 0
  85 0016 00BF     		nop
  86 0018 1037     		adds	r7, r7, #16
  87              		.cfi_def_cfa_offset 8
  88 001a BD46     		mov	sp, r7
  89              		.cfi_def_cfa_register 13
  90              		@ sp needed
  91 001c 80BD     		pop	{r7, pc}
  92              		.cfi_endproc
  93              	.LFE1:
  94              		.size	CYCONFIGCPY, .-CYCONFIGCPY
  95 001e 00BF     		.section	.text.CYCONFIGCPYCODE,"ax",%progbits
  96              		.align	2
  97              		.thumb
  98              		.thumb_func
  99              		.type	CYCONFIGCPYCODE, %function
 100              	CYCONFIGCPYCODE:
 101              	.LFB2:
 112:Generated_Source\PSoC5/cyfitter_cfg.c **** CY_CFG_UNUSED
 113:Generated_Source\PSoC5/cyfitter_cfg.c **** static void CYCONFIGCPYCODE(void *dest, const void *src, size_t n);
 114:Generated_Source\PSoC5/cyfitter_cfg.c **** CY_CFG_UNUSED
 115:Generated_Source\PSoC5/cyfitter_cfg.c **** static void CYCONFIGCPYCODE(void *dest, const void *src, size_t n)
 116:Generated_Source\PSoC5/cyfitter_cfg.c **** {
 102              		.loc 1 116 0
 103              		.cfi_startproc
 104              		@ args = 0, pretend = 0, frame = 16
 105              		@ frame_needed = 1, uses_anonymous_args = 0
 106 0000 80B5     		push	{r7, lr}
 107              		.cfi_def_cfa_offset 8
 108              		.cfi_offset 7, -8
 109              		.cfi_offset 14, -4
 110 0002 84B0     		sub	sp, sp, #16
 111              		.cfi_def_cfa_offset 24
 112 0004 00AF     		add	r7, sp, #0
ARM GAS  C:\Users\Doug\AppData\Local\Temp\cciOAmpG.s 			page 5


 113              		.cfi_def_cfa_register 7
 114 0006 F860     		str	r0, [r7, #12]
 115 0008 B960     		str	r1, [r7, #8]
 116 000a 7A60     		str	r2, [r7, #4]
 117:Generated_Source\PSoC5/cyfitter_cfg.c **** 	(void)memcpy(dest, src, n);
 117              		.loc 1 117 0
 118 000c 7A68     		ldr	r2, [r7, #4]
 119 000e B968     		ldr	r1, [r7, #8]
 120 0010 F868     		ldr	r0, [r7, #12]
 121 0012 FFF7FEFF 		bl	memcpy
 118:Generated_Source\PSoC5/cyfitter_cfg.c **** }
 122              		.loc 1 118 0
 123 0016 00BF     		nop
 124 0018 1037     		adds	r7, r7, #16
 125              		.cfi_def_cfa_offset 8
 126 001a BD46     		mov	sp, r7
 127              		.cfi_def_cfa_register 13
 128              		@ sp needed
 129 001c 80BD     		pop	{r7, pc}
 130              		.cfi_endproc
 131              	.LFE2:
 132              		.size	CYCONFIGCPYCODE, .-CYCONFIGCPYCODE
 133 001e 00BF     		.section	.text.CyClockStartupError,"ax",%progbits
 134              		.align	2
 135              		.thumb
 136              		.thumb_func
 137              		.type	CyClockStartupError, %function
 138              	CyClockStartupError:
 139              	.LFB3:
 119:Generated_Source\PSoC5/cyfitter_cfg.c **** 
 120:Generated_Source\PSoC5/cyfitter_cfg.c **** 
 121:Generated_Source\PSoC5/cyfitter_cfg.c **** 
 122:Generated_Source\PSoC5/cyfitter_cfg.c **** 
 123:Generated_Source\PSoC5/cyfitter_cfg.c **** /* Clock startup error codes                                                   */
 124:Generated_Source\PSoC5/cyfitter_cfg.c **** #define CYCLOCKSTART_NO_ERROR    0u
 125:Generated_Source\PSoC5/cyfitter_cfg.c **** #define CYCLOCKSTART_XTAL_ERROR  1u
 126:Generated_Source\PSoC5/cyfitter_cfg.c **** #define CYCLOCKSTART_32KHZ_ERROR 2u
 127:Generated_Source\PSoC5/cyfitter_cfg.c **** #define CYCLOCKSTART_PLL_ERROR   3u
 128:Generated_Source\PSoC5/cyfitter_cfg.c **** #define CYCLOCKSTART_FLL_ERROR   4u
 129:Generated_Source\PSoC5/cyfitter_cfg.c **** #define CYCLOCKSTART_WCO_ERROR   5u
 130:Generated_Source\PSoC5/cyfitter_cfg.c **** 
 131:Generated_Source\PSoC5/cyfitter_cfg.c **** 
 132:Generated_Source\PSoC5/cyfitter_cfg.c **** #ifdef CY_NEED_CYCLOCKSTARTUPERROR
 133:Generated_Source\PSoC5/cyfitter_cfg.c **** /*******************************************************************************
 134:Generated_Source\PSoC5/cyfitter_cfg.c **** * Function Name: CyClockStartupError
 135:Generated_Source\PSoC5/cyfitter_cfg.c **** ********************************************************************************
 136:Generated_Source\PSoC5/cyfitter_cfg.c **** * Summary:
 137:Generated_Source\PSoC5/cyfitter_cfg.c **** *  If an error is encountered during clock configuration (crystal startup error,
 138:Generated_Source\PSoC5/cyfitter_cfg.c **** *  PLL lock error, etc.), the system will end up here.  Unless reimplemented by
 139:Generated_Source\PSoC5/cyfitter_cfg.c **** *  the customer, this function will stop in an infinite loop.
 140:Generated_Source\PSoC5/cyfitter_cfg.c **** *
 141:Generated_Source\PSoC5/cyfitter_cfg.c **** * Parameters:
 142:Generated_Source\PSoC5/cyfitter_cfg.c **** *   void
 143:Generated_Source\PSoC5/cyfitter_cfg.c **** *
 144:Generated_Source\PSoC5/cyfitter_cfg.c **** * Return:
 145:Generated_Source\PSoC5/cyfitter_cfg.c **** *   void
 146:Generated_Source\PSoC5/cyfitter_cfg.c **** *
ARM GAS  C:\Users\Doug\AppData\Local\Temp\cciOAmpG.s 			page 6


 147:Generated_Source\PSoC5/cyfitter_cfg.c **** *******************************************************************************/
 148:Generated_Source\PSoC5/cyfitter_cfg.c **** CY_CFG_UNUSED
 149:Generated_Source\PSoC5/cyfitter_cfg.c **** static void CyClockStartupError(uint8 errorCode);
 150:Generated_Source\PSoC5/cyfitter_cfg.c **** CY_CFG_UNUSED
 151:Generated_Source\PSoC5/cyfitter_cfg.c **** static void CyClockStartupError(uint8 errorCode)
 152:Generated_Source\PSoC5/cyfitter_cfg.c **** {
 140              		.loc 1 152 0
 141              		.cfi_startproc
 142              		@ args = 0, pretend = 0, frame = 8
 143              		@ frame_needed = 1, uses_anonymous_args = 0
 144              		@ link register save eliminated.
 145 0000 80B4     		push	{r7}
 146              		.cfi_def_cfa_offset 4
 147              		.cfi_offset 7, -4
 148 0002 83B0     		sub	sp, sp, #12
 149              		.cfi_def_cfa_offset 16
 150 0004 00AF     		add	r7, sp, #0
 151              		.cfi_def_cfa_register 7
 152 0006 0346     		mov	r3, r0
 153 0008 FB71     		strb	r3, [r7, #7]
 154              	.L5:
 153:Generated_Source\PSoC5/cyfitter_cfg.c ****     /* To remove the compiler warning if errorCode not used.                */
 154:Generated_Source\PSoC5/cyfitter_cfg.c ****     errorCode = errorCode;
 155:Generated_Source\PSoC5/cyfitter_cfg.c **** 
 156:Generated_Source\PSoC5/cyfitter_cfg.c ****     /* If we have a clock startup error (bad MHz crystal, PLL lock, etc.),  */
 157:Generated_Source\PSoC5/cyfitter_cfg.c ****     /* we will end up here to allow the customer to implement something to  */
 158:Generated_Source\PSoC5/cyfitter_cfg.c ****     /* deal with the clock condition.                                       */
 159:Generated_Source\PSoC5/cyfitter_cfg.c **** 
 160:Generated_Source\PSoC5/cyfitter_cfg.c **** #ifdef CY_CFG_CLOCK_STARTUP_ERROR_CALLBACK
 161:Generated_Source\PSoC5/cyfitter_cfg.c ****     CY_CFG_Clock_Startup_ErrorCallback();
 162:Generated_Source\PSoC5/cyfitter_cfg.c **** #else
 163:Generated_Source\PSoC5/cyfitter_cfg.c ****     /*  If not using CY_CFG_CLOCK_STARTUP_ERROR_CALLBACK, place your clock startup code here. */
 164:Generated_Source\PSoC5/cyfitter_cfg.c ****     /* `#START CyClockStartupError` */
 165:Generated_Source\PSoC5/cyfitter_cfg.c **** 
 166:Generated_Source\PSoC5/cyfitter_cfg.c **** 
 167:Generated_Source\PSoC5/cyfitter_cfg.c **** 
 168:Generated_Source\PSoC5/cyfitter_cfg.c ****     /* `#END` */
 169:Generated_Source\PSoC5/cyfitter_cfg.c **** 
 170:Generated_Source\PSoC5/cyfitter_cfg.c ****     while(1) {}
 155              		.loc 1 170 0 discriminator 1
 156 000a FEE7     		b	.L5
 157              		.cfi_endproc
 158              	.LFE3:
 159              		.size	CyClockStartupError, .-CyClockStartupError
 160              		.section	.dma_init,"a",%progbits
 161              		.align	2
 162              		.type	CH1_ADDR_DATA0.4976, %object
 163              		.size	CH1_ADDR_DATA0.4976, 8
 164              	CH1_ADDR_DATA0.4976:
 165 0000 01       		.byte	1
 166 0001 00       		.byte	0
 167 0002 00       		.byte	0
 168 0003 00       		.byte	0
 169 0004 00       		.byte	0
 170 0005 20       		.byte	32
 171 0006 00       		.byte	0
 172 0007 40       		.byte	64
ARM GAS  C:\Users\Doug\AppData\Local\Temp\cciOAmpG.s 			page 7


 173              		.align	2
 174              		.type	CH5_ADDR_DATA0.4977, %object
 175              		.size	CH5_ADDR_DATA0.4977, 8
 176              	CH5_ADDR_DATA0.4977:
 177 0008 01       		.byte	1
 178 0009 00       		.byte	0
 179 000a 00       		.byte	0
 180 000b 00       		.byte	0
 181 000c 00       		.byte	0
 182 000d 48       		.byte	72
 183 000e 00       		.byte	0
 184 000f 40       		.byte	64
 185              		.align	2
 186              		.type	CH6_ADDR_DATA0.4978, %object
 187              		.size	CH6_ADDR_DATA0.4978, 8
 188              	CH6_ADDR_DATA0.4978:
 189 0010 01       		.byte	1
 190 0011 00       		.byte	0
 191 0012 00       		.byte	0
 192 0013 00       		.byte	0
 193 0014 00       		.byte	0
 194 0015 48       		.byte	72
 195 0016 01       		.byte	1
 196 0017 40       		.byte	64
 197              		.align	2
 198              		.type	DMA_TD_START_CMD.4979, %object
 199              		.size	DMA_TD_START_CMD.4979, 5
 200              	DMA_TD_START_CMD.4979:
 201 0018 01       		.byte	1
 202 0019 00       		.byte	0
 203 001a 00       		.byte	0
 204 001b 00       		.byte	0
 205 001c 01       		.byte	1
 206 001d 000000   		.align	2
 207              		.type	CFG_TD_LIST0.4981, %object
 208              		.size	CFG_TD_LIST0.4981, 760
 209              	CFG_TD_LIST0.4981:
 210 0020 0800     		.short	8
 211 0022 02       		.byte	2
 212 0023 23       		.byte	35
 213 0024 0000     		.short	0
 214 0026 0876     		.short	30216
 215 0028 0800     		.short	8
 216 002a 03       		.byte	3
 217 002b 23       		.byte	35
 218 002c 0000     		.short	0
 219 002e 2876     		.short	30248
 220 0030 0800     		.short	8
 221 0032 04       		.byte	4
 222 0033 23       		.byte	35
 223 0034 0000     		.short	0
 224 0036 3076     		.short	30256
 225 0038 0500     		.short	5
 226 003a 05       		.byte	5
 227 003b 23       		.byte	35
 228 003c 0000     		.short	0
 229 003e 2070     		.short	28704
ARM GAS  C:\Users\Doug\AppData\Local\Temp\cciOAmpG.s 			page 8


 230 0040 0500     		.short	5
 231 0042 06       		.byte	6
 232 0043 23       		.byte	35
 233 0044 0000     		.short	0
 234 0046 6070     		.short	28768
 235 0048 0500     		.short	5
 236 004a FE       		.byte	-2
 237 004b 23       		.byte	35
 238 004c 0000     		.short	0
 239 004e 7070     		.short	28784
 240 0050 3000     		.short	48
 241 0052 FE       		.byte	-2
 242 0053 22       		.byte	34
 243 0054 0000     		.short	0
 244 0056 4051     		.short	20800
 245 0058 0700     		.short	7
 246 005a 09       		.byte	9
 247 005b 23       		.byte	35
 248 005c 0000     		.short	0
 249 005e 0052     		.short	20992
 250 0060 0700     		.short	7
 251 0062 0A       		.byte	10
 252 0063 23       		.byte	35
 253 0064 0000     		.short	0
 254 0066 0852     		.short	21000
 255 0068 0700     		.short	7
 256 006a 0B       		.byte	11
 257 006b 23       		.byte	35
 258 006c 0000     		.short	0
 259 006e 1052     		.short	21008
 260 0070 0700     		.short	7
 261 0072 0C       		.byte	12
 262 0073 23       		.byte	35
 263 0074 0000     		.short	0
 264 0076 1852     		.short	21016
 265 0078 0600     		.short	6
 266 007a 0D       		.byte	13
 267 007b 23       		.byte	35
 268 007c 0000     		.short	0
 269 007e 6052     		.short	21088
 270 0080 0700     		.short	7
 271 0082 0E       		.byte	14
 272 0083 23       		.byte	35
 273 0084 0000     		.short	0
 274 0086 7852     		.short	21112
 275 0088 0800     		.short	8
 276 008a 0F       		.byte	15
 277 008b 23       		.byte	35
 278 008c 0000     		.short	0
 279 008e C85A     		.short	23240
 280 0090 0C00     		.short	12
 281 0092 10       		.byte	16
 282 0093 23       		.byte	35
 283 0094 0000     		.short	0
 284 0096 004F     		.short	20224
 285 0098 0C00     		.short	12
 286 009a 11       		.byte	17
ARM GAS  C:\Users\Doug\AppData\Local\Temp\cciOAmpG.s 			page 9


 287 009b 23       		.byte	35
 288 009c 0000     		.short	0
 289 009e 0C4F     		.short	20236
 290 00a0 4000     		.short	64
 291 00a2 12       		.byte	18
 292 00a3 23       		.byte	35
 293 00a4 0000     		.short	0
 294 00a6 0064     		.short	25600
 295 00a8 2000     		.short	32
 296 00aa 13       		.byte	19
 297 00ab 23       		.byte	35
 298 00ac 0000     		.short	0
 299 00ae 7064     		.short	25712
 300 00b0 4000     		.short	64
 301 00b2 14       		.byte	20
 302 00b3 23       		.byte	35
 303 00b4 0000     		.short	0
 304 00b6 0065     		.short	25856
 305 00b8 2000     		.short	32
 306 00ba FE       		.byte	-2
 307 00bb 23       		.byte	35
 308 00bc 0000     		.short	0
 309 00be 7065     		.short	25968
 310 00c0 0800     		.short	8
 311 00c2 16       		.byte	22
 312 00c3 23       		.byte	35
 313 00c4 0000     		.short	0
 314 00c6 0051     		.short	20736
 315 00c8 8000     		.short	128
 316 00ca 17       		.byte	23
 317 00cb 23       		.byte	35
 318 00cc 0000     		.short	0
 319 00ce 0000     		.short	0
 320 00d0 8000     		.short	128
 321 00d2 18       		.byte	24
 322 00d3 23       		.byte	35
 323 00d4 0000     		.short	0
 324 00d6 8000     		.short	128
 325 00d8 8000     		.short	128
 326 00da 19       		.byte	25
 327 00db 23       		.byte	35
 328 00dc 0000     		.short	0
 329 00de 0002     		.short	512
 330 00e0 8000     		.short	128
 331 00e2 1A       		.byte	26
 332 00e3 23       		.byte	35
 333 00e4 0000     		.short	0
 334 00e6 8002     		.short	640
 335 00e8 8000     		.short	128
 336 00ea 1B       		.byte	27
 337 00eb 23       		.byte	35
 338 00ec 0000     		.short	0
 339 00ee 0004     		.short	1024
 340 00f0 8000     		.short	128
 341 00f2 1C       		.byte	28
 342 00f3 23       		.byte	35
 343 00f4 0000     		.short	0
ARM GAS  C:\Users\Doug\AppData\Local\Temp\cciOAmpG.s 			page 10


 344 00f6 8004     		.short	1152
 345 00f8 8000     		.short	128
 346 00fa 1D       		.byte	29
 347 00fb 23       		.byte	35
 348 00fc 0000     		.short	0
 349 00fe 0006     		.short	1536
 350 0100 8000     		.short	128
 351 0102 1E       		.byte	30
 352 0103 23       		.byte	35
 353 0104 0000     		.short	0
 354 0106 8006     		.short	1664
 355 0108 8000     		.short	128
 356 010a 1F       		.byte	31
 357 010b 23       		.byte	35
 358 010c 0000     		.short	0
 359 010e 0008     		.short	2048
 360 0110 8000     		.short	128
 361 0112 20       		.byte	32
 362 0113 23       		.byte	35
 363 0114 0000     		.short	0
 364 0116 8008     		.short	2176
 365 0118 8000     		.short	128
 366 011a 21       		.byte	33
 367 011b 23       		.byte	35
 368 011c 0000     		.short	0
 369 011e 000A     		.short	2560
 370 0120 8000     		.short	128
 371 0122 22       		.byte	34
 372 0123 23       		.byte	35
 373 0124 0000     		.short	0
 374 0126 800A     		.short	2688
 375 0128 8000     		.short	128
 376 012a 23       		.byte	35
 377 012b 23       		.byte	35
 378 012c 0000     		.short	0
 379 012e 000C     		.short	3072
 380 0130 8000     		.short	128
 381 0132 24       		.byte	36
 382 0133 23       		.byte	35
 383 0134 0000     		.short	0
 384 0136 800C     		.short	3200
 385 0138 8000     		.short	128
 386 013a 25       		.byte	37
 387 013b 23       		.byte	35
 388 013c 0000     		.short	0
 389 013e 000E     		.short	3584
 390 0140 8000     		.short	128
 391 0142 26       		.byte	38
 392 0143 23       		.byte	35
 393 0144 0000     		.short	0
 394 0146 800E     		.short	3712
 395 0148 8000     		.short	128
 396 014a 27       		.byte	39
 397 014b 23       		.byte	35
 398 014c 0000     		.short	0
 399 014e 0014     		.short	5120
 400 0150 8000     		.short	128
ARM GAS  C:\Users\Doug\AppData\Local\Temp\cciOAmpG.s 			page 11


 401 0152 28       		.byte	40
 402 0153 23       		.byte	35
 403 0154 0000     		.short	0
 404 0156 8014     		.short	5248
 405 0158 8000     		.short	128
 406 015a 29       		.byte	41
 407 015b 23       		.byte	35
 408 015c 0000     		.short	0
 409 015e 0016     		.short	5632
 410 0160 8000     		.short	128
 411 0162 2A       		.byte	42
 412 0163 23       		.byte	35
 413 0164 0000     		.short	0
 414 0166 8016     		.short	5760
 415 0168 8000     		.short	128
 416 016a 2B       		.byte	43
 417 016b 23       		.byte	35
 418 016c 0000     		.short	0
 419 016e 0018     		.short	6144
 420 0170 8000     		.short	128
 421 0172 2C       		.byte	44
 422 0173 23       		.byte	35
 423 0174 0000     		.short	0
 424 0176 8018     		.short	6272
 425 0178 8000     		.short	128
 426 017a 2D       		.byte	45
 427 017b 23       		.byte	35
 428 017c 0000     		.short	0
 429 017e 001A     		.short	6656
 430 0180 8000     		.short	128
 431 0182 2E       		.byte	46
 432 0183 23       		.byte	35
 433 0184 0000     		.short	0
 434 0186 801A     		.short	6784
 435 0188 1000     		.short	16
 436 018a 2F       		.byte	47
 437 018b 23       		.byte	35
 438 018c 0000     		.short	0
 439 018e 1050     		.short	20496
 440 0190 1000     		.short	16
 441 0192 30       		.byte	48
 442 0193 23       		.byte	35
 443 0194 0000     		.short	0
 444 0196 0050     		.short	20480
 445 0198 8000     		.short	128
 446 019a 31       		.byte	49
 447 019b 23       		.byte	35
 448 019c 0000     		.short	0
 449 019e 004D     		.short	19712
 450 01a0 8000     		.short	128
 451 01a2 32       		.byte	50
 452 01a3 23       		.byte	35
 453 01a4 0000     		.short	0
 454 01a6 804D     		.short	19840
 455 01a8 8000     		.short	128
 456 01aa 33       		.byte	51
 457 01ab 23       		.byte	35
ARM GAS  C:\Users\Doug\AppData\Local\Temp\cciOAmpG.s 			page 12


 458 01ac 0000     		.short	0
 459 01ae 004C     		.short	19456
 460 01b0 8000     		.short	128
 461 01b2 34       		.byte	52
 462 01b3 23       		.byte	35
 463 01b4 0000     		.short	0
 464 01b6 804C     		.short	19584
 465 01b8 8000     		.short	128
 466 01ba 35       		.byte	53
 467 01bb 23       		.byte	35
 468 01bc 0000     		.short	0
 469 01be 0047     		.short	18176
 470 01c0 8000     		.short	128
 471 01c2 36       		.byte	54
 472 01c3 23       		.byte	35
 473 01c4 0000     		.short	0
 474 01c6 8047     		.short	18304
 475 01c8 8000     		.short	128
 476 01ca 37       		.byte	55
 477 01cb 23       		.byte	35
 478 01cc 0000     		.short	0
 479 01ce 0046     		.short	17920
 480 01d0 8000     		.short	128
 481 01d2 38       		.byte	56
 482 01d3 23       		.byte	35
 483 01d4 0000     		.short	0
 484 01d6 8046     		.short	18048
 485 01d8 8000     		.short	128
 486 01da 39       		.byte	57
 487 01db 23       		.byte	35
 488 01dc 0000     		.short	0
 489 01de 0045     		.short	17664
 490 01e0 8000     		.short	128
 491 01e2 3A       		.byte	58
 492 01e3 23       		.byte	35
 493 01e4 0000     		.short	0
 494 01e6 8045     		.short	17792
 495 01e8 8000     		.short	128
 496 01ea 3B       		.byte	59
 497 01eb 23       		.byte	35
 498 01ec 0000     		.short	0
 499 01ee 0044     		.short	17408
 500 01f0 8000     		.short	128
 501 01f2 3C       		.byte	60
 502 01f3 23       		.byte	35
 503 01f4 0000     		.short	0
 504 01f6 8044     		.short	17536
 505 01f8 8000     		.short	128
 506 01fa 3D       		.byte	61
 507 01fb 23       		.byte	35
 508 01fc 0000     		.short	0
 509 01fe 001B     		.short	6912
 510 0200 8000     		.short	128
 511 0202 3E       		.byte	62
 512 0203 23       		.byte	35
 513 0204 0000     		.short	0
 514 0206 801B     		.short	7040
ARM GAS  C:\Users\Doug\AppData\Local\Temp\cciOAmpG.s 			page 13


 515 0208 8000     		.short	128
 516 020a 3F       		.byte	63
 517 020b 23       		.byte	35
 518 020c 0000     		.short	0
 519 020e 0015     		.short	5376
 520 0210 8000     		.short	128
 521 0212 40       		.byte	64
 522 0213 23       		.byte	35
 523 0214 0000     		.short	0
 524 0216 8015     		.short	5504
 525 0218 8000     		.short	128
 526 021a 41       		.byte	65
 527 021b 23       		.byte	35
 528 021c 0000     		.short	0
 529 021e 0019     		.short	6400
 530 0220 8000     		.short	128
 531 0222 42       		.byte	66
 532 0223 23       		.byte	35
 533 0224 0000     		.short	0
 534 0226 8019     		.short	6528
 535 0228 8000     		.short	128
 536 022a 43       		.byte	67
 537 022b 23       		.byte	35
 538 022c 0000     		.short	0
 539 022e 0017     		.short	5888
 540 0230 8000     		.short	128
 541 0232 44       		.byte	68
 542 0233 23       		.byte	35
 543 0234 0000     		.short	0
 544 0236 8017     		.short	6016
 545 0238 8000     		.short	128
 546 023a 45       		.byte	69
 547 023b 23       		.byte	35
 548 023c 0000     		.short	0
 549 023e 0009     		.short	2304
 550 0240 8000     		.short	128
 551 0242 46       		.byte	70
 552 0243 23       		.byte	35
 553 0244 0000     		.short	0
 554 0246 8009     		.short	2432
 555 0248 8000     		.short	128
 556 024a 47       		.byte	71
 557 024b 23       		.byte	35
 558 024c 0000     		.short	0
 559 024e 0007     		.short	1792
 560 0250 8000     		.short	128
 561 0252 48       		.byte	72
 562 0253 23       		.byte	35
 563 0254 0000     		.short	0
 564 0256 8007     		.short	1920
 565 0258 8000     		.short	128
 566 025a 49       		.byte	73
 567 025b 23       		.byte	35
 568 025c 0000     		.short	0
 569 025e 000B     		.short	2816
 570 0260 8000     		.short	128
 571 0262 4A       		.byte	74
ARM GAS  C:\Users\Doug\AppData\Local\Temp\cciOAmpG.s 			page 14


 572 0263 23       		.byte	35
 573 0264 0000     		.short	0
 574 0266 800B     		.short	2944
 575 0268 8000     		.short	128
 576 026a 4B       		.byte	75
 577 026b 23       		.byte	35
 578 026c 0000     		.short	0
 579 026e 0005     		.short	1280
 580 0270 8000     		.short	128
 581 0272 4C       		.byte	76
 582 0273 23       		.byte	35
 583 0274 0000     		.short	0
 584 0276 8005     		.short	1408
 585 0278 8000     		.short	128
 586 027a 4D       		.byte	77
 587 027b 23       		.byte	35
 588 027c 0000     		.short	0
 589 027e 000D     		.short	3328
 590 0280 8000     		.short	128
 591 0282 4E       		.byte	78
 592 0283 23       		.byte	35
 593 0284 0000     		.short	0
 594 0286 800D     		.short	3456
 595 0288 8000     		.short	128
 596 028a 4F       		.byte	79
 597 028b 23       		.byte	35
 598 028c 0000     		.short	0
 599 028e 0003     		.short	768
 600 0290 8000     		.short	128
 601 0292 50       		.byte	80
 602 0293 23       		.byte	35
 603 0294 0000     		.short	0
 604 0296 8003     		.short	896
 605 0298 8000     		.short	128
 606 029a 51       		.byte	81
 607 029b 23       		.byte	35
 608 029c 0000     		.short	0
 609 029e 000F     		.short	3840
 610 02a0 8000     		.short	128
 611 02a2 52       		.byte	82
 612 02a3 23       		.byte	35
 613 02a4 0000     		.short	0
 614 02a6 800F     		.short	3968
 615 02a8 8000     		.short	128
 616 02aa 53       		.byte	83
 617 02ab 23       		.byte	35
 618 02ac 0000     		.short	0
 619 02ae 0001     		.short	256
 620 02b0 8000     		.short	128
 621 02b2 54       		.byte	84
 622 02b3 23       		.byte	35
 623 02b4 0000     		.short	0
 624 02b6 8001     		.short	384
 625 02b8 8000     		.short	128
 626 02ba 55       		.byte	85
 627 02bb 23       		.byte	35
 628 02bc 0000     		.short	0
ARM GAS  C:\Users\Doug\AppData\Local\Temp\cciOAmpG.s 			page 15


 629 02be 0049     		.short	18688
 630 02c0 8000     		.short	128
 631 02c2 56       		.byte	86
 632 02c3 23       		.byte	35
 633 02c4 0000     		.short	0
 634 02c6 8049     		.short	18816
 635 02c8 8000     		.short	128
 636 02ca 57       		.byte	87
 637 02cb 23       		.byte	35
 638 02cc 0000     		.short	0
 639 02ce 0048     		.short	18432
 640 02d0 8000     		.short	128
 641 02d2 58       		.byte	88
 642 02d3 23       		.byte	35
 643 02d4 0000     		.short	0
 644 02d6 8048     		.short	18560
 645 02d8 8000     		.short	128
 646 02da 59       		.byte	89
 647 02db 23       		.byte	35
 648 02dc 0000     		.short	0
 649 02de 0043     		.short	17152
 650 02e0 8000     		.short	128
 651 02e2 5A       		.byte	90
 652 02e3 23       		.byte	35
 653 02e4 0000     		.short	0
 654 02e6 8043     		.short	17280
 655 02e8 8000     		.short	128
 656 02ea 5B       		.byte	91
 657 02eb 23       		.byte	35
 658 02ec 0000     		.short	0
 659 02ee 0042     		.short	16896
 660 02f0 8000     		.short	128
 661 02f2 5C       		.byte	92
 662 02f3 23       		.byte	35
 663 02f4 0000     		.short	0
 664 02f6 8042     		.short	17024
 665 02f8 8000     		.short	128
 666 02fa 5D       		.byte	93
 667 02fb 23       		.byte	35
 668 02fc 0000     		.short	0
 669 02fe 0041     		.short	16640
 670 0300 8000     		.short	128
 671 0302 5E       		.byte	94
 672 0303 23       		.byte	35
 673 0304 0000     		.short	0
 674 0306 8041     		.short	16768
 675 0308 8000     		.short	128
 676 030a 5F       		.byte	95
 677 030b 23       		.byte	35
 678 030c 0000     		.short	0
 679 030e 0040     		.short	16384
 680 0310 8000     		.short	128
 681 0312 FE       		.byte	-2
 682 0313 23       		.byte	35
 683 0314 0000     		.short	0
 684 0316 8040     		.short	16512
 685              		.section	.text.cfg_dma_init,"ax",%progbits
ARM GAS  C:\Users\Doug\AppData\Local\Temp\cciOAmpG.s 			page 16


 686              		.align	2
 687              		.thumb
 688              		.thumb_func
 689              		.type	cfg_dma_init, %function
 690              	cfg_dma_init:
 691              	.LFB4:
 171:Generated_Source\PSoC5/cyfitter_cfg.c **** #endif /* CY_CFG_CLOCK_STARTUP_ERROR_CALLBACK */
 172:Generated_Source\PSoC5/cyfitter_cfg.c **** }
 173:Generated_Source\PSoC5/cyfitter_cfg.c **** #endif
 174:Generated_Source\PSoC5/cyfitter_cfg.c **** 
 175:Generated_Source\PSoC5/cyfitter_cfg.c **** /* IOPORT_0 Address: CYDEV_PRTDSI_PRT0_BASE Size (bytes): 7 */
 176:Generated_Source\PSoC5/cyfitter_cfg.c **** #define BS_IOPORT_0_VAL ((const uint8 CYFAR *)0x48000000u)
 177:Generated_Source\PSoC5/cyfitter_cfg.c **** 
 178:Generated_Source\PSoC5/cyfitter_cfg.c **** /* IOPORT_1 Address: CYDEV_PRTDSI_PRT1_BASE Size (bytes): 7 */
 179:Generated_Source\PSoC5/cyfitter_cfg.c **** #define BS_IOPORT_1_VAL ((const uint8 CYFAR *)0x48000008u)
 180:Generated_Source\PSoC5/cyfitter_cfg.c **** 
 181:Generated_Source\PSoC5/cyfitter_cfg.c **** /* IOPORT_2 Address: CYDEV_PRTDSI_PRT2_BASE Size (bytes): 7 */
 182:Generated_Source\PSoC5/cyfitter_cfg.c **** #define BS_IOPORT_2_VAL ((const uint8 CYFAR *)0x48000010u)
 183:Generated_Source\PSoC5/cyfitter_cfg.c **** 
 184:Generated_Source\PSoC5/cyfitter_cfg.c **** /* IOPORT_3 Address: CYDEV_PRTDSI_PRT3_BASE Size (bytes): 7 */
 185:Generated_Source\PSoC5/cyfitter_cfg.c **** #define BS_IOPORT_3_VAL ((const uint8 CYFAR *)0x48000018u)
 186:Generated_Source\PSoC5/cyfitter_cfg.c **** 
 187:Generated_Source\PSoC5/cyfitter_cfg.c **** /* IOPORT_7 Address: CYDEV_PRTDSI_PRT12_BASE Size (bytes): 6 */
 188:Generated_Source\PSoC5/cyfitter_cfg.c **** #define BS_IOPORT_7_VAL ((const uint8 CYFAR *)0x48000020u)
 189:Generated_Source\PSoC5/cyfitter_cfg.c **** 
 190:Generated_Source\PSoC5/cyfitter_cfg.c **** /* IOPORT_8 Address: CYDEV_PRTDSI_PRT15_BASE Size (bytes): 7 */
 191:Generated_Source\PSoC5/cyfitter_cfg.c **** #define BS_IOPORT_8_VAL ((const uint8 CYFAR *)0x48000028u)
 192:Generated_Source\PSoC5/cyfitter_cfg.c **** 
 193:Generated_Source\PSoC5/cyfitter_cfg.c **** /* IDMUX_IRQ Address: CYREG_IDMUX_IRQ_CTL0 Size (bytes): 8 */
 194:Generated_Source\PSoC5/cyfitter_cfg.c **** #define BS_IDMUX_IRQ_VAL ((const uint8 CYFAR *)0x48000030u)
 195:Generated_Source\PSoC5/cyfitter_cfg.c **** 
 196:Generated_Source\PSoC5/cyfitter_cfg.c **** /* CMP1 Address: CYREG_CMP1_SW0 Size (bytes): 8 */
 197:Generated_Source\PSoC5/cyfitter_cfg.c **** #define BS_CMP1_VAL ((const uint8 CYFAR *)0x48000038u)
 198:Generated_Source\PSoC5/cyfitter_cfg.c **** 
 199:Generated_Source\PSoC5/cyfitter_cfg.c **** /* TMR0 Address: CYREG_TMR0_CFG0 Size (bytes): 12 */
 200:Generated_Source\PSoC5/cyfitter_cfg.c **** #define BS_TMR0_VAL ((const uint8 CYFAR *)0x48000040u)
 201:Generated_Source\PSoC5/cyfitter_cfg.c **** 
 202:Generated_Source\PSoC5/cyfitter_cfg.c **** /* TMR1 Address: CYREG_TMR1_CFG0 Size (bytes): 12 */
 203:Generated_Source\PSoC5/cyfitter_cfg.c **** #define BS_TMR1_VAL ((const uint8 CYFAR *)0x4800004Cu)
 204:Generated_Source\PSoC5/cyfitter_cfg.c **** 
 205:Generated_Source\PSoC5/cyfitter_cfg.c **** /* UDB_1_5_0_CONFIG Address: CYDEV_UCFG_B0_P0_U0_BASE Size (bytes): 128 */
 206:Generated_Source\PSoC5/cyfitter_cfg.c **** #define BS_UDB_1_5_0_CONFIG_VAL ((const uint8 CYFAR *)0x48000058u)
 207:Generated_Source\PSoC5/cyfitter_cfg.c **** 
 208:Generated_Source\PSoC5/cyfitter_cfg.c **** /* UDB_1_5_1_CONFIG Address: CYDEV_UCFG_B0_P0_U1_BASE Size (bytes): 128 */
 209:Generated_Source\PSoC5/cyfitter_cfg.c **** #define BS_UDB_1_5_1_CONFIG_VAL ((const uint8 CYFAR *)0x480000D8u)
 210:Generated_Source\PSoC5/cyfitter_cfg.c **** 
 211:Generated_Source\PSoC5/cyfitter_cfg.c **** /* UDB_1_4_1_CONFIG Address: CYDEV_UCFG_B0_P1_U0_BASE Size (bytes): 128 */
 212:Generated_Source\PSoC5/cyfitter_cfg.c **** #define BS_UDB_1_4_1_CONFIG_VAL ((const uint8 CYFAR *)0x48000158u)
 213:Generated_Source\PSoC5/cyfitter_cfg.c **** 
 214:Generated_Source\PSoC5/cyfitter_cfg.c **** /* UDB_1_4_0_CONFIG Address: CYDEV_UCFG_B0_P1_U1_BASE Size (bytes): 128 */
 215:Generated_Source\PSoC5/cyfitter_cfg.c **** #define BS_UDB_1_4_0_CONFIG_VAL ((const uint8 CYFAR *)0x480001D8u)
 216:Generated_Source\PSoC5/cyfitter_cfg.c **** 
 217:Generated_Source\PSoC5/cyfitter_cfg.c **** /* UDB_1_3_0_CONFIG Address: CYDEV_UCFG_B0_P2_U0_BASE Size (bytes): 128 */
 218:Generated_Source\PSoC5/cyfitter_cfg.c **** #define BS_UDB_1_3_0_CONFIG_VAL ((const uint8 CYFAR *)0x48000258u)
 219:Generated_Source\PSoC5/cyfitter_cfg.c **** 
 220:Generated_Source\PSoC5/cyfitter_cfg.c **** /* UDB_1_3_1_CONFIG Address: CYDEV_UCFG_B0_P2_U1_BASE Size (bytes): 128 */
 221:Generated_Source\PSoC5/cyfitter_cfg.c **** #define BS_UDB_1_3_1_CONFIG_VAL ((const uint8 CYFAR *)0x480002D8u)
ARM GAS  C:\Users\Doug\AppData\Local\Temp\cciOAmpG.s 			page 17


 222:Generated_Source\PSoC5/cyfitter_cfg.c **** 
 223:Generated_Source\PSoC5/cyfitter_cfg.c **** /* UDB_1_2_1_CONFIG Address: CYDEV_UCFG_B0_P3_U0_BASE Size (bytes): 128 */
 224:Generated_Source\PSoC5/cyfitter_cfg.c **** #define BS_UDB_1_2_1_CONFIG_VAL ((const uint8 CYFAR *)0x48000358u)
 225:Generated_Source\PSoC5/cyfitter_cfg.c **** 
 226:Generated_Source\PSoC5/cyfitter_cfg.c **** /* UDB_1_2_0_CONFIG Address: CYDEV_UCFG_B0_P3_U1_BASE Size (bytes): 128 */
 227:Generated_Source\PSoC5/cyfitter_cfg.c **** #define BS_UDB_1_2_0_CONFIG_VAL ((const uint8 CYFAR *)0x480003D8u)
 228:Generated_Source\PSoC5/cyfitter_cfg.c **** 
 229:Generated_Source\PSoC5/cyfitter_cfg.c **** /* UDB_0_2_1_CONFIG Address: CYDEV_UCFG_B0_P4_U0_BASE Size (bytes): 128 */
 230:Generated_Source\PSoC5/cyfitter_cfg.c **** #define BS_UDB_0_2_1_CONFIG_VAL ((const uint8 CYFAR *)0x48000458u)
 231:Generated_Source\PSoC5/cyfitter_cfg.c **** 
 232:Generated_Source\PSoC5/cyfitter_cfg.c **** /* UDB_0_2_0_CONFIG Address: CYDEV_UCFG_B0_P4_U1_BASE Size (bytes): 128 */
 233:Generated_Source\PSoC5/cyfitter_cfg.c **** #define BS_UDB_0_2_0_CONFIG_VAL ((const uint8 CYFAR *)0x480004D8u)
 234:Generated_Source\PSoC5/cyfitter_cfg.c **** 
 235:Generated_Source\PSoC5/cyfitter_cfg.c **** /* UDB_0_3_0_CONFIG Address: CYDEV_UCFG_B0_P5_U0_BASE Size (bytes): 128 */
 236:Generated_Source\PSoC5/cyfitter_cfg.c **** #define BS_UDB_0_3_0_CONFIG_VAL ((const uint8 CYFAR *)0x48000558u)
 237:Generated_Source\PSoC5/cyfitter_cfg.c **** 
 238:Generated_Source\PSoC5/cyfitter_cfg.c **** /* UDB_0_3_1_CONFIG Address: CYDEV_UCFG_B0_P5_U1_BASE Size (bytes): 128 */
 239:Generated_Source\PSoC5/cyfitter_cfg.c **** #define BS_UDB_0_3_1_CONFIG_VAL ((const uint8 CYFAR *)0x480005D8u)
 240:Generated_Source\PSoC5/cyfitter_cfg.c **** 
 241:Generated_Source\PSoC5/cyfitter_cfg.c **** /* UDB_0_4_1_CONFIG Address: CYDEV_UCFG_B0_P6_U0_BASE Size (bytes): 128 */
 242:Generated_Source\PSoC5/cyfitter_cfg.c **** #define BS_UDB_0_4_1_CONFIG_VAL ((const uint8 CYFAR *)0x48000658u)
 243:Generated_Source\PSoC5/cyfitter_cfg.c **** 
 244:Generated_Source\PSoC5/cyfitter_cfg.c **** /* UDB_0_4_0_CONFIG Address: CYDEV_UCFG_B0_P6_U1_BASE Size (bytes): 128 */
 245:Generated_Source\PSoC5/cyfitter_cfg.c **** #define BS_UDB_0_4_0_CONFIG_VAL ((const uint8 CYFAR *)0x480006D8u)
 246:Generated_Source\PSoC5/cyfitter_cfg.c **** 
 247:Generated_Source\PSoC5/cyfitter_cfg.c **** /* UDB_0_5_0_CONFIG Address: CYDEV_UCFG_B0_P7_U0_BASE Size (bytes): 128 */
 248:Generated_Source\PSoC5/cyfitter_cfg.c **** #define BS_UDB_0_5_0_CONFIG_VAL ((const uint8 CYFAR *)0x48000758u)
 249:Generated_Source\PSoC5/cyfitter_cfg.c **** 
 250:Generated_Source\PSoC5/cyfitter_cfg.c **** /* UDB_0_5_1_CONFIG Address: CYDEV_UCFG_B0_P7_U1_BASE Size (bytes): 128 */
 251:Generated_Source\PSoC5/cyfitter_cfg.c **** #define BS_UDB_0_5_1_CONFIG_VAL ((const uint8 CYFAR *)0x480007D8u)
 252:Generated_Source\PSoC5/cyfitter_cfg.c **** 
 253:Generated_Source\PSoC5/cyfitter_cfg.c **** /* UDB_1_0_0_CONFIG Address: CYDEV_UCFG_B1_P2_U0_BASE Size (bytes): 128 */
 254:Generated_Source\PSoC5/cyfitter_cfg.c **** #define BS_UDB_1_0_0_CONFIG_VAL ((const uint8 CYFAR *)0x48000858u)
 255:Generated_Source\PSoC5/cyfitter_cfg.c **** 
 256:Generated_Source\PSoC5/cyfitter_cfg.c **** /* UDB_1_0_1_CONFIG Address: CYDEV_UCFG_B1_P2_U1_BASE Size (bytes): 128 */
 257:Generated_Source\PSoC5/cyfitter_cfg.c **** #define BS_UDB_1_0_1_CONFIG_VAL ((const uint8 CYFAR *)0x480008D8u)
 258:Generated_Source\PSoC5/cyfitter_cfg.c **** 
 259:Generated_Source\PSoC5/cyfitter_cfg.c **** /* UDB_1_1_1_CONFIG Address: CYDEV_UCFG_B1_P3_U0_BASE Size (bytes): 128 */
 260:Generated_Source\PSoC5/cyfitter_cfg.c **** #define BS_UDB_1_1_1_CONFIG_VAL ((const uint8 CYFAR *)0x48000958u)
 261:Generated_Source\PSoC5/cyfitter_cfg.c **** 
 262:Generated_Source\PSoC5/cyfitter_cfg.c **** /* UDB_1_1_0_CONFIG Address: CYDEV_UCFG_B1_P3_U1_BASE Size (bytes): 128 */
 263:Generated_Source\PSoC5/cyfitter_cfg.c **** #define BS_UDB_1_1_0_CONFIG_VAL ((const uint8 CYFAR *)0x480009D8u)
 264:Generated_Source\PSoC5/cyfitter_cfg.c **** 
 265:Generated_Source\PSoC5/cyfitter_cfg.c **** /* UDB_0_1_1_CONFIG Address: CYDEV_UCFG_B1_P4_U0_BASE Size (bytes): 128 */
 266:Generated_Source\PSoC5/cyfitter_cfg.c **** #define BS_UDB_0_1_1_CONFIG_VAL ((const uint8 CYFAR *)0x48000A58u)
 267:Generated_Source\PSoC5/cyfitter_cfg.c **** 
 268:Generated_Source\PSoC5/cyfitter_cfg.c **** /* UDB_0_1_0_CONFIG Address: CYDEV_UCFG_B1_P4_U1_BASE Size (bytes): 128 */
 269:Generated_Source\PSoC5/cyfitter_cfg.c **** #define BS_UDB_0_1_0_CONFIG_VAL ((const uint8 CYFAR *)0x48000AD8u)
 270:Generated_Source\PSoC5/cyfitter_cfg.c **** 
 271:Generated_Source\PSoC5/cyfitter_cfg.c **** /* UDB_0_0_0_CONFIG Address: CYDEV_UCFG_B1_P5_U0_BASE Size (bytes): 128 */
 272:Generated_Source\PSoC5/cyfitter_cfg.c **** #define BS_UDB_0_0_0_CONFIG_VAL ((const uint8 CYFAR *)0x48000B58u)
 273:Generated_Source\PSoC5/cyfitter_cfg.c **** 
 274:Generated_Source\PSoC5/cyfitter_cfg.c **** /* UDB_0_0_1_CONFIG Address: CYDEV_UCFG_B1_P5_U1_BASE Size (bytes): 128 */
 275:Generated_Source\PSoC5/cyfitter_cfg.c **** #define BS_UDB_0_0_1_CONFIG_VAL ((const uint8 CYFAR *)0x48000BD8u)
 276:Generated_Source\PSoC5/cyfitter_cfg.c **** 
 277:Generated_Source\PSoC5/cyfitter_cfg.c **** /* UWRK_B0_WRK_DP_BITS Address: CYDEV_UWRK_UWRK8_B0_BASE Size (bytes): 64 */
 278:Generated_Source\PSoC5/cyfitter_cfg.c **** #define BS_UWRK_B0_WRK_DP_BITS_VAL ((const uint8 CYFAR *)0x48000C58u)
ARM GAS  C:\Users\Doug\AppData\Local\Temp\cciOAmpG.s 			page 18


 279:Generated_Source\PSoC5/cyfitter_cfg.c **** 
 280:Generated_Source\PSoC5/cyfitter_cfg.c **** /* UWRK_B0_WRK_STATCTL_BITS Address: CYDEV_UWRK_UWRK8_B0_BASE + 0x00000070u Size (bytes): 32 */
 281:Generated_Source\PSoC5/cyfitter_cfg.c **** #define BS_UWRK_B0_WRK_STATCTL_BITS_VAL ((const uint8 CYFAR *)0x48000C98u)
 282:Generated_Source\PSoC5/cyfitter_cfg.c **** 
 283:Generated_Source\PSoC5/cyfitter_cfg.c **** /* UWRK_B1_WRK_DP_BITS Address: CYDEV_UWRK_UWRK8_B1_BASE Size (bytes): 64 */
 284:Generated_Source\PSoC5/cyfitter_cfg.c **** #define BS_UWRK_B1_WRK_DP_BITS_VAL ((const uint8 CYFAR *)0x48000CB8u)
 285:Generated_Source\PSoC5/cyfitter_cfg.c **** 
 286:Generated_Source\PSoC5/cyfitter_cfg.c **** /* UWRK_B1_WRK_STATCTL_BITS Address: CYDEV_UWRK_UWRK8_B1_BASE + 0x00000070u Size (bytes): 32 */
 287:Generated_Source\PSoC5/cyfitter_cfg.c **** #define BS_UWRK_B1_WRK_STATCTL_BITS_VAL ((const uint8 CYFAR *)0x48000CF8u)
 288:Generated_Source\PSoC5/cyfitter_cfg.c **** 
 289:Generated_Source\PSoC5/cyfitter_cfg.c **** /* UCFG_BCTL1 Address: CYREG_BCTL1_MDCLK_EN Size (bytes): 16 */
 290:Generated_Source\PSoC5/cyfitter_cfg.c **** #define BS_UCFG_BCTL1_VAL ((const uint8 CYFAR *)0x48000D18u)
 291:Generated_Source\PSoC5/cyfitter_cfg.c **** 
 292:Generated_Source\PSoC5/cyfitter_cfg.c **** /* UCFG_BCTL0 Address: CYREG_BCTL0_MDCLK_EN Size (bytes): 16 */
 293:Generated_Source\PSoC5/cyfitter_cfg.c **** #define BS_UCFG_BCTL0_VAL ((const uint8 CYFAR *)0x48000D28u)
 294:Generated_Source\PSoC5/cyfitter_cfg.c **** 
 295:Generated_Source\PSoC5/cyfitter_cfg.c **** /* DSISWITCH_0_0 Address: CYDEV_UCFG_DSI13_BASE Size (bytes): 128 */
 296:Generated_Source\PSoC5/cyfitter_cfg.c **** #define BS_DSISWITCH_0_0_VAL ((const uint8 CYFAR *)0x48000D38u)
 297:Generated_Source\PSoC5/cyfitter_cfg.c **** 
 298:Generated_Source\PSoC5/cyfitter_cfg.c **** /* DSI0_0_HV_ROUTING Address: CYDEV_UCFG_DSI13_BASE + 0x00000080u Size (bytes): 128 */
 299:Generated_Source\PSoC5/cyfitter_cfg.c **** #define BS_DSI0_0_HV_ROUTING_VAL ((const uint8 CYFAR *)0x48000DB8u)
 300:Generated_Source\PSoC5/cyfitter_cfg.c **** 
 301:Generated_Source\PSoC5/cyfitter_cfg.c **** /* DSISWITCH_0_1 Address: CYDEV_UCFG_DSI12_BASE Size (bytes): 128 */
 302:Generated_Source\PSoC5/cyfitter_cfg.c **** #define BS_DSISWITCH_0_1_VAL ((const uint8 CYFAR *)0x48000E38u)
 303:Generated_Source\PSoC5/cyfitter_cfg.c **** 
 304:Generated_Source\PSoC5/cyfitter_cfg.c **** /* DSI0_1_HV_ROUTING Address: CYDEV_UCFG_DSI12_BASE + 0x00000080u Size (bytes): 128 */
 305:Generated_Source\PSoC5/cyfitter_cfg.c **** #define BS_DSI0_1_HV_ROUTING_VAL ((const uint8 CYFAR *)0x48000EB8u)
 306:Generated_Source\PSoC5/cyfitter_cfg.c **** 
 307:Generated_Source\PSoC5/cyfitter_cfg.c **** /* DSISWITCH_0_2 Address: CYDEV_UCFG_DSI7_BASE Size (bytes): 128 */
 308:Generated_Source\PSoC5/cyfitter_cfg.c **** #define BS_DSISWITCH_0_2_VAL ((const uint8 CYFAR *)0x48000F38u)
 309:Generated_Source\PSoC5/cyfitter_cfg.c **** 
 310:Generated_Source\PSoC5/cyfitter_cfg.c **** /* DSI0_2_HV_ROUTING Address: CYDEV_UCFG_DSI7_BASE + 0x00000080u Size (bytes): 128 */
 311:Generated_Source\PSoC5/cyfitter_cfg.c **** #define BS_DSI0_2_HV_ROUTING_VAL ((const uint8 CYFAR *)0x48000FB8u)
 312:Generated_Source\PSoC5/cyfitter_cfg.c **** 
 313:Generated_Source\PSoC5/cyfitter_cfg.c **** /* DSISWITCH_0_3 Address: CYDEV_UCFG_DSI6_BASE Size (bytes): 128 */
 314:Generated_Source\PSoC5/cyfitter_cfg.c **** #define BS_DSISWITCH_0_3_VAL ((const uint8 CYFAR *)0x48001038u)
 315:Generated_Source\PSoC5/cyfitter_cfg.c **** 
 316:Generated_Source\PSoC5/cyfitter_cfg.c **** /* DSI0_3_HV_ROUTING Address: CYDEV_UCFG_DSI6_BASE + 0x00000080u Size (bytes): 128 */
 317:Generated_Source\PSoC5/cyfitter_cfg.c **** #define BS_DSI0_3_HV_ROUTING_VAL ((const uint8 CYFAR *)0x480010B8u)
 318:Generated_Source\PSoC5/cyfitter_cfg.c **** 
 319:Generated_Source\PSoC5/cyfitter_cfg.c **** /* DSISWITCH_0_4 Address: CYDEV_UCFG_DSI5_BASE Size (bytes): 128 */
 320:Generated_Source\PSoC5/cyfitter_cfg.c **** #define BS_DSISWITCH_0_4_VAL ((const uint8 CYFAR *)0x48001138u)
 321:Generated_Source\PSoC5/cyfitter_cfg.c **** 
 322:Generated_Source\PSoC5/cyfitter_cfg.c **** /* DSI0_4_HV_ROUTING Address: CYDEV_UCFG_DSI5_BASE + 0x00000080u Size (bytes): 128 */
 323:Generated_Source\PSoC5/cyfitter_cfg.c **** #define BS_DSI0_4_HV_ROUTING_VAL ((const uint8 CYFAR *)0x480011B8u)
 324:Generated_Source\PSoC5/cyfitter_cfg.c **** 
 325:Generated_Source\PSoC5/cyfitter_cfg.c **** /* DSISWITCH_0_5 Address: CYDEV_UCFG_DSI4_BASE Size (bytes): 128 */
 326:Generated_Source\PSoC5/cyfitter_cfg.c **** #define BS_DSISWITCH_0_5_VAL ((const uint8 CYFAR *)0x48001238u)
 327:Generated_Source\PSoC5/cyfitter_cfg.c **** 
 328:Generated_Source\PSoC5/cyfitter_cfg.c **** /* DSI0_5_HV_ROUTING Address: CYDEV_UCFG_DSI4_BASE + 0x00000080u Size (bytes): 128 */
 329:Generated_Source\PSoC5/cyfitter_cfg.c **** #define BS_DSI0_5_HV_ROUTING_VAL ((const uint8 CYFAR *)0x480012B8u)
 330:Generated_Source\PSoC5/cyfitter_cfg.c **** 
 331:Generated_Source\PSoC5/cyfitter_cfg.c **** /* UDBSWITCH_0_0 Address: CYDEV_UCFG_B1_P5_ROUTE_BASE Size (bytes): 128 */
 332:Generated_Source\PSoC5/cyfitter_cfg.c **** #define BS_UDBSWITCH_0_0_VAL ((const uint8 CYFAR *)0x48001338u)
 333:Generated_Source\PSoC5/cyfitter_cfg.c **** 
 334:Generated_Source\PSoC5/cyfitter_cfg.c **** /* UDB_1_0_HV_ROUTING Address: CYDEV_UCFG_B1_P5_ROUTE_BASE + 0x00000080u Size (bytes): 128 */
 335:Generated_Source\PSoC5/cyfitter_cfg.c **** #define BS_UDB_1_0_HV_ROUTING_VAL ((const uint8 CYFAR *)0x480013B8u)
ARM GAS  C:\Users\Doug\AppData\Local\Temp\cciOAmpG.s 			page 19


 336:Generated_Source\PSoC5/cyfitter_cfg.c **** 
 337:Generated_Source\PSoC5/cyfitter_cfg.c **** /* UDBSWITCH_1_0 Address: CYDEV_UCFG_B1_P2_ROUTE_BASE Size (bytes): 128 */
 338:Generated_Source\PSoC5/cyfitter_cfg.c **** #define BS_UDBSWITCH_1_0_VAL ((const uint8 CYFAR *)0x48001438u)
 339:Generated_Source\PSoC5/cyfitter_cfg.c **** 
 340:Generated_Source\PSoC5/cyfitter_cfg.c **** /* UDB_2_0_HV_ROUTING Address: CYDEV_UCFG_B1_P2_ROUTE_BASE + 0x00000080u Size (bytes): 128 */
 341:Generated_Source\PSoC5/cyfitter_cfg.c **** #define BS_UDB_2_0_HV_ROUTING_VAL ((const uint8 CYFAR *)0x480014B8u)
 342:Generated_Source\PSoC5/cyfitter_cfg.c **** 
 343:Generated_Source\PSoC5/cyfitter_cfg.c **** /* UDBSWITCH_0_1 Address: CYDEV_UCFG_B1_P4_ROUTE_BASE Size (bytes): 128 */
 344:Generated_Source\PSoC5/cyfitter_cfg.c **** #define BS_UDBSWITCH_0_1_VAL ((const uint8 CYFAR *)0x48001538u)
 345:Generated_Source\PSoC5/cyfitter_cfg.c **** 
 346:Generated_Source\PSoC5/cyfitter_cfg.c **** /* UDB_1_1_HV_ROUTING Address: CYDEV_UCFG_B1_P4_ROUTE_BASE + 0x00000080u Size (bytes): 128 */
 347:Generated_Source\PSoC5/cyfitter_cfg.c **** #define BS_UDB_1_1_HV_ROUTING_VAL ((const uint8 CYFAR *)0x480015B8u)
 348:Generated_Source\PSoC5/cyfitter_cfg.c **** 
 349:Generated_Source\PSoC5/cyfitter_cfg.c **** /* UDBSWITCH_1_1 Address: CYDEV_UCFG_B1_P3_ROUTE_BASE Size (bytes): 128 */
 350:Generated_Source\PSoC5/cyfitter_cfg.c **** #define BS_UDBSWITCH_1_1_VAL ((const uint8 CYFAR *)0x48001638u)
 351:Generated_Source\PSoC5/cyfitter_cfg.c **** 
 352:Generated_Source\PSoC5/cyfitter_cfg.c **** /* UDB_2_1_HV_ROUTING Address: CYDEV_UCFG_B1_P3_ROUTE_BASE + 0x00000080u Size (bytes): 128 */
 353:Generated_Source\PSoC5/cyfitter_cfg.c **** #define BS_UDB_2_1_HV_ROUTING_VAL ((const uint8 CYFAR *)0x480016B8u)
 354:Generated_Source\PSoC5/cyfitter_cfg.c **** 
 355:Generated_Source\PSoC5/cyfitter_cfg.c **** /* UDBSWITCH_0_2 Address: CYDEV_UCFG_B0_P4_ROUTE_BASE Size (bytes): 128 */
 356:Generated_Source\PSoC5/cyfitter_cfg.c **** #define BS_UDBSWITCH_0_2_VAL ((const uint8 CYFAR *)0x48001738u)
 357:Generated_Source\PSoC5/cyfitter_cfg.c **** 
 358:Generated_Source\PSoC5/cyfitter_cfg.c **** /* UDB_1_2_HV_ROUTING Address: CYDEV_UCFG_B0_P4_ROUTE_BASE + 0x00000080u Size (bytes): 128 */
 359:Generated_Source\PSoC5/cyfitter_cfg.c **** #define BS_UDB_1_2_HV_ROUTING_VAL ((const uint8 CYFAR *)0x480017B8u)
 360:Generated_Source\PSoC5/cyfitter_cfg.c **** 
 361:Generated_Source\PSoC5/cyfitter_cfg.c **** /* UDBSWITCH_1_2 Address: CYDEV_UCFG_B0_P3_ROUTE_BASE Size (bytes): 128 */
 362:Generated_Source\PSoC5/cyfitter_cfg.c **** #define BS_UDBSWITCH_1_2_VAL ((const uint8 CYFAR *)0x48001838u)
 363:Generated_Source\PSoC5/cyfitter_cfg.c **** 
 364:Generated_Source\PSoC5/cyfitter_cfg.c **** /* UDB_2_2_HV_ROUTING Address: CYDEV_UCFG_B0_P3_ROUTE_BASE + 0x00000080u Size (bytes): 128 */
 365:Generated_Source\PSoC5/cyfitter_cfg.c **** #define BS_UDB_2_2_HV_ROUTING_VAL ((const uint8 CYFAR *)0x480018B8u)
 366:Generated_Source\PSoC5/cyfitter_cfg.c **** 
 367:Generated_Source\PSoC5/cyfitter_cfg.c **** /* UDBSWITCH_0_3 Address: CYDEV_UCFG_B0_P5_ROUTE_BASE Size (bytes): 128 */
 368:Generated_Source\PSoC5/cyfitter_cfg.c **** #define BS_UDBSWITCH_0_3_VAL ((const uint8 CYFAR *)0x48001938u)
 369:Generated_Source\PSoC5/cyfitter_cfg.c **** 
 370:Generated_Source\PSoC5/cyfitter_cfg.c **** /* UDB_1_3_HV_ROUTING Address: CYDEV_UCFG_B0_P5_ROUTE_BASE + 0x00000080u Size (bytes): 128 */
 371:Generated_Source\PSoC5/cyfitter_cfg.c **** #define BS_UDB_1_3_HV_ROUTING_VAL ((const uint8 CYFAR *)0x480019B8u)
 372:Generated_Source\PSoC5/cyfitter_cfg.c **** 
 373:Generated_Source\PSoC5/cyfitter_cfg.c **** /* UDBSWITCH_1_3 Address: CYDEV_UCFG_B0_P2_ROUTE_BASE Size (bytes): 128 */
 374:Generated_Source\PSoC5/cyfitter_cfg.c **** #define BS_UDBSWITCH_1_3_VAL ((const uint8 CYFAR *)0x48001A38u)
 375:Generated_Source\PSoC5/cyfitter_cfg.c **** 
 376:Generated_Source\PSoC5/cyfitter_cfg.c **** /* UDB_2_3_HV_ROUTING Address: CYDEV_UCFG_B0_P2_ROUTE_BASE + 0x00000080u Size (bytes): 128 */
 377:Generated_Source\PSoC5/cyfitter_cfg.c **** #define BS_UDB_2_3_HV_ROUTING_VAL ((const uint8 CYFAR *)0x48001AB8u)
 378:Generated_Source\PSoC5/cyfitter_cfg.c **** 
 379:Generated_Source\PSoC5/cyfitter_cfg.c **** /* UDBSWITCH_0_4 Address: CYDEV_UCFG_B0_P6_ROUTE_BASE Size (bytes): 128 */
 380:Generated_Source\PSoC5/cyfitter_cfg.c **** #define BS_UDBSWITCH_0_4_VAL ((const uint8 CYFAR *)0x48001B38u)
 381:Generated_Source\PSoC5/cyfitter_cfg.c **** 
 382:Generated_Source\PSoC5/cyfitter_cfg.c **** /* UDB_1_4_HV_ROUTING Address: CYDEV_UCFG_B0_P6_ROUTE_BASE + 0x00000080u Size (bytes): 128 */
 383:Generated_Source\PSoC5/cyfitter_cfg.c **** #define BS_UDB_1_4_HV_ROUTING_VAL ((const uint8 CYFAR *)0x48001BB8u)
 384:Generated_Source\PSoC5/cyfitter_cfg.c **** 
 385:Generated_Source\PSoC5/cyfitter_cfg.c **** /* UDBSWITCH_1_4 Address: CYDEV_UCFG_B0_P1_ROUTE_BASE Size (bytes): 128 */
 386:Generated_Source\PSoC5/cyfitter_cfg.c **** #define BS_UDBSWITCH_1_4_VAL ((const uint8 CYFAR *)0x48001C38u)
 387:Generated_Source\PSoC5/cyfitter_cfg.c **** 
 388:Generated_Source\PSoC5/cyfitter_cfg.c **** /* UDB_2_4_HV_ROUTING Address: CYDEV_UCFG_B0_P1_ROUTE_BASE + 0x00000080u Size (bytes): 128 */
 389:Generated_Source\PSoC5/cyfitter_cfg.c **** #define BS_UDB_2_4_HV_ROUTING_VAL ((const uint8 CYFAR *)0x48001CB8u)
 390:Generated_Source\PSoC5/cyfitter_cfg.c **** 
 391:Generated_Source\PSoC5/cyfitter_cfg.c **** /* UDBSWITCH_0_5 Address: CYDEV_UCFG_B0_P7_ROUTE_BASE Size (bytes): 128 */
 392:Generated_Source\PSoC5/cyfitter_cfg.c **** #define BS_UDBSWITCH_0_5_VAL ((const uint8 CYFAR *)0x48001D38u)
ARM GAS  C:\Users\Doug\AppData\Local\Temp\cciOAmpG.s 			page 20


 393:Generated_Source\PSoC5/cyfitter_cfg.c **** 
 394:Generated_Source\PSoC5/cyfitter_cfg.c **** /* UDB_1_5_HV_ROUTING Address: CYDEV_UCFG_B0_P7_ROUTE_BASE + 0x00000080u Size (bytes): 128 */
 395:Generated_Source\PSoC5/cyfitter_cfg.c **** #define BS_UDB_1_5_HV_ROUTING_VAL ((const uint8 CYFAR *)0x48001DB8u)
 396:Generated_Source\PSoC5/cyfitter_cfg.c **** 
 397:Generated_Source\PSoC5/cyfitter_cfg.c **** /* UDBSWITCH_1_5 Address: CYDEV_UCFG_B0_P0_ROUTE_BASE Size (bytes): 128 */
 398:Generated_Source\PSoC5/cyfitter_cfg.c **** #define BS_UDBSWITCH_1_5_VAL ((const uint8 CYFAR *)0x48001E38u)
 399:Generated_Source\PSoC5/cyfitter_cfg.c **** 
 400:Generated_Source\PSoC5/cyfitter_cfg.c **** /* UDB_2_5_HV_ROUTING Address: CYDEV_UCFG_B0_P0_ROUTE_BASE + 0x00000080u Size (bytes): 128 */
 401:Generated_Source\PSoC5/cyfitter_cfg.c **** #define BS_UDB_2_5_HV_ROUTING_VAL ((const uint8 CYFAR *)0x48001EB8u)
 402:Generated_Source\PSoC5/cyfitter_cfg.c **** 
 403:Generated_Source\PSoC5/cyfitter_cfg.c **** /* DSISWITCH_1_0 Address: CYDEV_UCFG_DSI9_BASE Size (bytes): 128 */
 404:Generated_Source\PSoC5/cyfitter_cfg.c **** #define BS_DSISWITCH_1_0_VAL ((const uint8 CYFAR *)0x48001F38u)
 405:Generated_Source\PSoC5/cyfitter_cfg.c **** 
 406:Generated_Source\PSoC5/cyfitter_cfg.c **** /* DSI3_0_HV_ROUTING Address: CYDEV_UCFG_DSI9_BASE + 0x00000080u Size (bytes): 128 */
 407:Generated_Source\PSoC5/cyfitter_cfg.c **** #define BS_DSI3_0_HV_ROUTING_VAL ((const uint8 CYFAR *)0x48001FB8u)
 408:Generated_Source\PSoC5/cyfitter_cfg.c **** 
 409:Generated_Source\PSoC5/cyfitter_cfg.c **** /* DSISWITCH_1_1 Address: CYDEV_UCFG_DSI8_BASE Size (bytes): 128 */
 410:Generated_Source\PSoC5/cyfitter_cfg.c **** #define BS_DSISWITCH_1_1_VAL ((const uint8 CYFAR *)0x48002038u)
 411:Generated_Source\PSoC5/cyfitter_cfg.c **** 
 412:Generated_Source\PSoC5/cyfitter_cfg.c **** /* DSI3_1_HV_ROUTING Address: CYDEV_UCFG_DSI8_BASE + 0x00000080u Size (bytes): 128 */
 413:Generated_Source\PSoC5/cyfitter_cfg.c **** #define BS_DSI3_1_HV_ROUTING_VAL ((const uint8 CYFAR *)0x480020B8u)
 414:Generated_Source\PSoC5/cyfitter_cfg.c **** 
 415:Generated_Source\PSoC5/cyfitter_cfg.c **** /* DSISWITCH_1_2 Address: CYDEV_UCFG_DSI3_BASE Size (bytes): 128 */
 416:Generated_Source\PSoC5/cyfitter_cfg.c **** #define BS_DSISWITCH_1_2_VAL ((const uint8 CYFAR *)0x48002138u)
 417:Generated_Source\PSoC5/cyfitter_cfg.c **** 
 418:Generated_Source\PSoC5/cyfitter_cfg.c **** /* DSI3_2_HV_ROUTING Address: CYDEV_UCFG_DSI3_BASE + 0x00000080u Size (bytes): 128 */
 419:Generated_Source\PSoC5/cyfitter_cfg.c **** #define BS_DSI3_2_HV_ROUTING_VAL ((const uint8 CYFAR *)0x480021B8u)
 420:Generated_Source\PSoC5/cyfitter_cfg.c **** 
 421:Generated_Source\PSoC5/cyfitter_cfg.c **** /* DSISWITCH_1_3 Address: CYDEV_UCFG_DSI2_BASE Size (bytes): 128 */
 422:Generated_Source\PSoC5/cyfitter_cfg.c **** #define BS_DSISWITCH_1_3_VAL ((const uint8 CYFAR *)0x48002238u)
 423:Generated_Source\PSoC5/cyfitter_cfg.c **** 
 424:Generated_Source\PSoC5/cyfitter_cfg.c **** /* DSI3_3_HV_ROUTING Address: CYDEV_UCFG_DSI2_BASE + 0x00000080u Size (bytes): 128 */
 425:Generated_Source\PSoC5/cyfitter_cfg.c **** #define BS_DSI3_3_HV_ROUTING_VAL ((const uint8 CYFAR *)0x480022B8u)
 426:Generated_Source\PSoC5/cyfitter_cfg.c **** 
 427:Generated_Source\PSoC5/cyfitter_cfg.c **** /* DSISWITCH_1_4 Address: CYDEV_UCFG_DSI1_BASE Size (bytes): 128 */
 428:Generated_Source\PSoC5/cyfitter_cfg.c **** #define BS_DSISWITCH_1_4_VAL ((const uint8 CYFAR *)0x48002338u)
 429:Generated_Source\PSoC5/cyfitter_cfg.c **** 
 430:Generated_Source\PSoC5/cyfitter_cfg.c **** /* DSI3_4_HV_ROUTING Address: CYDEV_UCFG_DSI1_BASE + 0x00000080u Size (bytes): 128 */
 431:Generated_Source\PSoC5/cyfitter_cfg.c **** #define BS_DSI3_4_HV_ROUTING_VAL ((const uint8 CYFAR *)0x480023B8u)
 432:Generated_Source\PSoC5/cyfitter_cfg.c **** 
 433:Generated_Source\PSoC5/cyfitter_cfg.c **** /* DSISWITCH_1_5 Address: CYDEV_UCFG_DSI0_BASE Size (bytes): 128 */
 434:Generated_Source\PSoC5/cyfitter_cfg.c **** #define BS_DSISWITCH_1_5_VAL ((const uint8 CYFAR *)0x48002438u)
 435:Generated_Source\PSoC5/cyfitter_cfg.c **** 
 436:Generated_Source\PSoC5/cyfitter_cfg.c **** /* DSI3_5_HV_ROUTING Address: CYDEV_UCFG_DSI0_BASE + 0x00000080u Size (bytes): 128 */
 437:Generated_Source\PSoC5/cyfitter_cfg.c **** #define BS_DSI3_5_HV_ROUTING_VAL ((const uint8 CYFAR *)0x480024B8u)
 438:Generated_Source\PSoC5/cyfitter_cfg.c **** 
 439:Generated_Source\PSoC5/cyfitter_cfg.c **** /* IOPINS0_0 Address: CYREG_PRT0_DR Size (bytes): 10 */
 440:Generated_Source\PSoC5/cyfitter_cfg.c **** #define BS_IOPINS0_0_VAL ((const uint8 CYFAR *)0x48002538u)
 441:Generated_Source\PSoC5/cyfitter_cfg.c **** 
 442:Generated_Source\PSoC5/cyfitter_cfg.c **** /* IOPINS0_7 Address: CYREG_PRT12_DR Size (bytes): 10 */
 443:Generated_Source\PSoC5/cyfitter_cfg.c **** #define BS_IOPINS0_7_VAL ((const uint8 CYFAR *)0x48002544u)
 444:Generated_Source\PSoC5/cyfitter_cfg.c **** 
 445:Generated_Source\PSoC5/cyfitter_cfg.c **** /* IOPINS0_8 Address: CYREG_PRT15_DM0 Size (bytes): 8 */
 446:Generated_Source\PSoC5/cyfitter_cfg.c **** #define BS_IOPINS0_8_VAL ((const uint8 CYFAR *)0x48002550u)
 447:Generated_Source\PSoC5/cyfitter_cfg.c **** 
 448:Generated_Source\PSoC5/cyfitter_cfg.c **** /* IOPINS0_1 Address: CYREG_PRT1_DM0 Size (bytes): 8 */
 449:Generated_Source\PSoC5/cyfitter_cfg.c **** #define BS_IOPINS0_1_VAL ((const uint8 CYFAR *)0x48002558u)
ARM GAS  C:\Users\Doug\AppData\Local\Temp\cciOAmpG.s 			page 21


 450:Generated_Source\PSoC5/cyfitter_cfg.c **** 
 451:Generated_Source\PSoC5/cyfitter_cfg.c **** /* IOPINS0_2 Address: CYREG_PRT2_DR Size (bytes): 10 */
 452:Generated_Source\PSoC5/cyfitter_cfg.c **** #define BS_IOPINS0_2_VAL ((const uint8 CYFAR *)0x48002560u)
 453:Generated_Source\PSoC5/cyfitter_cfg.c **** 
 454:Generated_Source\PSoC5/cyfitter_cfg.c **** /* IOPINS0_3 Address: CYREG_PRT3_DR Size (bytes): 10 */
 455:Generated_Source\PSoC5/cyfitter_cfg.c **** #define BS_IOPINS0_3_VAL ((const uint8 CYFAR *)0x4800256Cu)
 456:Generated_Source\PSoC5/cyfitter_cfg.c **** 
 457:Generated_Source\PSoC5/cyfitter_cfg.c **** 
 458:Generated_Source\PSoC5/cyfitter_cfg.c **** /*******************************************************************************
 459:Generated_Source\PSoC5/cyfitter_cfg.c **** * Function Name: cfg_dma_init
 460:Generated_Source\PSoC5/cyfitter_cfg.c **** ********************************************************************************
 461:Generated_Source\PSoC5/cyfitter_cfg.c **** * Summary:
 462:Generated_Source\PSoC5/cyfitter_cfg.c **** *  This function is used to copy device configuration data from constant values
 463:Generated_Source\PSoC5/cyfitter_cfg.c **** *  stored in memory into the proper chip configuration registers using DMA.  It
 464:Generated_Source\PSoC5/cyfitter_cfg.c **** *  pulls data out of the CFG_TD_LISTs to know exactly how/what to configure.
 465:Generated_Source\PSoC5/cyfitter_cfg.c **** *
 466:Generated_Source\PSoC5/cyfitter_cfg.c **** * Parameters:  
 467:Generated_Source\PSoC5/cyfitter_cfg.c **** *   void
 468:Generated_Source\PSoC5/cyfitter_cfg.c **** *
 469:Generated_Source\PSoC5/cyfitter_cfg.c **** * Return:
 470:Generated_Source\PSoC5/cyfitter_cfg.c **** *   void
 471:Generated_Source\PSoC5/cyfitter_cfg.c **** *
 472:Generated_Source\PSoC5/cyfitter_cfg.c **** *******************************************************************************/
 473:Generated_Source\PSoC5/cyfitter_cfg.c **** static void cfg_dma_init(void);
 474:Generated_Source\PSoC5/cyfitter_cfg.c **** static void cfg_dma_init(void)
 475:Generated_Source\PSoC5/cyfitter_cfg.c **** {
 692              		.loc 1 475 0
 693              		.cfi_startproc
 694              		@ args = 0, pretend = 0, frame = 8
 695              		@ frame_needed = 1, uses_anonymous_args = 0
 696              		@ link register save eliminated.
 697 0000 80B4     		push	{r7}
 698              		.cfi_def_cfa_offset 4
 699              		.cfi_offset 7, -4
 700 0002 83B0     		sub	sp, sp, #12
 701              		.cfi_def_cfa_offset 16
 702 0004 00AF     		add	r7, sp, #0
 703              		.cfi_def_cfa_register 7
 476:Generated_Source\PSoC5/cyfitter_cfg.c **** 	/* TD structure for little-endian systems. Does not require endian swap */
 477:Generated_Source\PSoC5/cyfitter_cfg.c **** 	CYPACKED struct td_t {
 478:Generated_Source\PSoC5/cyfitter_cfg.c **** 		uint16 size;
 479:Generated_Source\PSoC5/cyfitter_cfg.c **** 		uint8 next_td_ptr;
 480:Generated_Source\PSoC5/cyfitter_cfg.c **** 		uint8 flags;
 481:Generated_Source\PSoC5/cyfitter_cfg.c **** 		uint16 src;
 482:Generated_Source\PSoC5/cyfitter_cfg.c **** 		uint16 dest;
 483:Generated_Source\PSoC5/cyfitter_cfg.c **** 	} CYPACKED_ATTR;
 484:Generated_Source\PSoC5/cyfitter_cfg.c **** 
 485:Generated_Source\PSoC5/cyfitter_cfg.c **** 	/* PHUB_CH1_CFGMEM_CFG0/1 initialization data */
 486:Generated_Source\PSoC5/cyfitter_cfg.c **** 	DMAINITSEC static const uint8 CYCODE CH1_ADDR_DATA0[] = { 0x01u, 0x00u, 0x00u, 0x00u, 0x00u, 0x20u
 487:Generated_Source\PSoC5/cyfitter_cfg.c **** 
 488:Generated_Source\PSoC5/cyfitter_cfg.c **** 	/* PHUB_CH5_CFGMEM_CFG0/1 initialization data */
 489:Generated_Source\PSoC5/cyfitter_cfg.c **** 	DMAINITSEC static const uint8 CYCODE CH5_ADDR_DATA0[] = { 0x01u, 0x00u, 0x00u, 0x00u, 0x00u, 0x48u
 490:Generated_Source\PSoC5/cyfitter_cfg.c **** 
 491:Generated_Source\PSoC5/cyfitter_cfg.c **** 	/* PHUB_CH6_CFGMEM_CFG0/1 initialization data */
 492:Generated_Source\PSoC5/cyfitter_cfg.c **** 	DMAINITSEC static const uint8 CYCODE CH6_ADDR_DATA0[] = { 0x01u, 0x00u, 0x00u, 0x00u, 0x00u, 0x48u
 493:Generated_Source\PSoC5/cyfitter_cfg.c **** 
 494:Generated_Source\PSoC5/cyfitter_cfg.c **** 	/* Initialization data for each DMA channel's TD registers */
ARM GAS  C:\Users\Doug\AppData\Local\Temp\cciOAmpG.s 			page 22


 495:Generated_Source\PSoC5/cyfitter_cfg.c **** 	DMAINITSEC static const uint8 CYCODE DMA_TD_START_CMD[] = { 0x01u, 0x00u, 0x00u, 0x00u, 0x01u };
 496:Generated_Source\PSoC5/cyfitter_cfg.c **** 
 497:Generated_Source\PSoC5/cyfitter_cfg.c **** 	CYALIGNED static uint32 CYXDATA DMA_ZERO_VAL;
 498:Generated_Source\PSoC5/cyfitter_cfg.c **** 
 499:Generated_Source\PSoC5/cyfitter_cfg.c **** 	/* This table holds all of the initialization data necessary for the DMA
 500:Generated_Source\PSoC5/cyfitter_cfg.c **** 	   process to transfer data from the source location to the destination. */
 501:Generated_Source\PSoC5/cyfitter_cfg.c **** 	/* Source addresses can be relocated, but only when in 32bit addresses.
 502:Generated_Source\PSoC5/cyfitter_cfg.c **** 	   Because the standard TD table only has 16bit addresses, we generate a
 503:Generated_Source\PSoC5/cyfitter_cfg.c **** 	   separate CFG_TD_ADDR table for the source addresses that supports 32bit
 504:Generated_Source\PSoC5/cyfitter_cfg.c **** 	   addresses. */
 505:Generated_Source\PSoC5/cyfitter_cfg.c **** 	DMAINITSEC static const struct td_t CYCODE CFG_TD_LIST0[] = {
 506:Generated_Source\PSoC5/cyfitter_cfg.c **** 		/* Size, Next, Flags, Source, Destination */
 507:Generated_Source\PSoC5/cyfitter_cfg.c **** 		{ 8u, 0x02u, 0x23u, (uint16)(uint32)(0u), (uint16)(CYREG_PHUB_CFGMEM1_CFG0) },	/* TD 1 */
 508:Generated_Source\PSoC5/cyfitter_cfg.c **** 		{ 8u, 0x03u, 0x23u, (uint16)(uint32)(0u), (uint16)(CYREG_PHUB_CFGMEM5_CFG0) },	/* TD 2 */
 509:Generated_Source\PSoC5/cyfitter_cfg.c **** 		{ 8u, 0x04u, 0x23u, (uint16)(uint32)(0u), (uint16)(CYREG_PHUB_CFGMEM6_CFG0) },	/* TD 3 */
 510:Generated_Source\PSoC5/cyfitter_cfg.c **** 		{ 5u, 0x05u, 0x23u, (uint16)(uint32)(0u), (uint16)(CYREG_PHUB_CH1_BASIC_CFG) },	/* TD 4 */
 511:Generated_Source\PSoC5/cyfitter_cfg.c **** 		{ 5u, 0x06u, 0x23u, (uint16)(uint32)(0u), (uint16)(CYREG_PHUB_CH5_BASIC_CFG) },	/* TD 5 */
 512:Generated_Source\PSoC5/cyfitter_cfg.c **** 		{ 5u, 0xFEu, 0x23u, (uint16)(uint32)(0u), (uint16)(CYREG_PHUB_CH6_BASIC_CFG) },	/* TD 6 */
 513:Generated_Source\PSoC5/cyfitter_cfg.c **** 		{ 48u, 0xFEu, 0x22u, (uint16)(uint32)(0u), (uint16)(CYREG_PRT4_DR) },	/* TD 7 */
 514:Generated_Source\PSoC5/cyfitter_cfg.c **** 		{ 7u, 0x09u, 0x23u, (uint16)(uint32)(0u), (uint16)(CYDEV_PRTDSI_PRT0_BASE) },	/* TD 8 */
 515:Generated_Source\PSoC5/cyfitter_cfg.c **** 		{ 7u, 0x0Au, 0x23u, (uint16)(uint32)(0u), (uint16)(CYDEV_PRTDSI_PRT1_BASE) },	/* TD 9 */
 516:Generated_Source\PSoC5/cyfitter_cfg.c **** 		{ 7u, 0x0Bu, 0x23u, (uint16)(uint32)(0u), (uint16)(CYDEV_PRTDSI_PRT2_BASE) },	/* TD 10 */
 517:Generated_Source\PSoC5/cyfitter_cfg.c **** 		{ 7u, 0x0Cu, 0x23u, (uint16)(uint32)(0u), (uint16)(CYDEV_PRTDSI_PRT3_BASE) },	/* TD 11 */
 518:Generated_Source\PSoC5/cyfitter_cfg.c **** 		{ 6u, 0x0Du, 0x23u, (uint16)(uint32)(0u), (uint16)(CYDEV_PRTDSI_PRT12_BASE) },	/* TD 12 */
 519:Generated_Source\PSoC5/cyfitter_cfg.c **** 		{ 7u, 0x0Eu, 0x23u, (uint16)(uint32)(0u), (uint16)(CYDEV_PRTDSI_PRT15_BASE) },	/* TD 13 */
 520:Generated_Source\PSoC5/cyfitter_cfg.c **** 		{ 8u, 0x0Fu, 0x23u, (uint16)(uint32)(0u), (uint16)(CYREG_CMP1_SW0) },	/* TD 14 */
 521:Generated_Source\PSoC5/cyfitter_cfg.c **** 		{ 12u, 0x10u, 0x23u, (uint16)(uint32)(0u), (uint16)(CYREG_TMR0_CFG0) },	/* TD 15 */
 522:Generated_Source\PSoC5/cyfitter_cfg.c **** 		{ 12u, 0x11u, 0x23u, (uint16)(uint32)(0u), (uint16)(CYREG_TMR1_CFG0) },	/* TD 16 */
 523:Generated_Source\PSoC5/cyfitter_cfg.c **** 		{ 64u, 0x12u, 0x23u, (uint16)(uint32)(0u), (uint16)(CYDEV_UWRK_UWRK8_B0_BASE) },	/* TD 17 */
 524:Generated_Source\PSoC5/cyfitter_cfg.c **** 		{ 32u, 0x13u, 0x23u, (uint16)(uint32)(0u), (uint16)(CYDEV_UWRK_UWRK8_B0_BASE + 0x00000070u) },	/*
 525:Generated_Source\PSoC5/cyfitter_cfg.c **** 		{ 64u, 0x14u, 0x23u, (uint16)(uint32)(0u), (uint16)(CYDEV_UWRK_UWRK8_B1_BASE) },	/* TD 19 */
 526:Generated_Source\PSoC5/cyfitter_cfg.c **** 		{ 32u, 0xFEu, 0x23u, (uint16)(uint32)(0u), (uint16)(CYDEV_UWRK_UWRK8_B1_BASE + 0x00000070u) },	/*
 527:Generated_Source\PSoC5/cyfitter_cfg.c **** 		{ 8u, 0x16u, 0x23u, (uint16)(uint32)(0u), (uint16)(CYREG_IDMUX_IRQ_CTL0) },	/* TD 21 */
 528:Generated_Source\PSoC5/cyfitter_cfg.c **** 		{ 128u, 0x17u, 0x23u, (uint16)(uint32)(0u), (uint16)(CYDEV_UCFG_B0_P0_U0_BASE) },	/* TD 22 */
 529:Generated_Source\PSoC5/cyfitter_cfg.c **** 		{ 128u, 0x18u, 0x23u, (uint16)(uint32)(0u), (uint16)(CYDEV_UCFG_B0_P0_U1_BASE) },	/* TD 23 */
 530:Generated_Source\PSoC5/cyfitter_cfg.c **** 		{ 128u, 0x19u, 0x23u, (uint16)(uint32)(0u), (uint16)(CYDEV_UCFG_B0_P1_U0_BASE) },	/* TD 24 */
 531:Generated_Source\PSoC5/cyfitter_cfg.c **** 		{ 128u, 0x1Au, 0x23u, (uint16)(uint32)(0u), (uint16)(CYDEV_UCFG_B0_P1_U1_BASE) },	/* TD 25 */
 532:Generated_Source\PSoC5/cyfitter_cfg.c **** 		{ 128u, 0x1Bu, 0x23u, (uint16)(uint32)(0u), (uint16)(CYDEV_UCFG_B0_P2_U0_BASE) },	/* TD 26 */
 533:Generated_Source\PSoC5/cyfitter_cfg.c **** 		{ 128u, 0x1Cu, 0x23u, (uint16)(uint32)(0u), (uint16)(CYDEV_UCFG_B0_P2_U1_BASE) },	/* TD 27 */
 534:Generated_Source\PSoC5/cyfitter_cfg.c **** 		{ 128u, 0x1Du, 0x23u, (uint16)(uint32)(0u), (uint16)(CYDEV_UCFG_B0_P3_U0_BASE) },	/* TD 28 */
 535:Generated_Source\PSoC5/cyfitter_cfg.c **** 		{ 128u, 0x1Eu, 0x23u, (uint16)(uint32)(0u), (uint16)(CYDEV_UCFG_B0_P3_U1_BASE) },	/* TD 29 */
 536:Generated_Source\PSoC5/cyfitter_cfg.c **** 		{ 128u, 0x1Fu, 0x23u, (uint16)(uint32)(0u), (uint16)(CYDEV_UCFG_B0_P4_U0_BASE) },	/* TD 30 */
 537:Generated_Source\PSoC5/cyfitter_cfg.c **** 		{ 128u, 0x20u, 0x23u, (uint16)(uint32)(0u), (uint16)(CYDEV_UCFG_B0_P4_U1_BASE) },	/* TD 31 */
 538:Generated_Source\PSoC5/cyfitter_cfg.c **** 		{ 128u, 0x21u, 0x23u, (uint16)(uint32)(0u), (uint16)(CYDEV_UCFG_B0_P5_U0_BASE) },	/* TD 32 */
 539:Generated_Source\PSoC5/cyfitter_cfg.c **** 		{ 128u, 0x22u, 0x23u, (uint16)(uint32)(0u), (uint16)(CYDEV_UCFG_B0_P5_U1_BASE) },	/* TD 33 */
 540:Generated_Source\PSoC5/cyfitter_cfg.c **** 		{ 128u, 0x23u, 0x23u, (uint16)(uint32)(0u), (uint16)(CYDEV_UCFG_B0_P6_U0_BASE) },	/* TD 34 */
 541:Generated_Source\PSoC5/cyfitter_cfg.c **** 		{ 128u, 0x24u, 0x23u, (uint16)(uint32)(0u), (uint16)(CYDEV_UCFG_B0_P6_U1_BASE) },	/* TD 35 */
 542:Generated_Source\PSoC5/cyfitter_cfg.c **** 		{ 128u, 0x25u, 0x23u, (uint16)(uint32)(0u), (uint16)(CYDEV_UCFG_B0_P7_U0_BASE) },	/* TD 36 */
 543:Generated_Source\PSoC5/cyfitter_cfg.c **** 		{ 128u, 0x26u, 0x23u, (uint16)(uint32)(0u), (uint16)(CYDEV_UCFG_B0_P7_U1_BASE) },	/* TD 37 */
 544:Generated_Source\PSoC5/cyfitter_cfg.c **** 		{ 128u, 0x27u, 0x23u, (uint16)(uint32)(0u), (uint16)(CYDEV_UCFG_B1_P2_U0_BASE) },	/* TD 38 */
 545:Generated_Source\PSoC5/cyfitter_cfg.c **** 		{ 128u, 0x28u, 0x23u, (uint16)(uint32)(0u), (uint16)(CYDEV_UCFG_B1_P2_U1_BASE) },	/* TD 39 */
 546:Generated_Source\PSoC5/cyfitter_cfg.c **** 		{ 128u, 0x29u, 0x23u, (uint16)(uint32)(0u), (uint16)(CYDEV_UCFG_B1_P3_U0_BASE) },	/* TD 40 */
 547:Generated_Source\PSoC5/cyfitter_cfg.c **** 		{ 128u, 0x2Au, 0x23u, (uint16)(uint32)(0u), (uint16)(CYDEV_UCFG_B1_P3_U1_BASE) },	/* TD 41 */
 548:Generated_Source\PSoC5/cyfitter_cfg.c **** 		{ 128u, 0x2Bu, 0x23u, (uint16)(uint32)(0u), (uint16)(CYDEV_UCFG_B1_P4_U0_BASE) },	/* TD 42 */
 549:Generated_Source\PSoC5/cyfitter_cfg.c **** 		{ 128u, 0x2Cu, 0x23u, (uint16)(uint32)(0u), (uint16)(CYDEV_UCFG_B1_P4_U1_BASE) },	/* TD 43 */
 550:Generated_Source\PSoC5/cyfitter_cfg.c **** 		{ 128u, 0x2Du, 0x23u, (uint16)(uint32)(0u), (uint16)(CYDEV_UCFG_B1_P5_U0_BASE) },	/* TD 44 */
 551:Generated_Source\PSoC5/cyfitter_cfg.c **** 		{ 128u, 0x2Eu, 0x23u, (uint16)(uint32)(0u), (uint16)(CYDEV_UCFG_B1_P5_U1_BASE) },	/* TD 45 */
ARM GAS  C:\Users\Doug\AppData\Local\Temp\cciOAmpG.s 			page 23


 552:Generated_Source\PSoC5/cyfitter_cfg.c **** 		{ 16u, 0x2Fu, 0x23u, (uint16)(uint32)(0u), (uint16)(CYREG_BCTL1_MDCLK_EN) },	/* TD 46 */
 553:Generated_Source\PSoC5/cyfitter_cfg.c **** 		{ 16u, 0x30u, 0x23u, (uint16)(uint32)(0u), (uint16)(CYREG_BCTL0_MDCLK_EN) },	/* TD 47 */
 554:Generated_Source\PSoC5/cyfitter_cfg.c **** 		{ 128u, 0x31u, 0x23u, (uint16)(uint32)(0u), (uint16)(CYDEV_UCFG_DSI13_BASE) },	/* TD 48 */
 555:Generated_Source\PSoC5/cyfitter_cfg.c **** 		{ 128u, 0x32u, 0x23u, (uint16)(uint32)(0u), (uint16)(CYDEV_UCFG_DSI13_BASE + 0x00000080u) },	/* T
 556:Generated_Source\PSoC5/cyfitter_cfg.c **** 		{ 128u, 0x33u, 0x23u, (uint16)(uint32)(0u), (uint16)(CYDEV_UCFG_DSI12_BASE) },	/* TD 50 */
 557:Generated_Source\PSoC5/cyfitter_cfg.c **** 		{ 128u, 0x34u, 0x23u, (uint16)(uint32)(0u), (uint16)(CYDEV_UCFG_DSI12_BASE + 0x00000080u) },	/* T
 558:Generated_Source\PSoC5/cyfitter_cfg.c **** 		{ 128u, 0x35u, 0x23u, (uint16)(uint32)(0u), (uint16)(CYDEV_UCFG_DSI7_BASE) },	/* TD 52 */
 559:Generated_Source\PSoC5/cyfitter_cfg.c **** 		{ 128u, 0x36u, 0x23u, (uint16)(uint32)(0u), (uint16)(CYDEV_UCFG_DSI7_BASE + 0x00000080u) },	/* TD
 560:Generated_Source\PSoC5/cyfitter_cfg.c **** 		{ 128u, 0x37u, 0x23u, (uint16)(uint32)(0u), (uint16)(CYDEV_UCFG_DSI6_BASE) },	/* TD 54 */
 561:Generated_Source\PSoC5/cyfitter_cfg.c **** 		{ 128u, 0x38u, 0x23u, (uint16)(uint32)(0u), (uint16)(CYDEV_UCFG_DSI6_BASE + 0x00000080u) },	/* TD
 562:Generated_Source\PSoC5/cyfitter_cfg.c **** 		{ 128u, 0x39u, 0x23u, (uint16)(uint32)(0u), (uint16)(CYDEV_UCFG_DSI5_BASE) },	/* TD 56 */
 563:Generated_Source\PSoC5/cyfitter_cfg.c **** 		{ 128u, 0x3Au, 0x23u, (uint16)(uint32)(0u), (uint16)(CYDEV_UCFG_DSI5_BASE + 0x00000080u) },	/* TD
 564:Generated_Source\PSoC5/cyfitter_cfg.c **** 		{ 128u, 0x3Bu, 0x23u, (uint16)(uint32)(0u), (uint16)(CYDEV_UCFG_DSI4_BASE) },	/* TD 58 */
 565:Generated_Source\PSoC5/cyfitter_cfg.c **** 		{ 128u, 0x3Cu, 0x23u, (uint16)(uint32)(0u), (uint16)(CYDEV_UCFG_DSI4_BASE + 0x00000080u) },	/* TD
 566:Generated_Source\PSoC5/cyfitter_cfg.c **** 		{ 128u, 0x3Du, 0x23u, (uint16)(uint32)(0u), (uint16)(CYDEV_UCFG_B1_P5_ROUTE_BASE) },	/* TD 60 */
 567:Generated_Source\PSoC5/cyfitter_cfg.c **** 		{ 128u, 0x3Eu, 0x23u, (uint16)(uint32)(0u), (uint16)(CYDEV_UCFG_B1_P5_ROUTE_BASE + 0x00000080u) }
 568:Generated_Source\PSoC5/cyfitter_cfg.c **** 		{ 128u, 0x3Fu, 0x23u, (uint16)(uint32)(0u), (uint16)(CYDEV_UCFG_B1_P2_ROUTE_BASE) },	/* TD 62 */
 569:Generated_Source\PSoC5/cyfitter_cfg.c **** 		{ 128u, 0x40u, 0x23u, (uint16)(uint32)(0u), (uint16)(CYDEV_UCFG_B1_P2_ROUTE_BASE + 0x00000080u) }
 570:Generated_Source\PSoC5/cyfitter_cfg.c **** 		{ 128u, 0x41u, 0x23u, (uint16)(uint32)(0u), (uint16)(CYDEV_UCFG_B1_P4_ROUTE_BASE) },	/* TD 64 */
 571:Generated_Source\PSoC5/cyfitter_cfg.c **** 		{ 128u, 0x42u, 0x23u, (uint16)(uint32)(0u), (uint16)(CYDEV_UCFG_B1_P4_ROUTE_BASE + 0x00000080u) }
 572:Generated_Source\PSoC5/cyfitter_cfg.c **** 		{ 128u, 0x43u, 0x23u, (uint16)(uint32)(0u), (uint16)(CYDEV_UCFG_B1_P3_ROUTE_BASE) },	/* TD 66 */
 573:Generated_Source\PSoC5/cyfitter_cfg.c **** 		{ 128u, 0x44u, 0x23u, (uint16)(uint32)(0u), (uint16)(CYDEV_UCFG_B1_P3_ROUTE_BASE + 0x00000080u) }
 574:Generated_Source\PSoC5/cyfitter_cfg.c **** 		{ 128u, 0x45u, 0x23u, (uint16)(uint32)(0u), (uint16)(CYDEV_UCFG_B0_P4_ROUTE_BASE) },	/* TD 68 */
 575:Generated_Source\PSoC5/cyfitter_cfg.c **** 		{ 128u, 0x46u, 0x23u, (uint16)(uint32)(0u), (uint16)(CYDEV_UCFG_B0_P4_ROUTE_BASE + 0x00000080u) }
 576:Generated_Source\PSoC5/cyfitter_cfg.c **** 		{ 128u, 0x47u, 0x23u, (uint16)(uint32)(0u), (uint16)(CYDEV_UCFG_B0_P3_ROUTE_BASE) },	/* TD 70 */
 577:Generated_Source\PSoC5/cyfitter_cfg.c **** 		{ 128u, 0x48u, 0x23u, (uint16)(uint32)(0u), (uint16)(CYDEV_UCFG_B0_P3_ROUTE_BASE + 0x00000080u) }
 578:Generated_Source\PSoC5/cyfitter_cfg.c **** 		{ 128u, 0x49u, 0x23u, (uint16)(uint32)(0u), (uint16)(CYDEV_UCFG_B0_P5_ROUTE_BASE) },	/* TD 72 */
 579:Generated_Source\PSoC5/cyfitter_cfg.c **** 		{ 128u, 0x4Au, 0x23u, (uint16)(uint32)(0u), (uint16)(CYDEV_UCFG_B0_P5_ROUTE_BASE + 0x00000080u) }
 580:Generated_Source\PSoC5/cyfitter_cfg.c **** 		{ 128u, 0x4Bu, 0x23u, (uint16)(uint32)(0u), (uint16)(CYDEV_UCFG_B0_P2_ROUTE_BASE) },	/* TD 74 */
 581:Generated_Source\PSoC5/cyfitter_cfg.c **** 		{ 128u, 0x4Cu, 0x23u, (uint16)(uint32)(0u), (uint16)(CYDEV_UCFG_B0_P2_ROUTE_BASE + 0x00000080u) }
 582:Generated_Source\PSoC5/cyfitter_cfg.c **** 		{ 128u, 0x4Du, 0x23u, (uint16)(uint32)(0u), (uint16)(CYDEV_UCFG_B0_P6_ROUTE_BASE) },	/* TD 76 */
 583:Generated_Source\PSoC5/cyfitter_cfg.c **** 		{ 128u, 0x4Eu, 0x23u, (uint16)(uint32)(0u), (uint16)(CYDEV_UCFG_B0_P6_ROUTE_BASE + 0x00000080u) }
 584:Generated_Source\PSoC5/cyfitter_cfg.c **** 		{ 128u, 0x4Fu, 0x23u, (uint16)(uint32)(0u), (uint16)(CYDEV_UCFG_B0_P1_ROUTE_BASE) },	/* TD 78 */
 585:Generated_Source\PSoC5/cyfitter_cfg.c **** 		{ 128u, 0x50u, 0x23u, (uint16)(uint32)(0u), (uint16)(CYDEV_UCFG_B0_P1_ROUTE_BASE + 0x00000080u) }
 586:Generated_Source\PSoC5/cyfitter_cfg.c **** 		{ 128u, 0x51u, 0x23u, (uint16)(uint32)(0u), (uint16)(CYDEV_UCFG_B0_P7_ROUTE_BASE) },	/* TD 80 */
 587:Generated_Source\PSoC5/cyfitter_cfg.c **** 		{ 128u, 0x52u, 0x23u, (uint16)(uint32)(0u), (uint16)(CYDEV_UCFG_B0_P7_ROUTE_BASE + 0x00000080u) }
 588:Generated_Source\PSoC5/cyfitter_cfg.c **** 		{ 128u, 0x53u, 0x23u, (uint16)(uint32)(0u), (uint16)(CYDEV_UCFG_B0_P0_ROUTE_BASE) },	/* TD 82 */
 589:Generated_Source\PSoC5/cyfitter_cfg.c **** 		{ 128u, 0x54u, 0x23u, (uint16)(uint32)(0u), (uint16)(CYDEV_UCFG_B0_P0_ROUTE_BASE + 0x00000080u) }
 590:Generated_Source\PSoC5/cyfitter_cfg.c **** 		{ 128u, 0x55u, 0x23u, (uint16)(uint32)(0u), (uint16)(CYDEV_UCFG_DSI9_BASE) },	/* TD 84 */
 591:Generated_Source\PSoC5/cyfitter_cfg.c **** 		{ 128u, 0x56u, 0x23u, (uint16)(uint32)(0u), (uint16)(CYDEV_UCFG_DSI9_BASE + 0x00000080u) },	/* TD
 592:Generated_Source\PSoC5/cyfitter_cfg.c **** 		{ 128u, 0x57u, 0x23u, (uint16)(uint32)(0u), (uint16)(CYDEV_UCFG_DSI8_BASE) },	/* TD 86 */
 593:Generated_Source\PSoC5/cyfitter_cfg.c **** 		{ 128u, 0x58u, 0x23u, (uint16)(uint32)(0u), (uint16)(CYDEV_UCFG_DSI8_BASE + 0x00000080u) },	/* TD
 594:Generated_Source\PSoC5/cyfitter_cfg.c **** 		{ 128u, 0x59u, 0x23u, (uint16)(uint32)(0u), (uint16)(CYDEV_UCFG_DSI3_BASE) },	/* TD 88 */
 595:Generated_Source\PSoC5/cyfitter_cfg.c **** 		{ 128u, 0x5Au, 0x23u, (uint16)(uint32)(0u), (uint16)(CYDEV_UCFG_DSI3_BASE + 0x00000080u) },	/* TD
 596:Generated_Source\PSoC5/cyfitter_cfg.c **** 		{ 128u, 0x5Bu, 0x23u, (uint16)(uint32)(0u), (uint16)(CYDEV_UCFG_DSI2_BASE) },	/* TD 90 */
 597:Generated_Source\PSoC5/cyfitter_cfg.c **** 		{ 128u, 0x5Cu, 0x23u, (uint16)(uint32)(0u), (uint16)(CYDEV_UCFG_DSI2_BASE + 0x00000080u) },	/* TD
 598:Generated_Source\PSoC5/cyfitter_cfg.c **** 		{ 128u, 0x5Du, 0x23u, (uint16)(uint32)(0u), (uint16)(CYDEV_UCFG_DSI1_BASE) },	/* TD 92 */
 599:Generated_Source\PSoC5/cyfitter_cfg.c **** 		{ 128u, 0x5Eu, 0x23u, (uint16)(uint32)(0u), (uint16)(CYDEV_UCFG_DSI1_BASE + 0x00000080u) },	/* TD
 600:Generated_Source\PSoC5/cyfitter_cfg.c **** 		{ 128u, 0x5Fu, 0x23u, (uint16)(uint32)(0u), (uint16)(CYDEV_UCFG_DSI0_BASE) },	/* TD 94 */
 601:Generated_Source\PSoC5/cyfitter_cfg.c **** 		{ 128u, 0xFEu, 0x23u, (uint16)(uint32)(0u), (uint16)(CYDEV_UCFG_DSI0_BASE + 0x00000080u) },	/* TD
 602:Generated_Source\PSoC5/cyfitter_cfg.c **** 	};
 603:Generated_Source\PSoC5/cyfitter_cfg.c **** 
 604:Generated_Source\PSoC5/cyfitter_cfg.c **** 	/* Source addresses can be relocated, but only when in 32bit addresses.
 605:Generated_Source\PSoC5/cyfitter_cfg.c **** 	   Because the standard TD table only has 16bit addresses, we generate a
 606:Generated_Source\PSoC5/cyfitter_cfg.c **** 	   separate table for the source addresses that does use 32bit addresses. This
 607:Generated_Source\PSoC5/cyfitter_cfg.c **** 	   table will be re-merged with the corresponding CFG_TD_LIST table during
 608:Generated_Source\PSoC5/cyfitter_cfg.c **** 	   initialization. */
ARM GAS  C:\Users\Doug\AppData\Local\Temp\cciOAmpG.s 			page 24


 609:Generated_Source\PSoC5/cyfitter_cfg.c **** 	static const void * const CFG_TD_ADDR0[] = {
 610:Generated_Source\PSoC5/cyfitter_cfg.c **** 		(const void *)(CH1_ADDR_DATA0),	/* TD 1 */
 611:Generated_Source\PSoC5/cyfitter_cfg.c **** 		(const void *)(CH5_ADDR_DATA0),	/* TD 2 */
 612:Generated_Source\PSoC5/cyfitter_cfg.c **** 		(const void *)(CH6_ADDR_DATA0),	/* TD 3 */
 613:Generated_Source\PSoC5/cyfitter_cfg.c **** 		(const void *)(DMA_TD_START_CMD),	/* TD 4 */
 614:Generated_Source\PSoC5/cyfitter_cfg.c **** 		(const void *)(DMA_TD_START_CMD),	/* TD 5 */
 615:Generated_Source\PSoC5/cyfitter_cfg.c **** 		(const void *)(DMA_TD_START_CMD),	/* TD 6 */
 616:Generated_Source\PSoC5/cyfitter_cfg.c **** 		(const void *)(&DMA_ZERO_VAL),	/* TD 7 */
 617:Generated_Source\PSoC5/cyfitter_cfg.c **** 		(const void *)(BS_IOPORT_0_VAL),	/* TD 8 */
 618:Generated_Source\PSoC5/cyfitter_cfg.c **** 		(const void *)(BS_IOPORT_1_VAL),	/* TD 9 */
 619:Generated_Source\PSoC5/cyfitter_cfg.c **** 		(const void *)(BS_IOPORT_2_VAL),	/* TD 10 */
 620:Generated_Source\PSoC5/cyfitter_cfg.c **** 		(const void *)(BS_IOPORT_3_VAL),	/* TD 11 */
 621:Generated_Source\PSoC5/cyfitter_cfg.c **** 		(const void *)(BS_IOPORT_7_VAL),	/* TD 12 */
 622:Generated_Source\PSoC5/cyfitter_cfg.c **** 		(const void *)(BS_IOPORT_8_VAL),	/* TD 13 */
 623:Generated_Source\PSoC5/cyfitter_cfg.c **** 		(const void *)(BS_CMP1_VAL),	/* TD 14 */
 624:Generated_Source\PSoC5/cyfitter_cfg.c **** 		(const void *)(BS_TMR0_VAL),	/* TD 15 */
 625:Generated_Source\PSoC5/cyfitter_cfg.c **** 		(const void *)(BS_TMR1_VAL),	/* TD 16 */
 626:Generated_Source\PSoC5/cyfitter_cfg.c **** 		(const void *)(BS_UWRK_B0_WRK_DP_BITS_VAL),	/* TD 17 */
 627:Generated_Source\PSoC5/cyfitter_cfg.c **** 		(const void *)(BS_UWRK_B0_WRK_STATCTL_BITS_VAL),	/* TD 18 */
 628:Generated_Source\PSoC5/cyfitter_cfg.c **** 		(const void *)(BS_UWRK_B1_WRK_DP_BITS_VAL),	/* TD 19 */
 629:Generated_Source\PSoC5/cyfitter_cfg.c **** 		(const void *)(BS_UWRK_B1_WRK_STATCTL_BITS_VAL),	/* TD 20 */
 630:Generated_Source\PSoC5/cyfitter_cfg.c **** 		(const void *)(BS_IDMUX_IRQ_VAL),	/* TD 21 */
 631:Generated_Source\PSoC5/cyfitter_cfg.c **** 		(const void *)(BS_UDB_1_5_0_CONFIG_VAL),	/* TD 22 */
 632:Generated_Source\PSoC5/cyfitter_cfg.c **** 		(const void *)(BS_UDB_1_5_1_CONFIG_VAL),	/* TD 23 */
 633:Generated_Source\PSoC5/cyfitter_cfg.c **** 		(const void *)(BS_UDB_1_4_1_CONFIG_VAL),	/* TD 24 */
 634:Generated_Source\PSoC5/cyfitter_cfg.c **** 		(const void *)(BS_UDB_1_4_0_CONFIG_VAL),	/* TD 25 */
 635:Generated_Source\PSoC5/cyfitter_cfg.c **** 		(const void *)(BS_UDB_1_3_0_CONFIG_VAL),	/* TD 26 */
 636:Generated_Source\PSoC5/cyfitter_cfg.c **** 		(const void *)(BS_UDB_1_3_1_CONFIG_VAL),	/* TD 27 */
 637:Generated_Source\PSoC5/cyfitter_cfg.c **** 		(const void *)(BS_UDB_1_2_1_CONFIG_VAL),	/* TD 28 */
 638:Generated_Source\PSoC5/cyfitter_cfg.c **** 		(const void *)(BS_UDB_1_2_0_CONFIG_VAL),	/* TD 29 */
 639:Generated_Source\PSoC5/cyfitter_cfg.c **** 		(const void *)(BS_UDB_0_2_1_CONFIG_VAL),	/* TD 30 */
 640:Generated_Source\PSoC5/cyfitter_cfg.c **** 		(const void *)(BS_UDB_0_2_0_CONFIG_VAL),	/* TD 31 */
 641:Generated_Source\PSoC5/cyfitter_cfg.c **** 		(const void *)(BS_UDB_0_3_0_CONFIG_VAL),	/* TD 32 */
 642:Generated_Source\PSoC5/cyfitter_cfg.c **** 		(const void *)(BS_UDB_0_3_1_CONFIG_VAL),	/* TD 33 */
 643:Generated_Source\PSoC5/cyfitter_cfg.c **** 		(const void *)(BS_UDB_0_4_1_CONFIG_VAL),	/* TD 34 */
 644:Generated_Source\PSoC5/cyfitter_cfg.c **** 		(const void *)(BS_UDB_0_4_0_CONFIG_VAL),	/* TD 35 */
 645:Generated_Source\PSoC5/cyfitter_cfg.c **** 		(const void *)(BS_UDB_0_5_0_CONFIG_VAL),	/* TD 36 */
 646:Generated_Source\PSoC5/cyfitter_cfg.c **** 		(const void *)(BS_UDB_0_5_1_CONFIG_VAL),	/* TD 37 */
 647:Generated_Source\PSoC5/cyfitter_cfg.c **** 		(const void *)(BS_UDB_1_0_0_CONFIG_VAL),	/* TD 38 */
 648:Generated_Source\PSoC5/cyfitter_cfg.c **** 		(const void *)(BS_UDB_1_0_1_CONFIG_VAL),	/* TD 39 */
 649:Generated_Source\PSoC5/cyfitter_cfg.c **** 		(const void *)(BS_UDB_1_1_1_CONFIG_VAL),	/* TD 40 */
 650:Generated_Source\PSoC5/cyfitter_cfg.c **** 		(const void *)(BS_UDB_1_1_0_CONFIG_VAL),	/* TD 41 */
 651:Generated_Source\PSoC5/cyfitter_cfg.c **** 		(const void *)(BS_UDB_0_1_1_CONFIG_VAL),	/* TD 42 */
 652:Generated_Source\PSoC5/cyfitter_cfg.c **** 		(const void *)(BS_UDB_0_1_0_CONFIG_VAL),	/* TD 43 */
 653:Generated_Source\PSoC5/cyfitter_cfg.c **** 		(const void *)(BS_UDB_0_0_0_CONFIG_VAL),	/* TD 44 */
 654:Generated_Source\PSoC5/cyfitter_cfg.c **** 		(const void *)(BS_UDB_0_0_1_CONFIG_VAL),	/* TD 45 */
 655:Generated_Source\PSoC5/cyfitter_cfg.c **** 		(const void *)(BS_UCFG_BCTL1_VAL),	/* TD 46 */
 656:Generated_Source\PSoC5/cyfitter_cfg.c **** 		(const void *)(BS_UCFG_BCTL0_VAL),	/* TD 47 */
 657:Generated_Source\PSoC5/cyfitter_cfg.c **** 		(const void *)(BS_DSISWITCH_0_0_VAL),	/* TD 48 */
 658:Generated_Source\PSoC5/cyfitter_cfg.c **** 		(const void *)(BS_DSI0_0_HV_ROUTING_VAL),	/* TD 49 */
 659:Generated_Source\PSoC5/cyfitter_cfg.c **** 		(const void *)(BS_DSISWITCH_0_1_VAL),	/* TD 50 */
 660:Generated_Source\PSoC5/cyfitter_cfg.c **** 		(const void *)(BS_DSI0_1_HV_ROUTING_VAL),	/* TD 51 */
 661:Generated_Source\PSoC5/cyfitter_cfg.c **** 		(const void *)(BS_DSISWITCH_0_2_VAL),	/* TD 52 */
 662:Generated_Source\PSoC5/cyfitter_cfg.c **** 		(const void *)(BS_DSI0_2_HV_ROUTING_VAL),	/* TD 53 */
 663:Generated_Source\PSoC5/cyfitter_cfg.c **** 		(const void *)(BS_DSISWITCH_0_3_VAL),	/* TD 54 */
 664:Generated_Source\PSoC5/cyfitter_cfg.c **** 		(const void *)(BS_DSI0_3_HV_ROUTING_VAL),	/* TD 55 */
 665:Generated_Source\PSoC5/cyfitter_cfg.c **** 		(const void *)(BS_DSISWITCH_0_4_VAL),	/* TD 56 */
ARM GAS  C:\Users\Doug\AppData\Local\Temp\cciOAmpG.s 			page 25


 666:Generated_Source\PSoC5/cyfitter_cfg.c **** 		(const void *)(BS_DSI0_4_HV_ROUTING_VAL),	/* TD 57 */
 667:Generated_Source\PSoC5/cyfitter_cfg.c **** 		(const void *)(BS_DSISWITCH_0_5_VAL),	/* TD 58 */
 668:Generated_Source\PSoC5/cyfitter_cfg.c **** 		(const void *)(BS_DSI0_5_HV_ROUTING_VAL),	/* TD 59 */
 669:Generated_Source\PSoC5/cyfitter_cfg.c **** 		(const void *)(BS_UDBSWITCH_0_0_VAL),	/* TD 60 */
 670:Generated_Source\PSoC5/cyfitter_cfg.c **** 		(const void *)(BS_UDB_1_0_HV_ROUTING_VAL),	/* TD 61 */
 671:Generated_Source\PSoC5/cyfitter_cfg.c **** 		(const void *)(BS_UDBSWITCH_1_0_VAL),	/* TD 62 */
 672:Generated_Source\PSoC5/cyfitter_cfg.c **** 		(const void *)(BS_UDB_2_0_HV_ROUTING_VAL),	/* TD 63 */
 673:Generated_Source\PSoC5/cyfitter_cfg.c **** 		(const void *)(BS_UDBSWITCH_0_1_VAL),	/* TD 64 */
 674:Generated_Source\PSoC5/cyfitter_cfg.c **** 		(const void *)(BS_UDB_1_1_HV_ROUTING_VAL),	/* TD 65 */
 675:Generated_Source\PSoC5/cyfitter_cfg.c **** 		(const void *)(BS_UDBSWITCH_1_1_VAL),	/* TD 66 */
 676:Generated_Source\PSoC5/cyfitter_cfg.c **** 		(const void *)(BS_UDB_2_1_HV_ROUTING_VAL),	/* TD 67 */
 677:Generated_Source\PSoC5/cyfitter_cfg.c **** 		(const void *)(BS_UDBSWITCH_0_2_VAL),	/* TD 68 */
 678:Generated_Source\PSoC5/cyfitter_cfg.c **** 		(const void *)(BS_UDB_1_2_HV_ROUTING_VAL),	/* TD 69 */
 679:Generated_Source\PSoC5/cyfitter_cfg.c **** 		(const void *)(BS_UDBSWITCH_1_2_VAL),	/* TD 70 */
 680:Generated_Source\PSoC5/cyfitter_cfg.c **** 		(const void *)(BS_UDB_2_2_HV_ROUTING_VAL),	/* TD 71 */
 681:Generated_Source\PSoC5/cyfitter_cfg.c **** 		(const void *)(BS_UDBSWITCH_0_3_VAL),	/* TD 72 */
 682:Generated_Source\PSoC5/cyfitter_cfg.c **** 		(const void *)(BS_UDB_1_3_HV_ROUTING_VAL),	/* TD 73 */
 683:Generated_Source\PSoC5/cyfitter_cfg.c **** 		(const void *)(BS_UDBSWITCH_1_3_VAL),	/* TD 74 */
 684:Generated_Source\PSoC5/cyfitter_cfg.c **** 		(const void *)(BS_UDB_2_3_HV_ROUTING_VAL),	/* TD 75 */
 685:Generated_Source\PSoC5/cyfitter_cfg.c **** 		(const void *)(BS_UDBSWITCH_0_4_VAL),	/* TD 76 */
 686:Generated_Source\PSoC5/cyfitter_cfg.c **** 		(const void *)(BS_UDB_1_4_HV_ROUTING_VAL),	/* TD 77 */
 687:Generated_Source\PSoC5/cyfitter_cfg.c **** 		(const void *)(BS_UDBSWITCH_1_4_VAL),	/* TD 78 */
 688:Generated_Source\PSoC5/cyfitter_cfg.c **** 		(const void *)(BS_UDB_2_4_HV_ROUTING_VAL),	/* TD 79 */
 689:Generated_Source\PSoC5/cyfitter_cfg.c **** 		(const void *)(BS_UDBSWITCH_0_5_VAL),	/* TD 80 */
 690:Generated_Source\PSoC5/cyfitter_cfg.c **** 		(const void *)(BS_UDB_1_5_HV_ROUTING_VAL),	/* TD 81 */
 691:Generated_Source\PSoC5/cyfitter_cfg.c **** 		(const void *)(BS_UDBSWITCH_1_5_VAL),	/* TD 82 */
 692:Generated_Source\PSoC5/cyfitter_cfg.c **** 		(const void *)(BS_UDB_2_5_HV_ROUTING_VAL),	/* TD 83 */
 693:Generated_Source\PSoC5/cyfitter_cfg.c **** 		(const void *)(BS_DSISWITCH_1_0_VAL),	/* TD 84 */
 694:Generated_Source\PSoC5/cyfitter_cfg.c **** 		(const void *)(BS_DSI3_0_HV_ROUTING_VAL),	/* TD 85 */
 695:Generated_Source\PSoC5/cyfitter_cfg.c **** 		(const void *)(BS_DSISWITCH_1_1_VAL),	/* TD 86 */
 696:Generated_Source\PSoC5/cyfitter_cfg.c **** 		(const void *)(BS_DSI3_1_HV_ROUTING_VAL),	/* TD 87 */
 697:Generated_Source\PSoC5/cyfitter_cfg.c **** 		(const void *)(BS_DSISWITCH_1_2_VAL),	/* TD 88 */
 698:Generated_Source\PSoC5/cyfitter_cfg.c **** 		(const void *)(BS_DSI3_2_HV_ROUTING_VAL),	/* TD 89 */
 699:Generated_Source\PSoC5/cyfitter_cfg.c **** 		(const void *)(BS_DSISWITCH_1_3_VAL),	/* TD 90 */
 700:Generated_Source\PSoC5/cyfitter_cfg.c **** 		(const void *)(BS_DSI3_3_HV_ROUTING_VAL),	/* TD 91 */
 701:Generated_Source\PSoC5/cyfitter_cfg.c **** 		(const void *)(BS_DSISWITCH_1_4_VAL),	/* TD 92 */
 702:Generated_Source\PSoC5/cyfitter_cfg.c **** 		(const void *)(BS_DSI3_4_HV_ROUTING_VAL),	/* TD 93 */
 703:Generated_Source\PSoC5/cyfitter_cfg.c **** 		(const void *)(BS_DSISWITCH_1_5_VAL),	/* TD 94 */
 704:Generated_Source\PSoC5/cyfitter_cfg.c **** 		(const void *)(BS_DSI3_5_HV_ROUTING_VAL),	/* TD 95 */
 705:Generated_Source\PSoC5/cyfitter_cfg.c **** 	};
 706:Generated_Source\PSoC5/cyfitter_cfg.c **** 
 707:Generated_Source\PSoC5/cyfitter_cfg.c **** 
 708:Generated_Source\PSoC5/cyfitter_cfg.c **** 	uint32 i;
 709:Generated_Source\PSoC5/cyfitter_cfg.c **** 
 710:Generated_Source\PSoC5/cyfitter_cfg.c **** 	DMA_ZERO_VAL = 0u;
 704              		.loc 1 710 0
 705 0006 3D4B     		ldr	r3, .L14
 706 0008 0022     		movs	r2, #0
 707 000a 1A60     		str	r2, [r3]
 711:Generated_Source\PSoC5/cyfitter_cfg.c **** 	CY_SET_REG8((void CYXDATA *)CYREG_PHUB_CFGMEM0_CFG0, 0x10u);	/* set burstcnt */
 708              		.loc 1 711 0
 709 000c 3C4B     		ldr	r3, .L14+4
 710 000e 1022     		movs	r2, #16
 711 0010 1A70     		strb	r2, [r3]
 712:Generated_Source\PSoC5/cyfitter_cfg.c **** 	CY_SET_REG8((void CYXDATA *)CYREG_PHUB_CH0_BASIC_CFG, 0x01u);	/* enable ch0 */
 712              		.loc 1 712 0
 713 0012 3C4B     		ldr	r3, .L14+8
ARM GAS  C:\Users\Doug\AppData\Local\Temp\cciOAmpG.s 			page 26


 714 0014 0122     		movs	r2, #1
 715 0016 1A70     		strb	r2, [r3]
 713:Generated_Source\PSoC5/cyfitter_cfg.c **** 	CY_SET_REG8((void CYXDATA *)(CYREG_PHUB_CH0_BASIC_STATUS+1u), 0x00u);	/* set first TD to 0 */
 716              		.loc 1 713 0
 717 0018 3B4B     		ldr	r3, .L14+12
 718 001a 0022     		movs	r2, #0
 719 001c 1A70     		strb	r2, [r3]
 714:Generated_Source\PSoC5/cyfitter_cfg.c **** 	CY_SET_REG16((void CYXDATA *)CYREG_PHUB_TDMEM0_ORIG_TD0, 95u*8u);	/* transfer size */
 720              		.loc 1 714 0
 721 001e 3B4B     		ldr	r3, .L14+16
 722 0020 4FF43E72 		mov	r2, #760
 723 0024 1A80     		strh	r2, [r3]	@ movhi
 715:Generated_Source\PSoC5/cyfitter_cfg.c **** 	CY_SET_REG8((void CYXDATA *)(CYREG_PHUB_TDMEM0_ORIG_TD0+2u), 0x01u);	/* set next TD to 1 */
 724              		.loc 1 715 0
 725 0026 3A4B     		ldr	r3, .L14+20
 726 0028 0122     		movs	r2, #1
 727 002a 1A70     		strb	r2, [r3]
 716:Generated_Source\PSoC5/cyfitter_cfg.c **** 	CY_SET_REG8((void CYXDATA *)(CYREG_PHUB_TDMEM0_ORIG_TD0+3u), 0x03u);	/* set TD flags */
 728              		.loc 1 716 0
 729 002c 394B     		ldr	r3, .L14+24
 730 002e 0322     		movs	r2, #3
 731 0030 1A70     		strb	r2, [r3]
 717:Generated_Source\PSoC5/cyfitter_cfg.c **** 	CY_SET_REG16((void CYXDATA *)CYREG_PHUB_TDMEM0_ORIG_TD1, (uint16)((uint32)CFG_TD_LIST0 & 0x0000FFF
 732              		.loc 1 717 0
 733 0032 394B     		ldr	r3, .L14+28
 734 0034 394A     		ldr	r2, .L14+32
 735 0036 92B2     		uxth	r2, r2
 736 0038 1A80     		strh	r2, [r3]	@ movhi
 718:Generated_Source\PSoC5/cyfitter_cfg.c **** 	CY_SET_REG16((void CYXDATA *)(CYREG_PHUB_TDMEM0_ORIG_TD1+2u), CYDEV_PHUB_TDMEM1_BASE);	/* set td0'
 737              		.loc 1 718 0
 738 003a 394B     		ldr	r3, .L14+36
 739 003c 47F60802 		movw	r2, #30728
 740 0040 1A80     		strh	r2, [r3]	@ movhi
 719:Generated_Source\PSoC5/cyfitter_cfg.c **** 	CY_SET_REG16((void CYXDATA *)CYREG_PHUB_CFGMEM0_CFG1, (uint16)(CYDEV_FLASH_BASE >> 16));	/* set ch
 741              		.loc 1 719 0
 742 0042 384B     		ldr	r3, .L14+40
 743 0044 0022     		movs	r2, #0
 744 0046 1A80     		strh	r2, [r3]	@ movhi
 720:Generated_Source\PSoC5/cyfitter_cfg.c **** 	CY_SET_REG16((void CYXDATA *)(CYREG_PHUB_CFGMEM0_CFG1+2u), (uint16)(CYDEV_PHUB_TDMEM1_BASE >> 16))
 745              		.loc 1 720 0
 746 0048 374B     		ldr	r3, .L14+44
 747 004a 4FF48042 		mov	r2, #16384
 748 004e 1A80     		strh	r2, [r3]	@ movhi
 721:Generated_Source\PSoC5/cyfitter_cfg.c **** 	CY_SET_REG8((void CYXDATA *)(CYREG_PHUB_CH1_BASIC_STATUS+1u), 0x07u);	/* ch1 first TD: 7 */
 749              		.loc 1 721 0
 750 0050 364B     		ldr	r3, .L14+48
 751 0052 0722     		movs	r2, #7
 752 0054 1A70     		strb	r2, [r3]
 722:Generated_Source\PSoC5/cyfitter_cfg.c **** 	CY_SET_REG8((void CYXDATA *)(CYREG_PHUB_CH5_BASIC_STATUS+1u), 0x08u);	/* ch5 first TD: 8 */
 753              		.loc 1 722 0
 754 0056 364B     		ldr	r3, .L14+52
 755 0058 0822     		movs	r2, #8
 756 005a 1A70     		strb	r2, [r3]
 723:Generated_Source\PSoC5/cyfitter_cfg.c **** 	CY_SET_REG8((void CYXDATA *)(CYREG_PHUB_CH6_BASIC_STATUS+1u), 0x15u);	/* ch6 first TD: 21 */
 757              		.loc 1 723 0
 758 005c 354B     		ldr	r3, .L14+56
 759 005e 1522     		movs	r2, #21
ARM GAS  C:\Users\Doug\AppData\Local\Temp\cciOAmpG.s 			page 27


 760 0060 1A70     		strb	r2, [r3]
 724:Generated_Source\PSoC5/cyfitter_cfg.c **** 
 725:Generated_Source\PSoC5/cyfitter_cfg.c **** 	CY_CFG_MEMORY_BARRIER();
 761              		.loc 1 725 0
 762 0062 BFF35F8F 		dmb	sy
 726:Generated_Source\PSoC5/cyfitter_cfg.c **** 	CY_SET_REG8((void CYXDATA *)CYREG_PHUB_CH0_ACTION, 0x01u); /* cpu_req */
 763              		.loc 1 726 0
 764 0066 344B     		ldr	r3, .L14+60
 765 0068 0122     		movs	r2, #1
 766 006a 1A70     		strb	r2, [r3]
 727:Generated_Source\PSoC5/cyfitter_cfg.c **** 	CY_CFG_MEMORY_BARRIER();
 767              		.loc 1 727 0
 768 006c BFF35F8F 		dmb	sy
 728:Generated_Source\PSoC5/cyfitter_cfg.c **** 
 729:Generated_Source\PSoC5/cyfitter_cfg.c **** 	/* Wait for TDs to be copied into TDMEM */
 730:Generated_Source\PSoC5/cyfitter_cfg.c **** 	while (CY_GET_REG16((void CYXDATA *)CYREG_PHUB_TDMEM0_ORIG_TD0) != 0u) { }
 769              		.loc 1 730 0
 770 0070 00BF     		nop
 771              	.L7:
 772              		.loc 1 730 0 is_stmt 0 discriminator 1
 773 0072 264B     		ldr	r3, .L14+16
 774 0074 1B88     		ldrh	r3, [r3]	@ movhi
 775 0076 9BB2     		uxth	r3, r3
 776 0078 002B     		cmp	r3, #0
 777 007a FAD1     		bne	.L7
 731:Generated_Source\PSoC5/cyfitter_cfg.c **** 
 732:Generated_Source\PSoC5/cyfitter_cfg.c **** 	/* Recombine TD source table (CFG_TD_ADDR0) with full TD table (CFG_TD_LIST0) */
 733:Generated_Source\PSoC5/cyfitter_cfg.c **** 	for (i = 0u; i < 95u; i++)
 778              		.loc 1 733 0 is_stmt 1
 779 007c 0023     		movs	r3, #0
 780 007e 7B60     		str	r3, [r7, #4]
 781 0080 0DE0     		b	.L8
 782              	.L9:
 734:Generated_Source\PSoC5/cyfitter_cfg.c **** 	{
 735:Generated_Source\PSoC5/cyfitter_cfg.c **** 		CY_SET_REG16((void CYXDATA *)(CYREG_PHUB_TDMEM1_ORIG_TD1 + (sizeof(struct td_t)*i)), (uint16)(uin
 783              		.loc 1 735 0 discriminator 3
 784 0082 7B68     		ldr	r3, [r7, #4]
 785 0084 DA00     		lsls	r2, r3, #3
 786 0086 2D4B     		ldr	r3, .L14+64
 787 0088 1344     		add	r3, r3, r2
 788 008a 1946     		mov	r1, r3
 789 008c 2C4A     		ldr	r2, .L14+68
 790 008e 7B68     		ldr	r3, [r7, #4]
 791 0090 52F82330 		ldr	r3, [r2, r3, lsl #2]
 792 0094 9BB2     		uxth	r3, r3
 793 0096 0B80     		strh	r3, [r1]	@ movhi
 733:Generated_Source\PSoC5/cyfitter_cfg.c **** 	{
 794              		.loc 1 733 0 discriminator 3
 795 0098 7B68     		ldr	r3, [r7, #4]
 796 009a 0133     		adds	r3, r3, #1
 797 009c 7B60     		str	r3, [r7, #4]
 798              	.L8:
 733:Generated_Source\PSoC5/cyfitter_cfg.c **** 	{
 799              		.loc 1 733 0 is_stmt 0 discriminator 1
 800 009e 7B68     		ldr	r3, [r7, #4]
 801 00a0 5E2B     		cmp	r3, #94
 802 00a2 EED9     		bls	.L9
ARM GAS  C:\Users\Doug\AppData\Local\Temp\cciOAmpG.s 			page 28


 736:Generated_Source\PSoC5/cyfitter_cfg.c **** 	}
 737:Generated_Source\PSoC5/cyfitter_cfg.c **** 
 738:Generated_Source\PSoC5/cyfitter_cfg.c **** 	CY_CFG_MEMORY_BARRIER();
 803              		.loc 1 738 0 is_stmt 1
 804 00a4 BFF35F8F 		dmb	sy
 739:Generated_Source\PSoC5/cyfitter_cfg.c **** 	CY_SET_REG8((void CYXDATA *)CYREG_PHUB_CH0_ACTION, 0x01u); /* cpu_req */
 805              		.loc 1 739 0
 806 00a8 234B     		ldr	r3, .L14+60
 807 00aa 0122     		movs	r2, #1
 808 00ac 1A70     		strb	r2, [r3]
 740:Generated_Source\PSoC5/cyfitter_cfg.c **** 	CY_CFG_MEMORY_BARRIER();
 809              		.loc 1 740 0
 810 00ae BFF35F8F 		dmb	sy
 741:Generated_Source\PSoC5/cyfitter_cfg.c **** 
 742:Generated_Source\PSoC5/cyfitter_cfg.c **** 	/* Wait for all DMA transfers to complete */
 743:Generated_Source\PSoC5/cyfitter_cfg.c **** 	while(0u != (CY_GET_REG8((void CYXDATA *)CYREG_PHUB_CH0_BASIC_STATUS) & 0x01u)){}
 811              		.loc 1 743 0
 812 00b2 00BF     		nop
 813              	.L10:
 814              		.loc 1 743 0 is_stmt 0 discriminator 1
 815 00b4 234B     		ldr	r3, .L14+72
 816 00b6 1B78     		ldrb	r3, [r3]
 817 00b8 DBB2     		uxtb	r3, r3
 818 00ba 03F00103 		and	r3, r3, #1
 819 00be 002B     		cmp	r3, #0
 820 00c0 F8D1     		bne	.L10
 744:Generated_Source\PSoC5/cyfitter_cfg.c **** 	while(0u != (CY_GET_REG8((void CYXDATA *)CYREG_PHUB_CH1_BASIC_STATUS) & 0x01u)){}
 821              		.loc 1 744 0 is_stmt 1
 822 00c2 00BF     		nop
 823              	.L11:
 824              		.loc 1 744 0 is_stmt 0 discriminator 1
 825 00c4 204B     		ldr	r3, .L14+76
 826 00c6 1B78     		ldrb	r3, [r3]
 827 00c8 DBB2     		uxtb	r3, r3
 828 00ca 03F00103 		and	r3, r3, #1
 829 00ce 002B     		cmp	r3, #0
 830 00d0 F8D1     		bne	.L11
 745:Generated_Source\PSoC5/cyfitter_cfg.c **** 	while(0u != (CY_GET_REG8((void CYXDATA *)CYREG_PHUB_CH5_BASIC_STATUS) & 0x01u)){}
 831              		.loc 1 745 0 is_stmt 1
 832 00d2 00BF     		nop
 833              	.L12:
 834              		.loc 1 745 0 is_stmt 0 discriminator 1
 835 00d4 1D4B     		ldr	r3, .L14+80
 836 00d6 1B78     		ldrb	r3, [r3]
 837 00d8 DBB2     		uxtb	r3, r3
 838 00da 03F00103 		and	r3, r3, #1
 839 00de 002B     		cmp	r3, #0
 840 00e0 F8D1     		bne	.L12
 746:Generated_Source\PSoC5/cyfitter_cfg.c **** 	while(0u != (CY_GET_REG8((void CYXDATA *)CYREG_PHUB_CH6_BASIC_STATUS) & 0x01u)){}
 841              		.loc 1 746 0 is_stmt 1
 842 00e2 00BF     		nop
 843              	.L13:
 844              		.loc 1 746 0 is_stmt 0 discriminator 1
 845 00e4 1A4B     		ldr	r3, .L14+84
 846 00e6 1B78     		ldrb	r3, [r3]
 847 00e8 DBB2     		uxtb	r3, r3
 848 00ea 03F00103 		and	r3, r3, #1
ARM GAS  C:\Users\Doug\AppData\Local\Temp\cciOAmpG.s 			page 29


 849 00ee 002B     		cmp	r3, #0
 850 00f0 F8D1     		bne	.L13
 747:Generated_Source\PSoC5/cyfitter_cfg.c **** 
 748:Generated_Source\PSoC5/cyfitter_cfg.c **** 
 749:Generated_Source\PSoC5/cyfitter_cfg.c **** }
 851              		.loc 1 749 0 is_stmt 1
 852 00f2 00BF     		nop
 853 00f4 0C37     		adds	r7, r7, #12
 854              		.cfi_def_cfa_offset 4
 855 00f6 BD46     		mov	sp, r7
 856              		.cfi_def_cfa_register 13
 857              		@ sp needed
 858 00f8 80BC     		pop	{r7}
 859              		.cfi_restore 7
 860              		.cfi_def_cfa_offset 0
 861 00fa 7047     		bx	lr
 862              	.L15:
 863              		.align	2
 864              	.L14:
 865 00fc 00000000 		.word	DMA_ZERO_VAL.4980
 866 0100 00760040 		.word	1073772032
 867 0104 10700040 		.word	1073770512
 868 0108 19700040 		.word	1073770521
 869 010c 00780040 		.word	1073772544
 870 0110 02780040 		.word	1073772546
 871 0114 03780040 		.word	1073772547
 872 0118 04780040 		.word	1073772548
 873 011c 20000000 		.word	CFG_TD_LIST0.4981
 874 0120 06780040 		.word	1073772550
 875 0124 04760040 		.word	1073772036
 876 0128 06760040 		.word	1073772038
 877 012c 29700040 		.word	1073770537
 878 0130 69700040 		.word	1073770601
 879 0134 79700040 		.word	1073770617
 880 0138 14700040 		.word	1073770516
 881 013c 0C780040 		.word	1073772556
 882 0140 00000000 		.word	CFG_TD_ADDR0.4982
 883 0144 18700040 		.word	1073770520
 884 0148 28700040 		.word	1073770536
 885 014c 68700040 		.word	1073770600
 886 0150 78700040 		.word	1073770616
 887              		.cfi_endproc
 888              	.LFE4:
 889              		.size	cfg_dma_init, .-cfg_dma_init
 890              		.section	.text.ClockSetup,"ax",%progbits
 891              		.align	2
 892              		.thumb
 893              		.thumb_func
 894              		.type	ClockSetup, %function
 895              	ClockSetup:
 896              	.LFB5:
 750:Generated_Source\PSoC5/cyfitter_cfg.c **** /*******************************************************************************
 751:Generated_Source\PSoC5/cyfitter_cfg.c **** * Function Name: ClockSetup
 752:Generated_Source\PSoC5/cyfitter_cfg.c **** ********************************************************************************
 753:Generated_Source\PSoC5/cyfitter_cfg.c **** *
 754:Generated_Source\PSoC5/cyfitter_cfg.c **** * Summary:
 755:Generated_Source\PSoC5/cyfitter_cfg.c **** *  Performs the initialization of all of the clocks in the device based on the
ARM GAS  C:\Users\Doug\AppData\Local\Temp\cciOAmpG.s 			page 30


 756:Generated_Source\PSoC5/cyfitter_cfg.c **** *  settings in the Clock tab of the DWR.  This includes enabling the requested
 757:Generated_Source\PSoC5/cyfitter_cfg.c **** *  clocks and setting the necessary dividers to produce the desired frequency. 
 758:Generated_Source\PSoC5/cyfitter_cfg.c **** *
 759:Generated_Source\PSoC5/cyfitter_cfg.c **** * Parameters:
 760:Generated_Source\PSoC5/cyfitter_cfg.c **** *  void
 761:Generated_Source\PSoC5/cyfitter_cfg.c **** *
 762:Generated_Source\PSoC5/cyfitter_cfg.c **** * Return:
 763:Generated_Source\PSoC5/cyfitter_cfg.c **** *  void
 764:Generated_Source\PSoC5/cyfitter_cfg.c **** *
 765:Generated_Source\PSoC5/cyfitter_cfg.c **** *******************************************************************************/
 766:Generated_Source\PSoC5/cyfitter_cfg.c **** static void ClockSetup(void);
 767:Generated_Source\PSoC5/cyfitter_cfg.c **** static void ClockSetup(void)
 768:Generated_Source\PSoC5/cyfitter_cfg.c **** {
 897              		.loc 1 768 0
 898              		.cfi_startproc
 899              		@ args = 0, pretend = 0, frame = 8
 900              		@ frame_needed = 1, uses_anonymous_args = 0
 901 0000 80B5     		push	{r7, lr}
 902              		.cfi_def_cfa_offset 8
 903              		.cfi_offset 7, -8
 904              		.cfi_offset 14, -4
 905 0002 82B0     		sub	sp, sp, #8
 906              		.cfi_def_cfa_offset 16
 907 0004 00AF     		add	r7, sp, #0
 908              		.cfi_def_cfa_register 7
 769:Generated_Source\PSoC5/cyfitter_cfg.c **** 	uint32 timeout;
 770:Generated_Source\PSoC5/cyfitter_cfg.c **** 	uint8 pllLock;
 771:Generated_Source\PSoC5/cyfitter_cfg.c **** 
 772:Generated_Source\PSoC5/cyfitter_cfg.c **** 
 773:Generated_Source\PSoC5/cyfitter_cfg.c **** 	/* Configure Digital Clocks based on settings from Clock DWR */
 774:Generated_Source\PSoC5/cyfitter_cfg.c **** 	CY_SET_XTND_REG16((void CYFAR *)(CYREG_CLKDIST_DCFG0_CFG0), 0x0003u);
 909              		.loc 1 774 0
 910 0006 444B     		ldr	r3, .L21
 911 0008 0322     		movs	r2, #3
 912 000a 1A80     		strh	r2, [r3]	@ movhi
 775:Generated_Source\PSoC5/cyfitter_cfg.c **** 	CY_SET_XTND_REG8((void CYFAR *)(CYREG_CLKDIST_DCFG0_CFG0 + 0x2u), 0x18u);
 913              		.loc 1 775 0
 914 000c 434B     		ldr	r3, .L21+4
 915 000e 1822     		movs	r2, #24
 916 0010 1A70     		strb	r2, [r3]
 776:Generated_Source\PSoC5/cyfitter_cfg.c **** 	CY_SET_XTND_REG16((void CYFAR *)(CYREG_CLKDIST_DCFG1_CFG0), 0x000Bu);
 917              		.loc 1 776 0
 918 0012 434B     		ldr	r3, .L21+8
 919 0014 0B22     		movs	r2, #11
 920 0016 1A80     		strh	r2, [r3]	@ movhi
 777:Generated_Source\PSoC5/cyfitter_cfg.c **** 	CY_SET_XTND_REG8((void CYFAR *)(CYREG_CLKDIST_DCFG1_CFG0 + 0x2u), 0x18u);
 921              		.loc 1 777 0
 922 0018 424B     		ldr	r3, .L21+12
 923 001a 1822     		movs	r2, #24
 924 001c 1A70     		strb	r2, [r3]
 778:Generated_Source\PSoC5/cyfitter_cfg.c **** 	CY_SET_XTND_REG16((void CYFAR *)(CYREG_CLKDIST_DCFG2_CFG0), 0x000Bu);
 925              		.loc 1 778 0
 926 001e 424B     		ldr	r3, .L21+16
 927 0020 0B22     		movs	r2, #11
 928 0022 1A80     		strh	r2, [r3]	@ movhi
 779:Generated_Source\PSoC5/cyfitter_cfg.c **** 	CY_SET_XTND_REG8((void CYFAR *)(CYREG_CLKDIST_DCFG2_CFG0 + 0x2u), 0x18u);
 929              		.loc 1 779 0
ARM GAS  C:\Users\Doug\AppData\Local\Temp\cciOAmpG.s 			page 31


 930 0024 414B     		ldr	r3, .L21+20
 931 0026 1822     		movs	r2, #24
 932 0028 1A70     		strb	r2, [r3]
 780:Generated_Source\PSoC5/cyfitter_cfg.c **** 	CY_SET_XTND_REG16((void CYFAR *)(CYREG_CLKDIST_DCFG3_CFG0), 0x000Bu);
 933              		.loc 1 780 0
 934 002a 414B     		ldr	r3, .L21+24
 935 002c 0B22     		movs	r2, #11
 936 002e 1A80     		strh	r2, [r3]	@ movhi
 781:Generated_Source\PSoC5/cyfitter_cfg.c **** 	CY_SET_XTND_REG8((void CYFAR *)(CYREG_CLKDIST_DCFG3_CFG0 + 0x2u), 0x18u);
 937              		.loc 1 781 0
 938 0030 404B     		ldr	r3, .L21+28
 939 0032 1822     		movs	r2, #24
 940 0034 1A70     		strb	r2, [r3]
 782:Generated_Source\PSoC5/cyfitter_cfg.c **** 	CY_SET_XTND_REG16((void CYFAR *)(CYREG_CLKDIST_DCFG4_CFG0), 0x000Eu);
 941              		.loc 1 782 0
 942 0036 404B     		ldr	r3, .L21+32
 943 0038 0E22     		movs	r2, #14
 944 003a 1A80     		strh	r2, [r3]	@ movhi
 783:Generated_Source\PSoC5/cyfitter_cfg.c **** 	CY_SET_XTND_REG8((void CYFAR *)(CYREG_CLKDIST_DCFG4_CFG0 + 0x2u), 0x18u);
 945              		.loc 1 783 0
 946 003c 3F4B     		ldr	r3, .L21+36
 947 003e 1822     		movs	r2, #24
 948 0040 1A70     		strb	r2, [r3]
 784:Generated_Source\PSoC5/cyfitter_cfg.c **** 	CY_SET_XTND_REG16((void CYFAR *)(CYREG_CLKDIST_DCFG5_CFG0), 0x0017u);
 949              		.loc 1 784 0
 950 0042 3F4B     		ldr	r3, .L21+40
 951 0044 1722     		movs	r2, #23
 952 0046 1A80     		strh	r2, [r3]	@ movhi
 785:Generated_Source\PSoC5/cyfitter_cfg.c **** 	CY_SET_XTND_REG8((void CYFAR *)(CYREG_CLKDIST_DCFG5_CFG0 + 0x2u), 0x18u);
 953              		.loc 1 785 0
 954 0048 3E4B     		ldr	r3, .L21+44
 955 004a 1822     		movs	r2, #24
 956 004c 1A70     		strb	r2, [r3]
 786:Generated_Source\PSoC5/cyfitter_cfg.c **** 	CY_SET_XTND_REG16((void CYFAR *)(CYREG_CLKDIST_DCFG6_CFG0), 0x095Fu);
 957              		.loc 1 786 0
 958 004e 3E4B     		ldr	r3, .L21+48
 959 0050 40F65F12 		movw	r2, #2399
 960 0054 1A80     		strh	r2, [r3]	@ movhi
 787:Generated_Source\PSoC5/cyfitter_cfg.c **** 	CY_SET_XTND_REG8((void CYFAR *)(CYREG_CLKDIST_DCFG6_CFG0 + 0x2u), 0x18u);
 961              		.loc 1 787 0
 962 0056 3D4B     		ldr	r3, .L21+52
 963 0058 1822     		movs	r2, #24
 964 005a 1A70     		strb	r2, [r3]
 788:Generated_Source\PSoC5/cyfitter_cfg.c **** 	CY_SET_XTND_REG16((void CYFAR *)(CYREG_CLKDIST_DCFG7_CFG0), 0x095Fu);
 965              		.loc 1 788 0
 966 005c 3C4B     		ldr	r3, .L21+56
 967 005e 40F65F12 		movw	r2, #2399
 968 0062 1A80     		strh	r2, [r3]	@ movhi
 789:Generated_Source\PSoC5/cyfitter_cfg.c **** 	CY_SET_XTND_REG8((void CYFAR *)(CYREG_CLKDIST_DCFG7_CFG0 + 0x2u), 0x18u);
 969              		.loc 1 789 0
 970 0064 3B4B     		ldr	r3, .L21+60
 971 0066 1822     		movs	r2, #24
 972 0068 1A70     		strb	r2, [r3]
 790:Generated_Source\PSoC5/cyfitter_cfg.c **** 
 791:Generated_Source\PSoC5/cyfitter_cfg.c **** 	/* Configure ILO based on settings from Clock DWR */
 792:Generated_Source\PSoC5/cyfitter_cfg.c **** 	CY_SET_XTND_REG8((void CYFAR *)(CYREG_SLOWCLK_ILO_CR0), 0x02u);
 973              		.loc 1 792 0
ARM GAS  C:\Users\Doug\AppData\Local\Temp\cciOAmpG.s 			page 32


 974 006a 3B4B     		ldr	r3, .L21+64
 975 006c 0222     		movs	r2, #2
 976 006e 1A70     		strb	r2, [r3]
 793:Generated_Source\PSoC5/cyfitter_cfg.c **** 	CY_SET_XTND_REG8((void CYFAR *)(CYREG_CLKDIST_CR), 0x08u);
 977              		.loc 1 793 0
 978 0070 4FF04023 		mov	r3, #1073758208
 979 0074 0822     		movs	r2, #8
 980 0076 1A70     		strb	r2, [r3]
 794:Generated_Source\PSoC5/cyfitter_cfg.c **** 
 795:Generated_Source\PSoC5/cyfitter_cfg.c **** 	/* Configure IMO based on settings from Clock DWR */
 796:Generated_Source\PSoC5/cyfitter_cfg.c **** 	CY_SET_XTND_REG8((void CYFAR *)(CYREG_FASTCLK_IMO_CR), 0x03u);
 981              		.loc 1 796 0
 982 0078 384B     		ldr	r3, .L21+68
 983 007a 0322     		movs	r2, #3
 984 007c 1A70     		strb	r2, [r3]
 797:Generated_Source\PSoC5/cyfitter_cfg.c **** 	CY_SET_XTND_REG8((void CYFAR *)(CYREG_IMO_TR1), (CY_GET_XTND_REG8((void CYFAR *)CYREG_FLSHID_CUST_
 985              		.loc 1 797 0
 986 007e 384B     		ldr	r3, .L21+72
 987 0080 384A     		ldr	r2, .L21+76
 988 0082 1278     		ldrb	r2, [r2]
 989 0084 D2B2     		uxtb	r2, r2
 990 0086 1A70     		strb	r2, [r3]
 798:Generated_Source\PSoC5/cyfitter_cfg.c **** 
 799:Generated_Source\PSoC5/cyfitter_cfg.c **** 	/* Configure PLL based on settings from Clock DWR */
 800:Generated_Source\PSoC5/cyfitter_cfg.c **** 	CY_SET_XTND_REG16((void CYFAR *)(CYREG_FASTCLK_PLL_P), 0x0008u);
 991              		.loc 1 800 0
 992 0088 374B     		ldr	r3, .L21+80
 993 008a 0822     		movs	r2, #8
 994 008c 1A80     		strh	r2, [r3]	@ movhi
 801:Generated_Source\PSoC5/cyfitter_cfg.c **** 	CY_SET_XTND_REG16((void CYFAR *)(CYREG_FASTCLK_PLL_CFG0), 0x1251u);
 995              		.loc 1 801 0
 996 008e 374B     		ldr	r3, .L21+84
 997 0090 41F25122 		movw	r2, #4689
 998 0094 1A80     		strh	r2, [r3]	@ movhi
 802:Generated_Source\PSoC5/cyfitter_cfg.c **** 	/* Wait up to 250us for the PLL to lock */
 803:Generated_Source\PSoC5/cyfitter_cfg.c **** 	pllLock = 0u;
 999              		.loc 1 803 0
 1000 0096 0023     		movs	r3, #0
 1001 0098 FB70     		strb	r3, [r7, #3]
 804:Generated_Source\PSoC5/cyfitter_cfg.c **** 	for (timeout = 250u / 10u; (timeout > 0u) && (pllLock != 0x03u); timeout--)
 1002              		.loc 1 804 0
 1003 009a 1923     		movs	r3, #25
 1004 009c 7B60     		str	r3, [r7, #4]
 1005 009e 13E0     		b	.L17
 1006              	.L19:
 805:Generated_Source\PSoC5/cyfitter_cfg.c **** 	{ 
 806:Generated_Source\PSoC5/cyfitter_cfg.c **** 		pllLock = 0x03u & ((uint8)((uint8)pllLock << 1) | ((CY_GET_XTND_REG8((void CYFAR *)CYREG_FASTCLK_
 1007              		.loc 1 806 0 discriminator 4
 1008 00a0 FB78     		ldrb	r3, [r7, #3]
 1009 00a2 5B00     		lsls	r3, r3, #1
 1010 00a4 DAB2     		uxtb	r2, r3
 1011 00a6 324B     		ldr	r3, .L21+88
 1012 00a8 1B78     		ldrb	r3, [r3]
 1013 00aa DBB2     		uxtb	r3, r3
 1014 00ac 03F00103 		and	r3, r3, #1
 1015 00b0 DBB2     		uxtb	r3, r3
 1016 00b2 1343     		orrs	r3, r3, r2
ARM GAS  C:\Users\Doug\AppData\Local\Temp\cciOAmpG.s 			page 33


 1017 00b4 DBB2     		uxtb	r3, r3
 1018 00b6 03F00303 		and	r3, r3, #3
 1019 00ba FB70     		strb	r3, [r7, #3]
 807:Generated_Source\PSoC5/cyfitter_cfg.c **** 		CyDelayCycles(10u * 12u); /* Delay 10us based on 12MHz clock */
 1020              		.loc 1 807 0 discriminator 4
 1021 00bc 7820     		movs	r0, #120
 1022 00be FFF7FEFF 		bl	CyDelayCycles
 804:Generated_Source\PSoC5/cyfitter_cfg.c **** 	for (timeout = 250u / 10u; (timeout > 0u) && (pllLock != 0x03u); timeout--)
 1023              		.loc 1 804 0 discriminator 4
 1024 00c2 7B68     		ldr	r3, [r7, #4]
 1025 00c4 013B     		subs	r3, r3, #1
 1026 00c6 7B60     		str	r3, [r7, #4]
 1027              	.L17:
 804:Generated_Source\PSoC5/cyfitter_cfg.c **** 	for (timeout = 250u / 10u; (timeout > 0u) && (pllLock != 0x03u); timeout--)
 1028              		.loc 1 804 0 is_stmt 0 discriminator 1
 1029 00c8 7B68     		ldr	r3, [r7, #4]
 1030 00ca 002B     		cmp	r3, #0
 1031 00cc 02D0     		beq	.L18
 804:Generated_Source\PSoC5/cyfitter_cfg.c **** 	for (timeout = 250u / 10u; (timeout > 0u) && (pllLock != 0x03u); timeout--)
 1032              		.loc 1 804 0 discriminator 3
 1033 00ce FB78     		ldrb	r3, [r7, #3]	@ zero_extendqisi2
 1034 00d0 032B     		cmp	r3, #3
 1035 00d2 E5D1     		bne	.L19
 1036              	.L18:
 808:Generated_Source\PSoC5/cyfitter_cfg.c **** 	}
 809:Generated_Source\PSoC5/cyfitter_cfg.c **** 	/* If we ran out of time the PLL didn't lock so go to the error function */
 810:Generated_Source\PSoC5/cyfitter_cfg.c **** 	if (timeout == 0u)
 1037              		.loc 1 810 0 is_stmt 1
 1038 00d4 7B68     		ldr	r3, [r7, #4]
 1039 00d6 002B     		cmp	r3, #0
 1040 00d8 02D1     		bne	.L20
 811:Generated_Source\PSoC5/cyfitter_cfg.c **** 	{
 812:Generated_Source\PSoC5/cyfitter_cfg.c **** 		CyClockStartupError(CYCLOCKSTART_PLL_ERROR);
 1041              		.loc 1 812 0
 1042 00da 0320     		movs	r0, #3
 1043 00dc FFF7FEFF 		bl	CyClockStartupError
 1044              	.L20:
 813:Generated_Source\PSoC5/cyfitter_cfg.c **** 	}
 814:Generated_Source\PSoC5/cyfitter_cfg.c **** 
 815:Generated_Source\PSoC5/cyfitter_cfg.c **** 	/* Configure Bus/Master Clock based on settings from Clock DWR */
 816:Generated_Source\PSoC5/cyfitter_cfg.c **** 	CY_SET_XTND_REG16((void CYFAR *)(CYREG_CLKDIST_MSTR0), 0x0100u);
 1045              		.loc 1 816 0
 1046 00e0 244B     		ldr	r3, .L21+92
 1047 00e2 4FF48072 		mov	r2, #256
 1048 00e6 1A80     		strh	r2, [r3]	@ movhi
 817:Generated_Source\PSoC5/cyfitter_cfg.c **** 	CY_SET_XTND_REG8((void CYFAR *)(CYREG_CLKDIST_MSTR0), 0x07u);
 1049              		.loc 1 817 0
 1050 00e8 224B     		ldr	r3, .L21+92
 1051 00ea 0722     		movs	r2, #7
 1052 00ec 1A70     		strb	r2, [r3]
 818:Generated_Source\PSoC5/cyfitter_cfg.c **** 	CY_SET_XTND_REG8((void CYFAR *)(CYREG_CLKDIST_BCFG0), 0x00u);
 1053              		.loc 1 818 0
 1054 00ee 224B     		ldr	r3, .L21+96
 1055 00f0 0022     		movs	r2, #0
 1056 00f2 1A70     		strb	r2, [r3]
 819:Generated_Source\PSoC5/cyfitter_cfg.c **** 	CY_SET_XTND_REG8((void CYFAR *)(CYREG_CLKDIST_BCFG2), 0x48u);
 1057              		.loc 1 819 0
ARM GAS  C:\Users\Doug\AppData\Local\Temp\cciOAmpG.s 			page 34


 1058 00f4 214B     		ldr	r3, .L21+100
 1059 00f6 4822     		movs	r2, #72
 1060 00f8 1A70     		strb	r2, [r3]
 820:Generated_Source\PSoC5/cyfitter_cfg.c **** 	CY_SET_XTND_REG8((void CYFAR *)(CYREG_CLKDIST_MSTR0), 0x00u);
 1061              		.loc 1 820 0
 1062 00fa 1E4B     		ldr	r3, .L21+92
 1063 00fc 0022     		movs	r2, #0
 1064 00fe 1A70     		strb	r2, [r3]
 821:Generated_Source\PSoC5/cyfitter_cfg.c **** 	CY_SET_XTND_REG8((void CYFAR *)(CYREG_CLKDIST_LD), 0x02u);
 1065              		.loc 1 821 0
 1066 0100 1F4B     		ldr	r3, .L21+104
 1067 0102 0222     		movs	r2, #2
 1068 0104 1A70     		strb	r2, [r3]
 822:Generated_Source\PSoC5/cyfitter_cfg.c **** 
 823:Generated_Source\PSoC5/cyfitter_cfg.c **** 	CY_SET_XTND_REG8((void CYFAR *)(CYREG_PM_ACT_CFG2), ((CY_GET_XTND_REG8((void CYFAR *)CYREG_PM_ACT_
 1069              		.loc 1 823 0
 1070 0106 1F4B     		ldr	r3, .L21+108
 1071 0108 1B78     		ldrb	r3, [r3]
 1072 010a 1E4B     		ldr	r3, .L21+108
 1073 010c FF22     		movs	r2, #255
 1074 010e 1A70     		strb	r2, [r3]
 824:Generated_Source\PSoC5/cyfitter_cfg.c **** }
 1075              		.loc 1 824 0
 1076 0110 00BF     		nop
 1077 0112 0837     		adds	r7, r7, #8
 1078              		.cfi_def_cfa_offset 8
 1079 0114 BD46     		mov	sp, r7
 1080              		.cfi_def_cfa_register 13
 1081              		@ sp needed
 1082 0116 80BD     		pop	{r7, pc}
 1083              	.L22:
 1084              		.align	2
 1085              	.L21:
 1086 0118 80400040 		.word	1073758336
 1087 011c 82400040 		.word	1073758338
 1088 0120 84400040 		.word	1073758340
 1089 0124 86400040 		.word	1073758342
 1090 0128 88400040 		.word	1073758344
 1091 012c 8A400040 		.word	1073758346
 1092 0130 8C400040 		.word	1073758348
 1093 0134 8E400040 		.word	1073758350
 1094 0138 90400040 		.word	1073758352
 1095 013c 92400040 		.word	1073758354
 1096 0140 94400040 		.word	1073758356
 1097 0144 96400040 		.word	1073758358
 1098 0148 98400040 		.word	1073758360
 1099 014c 9A400040 		.word	1073758362
 1100 0150 9C400040 		.word	1073758364
 1101 0154 9E400040 		.word	1073758366
 1102 0158 00430040 		.word	1073758976
 1103 015c 00420040 		.word	1073758720
 1104 0160 A1460040 		.word	1073759905
 1105 0164 08010049 		.word	1224737032
 1106 0168 22420040 		.word	1073758754
 1107 016c 20420040 		.word	1073758752
 1108 0170 25420040 		.word	1073758757
 1109 0174 04400040 		.word	1073758212
ARM GAS  C:\Users\Doug\AppData\Local\Temp\cciOAmpG.s 			page 35


 1110 0178 06400040 		.word	1073758214
 1111 017c 08400040 		.word	1073758216
 1112 0180 01400040 		.word	1073758209
 1113 0184 A2430040 		.word	1073759138
 1114              		.cfi_endproc
 1115              	.LFE5:
 1116              		.size	ClockSetup, .-ClockSetup
 1117              		.section	.text.AnalogSetDefault,"ax",%progbits
 1118              		.align	2
 1119              		.thumb
 1120              		.thumb_func
 1121              		.type	AnalogSetDefault, %function
 1122              	AnalogSetDefault:
 1123              	.LFB6:
 825:Generated_Source\PSoC5/cyfitter_cfg.c **** 
 826:Generated_Source\PSoC5/cyfitter_cfg.c **** 
 827:Generated_Source\PSoC5/cyfitter_cfg.c **** /* Analog API Functions */
 828:Generated_Source\PSoC5/cyfitter_cfg.c **** 
 829:Generated_Source\PSoC5/cyfitter_cfg.c **** 
 830:Generated_Source\PSoC5/cyfitter_cfg.c **** /*******************************************************************************
 831:Generated_Source\PSoC5/cyfitter_cfg.c **** * Function Name: AnalogSetDefault
 832:Generated_Source\PSoC5/cyfitter_cfg.c **** ********************************************************************************
 833:Generated_Source\PSoC5/cyfitter_cfg.c **** *
 834:Generated_Source\PSoC5/cyfitter_cfg.c **** * Summary:
 835:Generated_Source\PSoC5/cyfitter_cfg.c **** *  Sets up the analog portions of the chip to default values based on chip
 836:Generated_Source\PSoC5/cyfitter_cfg.c **** *  configuration options from the project.
 837:Generated_Source\PSoC5/cyfitter_cfg.c **** *
 838:Generated_Source\PSoC5/cyfitter_cfg.c **** * Parameters:
 839:Generated_Source\PSoC5/cyfitter_cfg.c **** *  void
 840:Generated_Source\PSoC5/cyfitter_cfg.c **** *
 841:Generated_Source\PSoC5/cyfitter_cfg.c **** * Return:
 842:Generated_Source\PSoC5/cyfitter_cfg.c **** *  void
 843:Generated_Source\PSoC5/cyfitter_cfg.c **** *
 844:Generated_Source\PSoC5/cyfitter_cfg.c **** *******************************************************************************/
 845:Generated_Source\PSoC5/cyfitter_cfg.c **** static void AnalogSetDefault(void);
 846:Generated_Source\PSoC5/cyfitter_cfg.c **** static void AnalogSetDefault(void)
 847:Generated_Source\PSoC5/cyfitter_cfg.c **** {
 1124              		.loc 1 847 0
 1125              		.cfi_startproc
 1126              		@ args = 0, pretend = 0, frame = 8
 1127              		@ frame_needed = 1, uses_anonymous_args = 0
 1128              		@ link register save eliminated.
 1129 0000 80B4     		push	{r7}
 1130              		.cfi_def_cfa_offset 4
 1131              		.cfi_offset 7, -4
 1132 0002 83B0     		sub	sp, sp, #12
 1133              		.cfi_def_cfa_offset 16
 1134 0004 00AF     		add	r7, sp, #0
 1135              		.cfi_def_cfa_register 7
 848:Generated_Source\PSoC5/cyfitter_cfg.c **** 	uint8 bg_xover_inl_trim = CY_GET_XTND_REG8((void CYFAR *)(CYREG_FLSHID_MFG_CFG_BG_XOVER_INL_TRIM +
 1136              		.loc 1 848 0
 1137 0006 0F4B     		ldr	r3, .L24
 1138 0008 1B78     		ldrb	r3, [r3]
 1139 000a FB71     		strb	r3, [r7, #7]
 849:Generated_Source\PSoC5/cyfitter_cfg.c **** 	CY_SET_XTND_REG8((void CYFAR *)(CYREG_BG_DFT0), (bg_xover_inl_trim & 0x07u));
 1140              		.loc 1 849 0
 1141 000c 0E4A     		ldr	r2, .L24+4
ARM GAS  C:\Users\Doug\AppData\Local\Temp\cciOAmpG.s 			page 36


 1142 000e FB79     		ldrb	r3, [r7, #7]
 1143 0010 03F00703 		and	r3, r3, #7
 1144 0014 DBB2     		uxtb	r3, r3
 1145 0016 1370     		strb	r3, [r2]
 850:Generated_Source\PSoC5/cyfitter_cfg.c **** 	CY_SET_XTND_REG8((void CYFAR *)(CYREG_BG_DFT1), ((bg_xover_inl_trim >> 4) & 0x0Fu));
 1146              		.loc 1 850 0
 1147 0018 0C4A     		ldr	r2, .L24+8
 1148 001a FB79     		ldrb	r3, [r7, #7]	@ zero_extendqisi2
 1149 001c 1B09     		lsrs	r3, r3, #4
 1150 001e DBB2     		uxtb	r3, r3
 1151 0020 1370     		strb	r3, [r2]
 851:Generated_Source\PSoC5/cyfitter_cfg.c **** 	CY_SET_XTND_REG8((void CYFAR *)CYREG_PRT3_AG, 0x02u);
 1152              		.loc 1 851 0
 1153 0022 0B4B     		ldr	r3, .L24+12
 1154 0024 0222     		movs	r2, #2
 1155 0026 1A70     		strb	r2, [r3]
 852:Generated_Source\PSoC5/cyfitter_cfg.c **** 	CY_SET_XTND_REG8((void CYFAR *)CYREG_CMP1_SW0, 0x20u);
 1156              		.loc 1 852 0
 1157 0028 0A4B     		ldr	r3, .L24+16
 1158 002a 2022     		movs	r2, #32
 1159 002c 1A70     		strb	r2, [r3]
 853:Generated_Source\PSoC5/cyfitter_cfg.c **** 	CY_SET_XTND_REG8((void CYFAR *)CYREG_CMP1_SW3, 0x20u);
 1160              		.loc 1 853 0
 1161 002e 0A4B     		ldr	r3, .L24+20
 1162 0030 2022     		movs	r2, #32
 1163 0032 1A70     		strb	r2, [r3]
 854:Generated_Source\PSoC5/cyfitter_cfg.c **** 	CY_SET_XTND_REG8((void CYFAR *)CYREG_PUMP_CR0, 0x44u);
 1164              		.loc 1 854 0
 1165 0034 094B     		ldr	r3, .L24+24
 1166 0036 4422     		movs	r2, #68
 1167 0038 1A70     		strb	r2, [r3]
 855:Generated_Source\PSoC5/cyfitter_cfg.c **** }
 1168              		.loc 1 855 0
 1169 003a 00BF     		nop
 1170 003c 0C37     		adds	r7, r7, #12
 1171              		.cfi_def_cfa_offset 4
 1172 003e BD46     		mov	sp, r7
 1173              		.cfi_def_cfa_register 13
 1174              		@ sp needed
 1175 0040 80BC     		pop	{r7}
 1176              		.cfi_restore 7
 1177              		.cfi_def_cfa_offset 0
 1178 0042 7047     		bx	lr
 1179              	.L25:
 1180              		.align	2
 1181              	.L24:
 1182 0044 CF010049 		.word	1224737231
 1183 0048 6E580040 		.word	1073764462
 1184 004c 6F580040 		.word	1073764463
 1185 0050 3D510040 		.word	1073762621
 1186 0054 C85A0040 		.word	1073765064
 1187 0058 CB5A0040 		.word	1073765067
 1188 005c 76580040 		.word	1073764470
 1189              		.cfi_endproc
 1190              	.LFE6:
 1191              		.size	AnalogSetDefault, .-AnalogSetDefault
 1192              		.section	.text.SetAnalogRoutingPumps,"ax",%progbits
ARM GAS  C:\Users\Doug\AppData\Local\Temp\cciOAmpG.s 			page 37


 1193              		.align	2
 1194              		.global	SetAnalogRoutingPumps
 1195              		.thumb
 1196              		.thumb_func
 1197              		.type	SetAnalogRoutingPumps, %function
 1198              	SetAnalogRoutingPumps:
 1199              	.LFB7:
 856:Generated_Source\PSoC5/cyfitter_cfg.c **** 
 857:Generated_Source\PSoC5/cyfitter_cfg.c **** 
 858:Generated_Source\PSoC5/cyfitter_cfg.c **** /*******************************************************************************
 859:Generated_Source\PSoC5/cyfitter_cfg.c **** * Function Name: SetAnalogRoutingPumps
 860:Generated_Source\PSoC5/cyfitter_cfg.c **** ********************************************************************************
 861:Generated_Source\PSoC5/cyfitter_cfg.c **** *
 862:Generated_Source\PSoC5/cyfitter_cfg.c **** * Summary:
 863:Generated_Source\PSoC5/cyfitter_cfg.c **** * Enables or disables the analog pumps feeding analog routing switches.
 864:Generated_Source\PSoC5/cyfitter_cfg.c **** * Intended to be called at startup, based on the Vdda system configuration;
 865:Generated_Source\PSoC5/cyfitter_cfg.c **** * may be called during operation when the user informs us that the Vdda voltage
 866:Generated_Source\PSoC5/cyfitter_cfg.c **** * crossed the pump threshold.
 867:Generated_Source\PSoC5/cyfitter_cfg.c **** *
 868:Generated_Source\PSoC5/cyfitter_cfg.c **** * Parameters:
 869:Generated_Source\PSoC5/cyfitter_cfg.c **** *  enabled - 1 to enable the pumps, 0 to disable the pumps
 870:Generated_Source\PSoC5/cyfitter_cfg.c **** *
 871:Generated_Source\PSoC5/cyfitter_cfg.c **** * Return:
 872:Generated_Source\PSoC5/cyfitter_cfg.c **** *  void
 873:Generated_Source\PSoC5/cyfitter_cfg.c **** *
 874:Generated_Source\PSoC5/cyfitter_cfg.c **** *******************************************************************************/
 875:Generated_Source\PSoC5/cyfitter_cfg.c **** void SetAnalogRoutingPumps(uint8 enabled)
 876:Generated_Source\PSoC5/cyfitter_cfg.c **** {
 1200              		.loc 1 876 0
 1201              		.cfi_startproc
 1202              		@ args = 0, pretend = 0, frame = 16
 1203              		@ frame_needed = 1, uses_anonymous_args = 0
 1204              		@ link register save eliminated.
 1205 0000 80B4     		push	{r7}
 1206              		.cfi_def_cfa_offset 4
 1207              		.cfi_offset 7, -4
 1208 0002 85B0     		sub	sp, sp, #20
 1209              		.cfi_def_cfa_offset 24
 1210 0004 00AF     		add	r7, sp, #0
 1211              		.cfi_def_cfa_register 7
 1212 0006 0346     		mov	r3, r0
 1213 0008 FB71     		strb	r3, [r7, #7]
 877:Generated_Source\PSoC5/cyfitter_cfg.c **** 	uint8 regValue = CY_GET_XTND_REG8((void CYFAR *)CYREG_PUMP_CR0);
 1214              		.loc 1 877 0
 1215 000a 0B4B     		ldr	r3, .L29
 1216 000c 1B78     		ldrb	r3, [r3]
 1217 000e FB73     		strb	r3, [r7, #15]
 878:Generated_Source\PSoC5/cyfitter_cfg.c **** 	if (enabled != 0u)
 1218              		.loc 1 878 0
 1219 0010 FB79     		ldrb	r3, [r7, #7]	@ zero_extendqisi2
 1220 0012 002B     		cmp	r3, #0
 1221 0014 04D0     		beq	.L27
 879:Generated_Source\PSoC5/cyfitter_cfg.c **** 	{
 880:Generated_Source\PSoC5/cyfitter_cfg.c **** 		regValue |= 0x22u;
 1222              		.loc 1 880 0
 1223 0016 FB7B     		ldrb	r3, [r7, #15]
 1224 0018 43F02203 		orr	r3, r3, #34
ARM GAS  C:\Users\Doug\AppData\Local\Temp\cciOAmpG.s 			page 38


 1225 001c FB73     		strb	r3, [r7, #15]
 1226 001e 03E0     		b	.L28
 1227              	.L27:
 881:Generated_Source\PSoC5/cyfitter_cfg.c **** 	}
 882:Generated_Source\PSoC5/cyfitter_cfg.c **** 	else
 883:Generated_Source\PSoC5/cyfitter_cfg.c **** 	{
 884:Generated_Source\PSoC5/cyfitter_cfg.c **** 		regValue &= (uint8)~0x22u;
 1228              		.loc 1 884 0
 1229 0020 FB7B     		ldrb	r3, [r7, #15]
 1230 0022 23F02203 		bic	r3, r3, #34
 1231 0026 FB73     		strb	r3, [r7, #15]
 1232              	.L28:
 885:Generated_Source\PSoC5/cyfitter_cfg.c **** 	}
 886:Generated_Source\PSoC5/cyfitter_cfg.c **** 	CY_SET_XTND_REG8((void CYFAR *)CYREG_PUMP_CR0, regValue);
 1233              		.loc 1 886 0
 1234 0028 034A     		ldr	r2, .L29
 1235 002a FB7B     		ldrb	r3, [r7, #15]
 1236 002c 1370     		strb	r3, [r2]
 887:Generated_Source\PSoC5/cyfitter_cfg.c **** }
 1237              		.loc 1 887 0
 1238 002e 00BF     		nop
 1239 0030 1437     		adds	r7, r7, #20
 1240              		.cfi_def_cfa_offset 4
 1241 0032 BD46     		mov	sp, r7
 1242              		.cfi_def_cfa_register 13
 1243              		@ sp needed
 1244 0034 80BC     		pop	{r7}
 1245              		.cfi_restore 7
 1246              		.cfi_def_cfa_offset 0
 1247 0036 7047     		bx	lr
 1248              	.L30:
 1249              		.align	2
 1250              	.L29:
 1251 0038 76580040 		.word	1073764470
 1252              		.cfi_endproc
 1253              	.LFE7:
 1254              		.size	SetAnalogRoutingPumps, .-SetAnalogRoutingPumps
 1255              		.section	.text.cyfitter_cfg,"ax",%progbits
 1256              		.align	2
 1257              		.global	cyfitter_cfg
 1258              		.thumb
 1259              		.thumb_func
 1260              		.type	cyfitter_cfg, %function
 1261              	cyfitter_cfg:
 1262              	.LFB8:
 888:Generated_Source\PSoC5/cyfitter_cfg.c **** 
 889:Generated_Source\PSoC5/cyfitter_cfg.c **** 
 890:Generated_Source\PSoC5/cyfitter_cfg.c **** 
 891:Generated_Source\PSoC5/cyfitter_cfg.c **** 
 892:Generated_Source\PSoC5/cyfitter_cfg.c **** /*******************************************************************************
 893:Generated_Source\PSoC5/cyfitter_cfg.c **** * Function Name: cyfitter_cfg
 894:Generated_Source\PSoC5/cyfitter_cfg.c **** ********************************************************************************
 895:Generated_Source\PSoC5/cyfitter_cfg.c **** * Summary:
 896:Generated_Source\PSoC5/cyfitter_cfg.c **** *  This function is called by the start-up code for the selected device. It
 897:Generated_Source\PSoC5/cyfitter_cfg.c **** *  performs all of the necessary device configuration based on the design
 898:Generated_Source\PSoC5/cyfitter_cfg.c **** *  settings.  This includes settings from the Design Wide Resources (DWR) such
 899:Generated_Source\PSoC5/cyfitter_cfg.c **** *  as Clocks and Pins as well as any component configuration that is necessary.
ARM GAS  C:\Users\Doug\AppData\Local\Temp\cciOAmpG.s 			page 39


 900:Generated_Source\PSoC5/cyfitter_cfg.c **** *
 901:Generated_Source\PSoC5/cyfitter_cfg.c **** * Parameters:
 902:Generated_Source\PSoC5/cyfitter_cfg.c **** *   void
 903:Generated_Source\PSoC5/cyfitter_cfg.c **** *
 904:Generated_Source\PSoC5/cyfitter_cfg.c **** * Return:
 905:Generated_Source\PSoC5/cyfitter_cfg.c **** *   void
 906:Generated_Source\PSoC5/cyfitter_cfg.c **** *
 907:Generated_Source\PSoC5/cyfitter_cfg.c **** *******************************************************************************/
 908:Generated_Source\PSoC5/cyfitter_cfg.c **** 
 909:Generated_Source\PSoC5/cyfitter_cfg.c **** void cyfitter_cfg(void)
 910:Generated_Source\PSoC5/cyfitter_cfg.c **** {
 1263              		.loc 1 910 0
 1264              		.cfi_startproc
 1265              		@ args = 0, pretend = 0, frame = 0
 1266              		@ frame_needed = 1, uses_anonymous_args = 0
 1267 0000 80B5     		push	{r7, lr}
 1268              		.cfi_def_cfa_offset 8
 1269              		.cfi_offset 7, -8
 1270              		.cfi_offset 14, -4
 1271 0002 00AF     		add	r7, sp, #0
 1272              		.cfi_def_cfa_register 7
 911:Generated_Source\PSoC5/cyfitter_cfg.c **** #ifdef CYGlobalIntDisable
 912:Generated_Source\PSoC5/cyfitter_cfg.c **** 	/* Disable interrupts by default. Let user enable if/when they want. */
 913:Generated_Source\PSoC5/cyfitter_cfg.c **** 	CYGlobalIntDisable
 1273              		.loc 1 913 0
 1274              		.syntax unified
 1275              	@ 913 "Generated_Source\PSoC5\cyfitter_cfg.c" 1
 1276 0004 72B6     		CPSID   i
 1277              	@ 0 "" 2
 914:Generated_Source\PSoC5/cyfitter_cfg.c **** #endif
 915:Generated_Source\PSoC5/cyfitter_cfg.c **** 
 916:Generated_Source\PSoC5/cyfitter_cfg.c **** 
 917:Generated_Source\PSoC5/cyfitter_cfg.c **** 	/* Set Flash Cycles based on max possible frequency in case a glitch occurs during ClockSetup(). *
 918:Generated_Source\PSoC5/cyfitter_cfg.c **** 	CY_SET_XTND_REG8((void CYFAR *)(CYREG_CACHE_CC_CTL), (((CYDEV_INSTRUCT_CACHE_ENABLED) != 0) ? 0x61
 1278              		.loc 1 918 0
 1279              		.thumb
 1280              		.syntax unified
 1281 0006 344B     		ldr	r3, .L32
 1282 0008 6122     		movs	r2, #97
 1283 000a 1A70     		strb	r2, [r3]
 919:Generated_Source\PSoC5/cyfitter_cfg.c **** 	/* Setup clocks based on selections from Clock DWR */
 920:Generated_Source\PSoC5/cyfitter_cfg.c **** 	ClockSetup();
 1284              		.loc 1 920 0
 1285 000c FFF7FEFF 		bl	ClockSetup
 921:Generated_Source\PSoC5/cyfitter_cfg.c **** 	/* Set Flash Cycles based on newly configured 24.00MHz Bus Clock. */
 922:Generated_Source\PSoC5/cyfitter_cfg.c **** 	CY_SET_XTND_REG8((void CYFAR *)(CYREG_CACHE_CC_CTL), (((CYDEV_INSTRUCT_CACHE_ENABLED) != 0) ? 0x81
 1286              		.loc 1 922 0
 1287 0010 314B     		ldr	r3, .L32
 1288 0012 8122     		movs	r2, #129
 1289 0014 1A70     		strb	r2, [r3]
 923:Generated_Source\PSoC5/cyfitter_cfg.c **** 	/* Enable/Disable Debug functionality based on settings from System DWR */
 924:Generated_Source\PSoC5/cyfitter_cfg.c **** 	CY_SET_XTND_REG8((void CYFAR *)CYREG_MLOGIC_DEBUG, (CY_GET_XTND_REG8((void CYFAR *)CYREG_MLOGIC_DE
 1290              		.loc 1 924 0
 1291 0016 314A     		ldr	r2, .L32+4
 1292 0018 304B     		ldr	r3, .L32+4
 1293 001a 1B78     		ldrb	r3, [r3]
 1294 001c DBB2     		uxtb	r3, r3
ARM GAS  C:\Users\Doug\AppData\Local\Temp\cciOAmpG.s 			page 40


 1295 001e 43F00403 		orr	r3, r3, #4
 1296 0022 DBB2     		uxtb	r3, r3
 1297 0024 1370     		strb	r3, [r2]
 925:Generated_Source\PSoC5/cyfitter_cfg.c **** 
 926:Generated_Source\PSoC5/cyfitter_cfg.c **** 	{
 927:Generated_Source\PSoC5/cyfitter_cfg.c **** 		cfg_dma_init();
 1298              		.loc 1 927 0
 1299 0026 FFF7FEFF 		bl	cfg_dma_init
 928:Generated_Source\PSoC5/cyfitter_cfg.c **** 
 929:Generated_Source\PSoC5/cyfitter_cfg.c **** 		/* Perform normal device configuration. Order is not critical for these items. */
 930:Generated_Source\PSoC5/cyfitter_cfg.c **** 		CY_SET_XTND_REG16((void CYFAR *)(CYREG_LUT1_CR), 0x0103u);
 1300              		.loc 1 930 0
 1301 002a 2D4B     		ldr	r3, .L32+8
 1302 002c 40F20312 		movw	r2, #259
 1303 0030 1A80     		strh	r2, [r3]	@ movhi
 931:Generated_Source\PSoC5/cyfitter_cfg.c **** 
 932:Generated_Source\PSoC5/cyfitter_cfg.c **** 		/* Enable digital routing */
 933:Generated_Source\PSoC5/cyfitter_cfg.c **** 		CY_SET_XTND_REG8((void CYFAR *)CYREG_BCTL0_BANK_CTL, CY_GET_XTND_REG8((void CYFAR *)CYREG_BCTL0_B
 1304              		.loc 1 933 0
 1305 0032 2C4A     		ldr	r2, .L32+12
 1306 0034 2B4B     		ldr	r3, .L32+12
 1307 0036 1B78     		ldrb	r3, [r3]
 1308 0038 DBB2     		uxtb	r3, r3
 1309 003a 43F00203 		orr	r3, r3, #2
 1310 003e DBB2     		uxtb	r3, r3
 1311 0040 1370     		strb	r3, [r2]
 934:Generated_Source\PSoC5/cyfitter_cfg.c **** 		CY_SET_XTND_REG8((void CYFAR *)CYREG_BCTL1_BANK_CTL, CY_GET_XTND_REG8((void CYFAR *)CYREG_BCTL1_B
 1312              		.loc 1 934 0
 1313 0042 294A     		ldr	r2, .L32+16
 1314 0044 284B     		ldr	r3, .L32+16
 1315 0046 1B78     		ldrb	r3, [r3]
 1316 0048 DBB2     		uxtb	r3, r3
 1317 004a 43F00203 		orr	r3, r3, #2
 1318 004e DBB2     		uxtb	r3, r3
 1319 0050 1370     		strb	r3, [r2]
 935:Generated_Source\PSoC5/cyfitter_cfg.c **** 
 936:Generated_Source\PSoC5/cyfitter_cfg.c **** 		/* Enable UDB array */
 937:Generated_Source\PSoC5/cyfitter_cfg.c **** 		CY_SET_XTND_REG8((void CYFAR *)CYREG_PM_ACT_CFG0, CY_GET_XTND_REG8((void CYFAR *)CYREG_PM_ACT_CFG
 1320              		.loc 1 937 0
 1321 0052 264A     		ldr	r2, .L32+20
 1322 0054 254B     		ldr	r3, .L32+20
 1323 0056 1B78     		ldrb	r3, [r3]
 1324 0058 DBB2     		uxtb	r3, r3
 1325 005a 43F04003 		orr	r3, r3, #64
 1326 005e DBB2     		uxtb	r3, r3
 1327 0060 1370     		strb	r3, [r2]
 938:Generated_Source\PSoC5/cyfitter_cfg.c **** 		CY_SET_XTND_REG8((void CYFAR *)CYREG_PM_AVAIL_CR2, CY_GET_XTND_REG8((void CYFAR *)CYREG_PM_AVAIL_
 1328              		.loc 1 938 0
 1329 0062 234A     		ldr	r2, .L32+24
 1330 0064 224B     		ldr	r3, .L32+24
 1331 0066 1B78     		ldrb	r3, [r3]
 1332 0068 DBB2     		uxtb	r3, r3
 1333 006a 43F01003 		orr	r3, r3, #16
 1334 006e DBB2     		uxtb	r3, r3
 1335 0070 1370     		strb	r3, [r2]
 939:Generated_Source\PSoC5/cyfitter_cfg.c **** 	}
 940:Generated_Source\PSoC5/cyfitter_cfg.c **** 
ARM GAS  C:\Users\Doug\AppData\Local\Temp\cciOAmpG.s 			page 41


 941:Generated_Source\PSoC5/cyfitter_cfg.c **** 
 942:Generated_Source\PSoC5/cyfitter_cfg.c **** 	/* Perform second pass device configuration. These items must be configured in specific order afte
 943:Generated_Source\PSoC5/cyfitter_cfg.c **** 	CYCONFIGCPY((void CYFAR *)(CYREG_PRT0_DR), (const void CYFAR *)(BS_IOPINS0_0_VAL), 10u);
 1336              		.loc 1 943 0
 1337 0072 0A22     		movs	r2, #10
 1338 0074 1F49     		ldr	r1, .L32+28
 1339 0076 2048     		ldr	r0, .L32+32
 1340 0078 FFF7FEFF 		bl	CYCONFIGCPY
 944:Generated_Source\PSoC5/cyfitter_cfg.c **** 	CYCONFIGCPY((void CYFAR *)(CYREG_PRT12_DR), (const void CYFAR *)(BS_IOPINS0_7_VAL), 10u);
 1341              		.loc 1 944 0
 1342 007c 0A22     		movs	r2, #10
 1343 007e 1F49     		ldr	r1, .L32+36
 1344 0080 1F48     		ldr	r0, .L32+40
 1345 0082 FFF7FEFF 		bl	CYCONFIGCPY
 945:Generated_Source\PSoC5/cyfitter_cfg.c **** 	CYCONFIGCPY((void CYFAR *)(CYREG_PRT15_DM0), (const void CYFAR *)(BS_IOPINS0_8_VAL), 8u);
 1346              		.loc 1 945 0
 1347 0086 0822     		movs	r2, #8
 1348 0088 1E49     		ldr	r1, .L32+44
 1349 008a 1F48     		ldr	r0, .L32+48
 1350 008c FFF7FEFF 		bl	CYCONFIGCPY
 946:Generated_Source\PSoC5/cyfitter_cfg.c **** 	CYCONFIGCPY((void CYFAR *)(CYREG_PRT1_DM0), (const void CYFAR *)(BS_IOPINS0_1_VAL), 8u);
 1351              		.loc 1 946 0
 1352 0090 0822     		movs	r2, #8
 1353 0092 1E49     		ldr	r1, .L32+52
 1354 0094 1E48     		ldr	r0, .L32+56
 1355 0096 FFF7FEFF 		bl	CYCONFIGCPY
 947:Generated_Source\PSoC5/cyfitter_cfg.c **** 	CYCONFIGCPY((void CYFAR *)(CYREG_PRT2_DR), (const void CYFAR *)(BS_IOPINS0_2_VAL), 10u);
 1356              		.loc 1 947 0
 1357 009a 0A22     		movs	r2, #10
 1358 009c 1D49     		ldr	r1, .L32+60
 1359 009e 1E48     		ldr	r0, .L32+64
 1360 00a0 FFF7FEFF 		bl	CYCONFIGCPY
 948:Generated_Source\PSoC5/cyfitter_cfg.c **** 	CYCONFIGCPY((void CYFAR *)(CYREG_PRT3_DR), (const void CYFAR *)(BS_IOPINS0_3_VAL), 10u);
 1361              		.loc 1 948 0
 1362 00a4 0A22     		movs	r2, #10
 1363 00a6 1D49     		ldr	r1, .L32+68
 1364 00a8 1D48     		ldr	r0, .L32+72
 1365 00aa FFF7FEFF 		bl	CYCONFIGCPY
 949:Generated_Source\PSoC5/cyfitter_cfg.c **** 	/* Switch Boost to the precision bandgap reference from its internal reference */
 950:Generated_Source\PSoC5/cyfitter_cfg.c **** 	CY_SET_REG8((void CYXDATA *)CYREG_BOOST_CR2, (CY_GET_REG8((void CYXDATA *)CYREG_BOOST_CR2) | 0x08u
 1366              		.loc 1 950 0
 1367 00ae 1D4A     		ldr	r2, .L32+76
 1368 00b0 1C4B     		ldr	r3, .L32+76
 1369 00b2 1B78     		ldrb	r3, [r3]
 1370 00b4 DBB2     		uxtb	r3, r3
 1371 00b6 43F00803 		orr	r3, r3, #8
 1372 00ba DBB2     		uxtb	r3, r3
 1373 00bc 1370     		strb	r3, [r2]
 951:Generated_Source\PSoC5/cyfitter_cfg.c **** 	CY_SET_XTND_REG8((void CYFAR *)(CYREG_PANTHER_WAITPIPE), 0x01u);
 1374              		.loc 1 951 0
 1375 00be 1A4B     		ldr	r3, .L32+80
 1376 00c0 0122     		movs	r2, #1
 1377 00c2 1A70     		strb	r2, [r3]
 952:Generated_Source\PSoC5/cyfitter_cfg.c **** 
 953:Generated_Source\PSoC5/cyfitter_cfg.c **** 	/* Perform basic analog initialization to defaults */
 954:Generated_Source\PSoC5/cyfitter_cfg.c **** 	AnalogSetDefault();
 1378              		.loc 1 954 0
ARM GAS  C:\Users\Doug\AppData\Local\Temp\cciOAmpG.s 			page 42


 1379 00c4 FFF7FEFF 		bl	AnalogSetDefault
 955:Generated_Source\PSoC5/cyfitter_cfg.c **** 
 956:Generated_Source\PSoC5/cyfitter_cfg.c **** 	/* Configure alternate active mode */
 957:Generated_Source\PSoC5/cyfitter_cfg.c **** 	CYCONFIGCPY((void CYFAR *)CYDEV_PM_STBY_BASE, (const void CYFAR *)CYDEV_PM_ACT_BASE, 14u);
 1380              		.loc 1 957 0
 1381 00c8 0E22     		movs	r2, #14
 1382 00ca 0849     		ldr	r1, .L32+20
 1383 00cc 1748     		ldr	r0, .L32+84
 1384 00ce FFF7FEFF 		bl	CYCONFIGCPY
 958:Generated_Source\PSoC5/cyfitter_cfg.c **** }
 1385              		.loc 1 958 0
 1386 00d2 00BF     		nop
 1387 00d4 80BD     		pop	{r7, pc}
 1388              	.L33:
 1389 00d6 00BF     		.align	2
 1390              	.L32:
 1391 00d8 00480040 		.word	1073760256
 1392 00dc E8460040 		.word	1073759976
 1393 00e0 4A580040 		.word	1073764426
 1394 00e4 03500140 		.word	1073827843
 1395 00e8 13500140 		.word	1073827859
 1396 00ec A0430040 		.word	1073759136
 1397 00f0 C2430040 		.word	1073759170
 1398 00f4 38250048 		.word	1207969080
 1399 00f8 00510040 		.word	1073762560
 1400 00fc 44250048 		.word	1207969092
 1401 0100 C0510040 		.word	1073762752
 1402 0104 50250048 		.word	1207969104
 1403 0108 F2510040 		.word	1073762802
 1404 010c 58250048 		.word	1207969112
 1405 0110 12510040 		.word	1073762578
 1406 0114 60250048 		.word	1207969120
 1407 0118 20510040 		.word	1073762592
 1408 011c 6C250048 		.word	1207969132
 1409 0120 30510040 		.word	1073762608
 1410 0124 22430040 		.word	1073759010
 1411 0128 04000840 		.word	1074266116
 1412 012c B0430040 		.word	1073759152
 1413              		.cfi_endproc
 1414              	.LFE8:
 1415              		.size	cyfitter_cfg, .-cyfitter_cfg
 1416              		.bss
 1417              		.align	3
 1418              	DMA_ZERO_VAL.4980:
 1419 0000 00000000 		.space	4
 1420              		.section	.rodata
 1421              		.align	2
 1422              		.type	CFG_TD_ADDR0.4982, %object
 1423              		.size	CFG_TD_ADDR0.4982, 380
 1424              	CFG_TD_ADDR0.4982:
 1425 0000 00000000 		.word	CH1_ADDR_DATA0.4976
 1426 0004 08000000 		.word	CH5_ADDR_DATA0.4977
 1427 0008 10000000 		.word	CH6_ADDR_DATA0.4978
 1428 000c 18000000 		.word	DMA_TD_START_CMD.4979
 1429 0010 18000000 		.word	DMA_TD_START_CMD.4979
 1430 0014 18000000 		.word	DMA_TD_START_CMD.4979
 1431 0018 00000000 		.word	DMA_ZERO_VAL.4980
ARM GAS  C:\Users\Doug\AppData\Local\Temp\cciOAmpG.s 			page 43


 1432 001c 00000048 		.word	1207959552
 1433 0020 08000048 		.word	1207959560
 1434 0024 10000048 		.word	1207959568
 1435 0028 18000048 		.word	1207959576
 1436 002c 20000048 		.word	1207959584
 1437 0030 28000048 		.word	1207959592
 1438 0034 38000048 		.word	1207959608
 1439 0038 40000048 		.word	1207959616
 1440 003c 4C000048 		.word	1207959628
 1441 0040 580C0048 		.word	1207962712
 1442 0044 980C0048 		.word	1207962776
 1443 0048 B80C0048 		.word	1207962808
 1444 004c F80C0048 		.word	1207962872
 1445 0050 30000048 		.word	1207959600
 1446 0054 58000048 		.word	1207959640
 1447 0058 D8000048 		.word	1207959768
 1448 005c 58010048 		.word	1207959896
 1449 0060 D8010048 		.word	1207960024
 1450 0064 58020048 		.word	1207960152
 1451 0068 D8020048 		.word	1207960280
 1452 006c 58030048 		.word	1207960408
 1453 0070 D8030048 		.word	1207960536
 1454 0074 58040048 		.word	1207960664
 1455 0078 D8040048 		.word	1207960792
 1456 007c 58050048 		.word	1207960920
 1457 0080 D8050048 		.word	1207961048
 1458 0084 58060048 		.word	1207961176
 1459 0088 D8060048 		.word	1207961304
 1460 008c 58070048 		.word	1207961432
 1461 0090 D8070048 		.word	1207961560
 1462 0094 58080048 		.word	1207961688
 1463 0098 D8080048 		.word	1207961816
 1464 009c 58090048 		.word	1207961944
 1465 00a0 D8090048 		.word	1207962072
 1466 00a4 580A0048 		.word	1207962200
 1467 00a8 D80A0048 		.word	1207962328
 1468 00ac 580B0048 		.word	1207962456
 1469 00b0 D80B0048 		.word	1207962584
 1470 00b4 180D0048 		.word	1207962904
 1471 00b8 280D0048 		.word	1207962920
 1472 00bc 380D0048 		.word	1207962936
 1473 00c0 B80D0048 		.word	1207963064
 1474 00c4 380E0048 		.word	1207963192
 1475 00c8 B80E0048 		.word	1207963320
 1476 00cc 380F0048 		.word	1207963448
 1477 00d0 B80F0048 		.word	1207963576
 1478 00d4 38100048 		.word	1207963704
 1479 00d8 B8100048 		.word	1207963832
 1480 00dc 38110048 		.word	1207963960
 1481 00e0 B8110048 		.word	1207964088
 1482 00e4 38120048 		.word	1207964216
 1483 00e8 B8120048 		.word	1207964344
 1484 00ec 38130048 		.word	1207964472
 1485 00f0 B8130048 		.word	1207964600
 1486 00f4 38140048 		.word	1207964728
 1487 00f8 B8140048 		.word	1207964856
 1488 00fc 38150048 		.word	1207964984
ARM GAS  C:\Users\Doug\AppData\Local\Temp\cciOAmpG.s 			page 44


 1489 0100 B8150048 		.word	1207965112
 1490 0104 38160048 		.word	1207965240
 1491 0108 B8160048 		.word	1207965368
 1492 010c 38170048 		.word	1207965496
 1493 0110 B8170048 		.word	1207965624
 1494 0114 38180048 		.word	1207965752
 1495 0118 B8180048 		.word	1207965880
 1496 011c 38190048 		.word	1207966008
 1497 0120 B8190048 		.word	1207966136
 1498 0124 381A0048 		.word	1207966264
 1499 0128 B81A0048 		.word	1207966392
 1500 012c 381B0048 		.word	1207966520
 1501 0130 B81B0048 		.word	1207966648
 1502 0134 381C0048 		.word	1207966776
 1503 0138 B81C0048 		.word	1207966904
 1504 013c 381D0048 		.word	1207967032
 1505 0140 B81D0048 		.word	1207967160
 1506 0144 381E0048 		.word	1207967288
 1507 0148 B81E0048 		.word	1207967416
 1508 014c 381F0048 		.word	1207967544
 1509 0150 B81F0048 		.word	1207967672
 1510 0154 38200048 		.word	1207967800
 1511 0158 B8200048 		.word	1207967928
 1512 015c 38210048 		.word	1207968056
 1513 0160 B8210048 		.word	1207968184
 1514 0164 38220048 		.word	1207968312
 1515 0168 B8220048 		.word	1207968440
 1516 016c 38230048 		.word	1207968568
 1517 0170 B8230048 		.word	1207968696
 1518 0174 38240048 		.word	1207968824
 1519 0178 B8240048 		.word	1207968952
 1520              		.text
 1521              	.Letext0:
 1522              		.file 2 "c:\\program files (x86)\\cypress\\psoc creator\\4.2\\psoc creator\\import\\gnu\\arm\\5.4.
 1523              		.file 3 "Generated_Source\\PSoC5\\cytypes.h"