ARM GAS  C:\Users\Doug\AppData\Local\Temp\ccSaEm3K.s 			page 1


   1              		.syntax unified
   2              		.cpu cortex-m3
   3              		.fpu softvfp
   4              		.eabi_attribute 20, 1
   5              		.eabi_attribute 21, 1
   6              		.eabi_attribute 23, 3
   7              		.eabi_attribute 24, 1
   8              		.eabi_attribute 25, 1
   9              		.eabi_attribute 26, 1
  10              		.eabi_attribute 30, 6
  11              		.eabi_attribute 34, 1
  12              		.eabi_attribute 18, 4
  13              		.thumb
  14              		.syntax unified
  15              		.file	"main.c"
  16              		.text
  17              	.Ltext0:
  18              		.cfi_sections	.debug_frame
  19              		.comm	RPi_Command_Data,2,2
  20              		.comm	RPi_Data,2,2
  21              		.global	i2c_address
  22              		.bss
  23              		.type	i2c_address, %object
  24              		.size	i2c_address, 1
  25              	i2c_address:
  26 0000 00       		.space	1
  27              		.comm	i2c_data_to_write,8,4
  28              		.global	i2c_byte_count
  29              		.type	i2c_byte_count, %object
  30              		.size	i2c_byte_count, 1
  31              	i2c_byte_count:
  32 0001 00       		.space	1
  33              		.global	spi_trigger_value
  34              		.data
  35              		.align	2
  36              		.type	spi_trigger_value, %object
  37              		.size	spi_trigger_value, 8
  38              	spi_trigger_value:
  39 0000 FFFF     		.short	-1
  40 0002 FFFF     		.short	-1
  41 0004 FFFF     		.short	-1
  42 0006 FFFF     		.short	-1
  43              		.global	spi_trigger_reset
  44              		.bss
  45 0002 0000     		.align	2
  46              		.type	spi_trigger_reset, %object
  47              		.size	spi_trigger_reset, 4
  48              	spi_trigger_reset:
  49 0004 00000000 		.space	4
  50              		.global	spi_trigger_radius
  51              		.data
  52              		.align	2
  53              		.type	spi_trigger_radius, %object
  54              		.size	spi_trigger_radius, 8
  55              	spi_trigger_radius:
  56 0008 0500     		.short	5
  57 000a 0500     		.short	5
ARM GAS  C:\Users\Doug\AppData\Local\Temp\ccSaEm3K.s 			page 2


  58 000c 0500     		.short	5
  59 000e 0500     		.short	5
  60              		.global	firmwareVersionDate
  61              		.align	2
  62              		.type	firmwareVersionDate, %object
  63              		.size	firmwareVersionDate, 6
  64              	firmwareVersionDate:
  65 0010 03       		.byte	3
  66 0011 00       		.byte	0
  67 0012 00       		.byte	0
  68 0013 07       		.byte	7
  69 0014 0B       		.byte	11
  70 0015 13       		.byte	19
  71              		.comm	PSOC_state,1,1
  72              		.comm	RPi_Command,1,1
  73              		.section	.text.SS_Rise_Handler,"ax",%progbits
  74              		.align	2
  75              		.global	SS_Rise_Handler
  76              		.thumb
  77              		.thumb_func
  78              		.type	SS_Rise_Handler, %function
  79              	SS_Rise_Handler:
  80              	.LFB63:
  81              		.file 1 "main.c"
   1:main.c        **** /*******************************************************************************
   2:main.c        **** * File Name: main.c
   3:main.c        **** *
   4:main.c        **** * Version: 1.10
   5:main.c        **** *
   6:main.c        **** * Description:
   7:main.c        **** *  This is source code for forwarding data to and from the Raspberry Pi through the Cyprus, and mon
   8:main.c        **** *  Parameters used:
   9:main.c        **** *   Mode                CPHA == 0, CPOL == 0                
  10:main.c        **** *   Data lines          MOSI+MISO
  11:main.c        **** *   Shift direction     MSB First
  12:main.c        **** *   DataBits:           8 
  13:main.c        **** *   Bit Rate            1 Mbps
  14:main.c        **** *   Clock source        External  
  15:main.c        **** *
  16:main.c        **** ********************************************************************************
  17:main.c        **** * Copyright 2012-2015, Cypress Semiconductor Corporation. All rights reserved.
  18:main.c        **** * This software is owned by Cypress Semiconductor Corporation and is protected
  19:main.c        **** * by and subject to worldwide patent and copyright laws and treaties.
  20:main.c        **** * Therefore, you may use this software only as provided in the license agreement
  21:main.c        **** * accompanying the software package from which you obtained this software.
  22:main.c        **** * CYPRESS AND ITS SUPPLI                                         ERS MAKE NO WARRANTY OF ANY KIND, 
  23:main.c        **** * WITH REGARD TO THIS SOFTWARE, INCLUDING, BUT NOT LIMITED TO, NONINFRINGEMENT,
  24:main.c        **** * IMPLIED WARRANTIES OF MERCHANTABILITY AND FITNESS FOR A PARTICULAR PURPOSE.
  25:main.c        **** *******************************************************************************/
  26:main.c        **** #include <project.h>
  27:main.c        **** 
  28:main.c        **** #define COMMAND_MASK 0xFF00
  29:main.c        **** #define PORT_MASK 0x00F0
  30:main.c        **** #define PARAMETER_MASK 0x00F0
  31:main.c        **** #define CHANNEL_MASK 0x000F
  32:main.c        **** #define DATA_MASK 0x00F0
  33:main.c        **** #define READ_ENCODER 0x10
ARM GAS  C:\Users\Doug\AppData\Local\Temp\ccSaEm3K.s 			page 3


  34:main.c        **** #define ENCODER_IDLE 0xA5
  35:main.c        **** #define ORDINAL_MASK 0x000F
  36:main.c        **** #define TRIGGER_OFF 0xFFFF
  37:main.c        **** #define TRIGGER_RESET_MASK 0x00F0
  38:main.c        **** #define TRIGGER_RESET 0x1
  39:main.c        **** #define DEFAULT_TRIGGER_RADIUS 0x5
  40:main.c        **** 
  41:main.c        **** typedef enum {
  42:main.c        ****     idle_state,
  43:main.c        ****     listening_state,
  44:main.c        ****     execution_state,
  45:main.c        **** } state;
  46:main.c        **** 
  47:main.c        **** typedef enum {
  48:main.c        ****     no_command,
  49:main.c        ****     read_gpio,
  50:main.c        ****     write_gpio,
  51:main.c        ****     read_spi,
  52:main.c        ****     write_spi,
  53:main.c        ****     write_pwm,
  54:main.c        ****     read_i2c,
  55:main.c        ****     write_i2c,
  56:main.c        ****     add_i2c_data,
  57:main.c        ****     add_i2c_address,
  58:main.c        ****     set_spi_trigger,
  59:main.c        ****     read_encoder,
  60:main.c        ****     set_trigger_radius,
  61:main.c        ****     read_firmware_date
  62:main.c        **** } command;
  63:main.c        **** 
  64:main.c        **** uint16 ReadWriteSPIM1(uint8, uint8);
  65:main.c        **** uint16 ReadWriteSPIM2(uint8, uint16);
  66:main.c        **** uint16 ReadEncoder(uint8, uint8);
  67:main.c        **** command InterpretCommand(uint16);
  68:main.c        **** uint16 RPi_Command_Data;
  69:main.c        **** uint16 RPi_Data;
  70:main.c        **** uint8 i2c_address = 0;
  71:main.c        **** uint8 i2c_data_to_write[8];
  72:main.c        **** uint8 i2c_byte_count = 0;
  73:main.c        **** uint16 spi_trigger_value[4] = {TRIGGER_OFF, TRIGGER_OFF, TRIGGER_OFF, TRIGGER_OFF};
  74:main.c        **** uint8  spi_trigger_reset[4] = {0x0, 0x0, 0x0, 0x0};
  75:main.c        **** uint16 spi_trigger_radius[4] = {DEFAULT_TRIGGER_RADIUS, DEFAULT_TRIGGER_RADIUS, DEFAULT_TRIGGER_RAD
  76:main.c        **** 
  77:main.c        **** uint8_t firmwareVersionDate[] = {3, 0, 0, 7, 11, 19};
  78:main.c        **** 
  79:main.c        **** state PSOC_state;
  80:main.c        **** command RPi_Command;
  81:main.c        **** 
  82:main.c        **** CY_ISR(SS_Rise_Handler) {
  82              		.loc 1 82 0
  83              		.cfi_startproc
  84              		@ args = 0, pretend = 0, frame = 0
  85              		@ frame_needed = 1, uses_anonymous_args = 0
  86 0000 80B5     		push	{r7, lr}
  87              		.cfi_def_cfa_offset 8
  88              		.cfi_offset 7, -8
  89              		.cfi_offset 14, -4
ARM GAS  C:\Users\Doug\AppData\Local\Temp\ccSaEm3K.s 			page 4


  90 0002 00AF     		add	r7, sp, #0
  91              		.cfi_def_cfa_register 7
  83:main.c        ****     if (PSOC_state == idle_state) {
  92              		.loc 1 83 0
  93 0004 294B     		ldr	r3, .L7
  94 0006 1B78     		ldrb	r3, [r3]	@ zero_extendqisi2
  95 0008 002B     		cmp	r3, #0
  96 000a 38D1     		bne	.L2
  84:main.c        ****         RPi_Command_Data = SPIS_ReadRxData();
  97              		.loc 1 84 0
  98 000c FFF7FEFF 		bl	SPIS_ReadRxData
  99 0010 0346     		mov	r3, r0
 100 0012 1A46     		mov	r2, r3
 101 0014 264B     		ldr	r3, .L7+4
 102 0016 1A80     		strh	r2, [r3]	@ movhi
  85:main.c        ****         RPi_Command = InterpretCommand(RPi_Command_Data);
 103              		.loc 1 85 0
 104 0018 254B     		ldr	r3, .L7+4
 105 001a 1B88     		ldrh	r3, [r3]
 106 001c 1846     		mov	r0, r3
 107 001e FFF7FEFF 		bl	InterpretCommand
 108 0022 0346     		mov	r3, r0
 109 0024 1A46     		mov	r2, r3
 110 0026 234B     		ldr	r3, .L7+8
 111 0028 1A70     		strb	r2, [r3]
  86:main.c        ****         SPIS_ClearRxBuffer();
 112              		.loc 1 86 0
 113 002a FFF7FEFF 		bl	SPIS_ClearRxBuffer
  87:main.c        ****         if((RPi_Command == write_gpio) || 
 114              		.loc 1 87 0
 115 002e 214B     		ldr	r3, .L7+8
 116 0030 1B78     		ldrb	r3, [r3]	@ zero_extendqisi2
 117 0032 022B     		cmp	r3, #2
 118 0034 1BD0     		beq	.L3
  88:main.c        ****            (RPi_Command == write_spi) || 
 119              		.loc 1 88 0 discriminator 1
 120 0036 1F4B     		ldr	r3, .L7+8
 121 0038 1B78     		ldrb	r3, [r3]	@ zero_extendqisi2
  87:main.c        ****         if((RPi_Command == write_gpio) || 
 122              		.loc 1 87 0 discriminator 1
 123 003a 042B     		cmp	r3, #4
 124 003c 17D0     		beq	.L3
  89:main.c        ****            (RPi_Command == write_pwm) || 
 125              		.loc 1 89 0
 126 003e 1D4B     		ldr	r3, .L7+8
 127 0040 1B78     		ldrb	r3, [r3]	@ zero_extendqisi2
  88:main.c        ****            (RPi_Command == write_spi) || 
 128              		.loc 1 88 0
 129 0042 052B     		cmp	r3, #5
 130 0044 13D0     		beq	.L3
  90:main.c        ****            (RPi_Command == read_i2c) ||
 131              		.loc 1 90 0
 132 0046 1B4B     		ldr	r3, .L7+8
 133 0048 1B78     		ldrb	r3, [r3]	@ zero_extendqisi2
  89:main.c        ****            (RPi_Command == write_pwm) || 
 134              		.loc 1 89 0
 135 004a 062B     		cmp	r3, #6
ARM GAS  C:\Users\Doug\AppData\Local\Temp\ccSaEm3K.s 			page 5


 136 004c 0FD0     		beq	.L3
  91:main.c        ****            (RPi_Command == add_i2c_data) || 
 137              		.loc 1 91 0
 138 004e 194B     		ldr	r3, .L7+8
 139 0050 1B78     		ldrb	r3, [r3]	@ zero_extendqisi2
  90:main.c        ****            (RPi_Command == read_i2c) ||
 140              		.loc 1 90 0
 141 0052 082B     		cmp	r3, #8
 142 0054 0BD0     		beq	.L3
  92:main.c        ****            (RPi_Command == add_i2c_address) || 
 143              		.loc 1 92 0
 144 0056 174B     		ldr	r3, .L7+8
 145 0058 1B78     		ldrb	r3, [r3]	@ zero_extendqisi2
  91:main.c        ****            (RPi_Command == add_i2c_data) || 
 146              		.loc 1 91 0
 147 005a 092B     		cmp	r3, #9
 148 005c 07D0     		beq	.L3
  93:main.c        ****            (RPi_Command == set_spi_trigger) ||
 149              		.loc 1 93 0
 150 005e 154B     		ldr	r3, .L7+8
 151 0060 1B78     		ldrb	r3, [r3]	@ zero_extendqisi2
  92:main.c        ****            (RPi_Command == add_i2c_address) || 
 152              		.loc 1 92 0
 153 0062 0A2B     		cmp	r3, #10
 154 0064 03D0     		beq	.L3
  94:main.c        ****            (RPi_Command == set_trigger_radius)) {
 155              		.loc 1 94 0
 156 0066 134B     		ldr	r3, .L7+8
 157 0068 1B78     		ldrb	r3, [r3]	@ zero_extendqisi2
  93:main.c        ****            (RPi_Command == set_spi_trigger) ||
 158              		.loc 1 93 0
 159 006a 0C2B     		cmp	r3, #12
 160 006c 03D1     		bne	.L4
 161              	.L3:
  95:main.c        ****             PSOC_state = listening_state;
 162              		.loc 1 95 0
 163 006e 0F4B     		ldr	r3, .L7
 164 0070 0122     		movs	r2, #1
 165 0072 1A70     		strb	r2, [r3]
 166 0074 12E0     		b	.L6
 167              	.L4:
  96:main.c        ****         } else {
  97:main.c        ****             PSOC_state = execution_state;
 168              		.loc 1 97 0
 169 0076 0D4B     		ldr	r3, .L7
 170 0078 0222     		movs	r2, #2
 171 007a 1A70     		strb	r2, [r3]
 172 007c 0EE0     		b	.L6
 173              	.L2:
  98:main.c        ****         }
  99:main.c        ****     } else if (PSOC_state == listening_state) {
 174              		.loc 1 99 0
 175 007e 0B4B     		ldr	r3, .L7
 176 0080 1B78     		ldrb	r3, [r3]	@ zero_extendqisi2
 177 0082 012B     		cmp	r3, #1
 178 0084 0AD1     		bne	.L6
 100:main.c        ****         RPi_Data = SPIS_ReadRxData();
ARM GAS  C:\Users\Doug\AppData\Local\Temp\ccSaEm3K.s 			page 6


 179              		.loc 1 100 0
 180 0086 FFF7FEFF 		bl	SPIS_ReadRxData
 181 008a 0346     		mov	r3, r0
 182 008c 1A46     		mov	r2, r3
 183 008e 0A4B     		ldr	r3, .L7+12
 184 0090 1A80     		strh	r2, [r3]	@ movhi
 101:main.c        ****         PSOC_state = execution_state;
 185              		.loc 1 101 0
 186 0092 064B     		ldr	r3, .L7
 187 0094 0222     		movs	r2, #2
 188 0096 1A70     		strb	r2, [r3]
 102:main.c        ****         SPIS_ClearRxBuffer();
 189              		.loc 1 102 0
 190 0098 FFF7FEFF 		bl	SPIS_ClearRxBuffer
 191              	.L6:
 103:main.c        ****     }
 104:main.c        ****     
 105:main.c        ****     SPIS_ReadRxStatus();
 192              		.loc 1 105 0
 193 009c FFF7FEFF 		bl	SPIS_ReadRxStatus
 106:main.c        ****     SPIS_ClearRxBuffer();
 194              		.loc 1 106 0
 195 00a0 FFF7FEFF 		bl	SPIS_ClearRxBuffer
 107:main.c        ****     isr_SS_Rise_ClearPending();
 196              		.loc 1 107 0
 197 00a4 FFF7FEFF 		bl	isr_SS_Rise_ClearPending
 108:main.c        **** }
 198              		.loc 1 108 0
 199 00a8 00BF     		nop
 200 00aa 80BD     		pop	{r7, pc}
 201              	.L8:
 202              		.align	2
 203              	.L7:
 204 00ac 00000000 		.word	PSOC_state
 205 00b0 00000000 		.word	RPi_Command_Data
 206 00b4 00000000 		.word	RPi_Command
 207 00b8 00000000 		.word	RPi_Data
 208              		.cfi_endproc
 209              	.LFE63:
 210              		.size	SS_Rise_Handler, .-SS_Rise_Handler
 211              		.comm	rxBuffer,8,4
 212              		.comm	temp1,1,1
 213              		.comm	temp2,1,1
 214              		.comm	i,1,1
 215              		.comm	shutdown_count,2,2
 216              		.section	.text.isRPiCommand,"ax",%progbits
 217              		.align	2
 218              		.global	isRPiCommand
 219              		.thumb
 220              		.thumb_func
 221              		.type	isRPiCommand, %function
 222              	isRPiCommand:
 223              	.LFB64:
 109:main.c        **** 
 110:main.c        **** /* The txBuffer size is equal (BUFFER_SIZE-1) because for SPI Mode where CPHA == 0 and
 111:main.c        **** * CPOL == 0 one byte writes directly in SPI TX FIFO using SPIS_WriteTxDataZero() API.
 112:main.c        **** */
ARM GAS  C:\Users\Doug\AppData\Local\Temp\ccSaEm3K.s 			page 7


 113:main.c        **** 
 114:main.c        **** uint16 rxBuffer [4];
 115:main.c        **** uint8 temp1;
 116:main.c        **** uint8 temp2;
 117:main.c        **** uint8 i;
 118:main.c        **** uint16 shutdown_count;
 119:main.c        **** 
 120:main.c        **** 
 121:main.c        **** uint8 isRPiCommand(command rpiCommand) {
 224              		.loc 1 121 0
 225              		.cfi_startproc
 226              		@ args = 0, pretend = 0, frame = 8
 227              		@ frame_needed = 1, uses_anonymous_args = 0
 228              		@ link register save eliminated.
 229 0000 80B4     		push	{r7}
 230              		.cfi_def_cfa_offset 4
 231              		.cfi_offset 7, -4
 232 0002 83B0     		sub	sp, sp, #12
 233              		.cfi_def_cfa_offset 16
 234 0004 00AF     		add	r7, sp, #0
 235              		.cfi_def_cfa_register 7
 236 0006 0346     		mov	r3, r0
 237 0008 FB71     		strb	r3, [r7, #7]
 122:main.c        ****     switch (rpiCommand) {
 238              		.loc 1 122 0
 239 000a FB79     		ldrb	r3, [r7, #7]	@ zero_extendqisi2
 240 000c 013B     		subs	r3, r3, #1
 241 000e 0C2B     		cmp	r3, #12
 242 0010 01D8     		bhi	.L10
 123:main.c        ****         case read_gpio:
 124:main.c        ****         case write_gpio:
 125:main.c        ****         case read_spi:
 126:main.c        ****         case write_spi:
 127:main.c        ****         case write_pwm:
 128:main.c        ****         case read_i2c:
 129:main.c        ****         case write_i2c:
 130:main.c        ****         case read_encoder:
 131:main.c        ****         case add_i2c_data:
 132:main.c        ****         case add_i2c_address:
 133:main.c        ****         case set_spi_trigger:
 134:main.c        ****         case set_trigger_radius:
 135:main.c        ****         case read_firmware_date:
 136:main.c        ****             return 1;
 243              		.loc 1 136 0
 244 0012 0123     		movs	r3, #1
 245 0014 00E0     		b	.L12
 246              	.L10:
 137:main.c        ****             break;
 138:main.c        ****         
 139:main.c        ****         case no_command:
 140:main.c        ****         default:
 141:main.c        ****             return 0;
 247              		.loc 1 141 0
 248 0016 0023     		movs	r3, #0
 249              	.L12:
 142:main.c        ****             break;
 143:main.c        ****     }
ARM GAS  C:\Users\Doug\AppData\Local\Temp\ccSaEm3K.s 			page 8


 144:main.c        **** 
 145:main.c        ****     return 0;
 146:main.c        **** }
 250              		.loc 1 146 0
 251 0018 1846     		mov	r0, r3
 252 001a 0C37     		adds	r7, r7, #12
 253              		.cfi_def_cfa_offset 4
 254 001c BD46     		mov	sp, r7
 255              		.cfi_def_cfa_register 13
 256              		@ sp needed
 257 001e 80BC     		pop	{r7}
 258              		.cfi_restore 7
 259              		.cfi_def_cfa_offset 0
 260 0020 7047     		bx	lr
 261              		.cfi_endproc
 262              	.LFE64:
 263              		.size	isRPiCommand, .-isRPiCommand
 264 0022 00BF     		.section	.text.InterpretCommand,"ax",%progbits
 265              		.align	2
 266              		.global	InterpretCommand
 267              		.thumb
 268              		.thumb_func
 269              		.type	InterpretCommand, %function
 270              	InterpretCommand:
 271              	.LFB65:
 147:main.c        **** 
 148:main.c        **** /*Command Structure: 0x0CPQ --> execute command C with parameters P and Q
 149:main.c        ****  *Some commands take no parameters, and are of the form 0x0C00
 150:main.c        ****  */
 151:main.c        **** 
 152:main.c        **** command InterpretCommand(uint16 data)
 153:main.c        **** {
 272              		.loc 1 153 0
 273              		.cfi_startproc
 274              		@ args = 0, pretend = 0, frame = 16
 275              		@ frame_needed = 1, uses_anonymous_args = 0
 276              		@ link register save eliminated.
 277 0000 80B4     		push	{r7}
 278              		.cfi_def_cfa_offset 4
 279              		.cfi_offset 7, -4
 280 0002 85B0     		sub	sp, sp, #20
 281              		.cfi_def_cfa_offset 24
 282 0004 00AF     		add	r7, sp, #0
 283              		.cfi_def_cfa_register 7
 284 0006 0346     		mov	r3, r0
 285 0008 FB80     		strh	r3, [r7, #6]	@ movhi
 154:main.c        ****     command result = no_command;
 286              		.loc 1 154 0
 287 000a 0023     		movs	r3, #0
 288 000c FB73     		strb	r3, [r7, #15]
 155:main.c        ****     uint16 cmd = (data & COMMAND_MASK);
 289              		.loc 1 155 0
 290 000e FB88     		ldrh	r3, [r7, #6]	@ movhi
 291 0010 23F0FF03 		bic	r3, r3, #255
 292 0014 BB81     		strh	r3, [r7, #12]	@ movhi
 156:main.c        ****     
 157:main.c        ****     switch(cmd) {  
ARM GAS  C:\Users\Doug\AppData\Local\Temp\ccSaEm3K.s 			page 9


 293              		.loc 1 157 0
 294 0016 BB89     		ldrh	r3, [r7, #12]
 295 0018 B3F5E06F 		cmp	r3, #1792
 296 001c 42D0     		beq	.L15
 297 001e B3F5E06F 		cmp	r3, #1792
 298 0022 16DC     		bgt	.L16
 299 0024 B3F5407F 		cmp	r3, #768
 300 0028 30D0     		beq	.L17
 301 002a B3F5407F 		cmp	r3, #768
 302 002e 06DC     		bgt	.L18
 303 0030 B3F5807F 		cmp	r3, #256
 304 0034 24D0     		beq	.L19
 305 0036 B3F5007F 		cmp	r3, #512
 306 003a 24D0     		beq	.L20
 307 003c 47E0     		b	.L14
 308              	.L18:
 309 003e B3F5A06F 		cmp	r3, #1280
 310 0042 29D0     		beq	.L21
 311 0044 B3F5C06F 		cmp	r3, #1536
 312 0048 29D0     		beq	.L22
 313 004a B3F5806F 		cmp	r3, #1024
 314 004e 20D0     		beq	.L23
 315 0050 3DE0     		b	.L14
 316              	.L16:
 317 0052 B3F5206F 		cmp	r3, #2560
 318 0056 2ED0     		beq	.L24
 319 0058 B3F5206F 		cmp	r3, #2560
 320 005c 06DC     		bgt	.L25
 321 005e B3F5006F 		cmp	r3, #2048
 322 0062 22D0     		beq	.L26
 323 0064 B3F5106F 		cmp	r3, #2304
 324 0068 22D0     		beq	.L27
 325 006a 30E0     		b	.L14
 326              	.L25:
 327 006c B3F5406F 		cmp	r3, #3072
 328 0070 27D0     		beq	.L28
 329 0072 B3F5706F 		cmp	r3, #3840
 330 0076 27D0     		beq	.L29
 331 0078 B3F5306F 		cmp	r3, #2816
 332 007c 1ED0     		beq	.L30
 333 007e 26E0     		b	.L14
 334              	.L19:
 158:main.c        ****         case 0x0100:
 159:main.c        ****             result = read_gpio;
 335              		.loc 1 159 0
 336 0080 0123     		movs	r3, #1
 337 0082 FB73     		strb	r3, [r7, #15]
 160:main.c        ****             break;
 338              		.loc 1 160 0
 339 0084 26E0     		b	.L31
 340              	.L20:
 161:main.c        ****         case 0x0200:
 162:main.c        ****             result = write_gpio;
 341              		.loc 1 162 0
 342 0086 0223     		movs	r3, #2
 343 0088 FB73     		strb	r3, [r7, #15]
 163:main.c        ****             break;        
ARM GAS  C:\Users\Doug\AppData\Local\Temp\ccSaEm3K.s 			page 10


 344              		.loc 1 163 0
 345 008a 23E0     		b	.L31
 346              	.L17:
 164:main.c        ****         case 0x0300:
 165:main.c        ****             result = read_spi;
 347              		.loc 1 165 0
 348 008c 0323     		movs	r3, #3
 349 008e FB73     		strb	r3, [r7, #15]
 166:main.c        ****             break;        
 350              		.loc 1 166 0
 351 0090 20E0     		b	.L31
 352              	.L23:
 167:main.c        ****         case 0x0400:
 168:main.c        ****             result = write_spi;
 353              		.loc 1 168 0
 354 0092 0423     		movs	r3, #4
 355 0094 FB73     		strb	r3, [r7, #15]
 169:main.c        ****             break;        
 356              		.loc 1 169 0
 357 0096 1DE0     		b	.L31
 358              	.L21:
 170:main.c        ****         case 0x0500:
 171:main.c        ****             result = write_pwm;
 359              		.loc 1 171 0
 360 0098 0523     		movs	r3, #5
 361 009a FB73     		strb	r3, [r7, #15]
 172:main.c        ****             break;        
 362              		.loc 1 172 0
 363 009c 1AE0     		b	.L31
 364              	.L22:
 173:main.c        ****         case 0x0600:
 174:main.c        ****             result = read_i2c;
 365              		.loc 1 174 0
 366 009e 0623     		movs	r3, #6
 367 00a0 FB73     		strb	r3, [r7, #15]
 175:main.c        ****             break;        
 368              		.loc 1 175 0
 369 00a2 17E0     		b	.L31
 370              	.L15:
 176:main.c        ****         case 0x0700:
 177:main.c        ****             result = write_i2c;
 371              		.loc 1 177 0
 372 00a4 0723     		movs	r3, #7
 373 00a6 FB73     		strb	r3, [r7, #15]
 178:main.c        ****             break;        
 374              		.loc 1 178 0
 375 00a8 14E0     		b	.L31
 376              	.L26:
 179:main.c        ****         case 0x0800:
 180:main.c        ****             result = add_i2c_data;
 377              		.loc 1 180 0
 378 00aa 0823     		movs	r3, #8
 379 00ac FB73     		strb	r3, [r7, #15]
 181:main.c        ****             break;        
 380              		.loc 1 181 0
 381 00ae 11E0     		b	.L31
 382              	.L27:
ARM GAS  C:\Users\Doug\AppData\Local\Temp\ccSaEm3K.s 			page 11


 182:main.c        ****         case 0x0900:
 183:main.c        ****             result = add_i2c_address;
 383              		.loc 1 183 0
 384 00b0 0923     		movs	r3, #9
 385 00b2 FB73     		strb	r3, [r7, #15]
 184:main.c        ****             break;        
 386              		.loc 1 184 0
 387 00b4 0EE0     		b	.L31
 388              	.L24:
 185:main.c        ****         case 0x0a00:
 186:main.c        ****             result = set_spi_trigger;
 389              		.loc 1 186 0
 390 00b6 0A23     		movs	r3, #10
 391 00b8 FB73     		strb	r3, [r7, #15]
 187:main.c        ****             break;
 392              		.loc 1 187 0
 393 00ba 0BE0     		b	.L31
 394              	.L30:
 188:main.c        ****         case 0x0b00:
 189:main.c        ****             result = read_encoder;
 395              		.loc 1 189 0
 396 00bc 0B23     		movs	r3, #11
 397 00be FB73     		strb	r3, [r7, #15]
 190:main.c        ****             break;
 398              		.loc 1 190 0
 399 00c0 08E0     		b	.L31
 400              	.L28:
 191:main.c        ****         case 0x0c00:
 192:main.c        ****             result = set_trigger_radius;
 401              		.loc 1 192 0
 402 00c2 0C23     		movs	r3, #12
 403 00c4 FB73     		strb	r3, [r7, #15]
 193:main.c        ****             break;
 404              		.loc 1 193 0
 405 00c6 05E0     		b	.L31
 406              	.L29:
 194:main.c        ****         case 0x0f00:
 195:main.c        ****             result = read_firmware_date;
 407              		.loc 1 195 0
 408 00c8 0D23     		movs	r3, #13
 409 00ca FB73     		strb	r3, [r7, #15]
 196:main.c        ****             break;
 410              		.loc 1 196 0
 411 00cc 02E0     		b	.L31
 412              	.L14:
 197:main.c        ****         default:
 198:main.c        ****             result = no_command;
 413              		.loc 1 198 0
 414 00ce 0023     		movs	r3, #0
 415 00d0 FB73     		strb	r3, [r7, #15]
 199:main.c        ****             break;
 416              		.loc 1 199 0
 417 00d2 00BF     		nop
 418              	.L31:
 200:main.c        ****     }
 201:main.c        ****     
 202:main.c        ****     return result;
ARM GAS  C:\Users\Doug\AppData\Local\Temp\ccSaEm3K.s 			page 12


 419              		.loc 1 202 0
 420 00d4 FB7B     		ldrb	r3, [r7, #15]	@ zero_extendqisi2
 203:main.c        **** }
 421              		.loc 1 203 0
 422 00d6 1846     		mov	r0, r3
 423 00d8 1437     		adds	r7, r7, #20
 424              		.cfi_def_cfa_offset 4
 425 00da BD46     		mov	sp, r7
 426              		.cfi_def_cfa_register 13
 427              		@ sp needed
 428 00dc 80BC     		pop	{r7}
 429              		.cfi_restore 7
 430              		.cfi_def_cfa_offset 0
 431 00de 7047     		bx	lr
 432              		.cfi_endproc
 433              	.LFE65:
 434              		.size	InterpretCommand, .-InterpretCommand
 435              		.section	.text.main,"ax",%progbits
 436              		.align	2
 437              		.global	main
 438              		.thumb
 439              		.thumb_func
 440              		.type	main, %function
 441              	main:
 442              	.LFB66:
 204:main.c        **** 
 205:main.c        **** int main() {
 443              		.loc 1 205 0
 444              		.cfi_startproc
 445              		@ args = 0, pretend = 0, frame = 16
 446              		@ frame_needed = 1, uses_anonymous_args = 0
 447 0000 80B5     		push	{r7, lr}
 448              		.cfi_def_cfa_offset 8
 449              		.cfi_offset 7, -8
 450              		.cfi_offset 14, -4
 451 0002 84B0     		sub	sp, sp, #16
 452              		.cfi_def_cfa_offset 24
 453 0004 00AF     		add	r7, sp, #0
 454              		.cfi_def_cfa_register 7
 206:main.c        ****     RpiInterrupts_Write(3u);  // 9.25.18 - New location, trying to force the interrupts high as ear
 455              		.loc 1 206 0
 456 0006 0320     		movs	r0, #3
 457 0008 FFF7FEFF 		bl	RpiInterrupts_Write
 207:main.c        ****     Comp_1_Start();
 458              		.loc 1 207 0
 459 000c FFF7FEFF 		bl	Comp_1_Start
 208:main.c        ****     CyDelay(2000u);
 460              		.loc 1 208 0
 461 0010 4FF4FA60 		mov	r0, #2000
 462 0014 FFF7FEFF 		bl	CyDelay
 209:main.c        ****     
 210:main.c        ****     /* Enable Battery Backup circuit and interface circuits between RPi and PSOC  */
 211:main.c        ****     EnableBattery_Write(1u);
 463              		.loc 1 211 0
 464 0018 0120     		movs	r0, #1
 465 001a FFF7FEFF 		bl	EnableBattery_Write
 212:main.c        ****     Control_Reg_SS_1_Write(0u);
ARM GAS  C:\Users\Doug\AppData\Local\Temp\ccSaEm3K.s 			page 13


 466              		.loc 1 212 0
 467 001e 0020     		movs	r0, #0
 468 0020 FFF7FEFF 		bl	Control_Reg_SS_1_Write
 213:main.c        ****     
 214:main.c        ****     //RpiInterrupts_Write(3u);     // 9.25.18 - Original location, moving this to the start of this
 215:main.c        ****     Clock_1_Start();
 469              		.loc 1 215 0
 470 0024 FFF7FEFF 		bl	Clock_1_Start
 216:main.c        ****  
 217:main.c        ****     SPIM_1_Start();
 471              		.loc 1 217 0
 472 0028 FFF7FEFF 		bl	SPIM_1_Start
 218:main.c        ****     SPIM_1_ClearFIFO();
 473              		.loc 1 218 0
 474 002c FFF7FEFF 		bl	SPIM_1_ClearFIFO
 219:main.c        ****     SPIM_1_ClearRxBuffer();
 475              		.loc 1 219 0
 476 0030 FFF7FEFF 		bl	SPIM_1_ClearRxBuffer
 220:main.c        ****     SPIM_1_ClearTxBuffer();   
 477              		.loc 1 220 0
 478 0034 FFF7FEFF 		bl	SPIM_1_ClearTxBuffer
 221:main.c        ****     
 222:main.c        ****     SPIM_2_Start();
 479              		.loc 1 222 0
 480 0038 FFF7FEFF 		bl	SPIM_2_Start
 223:main.c        ****     SPIM_2_ClearFIFO();
 481              		.loc 1 223 0
 482 003c FFF7FEFF 		bl	SPIM_2_ClearFIFO
 224:main.c        ****     SPIM_2_ClearRxBuffer();
 483              		.loc 1 224 0
 484 0040 FFF7FEFF 		bl	SPIM_2_ClearRxBuffer
 225:main.c        ****     SPIM_2_ClearTxBuffer();    
 485              		.loc 1 225 0
 486 0044 FFF7FEFF 		bl	SPIM_2_ClearTxBuffer
 226:main.c        **** 
 227:main.c        ****     SPIS_Start();
 487              		.loc 1 227 0
 488 0048 FFF7FEFF 		bl	SPIS_Start
 228:main.c        ****     SPIS_WriteTxDataZero(0x00u);
 489              		.loc 1 228 0
 490 004c 0020     		movs	r0, #0
 491 004e FFF7FEFF 		bl	SPIS_WriteTxDataZero
 229:main.c        ****  
 230:main.c        ****     PWM_1_Start();
 492              		.loc 1 230 0
 493 0052 FFF7FEFF 		bl	PWM_1_Start
 231:main.c        ****     PWM_2_Start();
 494              		.loc 1 231 0
 495 0056 FFF7FEFF 		bl	PWM_2_Start
 232:main.c        ****     PWM_1_SetCompareMode(PWM_1__B_PWM__LESS_THAN);
 496              		.loc 1 232 0
 497 005a 0120     		movs	r0, #1
 498 005c FFF7FEFF 		bl	PWM_1_SetCompareMode
 233:main.c        ****     PWM_2_SetCompareMode(PWM_1__B_PWM__LESS_THAN);
 499              		.loc 1 233 0
 500 0060 0120     		movs	r0, #1
 501 0062 FFF7FEFF 		bl	PWM_2_SetCompareMode
ARM GAS  C:\Users\Doug\AppData\Local\Temp\ccSaEm3K.s 			page 14


 234:main.c        ****     
 235:main.c        ****     I2C_1_Start();   
 502              		.loc 1 235 0
 503 0066 FFF7FEFF 		bl	I2C_1_Start
 236:main.c        ****     
 237:main.c        ****     PSOC_state = idle_state;
 504              		.loc 1 237 0
 505 006a AF4B     		ldr	r3, .L81
 506 006c 0022     		movs	r2, #0
 507 006e 1A70     		strb	r2, [r3]
 238:main.c        ****       
 239:main.c        ****     CyGlobalIntEnable; 
 508              		.loc 1 239 0
 509              		.syntax unified
 510              	@ 239 "main.c" 1
 511 0070 62B6     		CPSIE   i
 512              	@ 0 "" 2
 240:main.c        ****     isr_SS_Rise_StartEx( SS_Rise_Handler );
 513              		.loc 1 240 0
 514              		.thumb
 515              		.syntax unified
 516 0072 AE48     		ldr	r0, .L81+4
 517 0074 FFF7FEFF 		bl	isr_SS_Rise_StartEx
 241:main.c        ****  
 242:main.c        ****     RPi_Command_Data = 0x000f;
 518              		.loc 1 242 0
 519 0078 AD4B     		ldr	r3, .L81+8
 520 007a 0F22     		movs	r2, #15
 521 007c 1A80     		strh	r2, [r3]	@ movhi
 243:main.c        ****     shutdown_count = 0;
 522              		.loc 1 243 0
 523 007e AD4B     		ldr	r3, .L81+12
 524 0080 0022     		movs	r2, #0
 525 0082 1A80     		strh	r2, [r3]	@ movhi
 526              	.L74:
 244:main.c        **** 
 245:main.c        ****     while (1)  { 
 246:main.c        ****         // This code monitors the main power input.  A local backup batter supply prevents
 247:main.c        ****         // power from being removed from the raspberry pi before it has been properly shutdown
 248:main.c        ****         // Monitor the presence of the main power input. If power has been removed for more 
 249:main.c        ****         // than 5000 times through this loop (about 20 seconds), interrupt the Raspberry Pi 
 250:main.c        ****         // telling it to shut itself down allow 20 sec for the Pi to shut down then turn off 
 251:main.c        ****         // back up power.
 252:main.c        ****         CyDelayUs(1400u);   
 527              		.loc 1 252 0
 528 0084 4FF4AF60 		mov	r0, #1400
 529 0088 FFF7FEFF 		bl	CyDelayUs
 253:main.c        ****         if (Status_Reg_1_Read() == 1u) {
 530              		.loc 1 253 0
 531 008c FFF7FEFF 		bl	Status_Reg_1_Read
 532 0090 0346     		mov	r3, r0
 533 0092 012B     		cmp	r3, #1
 534 0094 1AD1     		bne	.L34
 254:main.c        ****             shutdown_count +=1;
 535              		.loc 1 254 0
 536 0096 A74B     		ldr	r3, .L81+12
 537 0098 1B88     		ldrh	r3, [r3]
ARM GAS  C:\Users\Doug\AppData\Local\Temp\ccSaEm3K.s 			page 15


 538 009a 0133     		adds	r3, r3, #1
 539 009c 9AB2     		uxth	r2, r3
 540 009e A54B     		ldr	r3, .L81+12
 541 00a0 1A80     		strh	r2, [r3]	@ movhi
 255:main.c        ****             if (shutdown_count == 2000u) {   //9.25.18 - The while loop executes in about 2ms total
 542              		.loc 1 255 0
 543 00a2 A44B     		ldr	r3, .L81+12
 544 00a4 1B88     		ldrh	r3, [r3]
 545 00a6 B3F5FA6F 		cmp	r3, #2000
 546 00aa 12D1     		bne	.L36
 256:main.c        ****                                              //          2ms * 2000 = 4 seconds, not 20 seconds as 
 257:main.c        ****                                              //          Changing to 10000 to get 20 seconds.      
 258:main.c        ****                 CyGlobalIntDisable; 
 547              		.loc 1 258 0
 548              		.syntax unified
 549              	@ 258 "main.c" 1
 550 00ac 72B6     		CPSID   i
 551              	@ 0 "" 2
 259:main.c        ****                 
 260:main.c        ****                 // tell Pi to shut down
 261:main.c        ****                 RpiInterrupts_Write(0u);
 552              		.loc 1 261 0
 553              		.thumb
 554              		.syntax unified
 555 00ae 0020     		movs	r0, #0
 556 00b0 FFF7FEFF 		bl	RpiInterrupts_Write
 262:main.c        ****                 CyDelay(20000u);
 557              		.loc 1 262 0
 558 00b4 44F62060 		movw	r0, #20000
 559 00b8 FFF7FEFF 		bl	CyDelay
 263:main.c        ****                 
 264:main.c        ****                 // Wait 60 seconds then turn off back up power
 265:main.c        ****                 EnableBattery_Write(2u);
 560              		.loc 1 265 0
 561 00bc 0220     		movs	r0, #2
 562 00be FFF7FEFF 		bl	EnableBattery_Write
 266:main.c        ****                 CyDelay(2000u);
 563              		.loc 1 266 0
 564 00c2 4FF4FA60 		mov	r0, #2000
 565 00c6 FFF7FEFF 		bl	CyDelay
 566 00ca 02E0     		b	.L36
 567              	.L34:
 267:main.c        ****             }
 268:main.c        ****         } else {
 269:main.c        ****            shutdown_count = 0u;
 568              		.loc 1 269 0
 569 00cc 994B     		ldr	r3, .L81+12
 570 00ce 0022     		movs	r2, #0
 571 00d0 1A80     		strh	r2, [r3]	@ movhi
 572              	.L36:
 573              	.LBB2:
 270:main.c        ****         }
 271:main.c        ****     
 272:main.c        ****         // Writes correspondign GPIO high if encoder value is within specified range of trigger val
 273:main.c        ****         for (int i = 0; i < 4; i++) {
 574              		.loc 1 273 0
 575 00d2 0023     		movs	r3, #0
ARM GAS  C:\Users\Doug\AppData\Local\Temp\ccSaEm3K.s 			page 16


 576 00d4 FB60     		str	r3, [r7, #12]
 577 00d6 62E0     		b	.L37
 578              	.L43:
 579              	.LBB3:
 274:main.c        ****             uint16 encoderValue;
 275:main.c        ****             
 276:main.c        ****             if (i == 3) {
 580              		.loc 1 276 0
 581 00d8 FB68     		ldr	r3, [r7, #12]
 582 00da 032B     		cmp	r3, #3
 583 00dc 06D1     		bne	.L38
 277:main.c        ****                 encoderValue = ReadEncoder(2, 0);
 584              		.loc 1 277 0
 585 00de 0021     		movs	r1, #0
 586 00e0 0220     		movs	r0, #2
 587 00e2 FFF7FEFF 		bl	ReadEncoder
 588 00e6 0346     		mov	r3, r0
 589 00e8 7B81     		strh	r3, [r7, #10]	@ movhi
 590 00ea 07E0     		b	.L39
 591              	.L38:
 278:main.c        ****             } else {
 279:main.c        ****                 encoderValue = ReadEncoder(1, i);
 592              		.loc 1 279 0
 593 00ec FB68     		ldr	r3, [r7, #12]
 594 00ee DBB2     		uxtb	r3, r3
 595 00f0 1946     		mov	r1, r3
 596 00f2 0120     		movs	r0, #1
 597 00f4 FFF7FEFF 		bl	ReadEncoder
 598 00f8 0346     		mov	r3, r0
 599 00fa 7B81     		strh	r3, [r7, #10]	@ movhi
 600              	.L39:
 280:main.c        ****             }
 281:main.c        ****             
 282:main.c        ****             if ((spi_trigger_value[i] - spi_trigger_radius[i] < encoderValue) && 
 601              		.loc 1 282 0
 602 00fc 8E4A     		ldr	r2, .L81+16
 603 00fe FB68     		ldr	r3, [r7, #12]
 604 0100 32F81330 		ldrh	r3, [r2, r3, lsl #1]
 605 0104 1946     		mov	r1, r3
 606 0106 8D4A     		ldr	r2, .L81+20
 607 0108 FB68     		ldr	r3, [r7, #12]
 608 010a 32F81330 		ldrh	r3, [r2, r3, lsl #1]
 609 010e CA1A     		subs	r2, r1, r3
 610 0110 7B89     		ldrh	r3, [r7, #10]
 611 0112 9A42     		cmp	r2, r3
 612 0114 2DDA     		bge	.L40
 283:main.c        ****                 (spi_trigger_value[i] + spi_trigger_radius[i] > encoderValue)) {
 613              		.loc 1 283 0 discriminator 1
 614 0116 884A     		ldr	r2, .L81+16
 615 0118 FB68     		ldr	r3, [r7, #12]
 616 011a 32F81330 		ldrh	r3, [r2, r3, lsl #1]
 617 011e 1946     		mov	r1, r3
 618 0120 864A     		ldr	r2, .L81+20
 619 0122 FB68     		ldr	r3, [r7, #12]
 620 0124 32F81330 		ldrh	r3, [r2, r3, lsl #1]
 621 0128 CA18     		adds	r2, r1, r3
 622 012a 7B89     		ldrh	r3, [r7, #10]
ARM GAS  C:\Users\Doug\AppData\Local\Temp\ccSaEm3K.s 			page 17


 282:main.c        ****                 (spi_trigger_value[i] + spi_trigger_radius[i] > encoderValue)) {
 623              		.loc 1 282 0 discriminator 1
 624 012c 9A42     		cmp	r2, r3
 625 012e 20DD     		ble	.L40
 284:main.c        ****                 GPIO_Control_Reg_Write(GPIO_Status_Reg_Read() | (1 << i));
 626              		.loc 1 284 0
 627 0130 FFF7FEFF 		bl	GPIO_Status_Reg_Read
 628 0134 0346     		mov	r3, r0
 629 0136 5AB2     		sxtb	r2, r3
 630 0138 0121     		movs	r1, #1
 631 013a FB68     		ldr	r3, [r7, #12]
 632 013c 01FA03F3 		lsl	r3, r1, r3
 633 0140 5BB2     		sxtb	r3, r3
 634 0142 1343     		orrs	r3, r3, r2
 635 0144 5BB2     		sxtb	r3, r3
 636 0146 DBB2     		uxtb	r3, r3
 637 0148 1846     		mov	r0, r3
 638 014a FFF7FEFF 		bl	GPIO_Control_Reg_Write
 285:main.c        ****                 if (spi_trigger_reset[i] == TRIGGER_RESET) {
 639              		.loc 1 285 0
 640 014e 7C4A     		ldr	r2, .L81+24
 641 0150 FB68     		ldr	r3, [r7, #12]
 642 0152 1344     		add	r3, r3, r2
 643 0154 1B78     		ldrb	r3, [r3]	@ zero_extendqisi2
 644 0156 012B     		cmp	r3, #1
 645 0158 1ED1     		bne	.L42
 286:main.c        ****                     spi_trigger_reset[i] = 0x0;
 646              		.loc 1 286 0
 647 015a 794A     		ldr	r2, .L81+24
 648 015c FB68     		ldr	r3, [r7, #12]
 649 015e 1344     		add	r3, r3, r2
 650 0160 0022     		movs	r2, #0
 651 0162 1A70     		strb	r2, [r3]
 287:main.c        ****                     spi_trigger_value[i] = TRIGGER_OFF;
 652              		.loc 1 287 0
 653 0164 744A     		ldr	r2, .L81+16
 654 0166 FB68     		ldr	r3, [r7, #12]
 655 0168 4FF6FF71 		movw	r1, #65535
 656 016c 22F81310 		strh	r1, [r2, r3, lsl #1]	@ movhi
 285:main.c        ****                 if (spi_trigger_reset[i] == TRIGGER_RESET) {
 657              		.loc 1 285 0
 658 0170 12E0     		b	.L42
 659              	.L40:
 288:main.c        ****                 }
 289:main.c        ****             } else {
 290:main.c        ****                 GPIO_Control_Reg_Write(GPIO_Status_Reg_Read() & (0xF-(1 << i)));
 660              		.loc 1 290 0
 661 0172 FFF7FEFF 		bl	GPIO_Status_Reg_Read
 662 0176 0346     		mov	r3, r0
 663 0178 5AB2     		sxtb	r2, r3
 664 017a 0121     		movs	r1, #1
 665 017c FB68     		ldr	r3, [r7, #12]
 666 017e 01FA03F3 		lsl	r3, r1, r3
 667 0182 DBB2     		uxtb	r3, r3
 668 0184 C3F10F03 		rsb	r3, r3, #15
 669 0188 DBB2     		uxtb	r3, r3
 670 018a 5BB2     		sxtb	r3, r3
ARM GAS  C:\Users\Doug\AppData\Local\Temp\ccSaEm3K.s 			page 18


 671 018c 1340     		ands	r3, r3, r2
 672 018e 5BB2     		sxtb	r3, r3
 673 0190 DBB2     		uxtb	r3, r3
 674 0192 1846     		mov	r0, r3
 675 0194 FFF7FEFF 		bl	GPIO_Control_Reg_Write
 676              	.L42:
 677              	.LBE3:
 273:main.c        ****             uint16 encoderValue;
 678              		.loc 1 273 0 discriminator 2
 679 0198 FB68     		ldr	r3, [r7, #12]
 680 019a 0133     		adds	r3, r3, #1
 681 019c FB60     		str	r3, [r7, #12]
 682              	.L37:
 273:main.c        ****             uint16 encoderValue;
 683              		.loc 1 273 0 is_stmt 0 discriminator 1
 684 019e FB68     		ldr	r3, [r7, #12]
 685 01a0 032B     		cmp	r3, #3
 686 01a2 99DD     		ble	.L43
 687              	.LBE2:
 291:main.c        ****             } 
 292:main.c        ****         }
 293:main.c        ****     
 294:main.c        ****         if (PSOC_state == execution_state) {
 688              		.loc 1 294 0 is_stmt 1
 689 01a4 604B     		ldr	r3, .L81
 690 01a6 1B78     		ldrb	r3, [r3]	@ zero_extendqisi2
 691 01a8 022B     		cmp	r3, #2
 692 01aa 7FF46BAF 		bne	.L74
 295:main.c        ****             switch(RPi_Command) {      
 693              		.loc 1 295 0
 694 01ae 654B     		ldr	r3, .L81+28
 695 01b0 1B78     		ldrb	r3, [r3]	@ zero_extendqisi2
 696 01b2 013B     		subs	r3, r3, #1
 697 01b4 0C2B     		cmp	r3, #12
 698 01b6 00F23E81 		bhi	.L75
 699 01ba 01A2     		adr	r2, .L47
 700 01bc 52F823F0 		ldr	pc, [r2, r3, lsl #2]
 701              		.p2align 2
 702              	.L47:
 703 01c0 F5010000 		.word	.L46+1
 704 01c4 05020000 		.word	.L48+1
 705 01c8 13020000 		.word	.L49+1
 706 01cc 69020000 		.word	.L50+1
 707 01d0 B9020000 		.word	.L51+1
 708 01d4 37040000 		.word	.L75+1
 709 01d8 71030000 		.word	.L53+1
 710 01dc 79030000 		.word	.L54+1
 711 01e0 9F030000 		.word	.L55+1
 712 01e4 AB030000 		.word	.L56+1
 713 01e8 ED030000 		.word	.L57+1
 714 01ec D9030000 		.word	.L58+1
 715 01f0 21040000 		.word	.L59+1
 716              		.p2align 1
 717              	.L46:
 296:main.c        ****                 case read_gpio:
 297:main.c        ****                     SPIS_WriteTxDataZero(GPIO_Status_Reg_Read());
 718              		.loc 1 297 0
ARM GAS  C:\Users\Doug\AppData\Local\Temp\ccSaEm3K.s 			page 19


 719 01f4 FFF7FEFF 		bl	GPIO_Status_Reg_Read
 720 01f8 0346     		mov	r3, r0
 721 01fa 9BB2     		uxth	r3, r3
 722 01fc 1846     		mov	r0, r3
 723 01fe FFF7FEFF 		bl	SPIS_WriteTxDataZero
 298:main.c        ****                     break;
 724              		.loc 1 298 0
 725 0202 23E1     		b	.L60
 726              	.L48:
 299:main.c        ****                     
 300:main.c        ****                 case write_gpio:
 301:main.c        ****                     GPIO_Control_Reg_Write(RPi_Data);
 727              		.loc 1 301 0
 728 0204 504B     		ldr	r3, .L81+32
 729 0206 1B88     		ldrh	r3, [r3]
 730 0208 DBB2     		uxtb	r3, r3
 731 020a 1846     		mov	r0, r3
 732 020c FFF7FEFF 		bl	GPIO_Control_Reg_Write
 302:main.c        ****                     break;
 733              		.loc 1 302 0
 734 0210 1CE1     		b	.L60
 735              	.L49:
 303:main.c        ****                     
 304:main.c        ****                 case read_spi:
 305:main.c        ****                     if ((RPi_Command_Data & PORT_MASK) == 0x0010) {
 736              		.loc 1 305 0
 737 0212 474B     		ldr	r3, .L81+8
 738 0214 1B88     		ldrh	r3, [r3]
 739 0216 03F0F003 		and	r3, r3, #240
 740 021a 102B     		cmp	r3, #16
 741 021c 0ED1     		bne	.L61
 306:main.c        ****                         SPIS_WriteTxDataZero(ReadWriteSPIM1(RPi_Command_Data & DATA_MASK, 0x0000));
 742              		.loc 1 306 0
 743 021e 444B     		ldr	r3, .L81+8
 744 0220 1B88     		ldrh	r3, [r3]
 745 0222 DBB2     		uxtb	r3, r3
 746 0224 23F00F03 		bic	r3, r3, #15
 747 0228 DBB2     		uxtb	r3, r3
 748 022a 0021     		movs	r1, #0
 749 022c 1846     		mov	r0, r3
 750 022e FFF7FEFF 		bl	ReadWriteSPIM1
 751 0232 0346     		mov	r3, r0
 752 0234 1846     		mov	r0, r3
 753 0236 FFF7FEFF 		bl	SPIS_WriteTxDataZero
 307:main.c        ****                     } else if ((RPi_Command & PORT_MASK) == 0x0020){
 308:main.c        ****                         SPIS_WriteTxDataZero(ReadWriteSPIM2(RPi_Command_Data & DATA_MASK, 0x0000));
 309:main.c        ****                     }
 310:main.c        ****                     break;
 754              		.loc 1 310 0
 755 023a FEE0     		b	.L76
 756              	.L61:
 307:main.c        ****                     } else if ((RPi_Command & PORT_MASK) == 0x0020){
 757              		.loc 1 307 0
 758 023c 414B     		ldr	r3, .L81+28
 759 023e 1B78     		ldrb	r3, [r3]	@ zero_extendqisi2
 760 0240 03F0F003 		and	r3, r3, #240
 761 0244 202B     		cmp	r3, #32
ARM GAS  C:\Users\Doug\AppData\Local\Temp\ccSaEm3K.s 			page 20


 762 0246 40F0F880 		bne	.L76
 308:main.c        ****                     }
 763              		.loc 1 308 0
 764 024a 394B     		ldr	r3, .L81+8
 765 024c 1B88     		ldrh	r3, [r3]
 766 024e DBB2     		uxtb	r3, r3
 767 0250 23F00F03 		bic	r3, r3, #15
 768 0254 DBB2     		uxtb	r3, r3
 769 0256 0021     		movs	r1, #0
 770 0258 1846     		mov	r0, r3
 771 025a FFF7FEFF 		bl	ReadWriteSPIM2
 772 025e 0346     		mov	r3, r0
 773 0260 1846     		mov	r0, r3
 774 0262 FFF7FEFF 		bl	SPIS_WriteTxDataZero
 775              		.loc 1 310 0
 776 0266 E8E0     		b	.L76
 777              	.L50:
 311:main.c        ****                 
 312:main.c        ****                 case write_spi:
 313:main.c        ****                     if ((RPi_Command_Data & PORT_MASK) == 0x0010) {
 778              		.loc 1 313 0
 779 0268 314B     		ldr	r3, .L81+8
 780 026a 1B88     		ldrh	r3, [r3]
 781 026c 03F0F003 		and	r3, r3, #240
 782 0270 102B     		cmp	r3, #16
 783 0272 0DD1     		bne	.L63
 314:main.c        ****                         ReadWriteSPIM1(RPi_Command_Data & DATA_MASK, RPi_Data);
 784              		.loc 1 314 0
 785 0274 2E4B     		ldr	r3, .L81+8
 786 0276 1B88     		ldrh	r3, [r3]
 787 0278 DBB2     		uxtb	r3, r3
 788 027a 23F00F03 		bic	r3, r3, #15
 789 027e DAB2     		uxtb	r2, r3
 790 0280 314B     		ldr	r3, .L81+32
 791 0282 1B88     		ldrh	r3, [r3]
 792 0284 DBB2     		uxtb	r3, r3
 793 0286 1946     		mov	r1, r3
 794 0288 1046     		mov	r0, r2
 795 028a FFF7FEFF 		bl	ReadWriteSPIM1
 315:main.c        ****                     } else if ((RPi_Command_Data & PORT_MASK) == 0x0020) {
 316:main.c        ****                         ReadWriteSPIM2(RPi_Command_Data & DATA_MASK, RPi_Data);
 317:main.c        ****                     }
 318:main.c        ****                     break;    
 796              		.loc 1 318 0
 797 028e D6E0     		b	.L77
 798              	.L63:
 315:main.c        ****                     } else if ((RPi_Command_Data & PORT_MASK) == 0x0020) {
 799              		.loc 1 315 0
 800 0290 274B     		ldr	r3, .L81+8
 801 0292 1B88     		ldrh	r3, [r3]
 802 0294 03F0F003 		and	r3, r3, #240
 803 0298 202B     		cmp	r3, #32
 804 029a 40F0D080 		bne	.L77
 316:main.c        ****                     }
 805              		.loc 1 316 0
 806 029e 244B     		ldr	r3, .L81+8
 807 02a0 1B88     		ldrh	r3, [r3]
ARM GAS  C:\Users\Doug\AppData\Local\Temp\ccSaEm3K.s 			page 21


 808 02a2 DBB2     		uxtb	r3, r3
 809 02a4 23F00F03 		bic	r3, r3, #15
 810 02a8 DAB2     		uxtb	r2, r3
 811 02aa 274B     		ldr	r3, .L81+32
 812 02ac 1B88     		ldrh	r3, [r3]
 813 02ae 1946     		mov	r1, r3
 814 02b0 1046     		mov	r0, r2
 815 02b2 FFF7FEFF 		bl	ReadWriteSPIM2
 816              		.loc 1 318 0
 817 02b6 C2E0     		b	.L77
 818              	.L51:
 819              	.LBB4:
 319:main.c        ****                 
 320:main.c        ****                 case write_pwm: {
 321:main.c        ****                     uint16 port = RPi_Command_Data & PORT_MASK;
 820              		.loc 1 321 0
 821 02b8 1D4B     		ldr	r3, .L81+8
 822 02ba 1B88     		ldrh	r3, [r3]
 823 02bc 03F0F003 		and	r3, r3, #240
 824 02c0 3B81     		strh	r3, [r7, #8]	@ movhi
 322:main.c        ****                     uint16 parameter = RPi_Command_Data & 0x000F;
 825              		.loc 1 322 0
 826 02c2 1B4B     		ldr	r3, .L81+8
 827 02c4 1B88     		ldrh	r3, [r3]
 828 02c6 03F00F03 		and	r3, r3, #15
 829 02ca FB80     		strh	r3, [r7, #6]	@ movhi
 323:main.c        ****                     if (port == 0x0010) {
 830              		.loc 1 323 0
 831 02cc 3B89     		ldrh	r3, [r7, #8]
 832 02ce 102B     		cmp	r3, #16
 833 02d0 1CD1     		bne	.L65
 324:main.c        ****                         if (parameter == 0x0000) {
 834              		.loc 1 324 0
 835 02d2 FB88     		ldrh	r3, [r7, #6]
 836 02d4 002B     		cmp	r3, #0
 837 02d6 06D1     		bne	.L66
 325:main.c        ****                             PWM_1_SetCompareMode(RPi_Data);
 838              		.loc 1 325 0
 839 02d8 1B4B     		ldr	r3, .L81+32
 840 02da 1B88     		ldrh	r3, [r3]
 841 02dc DBB2     		uxtb	r3, r3
 842 02de 1846     		mov	r0, r3
 843 02e0 FFF7FEFF 		bl	PWM_1_SetCompareMode
 844              	.LBE4:
 326:main.c        ****                         } else if (parameter == 0x0001) {
 327:main.c        ****                             PWM_1_WritePeriod(RPi_Data);
 328:main.c        ****                         } else if (parameter == 0x0002) {
 329:main.c        ****                             PWM_1_WriteCompare(RPi_Data);
 330:main.c        ****                         }
 331:main.c        ****                     } else if (port == 0x0020) {
 332:main.c        ****                         if (parameter == 0x0000) {
 333:main.c        ****                             PWM_2_SetCompareMode(RPi_Data);
 334:main.c        ****                         } else if (parameter == 0x0001) {
 335:main.c        ****                             PWM_2_WritePeriod(RPi_Data);
 336:main.c        ****                         } else if (parameter == 0x0002) {
 337:main.c        ****                             PWM_2_WriteCompare(RPi_Data);
 338:main.c        ****                         }
ARM GAS  C:\Users\Doug\AppData\Local\Temp\ccSaEm3K.s 			page 22


 339:main.c        ****                     }
 340:main.c        ****                 }
 341:main.c        ****                 break;
 845              		.loc 1 341 0
 846 02e4 ADE0     		b	.L78
 847              	.L66:
 848              	.LBB5:
 326:main.c        ****                         } else if (parameter == 0x0001) {
 849              		.loc 1 326 0
 850 02e6 FB88     		ldrh	r3, [r7, #6]
 851 02e8 012B     		cmp	r3, #1
 852 02ea 05D1     		bne	.L68
 327:main.c        ****                         } else if (parameter == 0x0002) {
 853              		.loc 1 327 0
 854 02ec 164B     		ldr	r3, .L81+32
 855 02ee 1B88     		ldrh	r3, [r3]
 856 02f0 1846     		mov	r0, r3
 857 02f2 FFF7FEFF 		bl	PWM_1_WritePeriod
 858              	.LBE5:
 859              		.loc 1 341 0
 860 02f6 A4E0     		b	.L78
 861              	.L68:
 862              	.LBB6:
 328:main.c        ****                             PWM_1_WriteCompare(RPi_Data);
 863              		.loc 1 328 0
 864 02f8 FB88     		ldrh	r3, [r7, #6]
 865 02fa 022B     		cmp	r3, #2
 866 02fc 40F0A180 		bne	.L78
 329:main.c        ****                         }
 867              		.loc 1 329 0
 868 0300 114B     		ldr	r3, .L81+32
 869 0302 1B88     		ldrh	r3, [r3]
 870 0304 1846     		mov	r0, r3
 871 0306 FFF7FEFF 		bl	PWM_1_WriteCompare
 872              	.LBE6:
 873              		.loc 1 341 0
 874 030a 9AE0     		b	.L78
 875              	.L65:
 876              	.LBB7:
 331:main.c        ****                         if (parameter == 0x0000) {
 877              		.loc 1 331 0
 878 030c 3B89     		ldrh	r3, [r7, #8]
 879 030e 202B     		cmp	r3, #32
 880 0310 40F09780 		bne	.L78
 332:main.c        ****                             PWM_2_SetCompareMode(RPi_Data);
 881              		.loc 1 332 0
 882 0314 FB88     		ldrh	r3, [r7, #6]
 883 0316 002B     		cmp	r3, #0
 884 0318 18D1     		bne	.L70
 333:main.c        ****                         } else if (parameter == 0x0001) {
 885              		.loc 1 333 0
 886 031a 0B4B     		ldr	r3, .L81+32
 887 031c 1B88     		ldrh	r3, [r3]
 888 031e DBB2     		uxtb	r3, r3
 889 0320 1846     		mov	r0, r3
 890 0322 FFF7FEFF 		bl	PWM_2_SetCompareMode
 891              	.LBE7:
ARM GAS  C:\Users\Doug\AppData\Local\Temp\ccSaEm3K.s 			page 23


 892              		.loc 1 341 0
 893 0326 8CE0     		b	.L78
 894              	.L82:
 895              		.align	2
 896              	.L81:
 897 0328 00000000 		.word	PSOC_state
 898 032c 00000000 		.word	SS_Rise_Handler
 899 0330 00000000 		.word	RPi_Command_Data
 900 0334 00000000 		.word	shutdown_count
 901 0338 00000000 		.word	spi_trigger_value
 902 033c 00000000 		.word	spi_trigger_radius
 903 0340 00000000 		.word	spi_trigger_reset
 904 0344 00000000 		.word	RPi_Command
 905 0348 00000000 		.word	RPi_Data
 906              	.L70:
 907              	.LBB8:
 334:main.c        ****                             PWM_2_WritePeriod(RPi_Data);
 908              		.loc 1 334 0
 909 034c FB88     		ldrh	r3, [r7, #6]
 910 034e 012B     		cmp	r3, #1
 911 0350 05D1     		bne	.L71
 335:main.c        ****                         } else if (parameter == 0x0002) {
 912              		.loc 1 335 0
 913 0352 414B     		ldr	r3, .L83
 914 0354 1B88     		ldrh	r3, [r3]
 915 0356 1846     		mov	r0, r3
 916 0358 FFF7FEFF 		bl	PWM_2_WritePeriod
 917              	.LBE8:
 918              		.loc 1 341 0
 919 035c 71E0     		b	.L78
 920              	.L71:
 921              	.LBB9:
 336:main.c        ****                             PWM_2_WriteCompare(RPi_Data);
 922              		.loc 1 336 0
 923 035e FB88     		ldrh	r3, [r7, #6]
 924 0360 022B     		cmp	r3, #2
 925 0362 6ED1     		bne	.L78
 337:main.c        ****                         }
 926              		.loc 1 337 0
 927 0364 3C4B     		ldr	r3, .L83
 928 0366 1B88     		ldrh	r3, [r3]
 929 0368 1846     		mov	r0, r3
 930 036a FFF7FEFF 		bl	PWM_2_WriteCompare
 931              	.LBE9:
 932              		.loc 1 341 0
 933 036e 68E0     		b	.L78
 934              	.L53:
 342:main.c        ****                     
 343:main.c        ****                 case read_i2c: {
 344:main.c        ****                         uint8 i2c_data_read;
 345:main.c        ****                         if ((RPi_Command_Data & DATA_MASK) == 1) {
 346:main.c        ****                             I2C_1_MasterReadBuf(RPi_Data >> 8, &i2c_data_read, 1, I2C_1_MODE_COMPLE
 347:main.c        ****                             SPIS_WriteTxDataZero(i2c_data_read);
 348:main.c        ****                         } else if ((RPi_Command_Data & DATA_MASK) == 2) {
 349:main.c        ****                             I2C_2_MasterReadBuf(RPi_Data >> 8, &i2c_data_read, 1, I2C_2_MODE_COMPLE
 350:main.c        ****                             SPIS_WriteTxDataZero(i2c_data_read);
 351:main.c        ****                         }  
ARM GAS  C:\Users\Doug\AppData\Local\Temp\ccSaEm3K.s 			page 24


 352:main.c        ****                     }
 353:main.c        ****                     break;       
 354:main.c        ****                 
 355:main.c        ****                 case write_i2c:
 356:main.c        ****                     if ((RPi_Command_Data & DATA_MASK) == 1) {
 357:main.c        ****                         I2C_1_MasterWriteBuf(i2c_address, i2c_data_to_write, i2c_byte_count,  I2C_1
 358:main.c        ****                     } else if ((RPi_Command_Data & DATA_MASK) == 2) {
 359:main.c        ****                         I2C_2_MasterWriteBuf(i2c_address, i2c_data_to_write,  i2c_byte_count + 1,  
 360:main.c        ****                     }
 361:main.c        ****                 
 362:main.c        ****                     i2c_byte_count = 0;
 935              		.loc 1 362 0
 936 0370 3A4B     		ldr	r3, .L83+4
 937 0372 0022     		movs	r2, #0
 938 0374 1A70     		strb	r2, [r3]
 363:main.c        ****                 
 364:main.c        ****                     break;     
 939              		.loc 1 364 0
 940 0376 69E0     		b	.L60
 941              	.L54:
 365:main.c        ****                 
 366:main.c        ****                 case add_i2c_data:
 367:main.c        ****                     if (i2c_byte_count < 8) {
 942              		.loc 1 367 0
 943 0378 384B     		ldr	r3, .L83+4
 944 037a 1B78     		ldrb	r3, [r3]	@ zero_extendqisi2
 945 037c 072B     		cmp	r3, #7
 946 037e 62D8     		bhi	.L79
 368:main.c        ****                         i2c_data_to_write[i2c_byte_count] = (uint8)(0x00FF & RPi_Data);
 947              		.loc 1 368 0
 948 0380 364B     		ldr	r3, .L83+4
 949 0382 1B78     		ldrb	r3, [r3]	@ zero_extendqisi2
 950 0384 1A46     		mov	r2, r3
 951 0386 344B     		ldr	r3, .L83
 952 0388 1B88     		ldrh	r3, [r3]
 953 038a D9B2     		uxtb	r1, r3
 954 038c 344B     		ldr	r3, .L83+8
 955 038e 9954     		strb	r1, [r3, r2]
 369:main.c        ****                         i2c_byte_count++;
 956              		.loc 1 369 0
 957 0390 324B     		ldr	r3, .L83+4
 958 0392 1B78     		ldrb	r3, [r3]	@ zero_extendqisi2
 959 0394 0133     		adds	r3, r3, #1
 960 0396 DAB2     		uxtb	r2, r3
 961 0398 304B     		ldr	r3, .L83+4
 962 039a 1A70     		strb	r2, [r3]
 370:main.c        ****                     }
 371:main.c        ****                     break; 
 963              		.loc 1 371 0
 964 039c 53E0     		b	.L79
 965              	.L55:
 372:main.c        ****                 
 373:main.c        ****                 case add_i2c_address:
 374:main.c        ****                     i2c_address = RPi_Data;
 966              		.loc 1 374 0
 967 039e 2E4B     		ldr	r3, .L83
 968 03a0 1B88     		ldrh	r3, [r3]
ARM GAS  C:\Users\Doug\AppData\Local\Temp\ccSaEm3K.s 			page 25


 969 03a2 DAB2     		uxtb	r2, r3
 970 03a4 2F4B     		ldr	r3, .L83+12
 971 03a6 1A70     		strb	r2, [r3]
 375:main.c        ****                     break; 
 972              		.loc 1 375 0
 973 03a8 50E0     		b	.L60
 974              	.L56:
 376:main.c        ****                 
 377:main.c        ****                 case set_spi_trigger:
 378:main.c        ****                     spi_trigger_value[RPi_Command_Data & ORDINAL_MASK] = RPi_Data;
 975              		.loc 1 378 0
 976 03aa 2F4B     		ldr	r3, .L83+16
 977 03ac 1B88     		ldrh	r3, [r3]
 978 03ae 03F00F03 		and	r3, r3, #15
 979 03b2 294A     		ldr	r2, .L83
 980 03b4 1188     		ldrh	r1, [r2]
 981 03b6 2D4A     		ldr	r2, .L83+20
 982 03b8 22F81310 		strh	r1, [r2, r3, lsl #1]	@ movhi
 379:main.c        ****                     if ((RPi_Command_Data & TRIGGER_RESET_MASK) == 0x10) {
 983              		.loc 1 379 0
 984 03bc 2A4B     		ldr	r3, .L83+16
 985 03be 1B88     		ldrh	r3, [r3]
 986 03c0 03F0F003 		and	r3, r3, #240
 987 03c4 102B     		cmp	r3, #16
 988 03c6 40D1     		bne	.L80
 380:main.c        ****                         spi_trigger_reset[RPi_Command_Data & ORDINAL_MASK] = TRIGGER_RESET;
 989              		.loc 1 380 0
 990 03c8 274B     		ldr	r3, .L83+16
 991 03ca 1B88     		ldrh	r3, [r3]
 992 03cc 03F00F03 		and	r3, r3, #15
 993 03d0 274A     		ldr	r2, .L83+24
 994 03d2 0121     		movs	r1, #1
 995 03d4 D154     		strb	r1, [r2, r3]
 381:main.c        ****                     }
 382:main.c        ****                     break;
 996              		.loc 1 382 0
 997 03d6 38E0     		b	.L80
 998              	.L58:
 383:main.c        **** 
 384:main.c        ****                 case set_trigger_radius:
 385:main.c        ****                     spi_trigger_radius[RPi_Command_Data & ORDINAL_MASK] = RPi_Data;
 999              		.loc 1 385 0
 1000 03d8 234B     		ldr	r3, .L83+16
 1001 03da 1B88     		ldrh	r3, [r3]
 1002 03dc 03F00F03 		and	r3, r3, #15
 1003 03e0 1D4A     		ldr	r2, .L83
 1004 03e2 1188     		ldrh	r1, [r2]
 1005 03e4 234A     		ldr	r2, .L83+28
 1006 03e6 22F81310 		strh	r1, [r2, r3, lsl #1]	@ movhi
 386:main.c        ****                     break;
 1007              		.loc 1 386 0
 1008 03ea 2FE0     		b	.L60
 1009              	.L57:
 1010              	.LBB10:
 387:main.c        ****                     
 388:main.c        ****                 case read_encoder: {
 389:main.c        ****                     uint8 port = (RPi_Command_Data & PORT_MASK) >> 0x4;
ARM GAS  C:\Users\Doug\AppData\Local\Temp\ccSaEm3K.s 			page 26


 1011              		.loc 1 389 0
 1012 03ec 1E4B     		ldr	r3, .L83+16
 1013 03ee 1B88     		ldrh	r3, [r3]
 1014 03f0 1B11     		asrs	r3, r3, #4
 1015 03f2 DBB2     		uxtb	r3, r3
 1016 03f4 03F00F03 		and	r3, r3, #15
 1017 03f8 7B71     		strb	r3, [r7, #5]
 390:main.c        ****                     uint8 channel = RPi_Command_Data & CHANNEL_MASK;
 1018              		.loc 1 390 0
 1019 03fa 1B4B     		ldr	r3, .L83+16
 1020 03fc 1B88     		ldrh	r3, [r3]
 1021 03fe DBB2     		uxtb	r3, r3
 1022 0400 03F00F03 		and	r3, r3, #15
 1023 0404 3B71     		strb	r3, [r7, #4]
 391:main.c        ****                     uint16 encoder = ReadEncoder(port, channel);
 1024              		.loc 1 391 0
 1025 0406 3A79     		ldrb	r2, [r7, #4]	@ zero_extendqisi2
 1026 0408 7B79     		ldrb	r3, [r7, #5]	@ zero_extendqisi2
 1027 040a 1146     		mov	r1, r2
 1028 040c 1846     		mov	r0, r3
 1029 040e FFF7FEFF 		bl	ReadEncoder
 1030 0412 0346     		mov	r3, r0
 1031 0414 7B80     		strh	r3, [r7, #2]	@ movhi
 392:main.c        ****                     SPIS_WriteTxDataZero(encoder);
 1032              		.loc 1 392 0
 1033 0416 7B88     		ldrh	r3, [r7, #2]
 1034 0418 1846     		mov	r0, r3
 1035 041a FFF7FEFF 		bl	SPIS_WriteTxDataZero
 393:main.c        ****                     break;
 1036              		.loc 1 393 0
 1037 041e 15E0     		b	.L60
 1038              	.L59:
 1039              	.LBE10:
 394:main.c        ****                 }
 395:main.c        ****                 
 396:main.c        ****                 case read_firmware_date: {
 397:main.c        ****                     SPIS_WriteTxDataZero(firmwareVersionDate[RPi_Command_Data & ORDINAL_MASK]);
 1040              		.loc 1 397 0
 1041 0420 114B     		ldr	r3, .L83+16
 1042 0422 1B88     		ldrh	r3, [r3]
 1043 0424 03F00F03 		and	r3, r3, #15
 1044 0428 134A     		ldr	r2, .L83+32
 1045 042a D35C     		ldrb	r3, [r2, r3]	@ zero_extendqisi2
 1046 042c 9BB2     		uxth	r3, r3
 1047 042e 1846     		mov	r0, r3
 1048 0430 FFF7FEFF 		bl	SPIS_WriteTxDataZero
 398:main.c        ****                     break;
 1049              		.loc 1 398 0
 1050 0434 0AE0     		b	.L60
 1051              	.L75:
 399:main.c        ****                 }
 400:main.c        ****                 
 401:main.c        ****                 case no_command:
 402:main.c        ****                 default:
 403:main.c        ****                     break;
 1052              		.loc 1 403 0
 1053 0436 00BF     		nop
ARM GAS  C:\Users\Doug\AppData\Local\Temp\ccSaEm3K.s 			page 27


 1054 0438 08E0     		b	.L60
 1055              	.L76:
 310:main.c        ****                 
 1056              		.loc 1 310 0
 1057 043a 00BF     		nop
 1058 043c 06E0     		b	.L60
 1059              	.L77:
 318:main.c        ****                 
 1060              		.loc 1 318 0
 1061 043e 00BF     		nop
 1062 0440 04E0     		b	.L60
 1063              	.L78:
 341:main.c        ****                     
 1064              		.loc 1 341 0
 1065 0442 00BF     		nop
 1066 0444 02E0     		b	.L60
 1067              	.L79:
 371:main.c        ****                 
 1068              		.loc 1 371 0
 1069 0446 00BF     		nop
 1070 0448 00E0     		b	.L60
 1071              	.L80:
 382:main.c        **** 
 1072              		.loc 1 382 0
 1073 044a 00BF     		nop
 1074              	.L60:
 404:main.c        ****             }
 405:main.c        ****         
 406:main.c        ****             PSOC_state = idle_state;
 1075              		.loc 1 406 0
 1076 044c 0B4B     		ldr	r3, .L83+36
 1077 044e 0022     		movs	r2, #0
 1078 0450 1A70     		strb	r2, [r3]
 407:main.c        ****             SPIS_ClearRxBuffer(); 
 1079              		.loc 1 407 0
 1080 0452 FFF7FEFF 		bl	SPIS_ClearRxBuffer
 408:main.c        ****         }
 409:main.c        ****     }
 1081              		.loc 1 409 0
 1082 0456 15E6     		b	.L74
 1083              	.L84:
 1084              		.align	2
 1085              	.L83:
 1086 0458 00000000 		.word	RPi_Data
 1087 045c 00000000 		.word	i2c_byte_count
 1088 0460 00000000 		.word	i2c_data_to_write
 1089 0464 00000000 		.word	i2c_address
 1090 0468 00000000 		.word	RPi_Command_Data
 1091 046c 00000000 		.word	spi_trigger_value
 1092 0470 00000000 		.word	spi_trigger_reset
 1093 0474 00000000 		.word	spi_trigger_radius
 1094 0478 00000000 		.word	firmwareVersionDate
 1095 047c 00000000 		.word	PSOC_state
 1096              		.cfi_endproc
 1097              	.LFE66:
 1098              		.size	main, .-main
 1099              		.section	.text.ReadWriteSPIM1,"ax",%progbits
ARM GAS  C:\Users\Doug\AppData\Local\Temp\ccSaEm3K.s 			page 28


 1100              		.align	2
 1101              		.global	ReadWriteSPIM1
 1102              		.thumb
 1103              		.thumb_func
 1104              		.type	ReadWriteSPIM1, %function
 1105              	ReadWriteSPIM1:
 1106              	.LFB67:
 410:main.c        **** }
 411:main.c        **** 
 412:main.c        **** uint16 ReadWriteSPIM1(uint8 ChannelNumber, uint8 data) {
 1107              		.loc 1 412 0
 1108              		.cfi_startproc
 1109              		@ args = 0, pretend = 0, frame = 16
 1110              		@ frame_needed = 1, uses_anonymous_args = 0
 1111 0000 80B5     		push	{r7, lr}
 1112              		.cfi_def_cfa_offset 8
 1113              		.cfi_offset 7, -8
 1114              		.cfi_offset 14, -4
 1115 0002 84B0     		sub	sp, sp, #16
 1116              		.cfi_def_cfa_offset 24
 1117 0004 00AF     		add	r7, sp, #0
 1118              		.cfi_def_cfa_register 7
 1119 0006 0346     		mov	r3, r0
 1120 0008 0A46     		mov	r2, r1
 1121 000a FB71     		strb	r3, [r7, #7]
 1122 000c 1346     		mov	r3, r2
 1123 000e BB71     		strb	r3, [r7, #6]
 413:main.c        ****     Control_Reg_SS_1_Write(ChannelNumber);
 1124              		.loc 1 413 0
 1125 0010 FB79     		ldrb	r3, [r7, #7]	@ zero_extendqisi2
 1126 0012 1846     		mov	r0, r3
 1127 0014 FFF7FEFF 		bl	Control_Reg_SS_1_Write
 414:main.c        ****     SPIM_1_ClearFIFO();
 1128              		.loc 1 414 0
 1129 0018 FFF7FEFF 		bl	SPIM_1_ClearFIFO
 415:main.c        ****     SPIM_1_WriteTxData(data);
 1130              		.loc 1 415 0
 1131 001c BB79     		ldrb	r3, [r7, #6]	@ zero_extendqisi2
 1132 001e 1846     		mov	r0, r3
 1133 0020 FFF7FEFF 		bl	SPIM_1_WriteTxData
 416:main.c        ****     
 417:main.c        ****     while(!(SPIM_1_ReadTxStatus() & SPIM_1_STS_SPI_DONE));
 1134              		.loc 1 417 0
 1135 0024 00BF     		nop
 1136              	.L86:
 1137              		.loc 1 417 0 is_stmt 0 discriminator 1
 1138 0026 FFF7FEFF 		bl	SPIM_1_ReadTxStatus
 1139 002a 0346     		mov	r3, r0
 1140 002c 03F00103 		and	r3, r3, #1
 1141 0030 002B     		cmp	r3, #0
 1142 0032 F8D0     		beq	.L86
 418:main.c        ****     uint16 result = SPIM_1_ReadRxData();
 1143              		.loc 1 418 0 is_stmt 1
 1144 0034 FFF7FEFF 		bl	SPIM_1_ReadRxData
 1145 0038 0346     		mov	r3, r0
 1146 003a FB81     		strh	r3, [r7, #14]	@ movhi
 419:main.c        ****     return(result);
ARM GAS  C:\Users\Doug\AppData\Local\Temp\ccSaEm3K.s 			page 29


 1147              		.loc 1 419 0
 1148 003c FB89     		ldrh	r3, [r7, #14]
 420:main.c        **** }
 1149              		.loc 1 420 0
 1150 003e 1846     		mov	r0, r3
 1151 0040 1037     		adds	r7, r7, #16
 1152              		.cfi_def_cfa_offset 8
 1153 0042 BD46     		mov	sp, r7
 1154              		.cfi_def_cfa_register 13
 1155              		@ sp needed
 1156 0044 80BD     		pop	{r7, pc}
 1157              		.cfi_endproc
 1158              	.LFE67:
 1159              		.size	ReadWriteSPIM1, .-ReadWriteSPIM1
 1160 0046 00BF     		.section	.text.ReadWriteSPIM2,"ax",%progbits
 1161              		.align	2
 1162              		.global	ReadWriteSPIM2
 1163              		.thumb
 1164              		.thumb_func
 1165              		.type	ReadWriteSPIM2, %function
 1166              	ReadWriteSPIM2:
 1167              	.LFB68:
 421:main.c        **** 
 422:main.c        **** uint16 ReadWriteSPIM2(uint8 ChannelNumber, uint16 data) {
 1168              		.loc 1 422 0
 1169              		.cfi_startproc
 1170              		@ args = 0, pretend = 0, frame = 16
 1171              		@ frame_needed = 1, uses_anonymous_args = 0
 1172 0000 80B5     		push	{r7, lr}
 1173              		.cfi_def_cfa_offset 8
 1174              		.cfi_offset 7, -8
 1175              		.cfi_offset 14, -4
 1176 0002 84B0     		sub	sp, sp, #16
 1177              		.cfi_def_cfa_offset 24
 1178 0004 00AF     		add	r7, sp, #0
 1179              		.cfi_def_cfa_register 7
 1180 0006 0346     		mov	r3, r0
 1181 0008 0A46     		mov	r2, r1
 1182 000a FB71     		strb	r3, [r7, #7]
 1183 000c 1346     		mov	r3, r2	@ movhi
 1184 000e BB80     		strh	r3, [r7, #4]	@ movhi
 423:main.c        ****     Control_Reg_SS_2_Write(ChannelNumber);
 1185              		.loc 1 423 0
 1186 0010 FB79     		ldrb	r3, [r7, #7]	@ zero_extendqisi2
 1187 0012 1846     		mov	r0, r3
 1188 0014 FFF7FEFF 		bl	Control_Reg_SS_2_Write
 424:main.c        ****     SPIM_2_ClearFIFO();
 1189              		.loc 1 424 0
 1190 0018 FFF7FEFF 		bl	SPIM_2_ClearFIFO
 425:main.c        ****     SPIM_2_WriteTxData(data);
 1191              		.loc 1 425 0
 1192 001c BB88     		ldrh	r3, [r7, #4]
 1193 001e 1846     		mov	r0, r3
 1194 0020 FFF7FEFF 		bl	SPIM_2_WriteTxData
 426:main.c        ****     
 427:main.c        ****     while(!(SPIM_2_ReadTxStatus() & SPIM_2_STS_SPI_DONE));
 1195              		.loc 1 427 0
ARM GAS  C:\Users\Doug\AppData\Local\Temp\ccSaEm3K.s 			page 30


 1196 0024 00BF     		nop
 1197              	.L89:
 1198              		.loc 1 427 0 is_stmt 0 discriminator 1
 1199 0026 FFF7FEFF 		bl	SPIM_2_ReadTxStatus
 1200 002a 0346     		mov	r3, r0
 1201 002c 03F00103 		and	r3, r3, #1
 1202 0030 002B     		cmp	r3, #0
 1203 0032 F8D0     		beq	.L89
 428:main.c        ****     uint16 result = SPIM_2_ReadRxData();
 1204              		.loc 1 428 0 is_stmt 1
 1205 0034 FFF7FEFF 		bl	SPIM_2_ReadRxData
 1206 0038 0346     		mov	r3, r0
 1207 003a FB81     		strh	r3, [r7, #14]	@ movhi
 429:main.c        ****     return(result);
 1208              		.loc 1 429 0
 1209 003c FB89     		ldrh	r3, [r7, #14]
 430:main.c        **** }
 1210              		.loc 1 430 0
 1211 003e 1846     		mov	r0, r3
 1212 0040 1037     		adds	r7, r7, #16
 1213              		.cfi_def_cfa_offset 8
 1214 0042 BD46     		mov	sp, r7
 1215              		.cfi_def_cfa_register 13
 1216              		@ sp needed
 1217 0044 80BD     		pop	{r7, pc}
 1218              		.cfi_endproc
 1219              	.LFE68:
 1220              		.size	ReadWriteSPIM2, .-ReadWriteSPIM2
 1221 0046 00BF     		.section	.text.ReadEncoder,"ax",%progbits
 1222              		.align	2
 1223              		.global	ReadEncoder
 1224              		.thumb
 1225              		.thumb_func
 1226              		.type	ReadEncoder, %function
 1227              	ReadEncoder:
 1228              	.LFB69:
 431:main.c        **** 
 432:main.c        **** uint16 ReadEncoder(uint8 port, uint8 ChannelNumber) {
 1229              		.loc 1 432 0
 1230              		.cfi_startproc
 1231              		@ args = 0, pretend = 0, frame = 16
 1232              		@ frame_needed = 1, uses_anonymous_args = 0
 1233 0000 80B5     		push	{r7, lr}
 1234              		.cfi_def_cfa_offset 8
 1235              		.cfi_offset 7, -8
 1236              		.cfi_offset 14, -4
 1237 0002 84B0     		sub	sp, sp, #16
 1238              		.cfi_def_cfa_offset 24
 1239 0004 00AF     		add	r7, sp, #0
 1240              		.cfi_def_cfa_register 7
 1241 0006 0346     		mov	r3, r0
 1242 0008 0A46     		mov	r2, r1
 1243 000a FB71     		strb	r3, [r7, #7]
 1244 000c 1346     		mov	r3, r2
 1245 000e BB71     		strb	r3, [r7, #6]
 433:main.c        ****     uint16 MSB = 0xff;
 1246              		.loc 1 433 0
ARM GAS  C:\Users\Doug\AppData\Local\Temp\ccSaEm3K.s 			page 31


 1247 0010 FF23     		movs	r3, #255
 1248 0012 FB81     		strh	r3, [r7, #14]	@ movhi
 434:main.c        ****     uint16 LSB = 0xff;
 1249              		.loc 1 434 0
 1250 0014 FF23     		movs	r3, #255
 1251 0016 BB81     		strh	r3, [r7, #12]	@ movhi
 435:main.c        **** 
 436:main.c        ****     if (port == 0x01) {
 1252              		.loc 1 436 0
 1253 0018 FB79     		ldrb	r3, [r7, #7]	@ zero_extendqisi2
 1254 001a 012B     		cmp	r3, #1
 1255 001c 1CD1     		bne	.L92
 437:main.c        ****         ReadWriteSPIM1(ChannelNumber, READ_ENCODER);
 1256              		.loc 1 437 0
 1257 001e BB79     		ldrb	r3, [r7, #6]	@ zero_extendqisi2
 1258 0020 1021     		movs	r1, #16
 1259 0022 1846     		mov	r0, r3
 1260 0024 FFF7FEFF 		bl	ReadWriteSPIM1
 438:main.c        ****         while (ReadWriteSPIM1(ChannelNumber, 0x00) == ENCODER_IDLE){}
 1261              		.loc 1 438 0
 1262 0028 00BF     		nop
 1263              	.L93:
 1264              		.loc 1 438 0 is_stmt 0 discriminator 1
 1265 002a BB79     		ldrb	r3, [r7, #6]	@ zero_extendqisi2
 1266 002c 0021     		movs	r1, #0
 1267 002e 1846     		mov	r0, r3
 1268 0030 FFF7FEFF 		bl	ReadWriteSPIM1
 1269 0034 0346     		mov	r3, r0
 1270 0036 A52B     		cmp	r3, #165
 1271 0038 F7D0     		beq	.L93
 439:main.c        ****         MSB = ReadWriteSPIM1(ChannelNumber, 0x00);
 1272              		.loc 1 439 0 is_stmt 1
 1273 003a BB79     		ldrb	r3, [r7, #6]	@ zero_extendqisi2
 1274 003c 0021     		movs	r1, #0
 1275 003e 1846     		mov	r0, r3
 1276 0040 FFF7FEFF 		bl	ReadWriteSPIM1
 1277 0044 0346     		mov	r3, r0
 1278 0046 FB81     		strh	r3, [r7, #14]	@ movhi
 440:main.c        ****         LSB = ReadWriteSPIM1(ChannelNumber, 0x00);
 1279              		.loc 1 440 0
 1280 0048 BB79     		ldrb	r3, [r7, #6]	@ zero_extendqisi2
 1281 004a 0021     		movs	r1, #0
 1282 004c 1846     		mov	r0, r3
 1283 004e FFF7FEFF 		bl	ReadWriteSPIM1
 1284 0052 0346     		mov	r3, r0
 1285 0054 BB81     		strh	r3, [r7, #12]	@ movhi
 1286 0056 1EE0     		b	.L94
 1287              	.L92:
 441:main.c        ****    } else if (port == 0x02) {
 1288              		.loc 1 441 0
 1289 0058 FB79     		ldrb	r3, [r7, #7]	@ zero_extendqisi2
 1290 005a 022B     		cmp	r3, #2
 1291 005c 1BD1     		bne	.L94
 442:main.c        ****         ReadWriteSPIM2(ChannelNumber, READ_ENCODER);
 1292              		.loc 1 442 0
 1293 005e BB79     		ldrb	r3, [r7, #6]	@ zero_extendqisi2
 1294 0060 1021     		movs	r1, #16
ARM GAS  C:\Users\Doug\AppData\Local\Temp\ccSaEm3K.s 			page 32


 1295 0062 1846     		mov	r0, r3
 1296 0064 FFF7FEFF 		bl	ReadWriteSPIM2
 443:main.c        ****         while (ReadWriteSPIM2(ChannelNumber, 0x00) == ENCODER_IDLE){}
 1297              		.loc 1 443 0
 1298 0068 00BF     		nop
 1299              	.L95:
 1300              		.loc 1 443 0 is_stmt 0 discriminator 1
 1301 006a BB79     		ldrb	r3, [r7, #6]	@ zero_extendqisi2
 1302 006c 0021     		movs	r1, #0
 1303 006e 1846     		mov	r0, r3
 1304 0070 FFF7FEFF 		bl	ReadWriteSPIM2
 1305 0074 0346     		mov	r3, r0
 1306 0076 A52B     		cmp	r3, #165
 1307 0078 F7D0     		beq	.L95
 444:main.c        ****         MSB = ReadWriteSPIM2(ChannelNumber, 0x00);
 1308              		.loc 1 444 0 is_stmt 1
 1309 007a BB79     		ldrb	r3, [r7, #6]	@ zero_extendqisi2
 1310 007c 0021     		movs	r1, #0
 1311 007e 1846     		mov	r0, r3
 1312 0080 FFF7FEFF 		bl	ReadWriteSPIM2
 1313 0084 0346     		mov	r3, r0
 1314 0086 FB81     		strh	r3, [r7, #14]	@ movhi
 445:main.c        ****         LSB = ReadWriteSPIM2(ChannelNumber, 0x00);
 1315              		.loc 1 445 0
 1316 0088 BB79     		ldrb	r3, [r7, #6]	@ zero_extendqisi2
 1317 008a 0021     		movs	r1, #0
 1318 008c 1846     		mov	r0, r3
 1319 008e FFF7FEFF 		bl	ReadWriteSPIM2
 1320 0092 0346     		mov	r3, r0
 1321 0094 BB81     		strh	r3, [r7, #12]	@ movhi
 1322              	.L94:
 446:main.c        ****    }
 447:main.c        **** 
 448:main.c        ****    return (uint16)(LSB + (MSB << 8));
 1323              		.loc 1 448 0
 1324 0096 FB89     		ldrh	r3, [r7, #14]	@ movhi
 1325 0098 1B02     		lsls	r3, r3, #8
 1326 009a 9AB2     		uxth	r2, r3
 1327 009c BB89     		ldrh	r3, [r7, #12]	@ movhi
 1328 009e 1344     		add	r3, r3, r2
 1329 00a0 9BB2     		uxth	r3, r3
 449:main.c        **** }
 1330              		.loc 1 449 0
 1331 00a2 1846     		mov	r0, r3
 1332 00a4 1037     		adds	r7, r7, #16
 1333              		.cfi_def_cfa_offset 8
 1334 00a6 BD46     		mov	sp, r7
 1335              		.cfi_def_cfa_register 13
 1336              		@ sp needed
 1337 00a8 80BD     		pop	{r7, pc}
 1338              		.cfi_endproc
 1339              	.LFE69:
 1340              		.size	ReadEncoder, .-ReadEncoder
 1341 00aa 00BF     		.text
 1342              	.Letext0:
 1343              		.file 2 "c:\\program files (x86)\\cypress\\psoc creator\\4.2\\psoc creator\\import\\gnu\\arm\\5.4.
 1344              		.file 3 "c:\\program files (x86)\\cypress\\psoc creator\\4.2\\psoc creator\\import\\gnu\\arm\\5.4.
ARM GAS  C:\Users\Doug\AppData\Local\Temp\ccSaEm3K.s 			page 33


 1345              		.file 4 "Generated_Source\\PSoC5/cytypes.h"
 1346              		.file 5 "Generated_Source\\PSoC5/core_cm3.h"