ARM GAS  C:\Users\Joe\AppData\Local\Temp\ccMP3HST.s 			page 1


   1              		.syntax unified
   2              		.cpu cortex-m3
   3              		.fpu softvfp
   4              		.eabi_attribute 20, 1
   5              		.eabi_attribute 21, 1
   6              		.eabi_attribute 23, 3
   7              		.eabi_attribute 24, 1
   8              		.eabi_attribute 25, 1
   9              		.eabi_attribute 26, 1
  10              		.eabi_attribute 30, 4
  11              		.eabi_attribute 34, 1
  12              		.eabi_attribute 18, 4
  13              		.thumb
  14              		.syntax unified
  15              		.file	"cyfitter_cfg.c"
  16              		.text
  17              	.Ltext0:
  18              		.cfi_sections	.debug_frame
  19              		.section	.text.SetAnalogRoutingPumps,"ax",%progbits
  20              		.align	1
  21              		.global	SetAnalogRoutingPumps
  22              		.thumb
  23              		.thumb_func
  24              		.type	SetAnalogRoutingPumps, %function
  25              	SetAnalogRoutingPumps:
  26              	.LFB7:
  27              		.file 1 "Generated_Source\\PSoC5\\cyfitter_cfg.c"
   1:Generated_Source\PSoC5/cyfitter_cfg.c **** 
   2:Generated_Source\PSoC5/cyfitter_cfg.c **** /*******************************************************************************
   3:Generated_Source\PSoC5/cyfitter_cfg.c **** * File Name: cyfitter_cfg.c
   4:Generated_Source\PSoC5/cyfitter_cfg.c **** * 
   5:Generated_Source\PSoC5/cyfitter_cfg.c **** * PSoC Creator  4.2
   6:Generated_Source\PSoC5/cyfitter_cfg.c **** *
   7:Generated_Source\PSoC5/cyfitter_cfg.c **** * Description:
   8:Generated_Source\PSoC5/cyfitter_cfg.c **** * This file contains device initialization code.
   9:Generated_Source\PSoC5/cyfitter_cfg.c **** * Except for the user defined sections in CyClockStartupError(), this file should not be modified.
  10:Generated_Source\PSoC5/cyfitter_cfg.c **** * This file is automatically generated by PSoC Creator.
  11:Generated_Source\PSoC5/cyfitter_cfg.c **** *
  12:Generated_Source\PSoC5/cyfitter_cfg.c **** ********************************************************************************
  13:Generated_Source\PSoC5/cyfitter_cfg.c **** * Copyright (c) 2007-2018 Cypress Semiconductor.  All rights reserved.
  14:Generated_Source\PSoC5/cyfitter_cfg.c **** * You may use this file only in accordance with the license, terms, conditions, 
  15:Generated_Source\PSoC5/cyfitter_cfg.c **** * disclaimers, and limitations in the end user license agreement accompanying 
  16:Generated_Source\PSoC5/cyfitter_cfg.c **** * the software package with which this file was provided.
  17:Generated_Source\PSoC5/cyfitter_cfg.c **** ********************************************************************************/
  18:Generated_Source\PSoC5/cyfitter_cfg.c **** 
  19:Generated_Source\PSoC5/cyfitter_cfg.c **** #include <string.h>
  20:Generated_Source\PSoC5/cyfitter_cfg.c **** #include "cytypes.h"
  21:Generated_Source\PSoC5/cyfitter_cfg.c **** #include "cydevice_trm.h"
  22:Generated_Source\PSoC5/cyfitter_cfg.c **** #include "cyfitter.h"
  23:Generated_Source\PSoC5/cyfitter_cfg.c **** #include "CyLib.h"
  24:Generated_Source\PSoC5/cyfitter_cfg.c **** #include "cyfitter_cfg.h"
  25:Generated_Source\PSoC5/cyfitter_cfg.c **** 
  26:Generated_Source\PSoC5/cyfitter_cfg.c **** #define CY_NEED_CYCLOCKSTARTUPERROR 1
  27:Generated_Source\PSoC5/cyfitter_cfg.c **** 
  28:Generated_Source\PSoC5/cyfitter_cfg.c **** 
  29:Generated_Source\PSoC5/cyfitter_cfg.c **** #if defined(__GNUC__) || defined(__ARMCC_VERSION)
  30:Generated_Source\PSoC5/cyfitter_cfg.c ****     #define CYPACKED 
ARM GAS  C:\Users\Joe\AppData\Local\Temp\ccMP3HST.s 			page 2


  31:Generated_Source\PSoC5/cyfitter_cfg.c ****     #define CYPACKED_ATTR __attribute__ ((packed))
  32:Generated_Source\PSoC5/cyfitter_cfg.c ****     #define CYALIGNED __attribute__ ((aligned))
  33:Generated_Source\PSoC5/cyfitter_cfg.c ****     #define CY_CFG_UNUSED __attribute__ ((unused))
  34:Generated_Source\PSoC5/cyfitter_cfg.c ****     #ifndef CY_CFG_SECTION
  35:Generated_Source\PSoC5/cyfitter_cfg.c ****         #define CY_CFG_SECTION __attribute__ ((section(".psocinit")))
  36:Generated_Source\PSoC5/cyfitter_cfg.c ****     #endif
  37:Generated_Source\PSoC5/cyfitter_cfg.c ****     
  38:Generated_Source\PSoC5/cyfitter_cfg.c ****     #if CYDEV_CONFIGURATION_DMA
  39:Generated_Source\PSoC5/cyfitter_cfg.c ****         #if (defined(__ARMCC_VERSION) || defined(__GNUC__))
  40:Generated_Source\PSoC5/cyfitter_cfg.c ****             #ifndef DMAINITSEC
  41:Generated_Source\PSoC5/cyfitter_cfg.c ****                 #define DMAINITSEC __attribute__ ((section(".dma_init")))
  42:Generated_Source\PSoC5/cyfitter_cfg.c ****             #endif
  43:Generated_Source\PSoC5/cyfitter_cfg.c ****         #elif defined(__ICCARM__)
  44:Generated_Source\PSoC5/cyfitter_cfg.c ****             #define DMAINITSEC _Pragma("location=\".dma_init\"")
  45:Generated_Source\PSoC5/cyfitter_cfg.c ****         #endif
  46:Generated_Source\PSoC5/cyfitter_cfg.c ****     #else
  47:Generated_Source\PSoC5/cyfitter_cfg.c ****         #define DMAINITSEC
  48:Generated_Source\PSoC5/cyfitter_cfg.c ****     #endif
  49:Generated_Source\PSoC5/cyfitter_cfg.c **** 
  50:Generated_Source\PSoC5/cyfitter_cfg.c ****     #if defined(__ARMCC_VERSION)
  51:Generated_Source\PSoC5/cyfitter_cfg.c ****         #define CY_CFG_MEMORY_BARRIER() __memory_changed()
  52:Generated_Source\PSoC5/cyfitter_cfg.c ****     #else
  53:Generated_Source\PSoC5/cyfitter_cfg.c ****         #define CY_CFG_MEMORY_BARRIER() __sync_synchronize()
  54:Generated_Source\PSoC5/cyfitter_cfg.c ****     #endif
  55:Generated_Source\PSoC5/cyfitter_cfg.c ****     
  56:Generated_Source\PSoC5/cyfitter_cfg.c **** #elif defined(__ICCARM__)
  57:Generated_Source\PSoC5/cyfitter_cfg.c ****     #include <intrinsics.h>
  58:Generated_Source\PSoC5/cyfitter_cfg.c **** 
  59:Generated_Source\PSoC5/cyfitter_cfg.c ****     #define CYPACKED __packed
  60:Generated_Source\PSoC5/cyfitter_cfg.c ****     #define CYPACKED_ATTR 
  61:Generated_Source\PSoC5/cyfitter_cfg.c ****     #define CYALIGNED _Pragma("data_alignment=4")
  62:Generated_Source\PSoC5/cyfitter_cfg.c ****     #define CY_CFG_UNUSED _Pragma("diag_suppress=Pe177")
  63:Generated_Source\PSoC5/cyfitter_cfg.c ****     #define CY_CFG_SECTION _Pragma("location=\".psocinit\"")
  64:Generated_Source\PSoC5/cyfitter_cfg.c ****     
  65:Generated_Source\PSoC5/cyfitter_cfg.c ****     #if CYDEV_CONFIGURATION_DMA
  66:Generated_Source\PSoC5/cyfitter_cfg.c ****         #if (defined(__ARMCC_VERSION) || defined(__GNUC__))
  67:Generated_Source\PSoC5/cyfitter_cfg.c ****             #ifndef DMAINITSEC
  68:Generated_Source\PSoC5/cyfitter_cfg.c ****                 #define DMAINITSEC __attribute__ ((section(".dma_init")))
  69:Generated_Source\PSoC5/cyfitter_cfg.c ****             #endif
  70:Generated_Source\PSoC5/cyfitter_cfg.c ****         #elif defined(__ICCARM__)
  71:Generated_Source\PSoC5/cyfitter_cfg.c ****             #define DMAINITSEC _Pragma("location=\".dma_init\"")
  72:Generated_Source\PSoC5/cyfitter_cfg.c ****         #endif
  73:Generated_Source\PSoC5/cyfitter_cfg.c ****     #else
  74:Generated_Source\PSoC5/cyfitter_cfg.c ****         #define DMAINITSEC
  75:Generated_Source\PSoC5/cyfitter_cfg.c ****     #endif
  76:Generated_Source\PSoC5/cyfitter_cfg.c **** 
  77:Generated_Source\PSoC5/cyfitter_cfg.c ****     #define CY_CFG_MEMORY_BARRIER() __DMB()
  78:Generated_Source\PSoC5/cyfitter_cfg.c ****     
  79:Generated_Source\PSoC5/cyfitter_cfg.c **** #else
  80:Generated_Source\PSoC5/cyfitter_cfg.c ****     #error Unsupported toolchain
  81:Generated_Source\PSoC5/cyfitter_cfg.c **** #endif
  82:Generated_Source\PSoC5/cyfitter_cfg.c **** 
  83:Generated_Source\PSoC5/cyfitter_cfg.c **** #ifndef CYCODE
  84:Generated_Source\PSoC5/cyfitter_cfg.c ****     #define CYCODE
  85:Generated_Source\PSoC5/cyfitter_cfg.c **** #endif
  86:Generated_Source\PSoC5/cyfitter_cfg.c **** #ifndef CYDATA
  87:Generated_Source\PSoC5/cyfitter_cfg.c ****     #define CYDATA
ARM GAS  C:\Users\Joe\AppData\Local\Temp\ccMP3HST.s 			page 3


  88:Generated_Source\PSoC5/cyfitter_cfg.c **** #endif
  89:Generated_Source\PSoC5/cyfitter_cfg.c **** #ifndef CYFAR
  90:Generated_Source\PSoC5/cyfitter_cfg.c ****     #define CYFAR
  91:Generated_Source\PSoC5/cyfitter_cfg.c **** #endif
  92:Generated_Source\PSoC5/cyfitter_cfg.c **** #ifndef CYXDATA
  93:Generated_Source\PSoC5/cyfitter_cfg.c ****     #define CYXDATA
  94:Generated_Source\PSoC5/cyfitter_cfg.c **** #endif
  95:Generated_Source\PSoC5/cyfitter_cfg.c **** 
  96:Generated_Source\PSoC5/cyfitter_cfg.c **** 
  97:Generated_Source\PSoC5/cyfitter_cfg.c **** CY_CFG_UNUSED
  98:Generated_Source\PSoC5/cyfitter_cfg.c **** static void CYMEMZERO(void *s, size_t n);
  99:Generated_Source\PSoC5/cyfitter_cfg.c **** CY_CFG_UNUSED
 100:Generated_Source\PSoC5/cyfitter_cfg.c **** static void CYMEMZERO(void *s, size_t n)
 101:Generated_Source\PSoC5/cyfitter_cfg.c **** {
 102:Generated_Source\PSoC5/cyfitter_cfg.c **** 	(void)memset(s, 0, n);
 103:Generated_Source\PSoC5/cyfitter_cfg.c **** }
 104:Generated_Source\PSoC5/cyfitter_cfg.c **** CY_CFG_UNUSED
 105:Generated_Source\PSoC5/cyfitter_cfg.c **** static void CYCONFIGCPY(void *dest, const void *src, size_t n);
 106:Generated_Source\PSoC5/cyfitter_cfg.c **** CY_CFG_UNUSED
 107:Generated_Source\PSoC5/cyfitter_cfg.c **** static void CYCONFIGCPY(void *dest, const void *src, size_t n)
 108:Generated_Source\PSoC5/cyfitter_cfg.c **** {
 109:Generated_Source\PSoC5/cyfitter_cfg.c **** 	(void)memcpy(dest, src, n);
 110:Generated_Source\PSoC5/cyfitter_cfg.c **** }
 111:Generated_Source\PSoC5/cyfitter_cfg.c **** CY_CFG_UNUSED
 112:Generated_Source\PSoC5/cyfitter_cfg.c **** static void CYCONFIGCPYCODE(void *dest, const void *src, size_t n);
 113:Generated_Source\PSoC5/cyfitter_cfg.c **** CY_CFG_UNUSED
 114:Generated_Source\PSoC5/cyfitter_cfg.c **** static void CYCONFIGCPYCODE(void *dest, const void *src, size_t n)
 115:Generated_Source\PSoC5/cyfitter_cfg.c **** {
 116:Generated_Source\PSoC5/cyfitter_cfg.c **** 	(void)memcpy(dest, src, n);
 117:Generated_Source\PSoC5/cyfitter_cfg.c **** }
 118:Generated_Source\PSoC5/cyfitter_cfg.c **** 
 119:Generated_Source\PSoC5/cyfitter_cfg.c **** 
 120:Generated_Source\PSoC5/cyfitter_cfg.c **** 
 121:Generated_Source\PSoC5/cyfitter_cfg.c **** 
 122:Generated_Source\PSoC5/cyfitter_cfg.c **** /* Clock startup error codes                                                   */
 123:Generated_Source\PSoC5/cyfitter_cfg.c **** #define CYCLOCKSTART_NO_ERROR    0u
 124:Generated_Source\PSoC5/cyfitter_cfg.c **** #define CYCLOCKSTART_XTAL_ERROR  1u
 125:Generated_Source\PSoC5/cyfitter_cfg.c **** #define CYCLOCKSTART_32KHZ_ERROR 2u
 126:Generated_Source\PSoC5/cyfitter_cfg.c **** #define CYCLOCKSTART_PLL_ERROR   3u
 127:Generated_Source\PSoC5/cyfitter_cfg.c **** #define CYCLOCKSTART_FLL_ERROR   4u
 128:Generated_Source\PSoC5/cyfitter_cfg.c **** #define CYCLOCKSTART_WCO_ERROR   5u
 129:Generated_Source\PSoC5/cyfitter_cfg.c **** 
 130:Generated_Source\PSoC5/cyfitter_cfg.c **** 
 131:Generated_Source\PSoC5/cyfitter_cfg.c **** #ifdef CY_NEED_CYCLOCKSTARTUPERROR
 132:Generated_Source\PSoC5/cyfitter_cfg.c **** /*******************************************************************************
 133:Generated_Source\PSoC5/cyfitter_cfg.c **** * Function Name: CyClockStartupError
 134:Generated_Source\PSoC5/cyfitter_cfg.c **** ********************************************************************************
 135:Generated_Source\PSoC5/cyfitter_cfg.c **** * Summary:
 136:Generated_Source\PSoC5/cyfitter_cfg.c **** *  If an error is encountered during clock configuration (crystal startup error,
 137:Generated_Source\PSoC5/cyfitter_cfg.c **** *  PLL lock error, etc.), the system will end up here.  Unless reimplemented by
 138:Generated_Source\PSoC5/cyfitter_cfg.c **** *  the customer, this function will stop in an infinite loop.
 139:Generated_Source\PSoC5/cyfitter_cfg.c **** *
 140:Generated_Source\PSoC5/cyfitter_cfg.c **** * Parameters:
 141:Generated_Source\PSoC5/cyfitter_cfg.c **** *   void
 142:Generated_Source\PSoC5/cyfitter_cfg.c **** *
 143:Generated_Source\PSoC5/cyfitter_cfg.c **** * Return:
 144:Generated_Source\PSoC5/cyfitter_cfg.c **** *   void
ARM GAS  C:\Users\Joe\AppData\Local\Temp\ccMP3HST.s 			page 4


 145:Generated_Source\PSoC5/cyfitter_cfg.c **** *
 146:Generated_Source\PSoC5/cyfitter_cfg.c **** *******************************************************************************/
 147:Generated_Source\PSoC5/cyfitter_cfg.c **** CY_CFG_UNUSED
 148:Generated_Source\PSoC5/cyfitter_cfg.c **** static void CyClockStartupError(uint8 errorCode);
 149:Generated_Source\PSoC5/cyfitter_cfg.c **** CY_CFG_UNUSED
 150:Generated_Source\PSoC5/cyfitter_cfg.c **** static void CyClockStartupError(uint8 errorCode)
 151:Generated_Source\PSoC5/cyfitter_cfg.c **** {
 152:Generated_Source\PSoC5/cyfitter_cfg.c ****     /* To remove the compiler warning if errorCode not used.                */
 153:Generated_Source\PSoC5/cyfitter_cfg.c ****     errorCode = errorCode;
 154:Generated_Source\PSoC5/cyfitter_cfg.c **** 
 155:Generated_Source\PSoC5/cyfitter_cfg.c ****     /* If we have a clock startup error (bad MHz crystal, PLL lock, etc.),  */
 156:Generated_Source\PSoC5/cyfitter_cfg.c ****     /* we will end up here to allow the customer to implement something to  */
 157:Generated_Source\PSoC5/cyfitter_cfg.c ****     /* deal with the clock condition.                                       */
 158:Generated_Source\PSoC5/cyfitter_cfg.c **** 
 159:Generated_Source\PSoC5/cyfitter_cfg.c **** #ifdef CY_CFG_CLOCK_STARTUP_ERROR_CALLBACK
 160:Generated_Source\PSoC5/cyfitter_cfg.c ****     CY_CFG_Clock_Startup_ErrorCallback();
 161:Generated_Source\PSoC5/cyfitter_cfg.c **** #else
 162:Generated_Source\PSoC5/cyfitter_cfg.c ****     /*  If not using CY_CFG_CLOCK_STARTUP_ERROR_CALLBACK, place your clock startup code here. */
 163:Generated_Source\PSoC5/cyfitter_cfg.c ****     /* `#START CyClockStartupError` */
 164:Generated_Source\PSoC5/cyfitter_cfg.c **** 
 165:Generated_Source\PSoC5/cyfitter_cfg.c **** 
 166:Generated_Source\PSoC5/cyfitter_cfg.c **** 
 167:Generated_Source\PSoC5/cyfitter_cfg.c ****     /* `#END` */
 168:Generated_Source\PSoC5/cyfitter_cfg.c **** 
 169:Generated_Source\PSoC5/cyfitter_cfg.c ****     while(1) {}
 170:Generated_Source\PSoC5/cyfitter_cfg.c **** #endif /* CY_CFG_CLOCK_STARTUP_ERROR_CALLBACK */
 171:Generated_Source\PSoC5/cyfitter_cfg.c **** }
 172:Generated_Source\PSoC5/cyfitter_cfg.c **** #endif
 173:Generated_Source\PSoC5/cyfitter_cfg.c **** 
 174:Generated_Source\PSoC5/cyfitter_cfg.c **** /* IDMUX_IRQ Address: CYREG_IDMUX_IRQ_CTL0 Size (bytes): 8 */
 175:Generated_Source\PSoC5/cyfitter_cfg.c **** #define BS_IDMUX_IRQ_VAL ((const uint8 CYFAR *)0x48000000u)
 176:Generated_Source\PSoC5/cyfitter_cfg.c **** 
 177:Generated_Source\PSoC5/cyfitter_cfg.c **** /* UDB_0_3_0_CONFIG Address: CYDEV_UCFG_B0_P5_U0_BASE Size (bytes): 128 */
 178:Generated_Source\PSoC5/cyfitter_cfg.c **** #define BS_UDB_0_3_0_CONFIG_VAL ((const uint8 CYFAR *)0x48000008u)
 179:Generated_Source\PSoC5/cyfitter_cfg.c **** 
 180:Generated_Source\PSoC5/cyfitter_cfg.c **** /* UDB_0_3_1_CONFIG Address: CYDEV_UCFG_B0_P5_U1_BASE Size (bytes): 128 */
 181:Generated_Source\PSoC5/cyfitter_cfg.c **** #define BS_UDB_0_3_1_CONFIG_VAL ((const uint8 CYFAR *)0x48000088u)
 182:Generated_Source\PSoC5/cyfitter_cfg.c **** 
 183:Generated_Source\PSoC5/cyfitter_cfg.c **** /* UDB_0_4_1_CONFIG Address: CYDEV_UCFG_B0_P6_U0_BASE Size (bytes): 128 */
 184:Generated_Source\PSoC5/cyfitter_cfg.c **** #define BS_UDB_0_4_1_CONFIG_VAL ((const uint8 CYFAR *)0x48000108u)
 185:Generated_Source\PSoC5/cyfitter_cfg.c **** 
 186:Generated_Source\PSoC5/cyfitter_cfg.c **** /* UWRK_B0_WRK_STATCTL_BITS Address: CYDEV_UWRK_UWRK8_B0_BASE + 0x00000070u Size (bytes): 32 */
 187:Generated_Source\PSoC5/cyfitter_cfg.c **** #define BS_UWRK_B0_WRK_STATCTL_BITS_VAL ((const uint8 CYFAR *)0x48000188u)
 188:Generated_Source\PSoC5/cyfitter_cfg.c **** 
 189:Generated_Source\PSoC5/cyfitter_cfg.c **** /* UCFG_BCTL0 Address: CYREG_BCTL0_MDCLK_EN Size (bytes): 16 */
 190:Generated_Source\PSoC5/cyfitter_cfg.c **** #define BS_UCFG_BCTL0_VAL ((const uint8 CYFAR *)0x480001A8u)
 191:Generated_Source\PSoC5/cyfitter_cfg.c **** 
 192:Generated_Source\PSoC5/cyfitter_cfg.c **** /* UDBSWITCH_0_3 Address: CYDEV_UCFG_B0_P5_ROUTE_BASE Size (bytes): 128 */
 193:Generated_Source\PSoC5/cyfitter_cfg.c **** #define BS_UDBSWITCH_0_3_VAL ((const uint8 CYFAR *)0x480001B8u)
 194:Generated_Source\PSoC5/cyfitter_cfg.c **** 
 195:Generated_Source\PSoC5/cyfitter_cfg.c **** /* UDB_1_3_HV_ROUTING Address: CYDEV_UCFG_B0_P5_ROUTE_BASE + 0x00000080u Size (bytes): 128 */
 196:Generated_Source\PSoC5/cyfitter_cfg.c **** #define BS_UDB_1_3_HV_ROUTING_VAL ((const uint8 CYFAR *)0x48000238u)
 197:Generated_Source\PSoC5/cyfitter_cfg.c **** 
 198:Generated_Source\PSoC5/cyfitter_cfg.c **** /* UDBSWITCH_0_4 Address: CYDEV_UCFG_B0_P6_ROUTE_BASE Size (bytes): 128 */
 199:Generated_Source\PSoC5/cyfitter_cfg.c **** #define BS_UDBSWITCH_0_4_VAL ((const uint8 CYFAR *)0x480002B8u)
 200:Generated_Source\PSoC5/cyfitter_cfg.c **** 
 201:Generated_Source\PSoC5/cyfitter_cfg.c **** /* UDB_1_4_HV_ROUTING Address: CYDEV_UCFG_B0_P6_ROUTE_BASE + 0x00000080u Size (bytes): 128 */
ARM GAS  C:\Users\Joe\AppData\Local\Temp\ccMP3HST.s 			page 5


 202:Generated_Source\PSoC5/cyfitter_cfg.c **** #define BS_UDB_1_4_HV_ROUTING_VAL ((const uint8 CYFAR *)0x48000338u)
 203:Generated_Source\PSoC5/cyfitter_cfg.c **** 
 204:Generated_Source\PSoC5/cyfitter_cfg.c **** /* UDB_2_4_HV_ROUTING Address: CYDEV_UCFG_B0_P1_ROUTE_BASE + 0x00000080u Size (bytes): 128 */
 205:Generated_Source\PSoC5/cyfitter_cfg.c **** #define BS_UDB_2_4_HV_ROUTING_VAL ((const uint8 CYFAR *)0x480003B8u)
 206:Generated_Source\PSoC5/cyfitter_cfg.c **** 
 207:Generated_Source\PSoC5/cyfitter_cfg.c **** /* DSI3_4_HV_ROUTING Address: CYDEV_UCFG_DSI1_BASE + 0x00000080u Size (bytes): 128 */
 208:Generated_Source\PSoC5/cyfitter_cfg.c **** #define BS_DSI3_4_HV_ROUTING_VAL ((const uint8 CYFAR *)0x48000438u)
 209:Generated_Source\PSoC5/cyfitter_cfg.c **** 
 210:Generated_Source\PSoC5/cyfitter_cfg.c **** /* DSISWITCH_1_5 Address: CYDEV_UCFG_DSI0_BASE Size (bytes): 128 */
 211:Generated_Source\PSoC5/cyfitter_cfg.c **** #define BS_DSISWITCH_1_5_VAL ((const uint8 CYFAR *)0x480004B8u)
 212:Generated_Source\PSoC5/cyfitter_cfg.c **** 
 213:Generated_Source\PSoC5/cyfitter_cfg.c **** /* DSI3_5_HV_ROUTING Address: CYDEV_UCFG_DSI0_BASE + 0x00000080u Size (bytes): 128 */
 214:Generated_Source\PSoC5/cyfitter_cfg.c **** #define BS_DSI3_5_HV_ROUTING_VAL ((const uint8 CYFAR *)0x48000538u)
 215:Generated_Source\PSoC5/cyfitter_cfg.c **** 
 216:Generated_Source\PSoC5/cyfitter_cfg.c **** /* IOPINS0_1 Address: CYREG_PRT1_DM0 Size (bytes): 8 */
 217:Generated_Source\PSoC5/cyfitter_cfg.c **** #define BS_IOPINS0_1_VAL ((const uint8 CYFAR *)0x480005B8u)
 218:Generated_Source\PSoC5/cyfitter_cfg.c **** 
 219:Generated_Source\PSoC5/cyfitter_cfg.c **** /* IOPINS0_2 Address: CYREG_PRT2_DM0 Size (bytes): 8 */
 220:Generated_Source\PSoC5/cyfitter_cfg.c **** #define BS_IOPINS0_2_VAL ((const uint8 CYFAR *)0x480005C0u)
 221:Generated_Source\PSoC5/cyfitter_cfg.c **** 
 222:Generated_Source\PSoC5/cyfitter_cfg.c **** 
 223:Generated_Source\PSoC5/cyfitter_cfg.c **** /*******************************************************************************
 224:Generated_Source\PSoC5/cyfitter_cfg.c **** * Function Name: cfg_dma_init
 225:Generated_Source\PSoC5/cyfitter_cfg.c **** ********************************************************************************
 226:Generated_Source\PSoC5/cyfitter_cfg.c **** * Summary:
 227:Generated_Source\PSoC5/cyfitter_cfg.c **** *  This function is used to copy device configuration data from constant values
 228:Generated_Source\PSoC5/cyfitter_cfg.c **** *  stored in memory into the proper chip configuration registers using DMA.  It
 229:Generated_Source\PSoC5/cyfitter_cfg.c **** *  pulls data out of the CFG_TD_LISTs to know exactly how/what to configure.
 230:Generated_Source\PSoC5/cyfitter_cfg.c **** *
 231:Generated_Source\PSoC5/cyfitter_cfg.c **** * Parameters:  
 232:Generated_Source\PSoC5/cyfitter_cfg.c **** *   void
 233:Generated_Source\PSoC5/cyfitter_cfg.c **** *
 234:Generated_Source\PSoC5/cyfitter_cfg.c **** * Return:
 235:Generated_Source\PSoC5/cyfitter_cfg.c **** *   void
 236:Generated_Source\PSoC5/cyfitter_cfg.c **** *
 237:Generated_Source\PSoC5/cyfitter_cfg.c **** *******************************************************************************/
 238:Generated_Source\PSoC5/cyfitter_cfg.c **** static void cfg_dma_init(void);
 239:Generated_Source\PSoC5/cyfitter_cfg.c **** static void cfg_dma_init(void)
 240:Generated_Source\PSoC5/cyfitter_cfg.c **** {
 241:Generated_Source\PSoC5/cyfitter_cfg.c **** 	/* TD structure for little-endian systems. Does not require endian swap */
 242:Generated_Source\PSoC5/cyfitter_cfg.c **** 	CYPACKED struct td_t {
 243:Generated_Source\PSoC5/cyfitter_cfg.c **** 		uint16 size;
 244:Generated_Source\PSoC5/cyfitter_cfg.c **** 		uint8 next_td_ptr;
 245:Generated_Source\PSoC5/cyfitter_cfg.c **** 		uint8 flags;
 246:Generated_Source\PSoC5/cyfitter_cfg.c **** 		uint16 src;
 247:Generated_Source\PSoC5/cyfitter_cfg.c **** 		uint16 dest;
 248:Generated_Source\PSoC5/cyfitter_cfg.c **** 	} CYPACKED_ATTR;
 249:Generated_Source\PSoC5/cyfitter_cfg.c **** 
 250:Generated_Source\PSoC5/cyfitter_cfg.c **** 	/* PHUB_CH1_CFGMEM_CFG0/1 initialization data */
 251:Generated_Source\PSoC5/cyfitter_cfg.c **** 	DMAINITSEC static const uint8 CYCODE CH1_ADDR_DATA0[] = { 0x01u, 0x00u, 0x00u, 0x00u, 0x00u, 0x20u
 252:Generated_Source\PSoC5/cyfitter_cfg.c **** 
 253:Generated_Source\PSoC5/cyfitter_cfg.c **** 	/* PHUB_CH2_CFGMEM_CFG0/1 initialization data */
 254:Generated_Source\PSoC5/cyfitter_cfg.c **** 	DMAINITSEC static const uint8 CYCODE CH2_ADDR_DATA0[] = { 0x01u, 0x00u, 0x00u, 0x00u, 0x00u, 0x20u
 255:Generated_Source\PSoC5/cyfitter_cfg.c **** 
 256:Generated_Source\PSoC5/cyfitter_cfg.c **** 	/* PHUB_CH5_CFGMEM_CFG0/1 initialization data */
 257:Generated_Source\PSoC5/cyfitter_cfg.c **** 	DMAINITSEC static const uint8 CYCODE CH5_ADDR_DATA0[] = { 0x01u, 0x00u, 0x00u, 0x00u, 0x00u, 0x48u
 258:Generated_Source\PSoC5/cyfitter_cfg.c **** 
ARM GAS  C:\Users\Joe\AppData\Local\Temp\ccMP3HST.s 			page 6


 259:Generated_Source\PSoC5/cyfitter_cfg.c **** 	/* PHUB_CH6_CFGMEM_CFG0/1 initialization data */
 260:Generated_Source\PSoC5/cyfitter_cfg.c **** 	DMAINITSEC static const uint8 CYCODE CH6_ADDR_DATA0[] = { 0x01u, 0x00u, 0x00u, 0x00u, 0x00u, 0x48u
 261:Generated_Source\PSoC5/cyfitter_cfg.c **** 
 262:Generated_Source\PSoC5/cyfitter_cfg.c **** 	/* Initialization data for each DMA channel's TD registers */
 263:Generated_Source\PSoC5/cyfitter_cfg.c **** 	DMAINITSEC static const uint8 CYCODE DMA_TD_START_CMD[] = { 0x01u, 0x00u, 0x00u, 0x00u, 0x01u };
 264:Generated_Source\PSoC5/cyfitter_cfg.c **** 
 265:Generated_Source\PSoC5/cyfitter_cfg.c **** 	CYALIGNED static uint32 CYXDATA DMA_ZERO_VAL;
 266:Generated_Source\PSoC5/cyfitter_cfg.c **** 
 267:Generated_Source\PSoC5/cyfitter_cfg.c **** 	/* This table holds all of the initialization data necessary for the DMA
 268:Generated_Source\PSoC5/cyfitter_cfg.c **** 	   process to transfer data from the source location to the destination. */
 269:Generated_Source\PSoC5/cyfitter_cfg.c **** 	/* Source addresses can be relocated, but only when in 32bit addresses.
 270:Generated_Source\PSoC5/cyfitter_cfg.c **** 	   Because the standard TD table only has 16bit addresses, we generate a
 271:Generated_Source\PSoC5/cyfitter_cfg.c **** 	   separate CFG_TD_ADDR table for the source addresses that supports 32bit
 272:Generated_Source\PSoC5/cyfitter_cfg.c **** 	   addresses. */
 273:Generated_Source\PSoC5/cyfitter_cfg.c **** 	DMAINITSEC static const struct td_t CYCODE CFG_TD_LIST0[] = {
 274:Generated_Source\PSoC5/cyfitter_cfg.c **** 		/* Size, Next, Flags, Source, Destination */
 275:Generated_Source\PSoC5/cyfitter_cfg.c **** 		{ 8u, 0x02u, 0x23u, (uint16)(uint32)(0u), (uint16)(CYREG_PHUB_CFGMEM1_CFG0) },	/* TD 1 */
 276:Generated_Source\PSoC5/cyfitter_cfg.c **** 		{ 8u, 0x03u, 0x23u, (uint16)(uint32)(0u), (uint16)(CYREG_PHUB_CFGMEM2_CFG0) },	/* TD 2 */
 277:Generated_Source\PSoC5/cyfitter_cfg.c **** 		{ 8u, 0x04u, 0x23u, (uint16)(uint32)(0u), (uint16)(CYREG_PHUB_CFGMEM5_CFG0) },	/* TD 3 */
 278:Generated_Source\PSoC5/cyfitter_cfg.c **** 		{ 8u, 0x05u, 0x23u, (uint16)(uint32)(0u), (uint16)(CYREG_PHUB_CFGMEM6_CFG0) },	/* TD 4 */
 279:Generated_Source\PSoC5/cyfitter_cfg.c **** 		{ 5u, 0x06u, 0x23u, (uint16)(uint32)(0u), (uint16)(CYREG_PHUB_CH1_BASIC_CFG) },	/* TD 5 */
 280:Generated_Source\PSoC5/cyfitter_cfg.c **** 		{ 5u, 0x07u, 0x23u, (uint16)(uint32)(0u), (uint16)(CYREG_PHUB_CH2_BASIC_CFG) },	/* TD 6 */
 281:Generated_Source\PSoC5/cyfitter_cfg.c **** 		{ 5u, 0x08u, 0x23u, (uint16)(uint32)(0u), (uint16)(CYREG_PHUB_CH5_BASIC_CFG) },	/* TD 7 */
 282:Generated_Source\PSoC5/cyfitter_cfg.c **** 		{ 5u, 0xFEu, 0x23u, (uint16)(uint32)(0u), (uint16)(CYREG_PHUB_CH6_BASIC_CFG) },	/* TD 8 */
 283:Generated_Source\PSoC5/cyfitter_cfg.c **** 		{ 16u, 0x0Au, 0x22u, (uint16)(uint32)(0u), (uint16)(CYREG_PRT0_DR) },	/* TD 9 */
 284:Generated_Source\PSoC5/cyfitter_cfg.c **** 		{ 64u, 0x0Bu, 0x22u, (uint16)(uint32)(0u), (uint16)(CYREG_PRT3_DR) },	/* TD 10 */
 285:Generated_Source\PSoC5/cyfitter_cfg.c **** 		{ 16u, 0x0Cu, 0x22u, (uint16)(uint32)(0u), (uint16)(CYREG_PRT12_DR) },	/* TD 11 */
 286:Generated_Source\PSoC5/cyfitter_cfg.c **** 		{ 16u, 0xFEu, 0x22u, (uint16)(uint32)(0u), (uint16)(CYREG_PRT15_DR) },	/* TD 12 */
 287:Generated_Source\PSoC5/cyfitter_cfg.c **** 		{ 896u, 0x0Eu, 0x22u, (uint16)(uint32)(0u), (uint16)(CYDEV_UCFG_B0_P0_U0_BASE) },	/* TD 13 */
 288:Generated_Source\PSoC5/cyfitter_cfg.c **** 		{ 1536u, 0x0Fu, 0x22u, (uint16)(uint32)(0u), (uint16)(CYDEV_UCFG_B0_P2_U0_BASE) },	/* TD 14 */
 289:Generated_Source\PSoC5/cyfitter_cfg.c **** 		{ 128u, 0x10u, 0x22u, (uint16)(uint32)(0u), (uint16)(CYDEV_UCFG_B0_P6_U1_BASE) },	/* TD 15 */
 290:Generated_Source\PSoC5/cyfitter_cfg.c **** 		{ 512u, 0x11u, 0x22u, (uint16)(uint32)(0u), (uint16)(CYDEV_UCFG_B0_P7_U0_BASE) },	/* TD 16 */
 291:Generated_Source\PSoC5/cyfitter_cfg.c **** 		{ 2048u, 0x12u, 0x22u, (uint16)(uint32)(0u), (uint16)(CYDEV_UCFG_B1_P2_U0_BASE) },	/* TD 17 */
 292:Generated_Source\PSoC5/cyfitter_cfg.c **** 		{ 128u, 0x13u, 0x22u, (uint16)(uint32)(0u), (uint16)(CYDEV_UCFG_DSI1_BASE) },	/* TD 18 */
 293:Generated_Source\PSoC5/cyfitter_cfg.c **** 		{ 2048u, 0x14u, 0x22u, (uint16)(uint32)(0u), (uint16)(CYDEV_UCFG_DSI2_BASE) },	/* TD 19 */
 294:Generated_Source\PSoC5/cyfitter_cfg.c **** 		{ 512u, 0x15u, 0x22u, (uint16)(uint32)(0u), (uint16)(CYDEV_UCFG_DSI12_BASE) },	/* TD 20 */
 295:Generated_Source\PSoC5/cyfitter_cfg.c **** 		{ 16u, 0xFEu, 0x22u, (uint16)(uint32)(0u), (uint16)(CYREG_BCTL1_MDCLK_EN) },	/* TD 21 */
 296:Generated_Source\PSoC5/cyfitter_cfg.c **** 		{ 32u, 0xFEu, 0x23u, (uint16)(uint32)(0u), (uint16)(CYDEV_UWRK_UWRK8_B0_BASE + 0x00000070u) },	/*
 297:Generated_Source\PSoC5/cyfitter_cfg.c **** 		{ 8u, 0x18u, 0x23u, (uint16)(uint32)(0u), (uint16)(CYREG_IDMUX_IRQ_CTL0) },	/* TD 23 */
 298:Generated_Source\PSoC5/cyfitter_cfg.c **** 		{ 128u, 0x19u, 0x23u, (uint16)(uint32)(0u), (uint16)(CYDEV_UCFG_B0_P5_U0_BASE) },	/* TD 24 */
 299:Generated_Source\PSoC5/cyfitter_cfg.c **** 		{ 128u, 0x1Au, 0x23u, (uint16)(uint32)(0u), (uint16)(CYDEV_UCFG_B0_P5_U1_BASE) },	/* TD 25 */
 300:Generated_Source\PSoC5/cyfitter_cfg.c **** 		{ 128u, 0x1Bu, 0x23u, (uint16)(uint32)(0u), (uint16)(CYDEV_UCFG_B0_P6_U0_BASE) },	/* TD 26 */
 301:Generated_Source\PSoC5/cyfitter_cfg.c **** 		{ 16u, 0x1Cu, 0x23u, (uint16)(uint32)(0u), (uint16)(CYREG_BCTL0_MDCLK_EN) },	/* TD 27 */
 302:Generated_Source\PSoC5/cyfitter_cfg.c **** 		{ 128u, 0x1Du, 0x23u, (uint16)(uint32)(0u), (uint16)(CYDEV_UCFG_B0_P5_ROUTE_BASE) },	/* TD 28 */
 303:Generated_Source\PSoC5/cyfitter_cfg.c **** 		{ 128u, 0x1Eu, 0x23u, (uint16)(uint32)(0u), (uint16)(CYDEV_UCFG_B0_P5_ROUTE_BASE + 0x00000080u) }
 304:Generated_Source\PSoC5/cyfitter_cfg.c **** 		{ 128u, 0x1Fu, 0x23u, (uint16)(uint32)(0u), (uint16)(CYDEV_UCFG_B0_P6_ROUTE_BASE) },	/* TD 30 */
 305:Generated_Source\PSoC5/cyfitter_cfg.c **** 		{ 128u, 0x20u, 0x23u, (uint16)(uint32)(0u), (uint16)(CYDEV_UCFG_B0_P6_ROUTE_BASE + 0x00000080u) }
 306:Generated_Source\PSoC5/cyfitter_cfg.c **** 		{ 128u, 0x21u, 0x23u, (uint16)(uint32)(0u), (uint16)(CYDEV_UCFG_B0_P1_ROUTE_BASE + 0x00000080u) }
 307:Generated_Source\PSoC5/cyfitter_cfg.c **** 		{ 128u, 0x22u, 0x23u, (uint16)(uint32)(0u), (uint16)(CYDEV_UCFG_DSI1_BASE + 0x00000080u) },	/* TD
 308:Generated_Source\PSoC5/cyfitter_cfg.c **** 		{ 128u, 0x23u, 0x23u, (uint16)(uint32)(0u), (uint16)(CYDEV_UCFG_DSI0_BASE) },	/* TD 34 */
 309:Generated_Source\PSoC5/cyfitter_cfg.c **** 		{ 128u, 0xFEu, 0x23u, (uint16)(uint32)(0u), (uint16)(CYDEV_UCFG_DSI0_BASE + 0x00000080u) },	/* TD
 310:Generated_Source\PSoC5/cyfitter_cfg.c **** 	};
 311:Generated_Source\PSoC5/cyfitter_cfg.c **** 
 312:Generated_Source\PSoC5/cyfitter_cfg.c **** 	/* Source addresses can be relocated, but only when in 32bit addresses.
 313:Generated_Source\PSoC5/cyfitter_cfg.c **** 	   Because the standard TD table only has 16bit addresses, we generate a
 314:Generated_Source\PSoC5/cyfitter_cfg.c **** 	   separate table for the source addresses that does use 32bit addresses. This
 315:Generated_Source\PSoC5/cyfitter_cfg.c **** 	   table will be re-merged with the corresponding CFG_TD_LIST table during
ARM GAS  C:\Users\Joe\AppData\Local\Temp\ccMP3HST.s 			page 7


 316:Generated_Source\PSoC5/cyfitter_cfg.c **** 	   initialization. */
 317:Generated_Source\PSoC5/cyfitter_cfg.c **** 	static const void * const CFG_TD_ADDR0[] = {
 318:Generated_Source\PSoC5/cyfitter_cfg.c **** 		(const void *)(CH1_ADDR_DATA0),	/* TD 1 */
 319:Generated_Source\PSoC5/cyfitter_cfg.c **** 		(const void *)(CH2_ADDR_DATA0),	/* TD 2 */
 320:Generated_Source\PSoC5/cyfitter_cfg.c **** 		(const void *)(CH5_ADDR_DATA0),	/* TD 3 */
 321:Generated_Source\PSoC5/cyfitter_cfg.c **** 		(const void *)(CH6_ADDR_DATA0),	/* TD 4 */
 322:Generated_Source\PSoC5/cyfitter_cfg.c **** 		(const void *)(DMA_TD_START_CMD),	/* TD 5 */
 323:Generated_Source\PSoC5/cyfitter_cfg.c **** 		(const void *)(DMA_TD_START_CMD),	/* TD 6 */
 324:Generated_Source\PSoC5/cyfitter_cfg.c **** 		(const void *)(DMA_TD_START_CMD),	/* TD 7 */
 325:Generated_Source\PSoC5/cyfitter_cfg.c **** 		(const void *)(DMA_TD_START_CMD),	/* TD 8 */
 326:Generated_Source\PSoC5/cyfitter_cfg.c **** 		(const void *)(&DMA_ZERO_VAL),	/* TD 9 */
 327:Generated_Source\PSoC5/cyfitter_cfg.c **** 		(const void *)(&DMA_ZERO_VAL),	/* TD 10 */
 328:Generated_Source\PSoC5/cyfitter_cfg.c **** 		(const void *)(&DMA_ZERO_VAL),	/* TD 11 */
 329:Generated_Source\PSoC5/cyfitter_cfg.c **** 		(const void *)(&DMA_ZERO_VAL),	/* TD 12 */
 330:Generated_Source\PSoC5/cyfitter_cfg.c **** 		(const void *)(&DMA_ZERO_VAL),	/* TD 13 */
 331:Generated_Source\PSoC5/cyfitter_cfg.c **** 		(const void *)(&DMA_ZERO_VAL),	/* TD 14 */
 332:Generated_Source\PSoC5/cyfitter_cfg.c **** 		(const void *)(&DMA_ZERO_VAL),	/* TD 15 */
 333:Generated_Source\PSoC5/cyfitter_cfg.c **** 		(const void *)(&DMA_ZERO_VAL),	/* TD 16 */
 334:Generated_Source\PSoC5/cyfitter_cfg.c **** 		(const void *)(&DMA_ZERO_VAL),	/* TD 17 */
 335:Generated_Source\PSoC5/cyfitter_cfg.c **** 		(const void *)(&DMA_ZERO_VAL),	/* TD 18 */
 336:Generated_Source\PSoC5/cyfitter_cfg.c **** 		(const void *)(&DMA_ZERO_VAL),	/* TD 19 */
 337:Generated_Source\PSoC5/cyfitter_cfg.c **** 		(const void *)(&DMA_ZERO_VAL),	/* TD 20 */
 338:Generated_Source\PSoC5/cyfitter_cfg.c **** 		(const void *)(&DMA_ZERO_VAL),	/* TD 21 */
 339:Generated_Source\PSoC5/cyfitter_cfg.c **** 		(const void *)(BS_UWRK_B0_WRK_STATCTL_BITS_VAL),	/* TD 22 */
 340:Generated_Source\PSoC5/cyfitter_cfg.c **** 		(const void *)(BS_IDMUX_IRQ_VAL),	/* TD 23 */
 341:Generated_Source\PSoC5/cyfitter_cfg.c **** 		(const void *)(BS_UDB_0_3_0_CONFIG_VAL),	/* TD 24 */
 342:Generated_Source\PSoC5/cyfitter_cfg.c **** 		(const void *)(BS_UDB_0_3_1_CONFIG_VAL),	/* TD 25 */
 343:Generated_Source\PSoC5/cyfitter_cfg.c **** 		(const void *)(BS_UDB_0_4_1_CONFIG_VAL),	/* TD 26 */
 344:Generated_Source\PSoC5/cyfitter_cfg.c **** 		(const void *)(BS_UCFG_BCTL0_VAL),	/* TD 27 */
 345:Generated_Source\PSoC5/cyfitter_cfg.c **** 		(const void *)(BS_UDBSWITCH_0_3_VAL),	/* TD 28 */
 346:Generated_Source\PSoC5/cyfitter_cfg.c **** 		(const void *)(BS_UDB_1_3_HV_ROUTING_VAL),	/* TD 29 */
 347:Generated_Source\PSoC5/cyfitter_cfg.c **** 		(const void *)(BS_UDBSWITCH_0_4_VAL),	/* TD 30 */
 348:Generated_Source\PSoC5/cyfitter_cfg.c **** 		(const void *)(BS_UDB_1_4_HV_ROUTING_VAL),	/* TD 31 */
 349:Generated_Source\PSoC5/cyfitter_cfg.c **** 		(const void *)(BS_UDB_2_4_HV_ROUTING_VAL),	/* TD 32 */
 350:Generated_Source\PSoC5/cyfitter_cfg.c **** 		(const void *)(BS_DSI3_4_HV_ROUTING_VAL),	/* TD 33 */
 351:Generated_Source\PSoC5/cyfitter_cfg.c **** 		(const void *)(BS_DSISWITCH_1_5_VAL),	/* TD 34 */
 352:Generated_Source\PSoC5/cyfitter_cfg.c **** 		(const void *)(BS_DSI3_5_HV_ROUTING_VAL),	/* TD 35 */
 353:Generated_Source\PSoC5/cyfitter_cfg.c **** 	};
 354:Generated_Source\PSoC5/cyfitter_cfg.c **** 
 355:Generated_Source\PSoC5/cyfitter_cfg.c **** 
 356:Generated_Source\PSoC5/cyfitter_cfg.c **** 	uint32 i;
 357:Generated_Source\PSoC5/cyfitter_cfg.c **** 
 358:Generated_Source\PSoC5/cyfitter_cfg.c **** 	DMA_ZERO_VAL = 0u;
 359:Generated_Source\PSoC5/cyfitter_cfg.c **** 	CY_SET_REG8((void CYXDATA *)CYREG_PHUB_CFGMEM0_CFG0, 0x10u);	/* set burstcnt */
 360:Generated_Source\PSoC5/cyfitter_cfg.c **** 	CY_SET_REG8((void CYXDATA *)CYREG_PHUB_CH0_BASIC_CFG, 0x01u);	/* enable ch0 */
 361:Generated_Source\PSoC5/cyfitter_cfg.c **** 	CY_SET_REG8((void CYXDATA *)(CYREG_PHUB_CH0_BASIC_STATUS+1u), 0x00u);	/* set first TD to 0 */
 362:Generated_Source\PSoC5/cyfitter_cfg.c **** 	CY_SET_REG16((void CYXDATA *)CYREG_PHUB_TDMEM0_ORIG_TD0, 35u*8u);	/* transfer size */
 363:Generated_Source\PSoC5/cyfitter_cfg.c **** 	CY_SET_REG8((void CYXDATA *)(CYREG_PHUB_TDMEM0_ORIG_TD0+2u), 0x01u);	/* set next TD to 1 */
 364:Generated_Source\PSoC5/cyfitter_cfg.c **** 	CY_SET_REG8((void CYXDATA *)(CYREG_PHUB_TDMEM0_ORIG_TD0+3u), 0x03u);	/* set TD flags */
 365:Generated_Source\PSoC5/cyfitter_cfg.c **** 	CY_SET_REG16((void CYXDATA *)CYREG_PHUB_TDMEM0_ORIG_TD1, (uint16)((uint32)CFG_TD_LIST0 & 0x0000FFF
 366:Generated_Source\PSoC5/cyfitter_cfg.c **** 	CY_SET_REG16((void CYXDATA *)(CYREG_PHUB_TDMEM0_ORIG_TD1+2u), CYDEV_PHUB_TDMEM1_BASE);	/* set td0'
 367:Generated_Source\PSoC5/cyfitter_cfg.c **** 	CY_SET_REG16((void CYXDATA *)CYREG_PHUB_CFGMEM0_CFG1, (uint16)(CYDEV_FLASH_BASE >> 16));	/* set ch
 368:Generated_Source\PSoC5/cyfitter_cfg.c **** 	CY_SET_REG16((void CYXDATA *)(CYREG_PHUB_CFGMEM0_CFG1+2u), (uint16)(CYDEV_PHUB_TDMEM1_BASE >> 16))
 369:Generated_Source\PSoC5/cyfitter_cfg.c **** 	CY_SET_REG8((void CYXDATA *)(CYREG_PHUB_CH1_BASIC_STATUS+1u), 0x09u);	/* ch1 first TD: 9 */
 370:Generated_Source\PSoC5/cyfitter_cfg.c **** 	CY_SET_REG8((void CYXDATA *)(CYREG_PHUB_CH2_BASIC_STATUS+1u), 0x0Du);	/* ch2 first TD: 13 */
 371:Generated_Source\PSoC5/cyfitter_cfg.c **** 	CY_SET_REG8((void CYXDATA *)(CYREG_PHUB_CH5_BASIC_STATUS+1u), 0x16u);	/* ch5 first TD: 22 */
 372:Generated_Source\PSoC5/cyfitter_cfg.c **** 	CY_SET_REG8((void CYXDATA *)(CYREG_PHUB_CH6_BASIC_STATUS+1u), 0x17u);	/* ch6 first TD: 23 */
ARM GAS  C:\Users\Joe\AppData\Local\Temp\ccMP3HST.s 			page 8


 373:Generated_Source\PSoC5/cyfitter_cfg.c **** 
 374:Generated_Source\PSoC5/cyfitter_cfg.c **** 	CY_CFG_MEMORY_BARRIER();
 375:Generated_Source\PSoC5/cyfitter_cfg.c **** 	CY_SET_REG8((void CYXDATA *)CYREG_PHUB_CH0_ACTION, 0x01u); /* cpu_req */
 376:Generated_Source\PSoC5/cyfitter_cfg.c **** 	CY_CFG_MEMORY_BARRIER();
 377:Generated_Source\PSoC5/cyfitter_cfg.c **** 
 378:Generated_Source\PSoC5/cyfitter_cfg.c **** 	/* Wait for TDs to be copied into TDMEM */
 379:Generated_Source\PSoC5/cyfitter_cfg.c **** 	while (CY_GET_REG16((void CYXDATA *)CYREG_PHUB_TDMEM0_ORIG_TD0) != 0u) { }
 380:Generated_Source\PSoC5/cyfitter_cfg.c **** 
 381:Generated_Source\PSoC5/cyfitter_cfg.c **** 	/* Recombine TD source table (CFG_TD_ADDR0) with full TD table (CFG_TD_LIST0) */
 382:Generated_Source\PSoC5/cyfitter_cfg.c **** 	for (i = 0u; i < 35u; i++)
 383:Generated_Source\PSoC5/cyfitter_cfg.c **** 	{
 384:Generated_Source\PSoC5/cyfitter_cfg.c **** 		CY_SET_REG16((void CYXDATA *)(CYREG_PHUB_TDMEM1_ORIG_TD1 + (sizeof(struct td_t)*i)), (uint16)(uin
 385:Generated_Source\PSoC5/cyfitter_cfg.c **** 	}
 386:Generated_Source\PSoC5/cyfitter_cfg.c **** 
 387:Generated_Source\PSoC5/cyfitter_cfg.c **** 	CY_CFG_MEMORY_BARRIER();
 388:Generated_Source\PSoC5/cyfitter_cfg.c **** 	CY_SET_REG8((void CYXDATA *)CYREG_PHUB_CH0_ACTION, 0x01u); /* cpu_req */
 389:Generated_Source\PSoC5/cyfitter_cfg.c **** 	CY_CFG_MEMORY_BARRIER();
 390:Generated_Source\PSoC5/cyfitter_cfg.c **** 
 391:Generated_Source\PSoC5/cyfitter_cfg.c **** 	/* Wait for all DMA transfers to complete */
 392:Generated_Source\PSoC5/cyfitter_cfg.c **** 	while(0u != (CY_GET_REG8((void CYXDATA *)CYREG_PHUB_CH0_BASIC_STATUS) & 0x01u)){}
 393:Generated_Source\PSoC5/cyfitter_cfg.c **** 	while(0u != (CY_GET_REG8((void CYXDATA *)CYREG_PHUB_CH1_BASIC_STATUS) & 0x01u)){}
 394:Generated_Source\PSoC5/cyfitter_cfg.c **** 	while(0u != (CY_GET_REG8((void CYXDATA *)CYREG_PHUB_CH2_BASIC_STATUS) & 0x01u)){}
 395:Generated_Source\PSoC5/cyfitter_cfg.c **** 	while(0u != (CY_GET_REG8((void CYXDATA *)CYREG_PHUB_CH5_BASIC_STATUS) & 0x01u)){}
 396:Generated_Source\PSoC5/cyfitter_cfg.c **** 	while(0u != (CY_GET_REG8((void CYXDATA *)CYREG_PHUB_CH6_BASIC_STATUS) & 0x01u)){}
 397:Generated_Source\PSoC5/cyfitter_cfg.c **** 
 398:Generated_Source\PSoC5/cyfitter_cfg.c **** 
 399:Generated_Source\PSoC5/cyfitter_cfg.c **** }
 400:Generated_Source\PSoC5/cyfitter_cfg.c **** /*******************************************************************************
 401:Generated_Source\PSoC5/cyfitter_cfg.c **** * Function Name: ClockSetup
 402:Generated_Source\PSoC5/cyfitter_cfg.c **** ********************************************************************************
 403:Generated_Source\PSoC5/cyfitter_cfg.c **** *
 404:Generated_Source\PSoC5/cyfitter_cfg.c **** * Summary:
 405:Generated_Source\PSoC5/cyfitter_cfg.c **** *  Performs the initialization of all of the clocks in the device based on the
 406:Generated_Source\PSoC5/cyfitter_cfg.c **** *  settings in the Clock tab of the DWR.  This includes enabling the requested
 407:Generated_Source\PSoC5/cyfitter_cfg.c **** *  clocks and setting the necessary dividers to produce the desired frequency. 
 408:Generated_Source\PSoC5/cyfitter_cfg.c **** *
 409:Generated_Source\PSoC5/cyfitter_cfg.c **** * Parameters:
 410:Generated_Source\PSoC5/cyfitter_cfg.c **** *  void
 411:Generated_Source\PSoC5/cyfitter_cfg.c **** *
 412:Generated_Source\PSoC5/cyfitter_cfg.c **** * Return:
 413:Generated_Source\PSoC5/cyfitter_cfg.c **** *  void
 414:Generated_Source\PSoC5/cyfitter_cfg.c **** *
 415:Generated_Source\PSoC5/cyfitter_cfg.c **** *******************************************************************************/
 416:Generated_Source\PSoC5/cyfitter_cfg.c **** static void ClockSetup(void);
 417:Generated_Source\PSoC5/cyfitter_cfg.c **** static void ClockSetup(void)
 418:Generated_Source\PSoC5/cyfitter_cfg.c **** {
 419:Generated_Source\PSoC5/cyfitter_cfg.c **** 	uint32 timeout;
 420:Generated_Source\PSoC5/cyfitter_cfg.c **** 	uint8 pllLock;
 421:Generated_Source\PSoC5/cyfitter_cfg.c **** 
 422:Generated_Source\PSoC5/cyfitter_cfg.c **** 
 423:Generated_Source\PSoC5/cyfitter_cfg.c **** 	/* Configure ILO based on settings from Clock DWR */
 424:Generated_Source\PSoC5/cyfitter_cfg.c **** 	CY_SET_XTND_REG8((void CYFAR *)(CYREG_SLOWCLK_ILO_CR0), 0x02u);
 425:Generated_Source\PSoC5/cyfitter_cfg.c **** 	CY_SET_XTND_REG8((void CYFAR *)(CYREG_CLKDIST_CR), 0x08u);
 426:Generated_Source\PSoC5/cyfitter_cfg.c **** 
 427:Generated_Source\PSoC5/cyfitter_cfg.c **** 	/* Configure IMO based on settings from Clock DWR */
 428:Generated_Source\PSoC5/cyfitter_cfg.c **** 	CY_SET_XTND_REG8((void CYFAR *)(CYREG_FASTCLK_IMO_CR), 0x03u);
 429:Generated_Source\PSoC5/cyfitter_cfg.c **** 	CY_SET_XTND_REG8((void CYFAR *)(CYREG_IMO_TR1), (CY_GET_XTND_REG8((void CYFAR *)CYREG_FLSHID_CUST_
ARM GAS  C:\Users\Joe\AppData\Local\Temp\ccMP3HST.s 			page 9


 430:Generated_Source\PSoC5/cyfitter_cfg.c **** 
 431:Generated_Source\PSoC5/cyfitter_cfg.c **** 	/* Configure PLL based on settings from Clock DWR */
 432:Generated_Source\PSoC5/cyfitter_cfg.c **** 	CY_SET_XTND_REG16((void CYFAR *)(CYREG_FASTCLK_PLL_P), 0x0008u);
 433:Generated_Source\PSoC5/cyfitter_cfg.c **** 	CY_SET_XTND_REG16((void CYFAR *)(CYREG_FASTCLK_PLL_CFG0), 0x1251u);
 434:Generated_Source\PSoC5/cyfitter_cfg.c **** 	/* Wait up to 250us for the PLL to lock */
 435:Generated_Source\PSoC5/cyfitter_cfg.c **** 	pllLock = 0u;
 436:Generated_Source\PSoC5/cyfitter_cfg.c **** 	for (timeout = 250u / 10u; (timeout > 0u) && (pllLock != 0x03u); timeout--)
 437:Generated_Source\PSoC5/cyfitter_cfg.c **** 	{ 
 438:Generated_Source\PSoC5/cyfitter_cfg.c **** 		pllLock = 0x03u & ((uint8)((uint8)pllLock << 1) | ((CY_GET_XTND_REG8((void CYFAR *)CYREG_FASTCLK_
 439:Generated_Source\PSoC5/cyfitter_cfg.c **** 		CyDelayCycles(10u * 48u); /* Delay 10us based on 48MHz clock */
 440:Generated_Source\PSoC5/cyfitter_cfg.c **** 	}
 441:Generated_Source\PSoC5/cyfitter_cfg.c **** 	/* If we ran out of time the PLL didn't lock so go to the error function */
 442:Generated_Source\PSoC5/cyfitter_cfg.c **** 	if (timeout == 0u)
 443:Generated_Source\PSoC5/cyfitter_cfg.c **** 	{
 444:Generated_Source\PSoC5/cyfitter_cfg.c **** 		CyClockStartupError(CYCLOCKSTART_PLL_ERROR);
 445:Generated_Source\PSoC5/cyfitter_cfg.c **** 	}
 446:Generated_Source\PSoC5/cyfitter_cfg.c **** 
 447:Generated_Source\PSoC5/cyfitter_cfg.c **** 	/* Configure Bus/Master Clock based on settings from Clock DWR */
 448:Generated_Source\PSoC5/cyfitter_cfg.c **** 	CY_SET_XTND_REG16((void CYFAR *)(CYREG_CLKDIST_MSTR0), 0x0100u);
 449:Generated_Source\PSoC5/cyfitter_cfg.c **** 	CY_SET_XTND_REG8((void CYFAR *)(CYREG_CLKDIST_MSTR0), 0x07u);
 450:Generated_Source\PSoC5/cyfitter_cfg.c **** 	CY_SET_XTND_REG8((void CYFAR *)(CYREG_CLKDIST_BCFG0), 0x00u);
 451:Generated_Source\PSoC5/cyfitter_cfg.c **** 	CY_SET_XTND_REG8((void CYFAR *)(CYREG_CLKDIST_BCFG2), 0x48u);
 452:Generated_Source\PSoC5/cyfitter_cfg.c **** 	CY_SET_XTND_REG8((void CYFAR *)(CYREG_CLKDIST_MSTR0), 0x00u);
 453:Generated_Source\PSoC5/cyfitter_cfg.c **** 	CY_SET_XTND_REG8((void CYFAR *)(CYREG_CLKDIST_LD), 0x02u);
 454:Generated_Source\PSoC5/cyfitter_cfg.c **** }
 455:Generated_Source\PSoC5/cyfitter_cfg.c **** 
 456:Generated_Source\PSoC5/cyfitter_cfg.c **** 
 457:Generated_Source\PSoC5/cyfitter_cfg.c **** /* Analog API Functions */
 458:Generated_Source\PSoC5/cyfitter_cfg.c **** 
 459:Generated_Source\PSoC5/cyfitter_cfg.c **** 
 460:Generated_Source\PSoC5/cyfitter_cfg.c **** /*******************************************************************************
 461:Generated_Source\PSoC5/cyfitter_cfg.c **** * Function Name: AnalogSetDefault
 462:Generated_Source\PSoC5/cyfitter_cfg.c **** ********************************************************************************
 463:Generated_Source\PSoC5/cyfitter_cfg.c **** *
 464:Generated_Source\PSoC5/cyfitter_cfg.c **** * Summary:
 465:Generated_Source\PSoC5/cyfitter_cfg.c **** *  Sets up the analog portions of the chip to default values based on chip
 466:Generated_Source\PSoC5/cyfitter_cfg.c **** *  configuration options from the project.
 467:Generated_Source\PSoC5/cyfitter_cfg.c **** *
 468:Generated_Source\PSoC5/cyfitter_cfg.c **** * Parameters:
 469:Generated_Source\PSoC5/cyfitter_cfg.c **** *  void
 470:Generated_Source\PSoC5/cyfitter_cfg.c **** *
 471:Generated_Source\PSoC5/cyfitter_cfg.c **** * Return:
 472:Generated_Source\PSoC5/cyfitter_cfg.c **** *  void
 473:Generated_Source\PSoC5/cyfitter_cfg.c **** *
 474:Generated_Source\PSoC5/cyfitter_cfg.c **** *******************************************************************************/
 475:Generated_Source\PSoC5/cyfitter_cfg.c **** static void AnalogSetDefault(void);
 476:Generated_Source\PSoC5/cyfitter_cfg.c **** static void AnalogSetDefault(void)
 477:Generated_Source\PSoC5/cyfitter_cfg.c **** {
 478:Generated_Source\PSoC5/cyfitter_cfg.c **** 	uint8 bg_xover_inl_trim = CY_GET_XTND_REG8((void CYFAR *)(CYREG_FLSHID_MFG_CFG_BG_XOVER_INL_TRIM +
 479:Generated_Source\PSoC5/cyfitter_cfg.c **** 	CY_SET_XTND_REG8((void CYFAR *)(CYREG_BG_DFT0), (bg_xover_inl_trim & 0x07u));
 480:Generated_Source\PSoC5/cyfitter_cfg.c **** 	CY_SET_XTND_REG8((void CYFAR *)(CYREG_BG_DFT1), ((bg_xover_inl_trim >> 4) & 0x0Fu));
 481:Generated_Source\PSoC5/cyfitter_cfg.c **** 	CY_SET_XTND_REG8((void CYFAR *)CYREG_PUMP_CR0, 0x44u);
 482:Generated_Source\PSoC5/cyfitter_cfg.c **** }
 483:Generated_Source\PSoC5/cyfitter_cfg.c **** 
 484:Generated_Source\PSoC5/cyfitter_cfg.c **** 
 485:Generated_Source\PSoC5/cyfitter_cfg.c **** /*******************************************************************************
 486:Generated_Source\PSoC5/cyfitter_cfg.c **** * Function Name: SetAnalogRoutingPumps
ARM GAS  C:\Users\Joe\AppData\Local\Temp\ccMP3HST.s 			page 10


 487:Generated_Source\PSoC5/cyfitter_cfg.c **** ********************************************************************************
 488:Generated_Source\PSoC5/cyfitter_cfg.c **** *
 489:Generated_Source\PSoC5/cyfitter_cfg.c **** * Summary:
 490:Generated_Source\PSoC5/cyfitter_cfg.c **** * Enables or disables the analog pumps feeding analog routing switches.
 491:Generated_Source\PSoC5/cyfitter_cfg.c **** * Intended to be called at startup, based on the Vdda system configuration;
 492:Generated_Source\PSoC5/cyfitter_cfg.c **** * may be called during operation when the user informs us that the Vdda voltage
 493:Generated_Source\PSoC5/cyfitter_cfg.c **** * crossed the pump threshold.
 494:Generated_Source\PSoC5/cyfitter_cfg.c **** *
 495:Generated_Source\PSoC5/cyfitter_cfg.c **** * Parameters:
 496:Generated_Source\PSoC5/cyfitter_cfg.c **** *  enabled - 1 to enable the pumps, 0 to disable the pumps
 497:Generated_Source\PSoC5/cyfitter_cfg.c **** *
 498:Generated_Source\PSoC5/cyfitter_cfg.c **** * Return:
 499:Generated_Source\PSoC5/cyfitter_cfg.c **** *  void
 500:Generated_Source\PSoC5/cyfitter_cfg.c **** *
 501:Generated_Source\PSoC5/cyfitter_cfg.c **** *******************************************************************************/
 502:Generated_Source\PSoC5/cyfitter_cfg.c **** void SetAnalogRoutingPumps(uint8 enabled)
 503:Generated_Source\PSoC5/cyfitter_cfg.c **** {
  28              		.loc 1 503 0
  29              		.cfi_startproc
  30              		@ args = 0, pretend = 0, frame = 0
  31              		@ frame_needed = 0, uses_anonymous_args = 0
  32              		@ link register save eliminated.
  33              	.LVL0:
 504:Generated_Source\PSoC5/cyfitter_cfg.c **** 	uint8 regValue = CY_GET_XTND_REG8((void CYFAR *)CYREG_PUMP_CR0);
  34              		.loc 1 504 0
  35 0000 024A     		ldr	r2, .L2
  36 0002 1378     		ldrb	r3, [r2]	@ zero_extendqisi2
  37 0004 DBB2     		uxtb	r3, r3
  38              	.LVL1:
 505:Generated_Source\PSoC5/cyfitter_cfg.c **** 	if (enabled != 0u)
 506:Generated_Source\PSoC5/cyfitter_cfg.c **** 	{
 507:Generated_Source\PSoC5/cyfitter_cfg.c **** 		regValue |= 0x00u;
 508:Generated_Source\PSoC5/cyfitter_cfg.c **** 	}
 509:Generated_Source\PSoC5/cyfitter_cfg.c **** 	else
 510:Generated_Source\PSoC5/cyfitter_cfg.c **** 	{
 511:Generated_Source\PSoC5/cyfitter_cfg.c **** 		regValue &= (uint8)~0x00u;
 512:Generated_Source\PSoC5/cyfitter_cfg.c **** 	}
 513:Generated_Source\PSoC5/cyfitter_cfg.c **** 	CY_SET_XTND_REG8((void CYFAR *)CYREG_PUMP_CR0, regValue);
  39              		.loc 1 513 0
  40 0006 1370     		strb	r3, [r2]
  41 0008 7047     		bx	lr
  42              	.L3:
  43 000a 00BF     		.align	2
  44              	.L2:
  45 000c 76580040 		.word	1073764470
  46              		.cfi_endproc
  47              	.LFE7:
  48              		.size	SetAnalogRoutingPumps, .-SetAnalogRoutingPumps
  49              		.section	.text.cyfitter_cfg,"ax",%progbits
  50              		.align	1
  51              		.global	cyfitter_cfg
  52              		.thumb
  53              		.thumb_func
  54              		.type	cyfitter_cfg, %function
  55              	cyfitter_cfg:
  56              	.LFB8:
 514:Generated_Source\PSoC5/cyfitter_cfg.c **** }
ARM GAS  C:\Users\Joe\AppData\Local\Temp\ccMP3HST.s 			page 11


 515:Generated_Source\PSoC5/cyfitter_cfg.c **** 
 516:Generated_Source\PSoC5/cyfitter_cfg.c **** 
 517:Generated_Source\PSoC5/cyfitter_cfg.c **** 
 518:Generated_Source\PSoC5/cyfitter_cfg.c **** 
 519:Generated_Source\PSoC5/cyfitter_cfg.c **** /*******************************************************************************
 520:Generated_Source\PSoC5/cyfitter_cfg.c **** * Function Name: cyfitter_cfg
 521:Generated_Source\PSoC5/cyfitter_cfg.c **** ********************************************************************************
 522:Generated_Source\PSoC5/cyfitter_cfg.c **** * Summary:
 523:Generated_Source\PSoC5/cyfitter_cfg.c **** *  This function is called by the start-up code for the selected device. It
 524:Generated_Source\PSoC5/cyfitter_cfg.c **** *  performs all of the necessary device configuration based on the design
 525:Generated_Source\PSoC5/cyfitter_cfg.c **** *  settings.  This includes settings from the Design Wide Resources (DWR) such
 526:Generated_Source\PSoC5/cyfitter_cfg.c **** *  as Clocks and Pins as well as any component configuration that is necessary.
 527:Generated_Source\PSoC5/cyfitter_cfg.c **** *
 528:Generated_Source\PSoC5/cyfitter_cfg.c **** * Parameters:
 529:Generated_Source\PSoC5/cyfitter_cfg.c **** *   void
 530:Generated_Source\PSoC5/cyfitter_cfg.c **** *
 531:Generated_Source\PSoC5/cyfitter_cfg.c **** * Return:
 532:Generated_Source\PSoC5/cyfitter_cfg.c **** *   void
 533:Generated_Source\PSoC5/cyfitter_cfg.c **** *
 534:Generated_Source\PSoC5/cyfitter_cfg.c **** *******************************************************************************/
 535:Generated_Source\PSoC5/cyfitter_cfg.c **** 
 536:Generated_Source\PSoC5/cyfitter_cfg.c **** void cyfitter_cfg(void)
 537:Generated_Source\PSoC5/cyfitter_cfg.c **** {
  57              		.loc 1 537 0
  58              		.cfi_startproc
  59              		@ args = 0, pretend = 0, frame = 0
  60              		@ frame_needed = 0, uses_anonymous_args = 0
  61 0000 F8B5     		push	{r3, r4, r5, r6, r7, lr}
  62              		.cfi_def_cfa_offset 24
  63              		.cfi_offset 3, -24
  64              		.cfi_offset 4, -20
  65              		.cfi_offset 5, -16
  66              		.cfi_offset 6, -12
  67              		.cfi_offset 7, -8
  68              		.cfi_offset 14, -4
 538:Generated_Source\PSoC5/cyfitter_cfg.c **** #ifdef CYGlobalIntDisable
 539:Generated_Source\PSoC5/cyfitter_cfg.c **** 	/* Disable interrupts by default. Let user enable if/when they want. */
 540:Generated_Source\PSoC5/cyfitter_cfg.c **** 	CYGlobalIntDisable
  69              		.loc 1 540 0
  70              		.syntax unified
  71              	@ 540 "Generated_Source\PSoC5\cyfitter_cfg.c" 1
  72 0002 72B6     		CPSID   i
  73              	@ 0 "" 2
 541:Generated_Source\PSoC5/cyfitter_cfg.c **** #endif
 542:Generated_Source\PSoC5/cyfitter_cfg.c **** 
 543:Generated_Source\PSoC5/cyfitter_cfg.c **** 	/* Enable/Disable Debug functionality based on settings from System DWR */
 544:Generated_Source\PSoC5/cyfitter_cfg.c **** 	CY_SET_XTND_REG8((void CYFAR *)CYREG_MLOGIC_DEBUG, (CY_GET_XTND_REG8((void CYFAR *)CYREG_MLOGIC_DE
  74              		.loc 1 544 0
  75              		.thumb
  76              		.syntax unified
  77 0004 6C4A     		ldr	r2, .L27
  78              	.LBB22:
  79              	.LBB23:
 359:Generated_Source\PSoC5/cyfitter_cfg.c **** 	CY_SET_REG8((void CYXDATA *)CYREG_PHUB_CH0_BASIC_CFG, 0x01u);	/* enable ch0 */
  80              		.loc 1 359 0
  81 0006 1021     		movs	r1, #16
  82              	.LBE23:
ARM GAS  C:\Users\Joe\AppData\Local\Temp\ccMP3HST.s 			page 12


  83              	.LBE22:
  84              		.loc 1 544 0
  85 0008 1378     		ldrb	r3, [r2]	@ zero_extendqisi2
  86              	.LBB26:
  87              	.LBB24:
 362:Generated_Source\PSoC5/cyfitter_cfg.c **** 	CY_SET_REG8((void CYXDATA *)(CYREG_PHUB_TDMEM0_ORIG_TD0+2u), 0x01u);	/* set next TD to 1 */
  88              		.loc 1 362 0
  89 000a 4FF48C70 		mov	r0, #280
  90              	.LBE24:
  91              	.LBE26:
  92              		.loc 1 544 0
  93 000e 43F00403 		orr	r3, r3, #4
  94 0012 1370     		strb	r3, [r2]
  95              	.LBB27:
  96              	.LBB25:
 358:Generated_Source\PSoC5/cyfitter_cfg.c **** 	CY_SET_REG8((void CYXDATA *)CYREG_PHUB_CFGMEM0_CFG0, 0x10u);	/* set burstcnt */
  97              		.loc 1 358 0
  98 0014 694A     		ldr	r2, .L27+4
  99 0016 0023     		movs	r3, #0
 100 0018 1360     		str	r3, [r2]
 359:Generated_Source\PSoC5/cyfitter_cfg.c **** 	CY_SET_REG8((void CYXDATA *)CYREG_PHUB_CH0_BASIC_CFG, 0x01u);	/* enable ch0 */
 101              		.loc 1 359 0
 102 001a 694A     		ldr	r2, .L27+8
 364:Generated_Source\PSoC5/cyfitter_cfg.c **** 	CY_SET_REG16((void CYXDATA *)CYREG_PHUB_TDMEM0_ORIG_TD1, (uint16)((uint32)CFG_TD_LIST0 & 0x0000FFF
 103              		.loc 1 364 0
 104 001c 0324     		movs	r4, #3
 359:Generated_Source\PSoC5/cyfitter_cfg.c **** 	CY_SET_REG8((void CYXDATA *)CYREG_PHUB_CH0_BASIC_CFG, 0x01u);	/* enable ch0 */
 105              		.loc 1 359 0
 106 001e 1170     		strb	r1, [r2]
 360:Generated_Source\PSoC5/cyfitter_cfg.c **** 	CY_SET_REG8((void CYXDATA *)(CYREG_PHUB_CH0_BASIC_STATUS+1u), 0x00u);	/* set first TD to 0 */
 107              		.loc 1 360 0
 108 0020 A2F5BE62 		sub	r2, r2, #1520
 109 0024 0121     		movs	r1, #1
 110 0026 1170     		strb	r1, [r2]
 361:Generated_Source\PSoC5/cyfitter_cfg.c **** 	CY_SET_REG16((void CYXDATA *)CYREG_PHUB_TDMEM0_ORIG_TD0, 35u*8u);	/* transfer size */
 111              		.loc 1 361 0
 112 0028 5372     		strb	r3, [r2, #9]
 362:Generated_Source\PSoC5/cyfitter_cfg.c **** 	CY_SET_REG8((void CYXDATA *)(CYREG_PHUB_TDMEM0_ORIG_TD0+2u), 0x01u);	/* set next TD to 1 */
 113              		.loc 1 362 0
 114 002a 02F5FE62 		add	r2, r2, #2032
 115 002e 1080     		strh	r0, [r2]	@ movhi
 363:Generated_Source\PSoC5/cyfitter_cfg.c **** 	CY_SET_REG8((void CYXDATA *)(CYREG_PHUB_TDMEM0_ORIG_TD0+3u), 0x03u);	/* set TD flags */
 116              		.loc 1 363 0
 117 0030 6448     		ldr	r0, .L27+12
 118 0032 0170     		strb	r1, [r0]
 364:Generated_Source\PSoC5/cyfitter_cfg.c **** 	CY_SET_REG16((void CYXDATA *)CYREG_PHUB_TDMEM0_ORIG_TD1, (uint16)((uint32)CFG_TD_LIST0 & 0x0000FFF
 119              		.loc 1 364 0
 120 0034 4470     		strb	r4, [r0, #1]
 365:Generated_Source\PSoC5/cyfitter_cfg.c **** 	CY_SET_REG16((void CYXDATA *)(CYREG_PHUB_TDMEM0_ORIG_TD1+2u), CYDEV_PHUB_TDMEM1_BASE);	/* set td0'
 121              		.loc 1 365 0
 122 0036 644C     		ldr	r4, .L27+16
 367:Generated_Source\PSoC5/cyfitter_cfg.c **** 	CY_SET_REG16((void CYXDATA *)(CYREG_PHUB_CFGMEM0_CFG1+2u), (uint16)(CYDEV_PHUB_TDMEM1_BASE >> 16))
 123              		.loc 1 367 0
 124 0038 A0F5FF70 		sub	r0, r0, #510
 365:Generated_Source\PSoC5/cyfitter_cfg.c **** 	CY_SET_REG16((void CYXDATA *)(CYREG_PHUB_TDMEM0_ORIG_TD1+2u), CYDEV_PHUB_TDMEM1_BASE);	/* set td0'
 125              		.loc 1 365 0
 126 003c A0F80042 		strh	r4, [r0, #512]	@ movhi
ARM GAS  C:\Users\Joe\AppData\Local\Temp\ccMP3HST.s 			page 13


 366:Generated_Source\PSoC5/cyfitter_cfg.c **** 	CY_SET_REG16((void CYXDATA *)CYREG_PHUB_CFGMEM0_CFG1, (uint16)(CYDEV_FLASH_BASE >> 16));	/* set ch
 127              		.loc 1 366 0
 128 0040 47F60804 		movw	r4, #30728
 129 0044 A0F80242 		strh	r4, [r0, #514]	@ movhi
 367:Generated_Source\PSoC5/cyfitter_cfg.c **** 	CY_SET_REG16((void CYXDATA *)(CYREG_PHUB_CFGMEM0_CFG1+2u), (uint16)(CYDEV_PHUB_TDMEM1_BASE >> 16))
 130              		.loc 1 367 0
 131 0048 0380     		strh	r3, [r0]	@ movhi
 368:Generated_Source\PSoC5/cyfitter_cfg.c **** 	CY_SET_REG8((void CYXDATA *)(CYREG_PHUB_CH1_BASIC_STATUS+1u), 0x09u);	/* ch1 first TD: 9 */
 132              		.loc 1 368 0
 133 004a 604B     		ldr	r3, .L27+20
 134 004c 4FF48040 		mov	r0, #16384
 135 0050 1880     		strh	r0, [r3]	@ movhi
 369:Generated_Source\PSoC5/cyfitter_cfg.c **** 	CY_SET_REG8((void CYXDATA *)(CYREG_PHUB_CH2_BASIC_STATUS+1u), 0x0Du);	/* ch2 first TD: 13 */
 136              		.loc 1 369 0
 137 0052 A3F2DD53 		subw	r3, r3, #1501
 138 0056 0920     		movs	r0, #9
 139 0058 1870     		strb	r0, [r3]
 370:Generated_Source\PSoC5/cyfitter_cfg.c **** 	CY_SET_REG8((void CYXDATA *)(CYREG_PHUB_CH5_BASIC_STATUS+1u), 0x16u);	/* ch5 first TD: 22 */
 140              		.loc 1 370 0
 141 005a 0D20     		movs	r0, #13
 142 005c 1874     		strb	r0, [r3, #16]
 371:Generated_Source\PSoC5/cyfitter_cfg.c **** 	CY_SET_REG8((void CYXDATA *)(CYREG_PHUB_CH6_BASIC_STATUS+1u), 0x17u);	/* ch6 first TD: 23 */
 143              		.loc 1 371 0
 144 005e 1620     		movs	r0, #22
 145 0060 83F84000 		strb	r0, [r3, #64]
 372:Generated_Source\PSoC5/cyfitter_cfg.c **** 
 146              		.loc 1 372 0
 147 0064 1720     		movs	r0, #23
 148 0066 83F85000 		strb	r0, [r3, #80]
 374:Generated_Source\PSoC5/cyfitter_cfg.c **** 	CY_SET_REG8((void CYXDATA *)CYREG_PHUB_CH0_ACTION, 0x01u); /* cpu_req */
 149              		.loc 1 374 0
 150 006a BFF35F8F 		dmb	sy
 375:Generated_Source\PSoC5/cyfitter_cfg.c **** 	CY_CFG_MEMORY_BARRIER();
 151              		.loc 1 375 0
 152 006e 153B     		subs	r3, r3, #21
 153 0070 1970     		strb	r1, [r3]
 376:Generated_Source\PSoC5/cyfitter_cfg.c **** 
 154              		.loc 1 376 0
 155 0072 BFF35F8F 		dmb	sy
 156              	.L5:
 379:Generated_Source\PSoC5/cyfitter_cfg.c **** 
 157              		.loc 1 379 0
 158 0076 1188     		ldrh	r1, [r2]
 159 0078 89B2     		uxth	r1, r1
 160 007a 0029     		cmp	r1, #0
 161 007c FBD1     		bne	.L5
 162 007e 5448     		ldr	r0, .L27+24
 163 0080 544A     		ldr	r2, .L27+28
 382:Generated_Source\PSoC5/cyfitter_cfg.c **** 	{
 164              		.loc 1 382 0
 165 0082 554C     		ldr	r4, .L27+32
 166              	.L6:
 384:Generated_Source\PSoC5/cyfitter_cfg.c **** 	}
 167              		.loc 1 384 0
 168 0084 50F8041F 		ldr	r1, [r0, #4]!
 169 0088 89B2     		uxth	r1, r1
 170 008a 22F8081B 		strh	r1, [r2], #8	@ movhi
ARM GAS  C:\Users\Joe\AppData\Local\Temp\ccMP3HST.s 			page 14


 171              	.LVL2:
 382:Generated_Source\PSoC5/cyfitter_cfg.c **** 	{
 172              		.loc 1 382 0
 173 008e A242     		cmp	r2, r4
 174 0090 F8D1     		bne	.L6
 387:Generated_Source\PSoC5/cyfitter_cfg.c **** 	CY_SET_REG8((void CYXDATA *)CYREG_PHUB_CH0_ACTION, 0x01u); /* cpu_req */
 175              		.loc 1 387 0
 176 0092 BFF35F8F 		dmb	sy
 388:Generated_Source\PSoC5/cyfitter_cfg.c **** 	CY_CFG_MEMORY_BARRIER();
 177              		.loc 1 388 0
 178 0096 0122     		movs	r2, #1
 179 0098 1A70     		strb	r2, [r3]
 389:Generated_Source\PSoC5/cyfitter_cfg.c **** 
 180              		.loc 1 389 0
 181 009a BFF35F8F 		dmb	sy
 392:Generated_Source\PSoC5/cyfitter_cfg.c **** 	while(0u != (CY_GET_REG8((void CYXDATA *)CYREG_PHUB_CH1_BASIC_STATUS) & 0x01u)){}
 182              		.loc 1 392 0
 183 009e 4F4A     		ldr	r2, .L27+36
 184              	.L7:
 185 00a0 1378     		ldrb	r3, [r2]	@ zero_extendqisi2
 186 00a2 DC07     		lsls	r4, r3, #31
 187 00a4 FCD4     		bmi	.L7
 393:Generated_Source\PSoC5/cyfitter_cfg.c **** 	while(0u != (CY_GET_REG8((void CYXDATA *)CYREG_PHUB_CH2_BASIC_STATUS) & 0x01u)){}
 188              		.loc 1 393 0
 189 00a6 4E4A     		ldr	r2, .L27+40
 190              	.L8:
 191 00a8 1378     		ldrb	r3, [r2]	@ zero_extendqisi2
 192 00aa D807     		lsls	r0, r3, #31
 193 00ac FCD4     		bmi	.L8
 394:Generated_Source\PSoC5/cyfitter_cfg.c **** 	while(0u != (CY_GET_REG8((void CYXDATA *)CYREG_PHUB_CH5_BASIC_STATUS) & 0x01u)){}
 194              		.loc 1 394 0
 195 00ae 4D4A     		ldr	r2, .L27+44
 196              	.L9:
 197 00b0 1378     		ldrb	r3, [r2]	@ zero_extendqisi2
 198 00b2 D907     		lsls	r1, r3, #31
 199 00b4 FCD4     		bmi	.L9
 395:Generated_Source\PSoC5/cyfitter_cfg.c **** 	while(0u != (CY_GET_REG8((void CYXDATA *)CYREG_PHUB_CH6_BASIC_STATUS) & 0x01u)){}
 200              		.loc 1 395 0
 201 00b6 4C4A     		ldr	r2, .L27+48
 202              	.L10:
 203 00b8 1378     		ldrb	r3, [r2]	@ zero_extendqisi2
 204 00ba DB07     		lsls	r3, r3, #31
 205 00bc FCD4     		bmi	.L10
 396:Generated_Source\PSoC5/cyfitter_cfg.c **** 
 206              		.loc 1 396 0
 207 00be 4B4B     		ldr	r3, .L27+52
 208              	.L11:
 209 00c0 1C78     		ldrb	r4, [r3]	@ zero_extendqisi2
 210 00c2 14F00104 		ands	r4, r4, #1
 211 00c6 FBD1     		bne	.L11
 212              	.LBE25:
 213              	.LBE27:
 545:Generated_Source\PSoC5/cyfitter_cfg.c **** 
 546:Generated_Source\PSoC5/cyfitter_cfg.c **** 	{
 547:Generated_Source\PSoC5/cyfitter_cfg.c **** 		cfg_dma_init();
 548:Generated_Source\PSoC5/cyfitter_cfg.c **** 
 549:Generated_Source\PSoC5/cyfitter_cfg.c **** 		/* Enable digital routing */
ARM GAS  C:\Users\Joe\AppData\Local\Temp\ccMP3HST.s 			page 15


 550:Generated_Source\PSoC5/cyfitter_cfg.c **** 		CY_SET_XTND_REG8((void CYFAR *)CYREG_BCTL0_BANK_CTL, CY_GET_XTND_REG8((void CYFAR *)CYREG_BCTL0_B
 214              		.loc 1 550 0
 215 00c8 494A     		ldr	r2, .L27+56
 551:Generated_Source\PSoC5/cyfitter_cfg.c **** 		CY_SET_XTND_REG8((void CYFAR *)CYREG_BCTL1_BANK_CTL, CY_GET_XTND_REG8((void CYFAR *)CYREG_BCTL1_B
 552:Generated_Source\PSoC5/cyfitter_cfg.c **** 
 553:Generated_Source\PSoC5/cyfitter_cfg.c **** 		/* Enable UDB array */
 554:Generated_Source\PSoC5/cyfitter_cfg.c **** 		CY_SET_XTND_REG8((void CYFAR *)CYREG_PM_ACT_CFG0, CY_GET_XTND_REG8((void CYFAR *)CYREG_PM_ACT_CFG
 216              		.loc 1 554 0
 217 00ca 4A4D     		ldr	r5, .L27+60
 550:Generated_Source\PSoC5/cyfitter_cfg.c **** 		CY_SET_XTND_REG8((void CYFAR *)CYREG_BCTL1_BANK_CTL, CY_GET_XTND_REG8((void CYFAR *)CYREG_BCTL1_B
 218              		.loc 1 550 0
 219 00cc 1378     		ldrb	r3, [r2]	@ zero_extendqisi2
 220              	.LBB28:
 221              	.LBB29:
 438:Generated_Source\PSoC5/cyfitter_cfg.c **** 		CyDelayCycles(10u * 48u); /* Delay 10us based on 48MHz clock */
 222              		.loc 1 438 0
 223 00ce 4A4F     		ldr	r7, .L27+64
 224              	.LBE29:
 225              	.LBE28:
 550:Generated_Source\PSoC5/cyfitter_cfg.c **** 		CY_SET_XTND_REG8((void CYFAR *)CYREG_BCTL1_BANK_CTL, CY_GET_XTND_REG8((void CYFAR *)CYREG_BCTL1_B
 226              		.loc 1 550 0
 227 00d0 43F00203 		orr	r3, r3, #2
 228 00d4 1370     		strb	r3, [r2]
 551:Generated_Source\PSoC5/cyfitter_cfg.c **** 		CY_SET_XTND_REG8((void CYFAR *)CYREG_BCTL1_BANK_CTL, CY_GET_XTND_REG8((void CYFAR *)CYREG_BCTL1_B
 229              		.loc 1 551 0
 230 00d6 137C     		ldrb	r3, [r2, #16]	@ zero_extendqisi2
 231              	.LBB33:
 232              	.LBB30:
 433:Generated_Source\PSoC5/cyfitter_cfg.c **** 	/* Wait up to 250us for the PLL to lock */
 233              		.loc 1 433 0
 234 00d8 1926     		movs	r6, #25
 235              	.LBE30:
 236              	.LBE33:
 551:Generated_Source\PSoC5/cyfitter_cfg.c **** 
 237              		.loc 1 551 0
 238 00da 43F00203 		orr	r3, r3, #2
 239 00de 1374     		strb	r3, [r2, #16]
 240              		.loc 1 554 0
 241 00e0 2B78     		ldrb	r3, [r5]	@ zero_extendqisi2
 555:Generated_Source\PSoC5/cyfitter_cfg.c **** 		CY_SET_XTND_REG8((void CYFAR *)CYREG_PM_AVAIL_CR2, CY_GET_XTND_REG8((void CYFAR *)CYREG_PM_AVAIL_
 242              		.loc 1 555 0
 243 00e2 A2F58632 		sub	r2, r2, #68608
 554:Generated_Source\PSoC5/cyfitter_cfg.c **** 		CY_SET_XTND_REG8((void CYFAR *)CYREG_PM_AVAIL_CR2, CY_GET_XTND_REG8((void CYFAR *)CYREG_PM_AVAIL_
 244              		.loc 1 554 0
 245 00e6 43F04003 		orr	r3, r3, #64
 246 00ea 2B70     		strb	r3, [r5]
 247              		.loc 1 555 0
 248 00ec 413A     		subs	r2, r2, #65
 249 00ee 1378     		ldrb	r3, [r2]	@ zero_extendqisi2
 250 00f0 43F01003 		orr	r3, r3, #16
 251 00f4 1370     		strb	r3, [r2]
 252              	.LVL3:
 253              	.LBB34:
 254              	.LBB35:
 109:Generated_Source\PSoC5/cyfitter_cfg.c **** }
 255              		.loc 1 109 0
 256 00f6 414B     		ldr	r3, .L27+68
ARM GAS  C:\Users\Joe\AppData\Local\Temp\ccMP3HST.s 			page 16


 257 00f8 03CB     		ldmia	r3!, {r0, r1}
 258 00fa C2F8500D 		str	r0, [r2, #3408]	@ unaligned
 259 00fe C2F8541D 		str	r1, [r2, #3412]	@ unaligned
 260              	.LVL4:
 261              	.LBE35:
 262              	.LBE34:
 263              	.LBB36:
 264              	.LBB37:
 265 0102 03CB     		ldmia	r3!, {r0, r1}
 266 0104 C2F8641D 		str	r1, [r2, #3428]	@ unaligned
 267              	.LVL5:
 268 0108 C2F8600D 		str	r0, [r2, #3424]	@ unaligned
 269              	.LBE37:
 270              	.LBE36:
 556:Generated_Source\PSoC5/cyfitter_cfg.c **** 	}
 557:Generated_Source\PSoC5/cyfitter_cfg.c **** 
 558:Generated_Source\PSoC5/cyfitter_cfg.c **** 
 559:Generated_Source\PSoC5/cyfitter_cfg.c **** 	/* Perform second pass device configuration. These items must be configured in specific order afte
 560:Generated_Source\PSoC5/cyfitter_cfg.c **** 	CYCONFIGCPY((void CYFAR *)(CYREG_PRT1_DM0), (const void CYFAR *)(BS_IOPINS0_1_VAL), 8u);
 561:Generated_Source\PSoC5/cyfitter_cfg.c **** 	CYCONFIGCPY((void CYFAR *)(CYREG_PRT2_DM0), (const void CYFAR *)(BS_IOPINS0_2_VAL), 8u);
 562:Generated_Source\PSoC5/cyfitter_cfg.c **** 	/* Switch Boost to the precision bandgap reference from its internal reference */
 563:Generated_Source\PSoC5/cyfitter_cfg.c **** 	CY_SET_REG8((void CYXDATA *)CYREG_BOOST_CR2, (CY_GET_REG8((void CYXDATA *)CYREG_BOOST_CR2) | 0x08u
 271              		.loc 1 563 0
 272 010c A03A     		subs	r2, r2, #160
 273 010e 1378     		ldrb	r3, [r2]	@ zero_extendqisi2
 274              	.LBB38:
 275              	.LBB31:
 428:Generated_Source\PSoC5/cyfitter_cfg.c **** 	CY_SET_XTND_REG8((void CYFAR *)(CYREG_IMO_TR1), (CY_GET_XTND_REG8((void CYFAR *)CYREG_FLSHID_CUST_
 276              		.loc 1 428 0
 277 0110 0321     		movs	r1, #3
 278              	.LBE31:
 279              	.LBE38:
 280              		.loc 1 563 0
 281 0112 43F00803 		orr	r3, r3, #8
 282 0116 1370     		strb	r3, [r2]
 564:Generated_Source\PSoC5/cyfitter_cfg.c **** 
 565:Generated_Source\PSoC5/cyfitter_cfg.c **** 	/* Set Flash Cycles based on max possible frequency in case a glitch occurs during ClockSetup(). *
 566:Generated_Source\PSoC5/cyfitter_cfg.c **** 	CY_SET_XTND_REG8((void CYFAR *)(CYREG_CACHE_CC_CTL), (((CYDEV_INSTRUCT_CACHE_ENABLED) != 0) ? 0x61
 283              		.loc 1 566 0
 284 0118 394B     		ldr	r3, .L27+72
 285 011a 6022     		movs	r2, #96
 286 011c 1A70     		strb	r2, [r3]
 287              	.LBB39:
 288              	.LBB32:
 424:Generated_Source\PSoC5/cyfitter_cfg.c **** 	CY_SET_XTND_REG8((void CYFAR *)(CYREG_CLKDIST_CR), 0x08u);
 289              		.loc 1 424 0
 290 011e 0222     		movs	r2, #2
 291 0120 A3F5A063 		sub	r3, r3, #1280
 292 0124 1A70     		strb	r2, [r3]
 425:Generated_Source\PSoC5/cyfitter_cfg.c **** 
 293              		.loc 1 425 0
 294 0126 0822     		movs	r2, #8
 295 0128 4FF04023 		mov	r3, #1073758208
 296 012c 1A70     		strb	r2, [r3]
 428:Generated_Source\PSoC5/cyfitter_cfg.c **** 	CY_SET_XTND_REG8((void CYFAR *)(CYREG_IMO_TR1), (CY_GET_XTND_REG8((void CYFAR *)CYREG_FLSHID_CUST_
 297              		.loc 1 428 0
 298 012e 83F80012 		strb	r1, [r3, #512]
ARM GAS  C:\Users\Joe\AppData\Local\Temp\ccMP3HST.s 			page 17


 429:Generated_Source\PSoC5/cyfitter_cfg.c **** 
 299              		.loc 1 429 0
 300 0132 344B     		ldr	r3, .L27+76
 301 0134 3449     		ldr	r1, .L27+80
 302 0136 1B78     		ldrb	r3, [r3]	@ zero_extendqisi2
 303 0138 DBB2     		uxtb	r3, r3
 304 013a 0B70     		strb	r3, [r1]
 432:Generated_Source\PSoC5/cyfitter_cfg.c **** 	CY_SET_XTND_REG16((void CYFAR *)(CYREG_FASTCLK_PLL_CFG0), 0x1251u);
 305              		.loc 1 432 0
 306 013c 334B     		ldr	r3, .L27+84
 307 013e 1A80     		strh	r2, [r3]	@ movhi
 433:Generated_Source\PSoC5/cyfitter_cfg.c **** 	/* Wait up to 250us for the PLL to lock */
 308              		.loc 1 433 0
 309 0140 41F25122 		movw	r2, #4689
 310 0144 23F8022C 		strh	r2, [r3, #-2]	@ movhi
 311              	.LVL6:
 312              	.L13:
 438:Generated_Source\PSoC5/cyfitter_cfg.c **** 		CyDelayCycles(10u * 48u); /* Delay 10us based on 48MHz clock */
 313              		.loc 1 438 0
 314 0148 3B78     		ldrb	r3, [r7]	@ zero_extendqisi2
 439:Generated_Source\PSoC5/cyfitter_cfg.c **** 	}
 315              		.loc 1 439 0
 316 014a 4FF4F070 		mov	r0, #480
 438:Generated_Source\PSoC5/cyfitter_cfg.c **** 		CyDelayCycles(10u * 48u); /* Delay 10us based on 48MHz clock */
 317              		.loc 1 438 0
 318 014e 03F00103 		and	r3, r3, #1
 319 0152 43EA4404 		orr	r4, r3, r4, lsl #1
 320              	.LVL7:
 439:Generated_Source\PSoC5/cyfitter_cfg.c **** 	}
 321              		.loc 1 439 0
 322 0156 FFF7FEFF 		bl	CyDelayCycles
 323              	.LVL8:
 436:Generated_Source\PSoC5/cyfitter_cfg.c **** 	{ 
 324              		.loc 1 436 0
 325 015a 013E     		subs	r6, r6, #1
 326              	.LVL9:
 438:Generated_Source\PSoC5/cyfitter_cfg.c **** 		CyDelayCycles(10u * 48u); /* Delay 10us based on 48MHz clock */
 327              		.loc 1 438 0
 328 015c 04F00304 		and	r4, r4, #3
 329              	.LVL10:
 436:Generated_Source\PSoC5/cyfitter_cfg.c **** 	{ 
 330              		.loc 1 436 0
 331 0160 29D0     		beq	.L12
 332              	.LVL11:
 333 0162 032C     		cmp	r4, #3
 334 0164 F0D1     		bne	.L13
 448:Generated_Source\PSoC5/cyfitter_cfg.c **** 	CY_SET_XTND_REG8((void CYFAR *)(CYREG_CLKDIST_MSTR0), 0x07u);
 335              		.loc 1 448 0
 336 0166 2A4B     		ldr	r3, .L27+88
 337 0168 4FF48072 		mov	r2, #256
 338 016c 1A80     		strh	r2, [r3]	@ movhi
 450:Generated_Source\PSoC5/cyfitter_cfg.c **** 	CY_SET_XTND_REG8((void CYFAR *)(CYREG_CLKDIST_BCFG2), 0x48u);
 339              		.loc 1 450 0
 340 016e 2949     		ldr	r1, .L27+92
 449:Generated_Source\PSoC5/cyfitter_cfg.c **** 	CY_SET_XTND_REG8((void CYFAR *)(CYREG_CLKDIST_BCFG0), 0x00u);
 341              		.loc 1 449 0
 342 0170 0722     		movs	r2, #7
ARM GAS  C:\Users\Joe\AppData\Local\Temp\ccMP3HST.s 			page 18


 343 0172 1A70     		strb	r2, [r3]
 451:Generated_Source\PSoC5/cyfitter_cfg.c **** 	CY_SET_XTND_REG8((void CYFAR *)(CYREG_CLKDIST_MSTR0), 0x00u);
 344              		.loc 1 451 0
 345 0174 4820     		movs	r0, #72
 450:Generated_Source\PSoC5/cyfitter_cfg.c **** 	CY_SET_XTND_REG8((void CYFAR *)(CYREG_CLKDIST_BCFG2), 0x48u);
 346              		.loc 1 450 0
 347 0176 0022     		movs	r2, #0
 348 0178 0A70     		strb	r2, [r1]
 451:Generated_Source\PSoC5/cyfitter_cfg.c **** 	CY_SET_XTND_REG8((void CYFAR *)(CYREG_CLKDIST_MSTR0), 0x00u);
 349              		.loc 1 451 0
 350 017a 8870     		strb	r0, [r1, #2]
 452:Generated_Source\PSoC5/cyfitter_cfg.c **** 	CY_SET_XTND_REG8((void CYFAR *)(CYREG_CLKDIST_LD), 0x02u);
 351              		.loc 1 452 0
 352 017c 1A70     		strb	r2, [r3]
 453:Generated_Source\PSoC5/cyfitter_cfg.c **** }
 353              		.loc 1 453 0
 354 017e 0222     		movs	r2, #2
 355 0180 03F8032C 		strb	r2, [r3, #-3]
 356              	.LVL12:
 357              	.LBE32:
 358              	.LBE39:
 567:Generated_Source\PSoC5/cyfitter_cfg.c **** 	/* Setup clocks based on selections from Clock DWR */
 568:Generated_Source\PSoC5/cyfitter_cfg.c **** 	ClockSetup();
 569:Generated_Source\PSoC5/cyfitter_cfg.c **** 	/* Set Flash Cycles based on newly configured 24.00MHz Bus Clock. */
 570:Generated_Source\PSoC5/cyfitter_cfg.c **** 	CY_SET_XTND_REG8((void CYFAR *)(CYREG_CACHE_CC_CTL), (((CYDEV_INSTRUCT_CACHE_ENABLED) != 0) ? 0x81
 359              		.loc 1 570 0
 360 0184 8022     		movs	r2, #128
 361 0186 83F8FC27 		strb	r2, [r3, #2044]
 571:Generated_Source\PSoC5/cyfitter_cfg.c **** 	CY_SET_XTND_REG8((void CYFAR *)(CYREG_PANTHER_WAITPIPE), 0x01u);
 362              		.loc 1 571 0
 363 018a 0122     		movs	r2, #1
 364 018c 03F5F823 		add	r3, r3, #507904
 365 0190 1A70     		strb	r2, [r3]
 366              	.LBB40:
 367              	.LBB41:
 478:Generated_Source\PSoC5/cyfitter_cfg.c **** 	CY_SET_XTND_REG8((void CYFAR *)(CYREG_BG_DFT0), (bg_xover_inl_trim & 0x07u));
 368              		.loc 1 478 0
 369 0192 214B     		ldr	r3, .L27+96
 479:Generated_Source\PSoC5/cyfitter_cfg.c **** 	CY_SET_XTND_REG8((void CYFAR *)(CYREG_BG_DFT1), ((bg_xover_inl_trim >> 4) & 0x0Fu));
 370              		.loc 1 479 0
 371 0194 214A     		ldr	r2, .L27+100
 478:Generated_Source\PSoC5/cyfitter_cfg.c **** 	CY_SET_XTND_REG8((void CYFAR *)(CYREG_BG_DFT0), (bg_xover_inl_trim & 0x07u));
 372              		.loc 1 478 0
 373 0196 1B78     		ldrb	r3, [r3]	@ zero_extendqisi2
 374              	.LBE41:
 375              	.LBE40:
 376              	.LBB43:
 377              	.LBB44:
 109:Generated_Source\PSoC5/cyfitter_cfg.c **** }
 378              		.loc 1 109 0
 379 0198 214C     		ldr	r4, .L27+104
 380              	.LBE44:
 381              	.LBE43:
 382              	.LBB46:
 383              	.LBB42:
 478:Generated_Source\PSoC5/cyfitter_cfg.c **** 	CY_SET_XTND_REG8((void CYFAR *)(CYREG_BG_DFT0), (bg_xover_inl_trim & 0x07u));
 384              		.loc 1 478 0
ARM GAS  C:\Users\Joe\AppData\Local\Temp\ccMP3HST.s 			page 19


 385 019a DBB2     		uxtb	r3, r3
 386              	.LVL13:
 479:Generated_Source\PSoC5/cyfitter_cfg.c **** 	CY_SET_XTND_REG8((void CYFAR *)(CYREG_BG_DFT1), ((bg_xover_inl_trim >> 4) & 0x0Fu));
 387              		.loc 1 479 0
 388 019c 03F00701 		and	r1, r3, #7
 480:Generated_Source\PSoC5/cyfitter_cfg.c **** 	CY_SET_XTND_REG8((void CYFAR *)CYREG_PUMP_CR0, 0x44u);
 389              		.loc 1 480 0
 390 01a0 1B09     		lsrs	r3, r3, #4
 391              	.LVL14:
 479:Generated_Source\PSoC5/cyfitter_cfg.c **** 	CY_SET_XTND_REG8((void CYFAR *)(CYREG_BG_DFT1), ((bg_xover_inl_trim >> 4) & 0x0Fu));
 392              		.loc 1 479 0
 393 01a2 1170     		strb	r1, [r2]
 480:Generated_Source\PSoC5/cyfitter_cfg.c **** 	CY_SET_XTND_REG8((void CYFAR *)CYREG_PUMP_CR0, 0x44u);
 394              		.loc 1 480 0
 395 01a4 5370     		strb	r3, [r2, #1]
 481:Generated_Source\PSoC5/cyfitter_cfg.c **** }
 396              		.loc 1 481 0
 397 01a6 1F4B     		ldr	r3, .L27+108
 398 01a8 4422     		movs	r2, #68
 399 01aa 1A70     		strb	r2, [r3]
 400              	.LVL15:
 401              	.LBE42:
 402              	.LBE46:
 403              	.LBB47:
 404              	.LBB45:
 109:Generated_Source\PSoC5/cyfitter_cfg.c **** }
 405              		.loc 1 109 0
 406 01ac 95E80F00 		ldmia	r5, {r0, r1, r2, r3}
 407 01b0 07C4     		stmia	r4!, {r0, r1, r2}
 408 01b2 2380     		strh	r3, [r4]	@ movhi
 409              	.LVL16:
 410 01b4 F8BD     		pop	{r3, r4, r5, r6, r7, pc}
 411              	.LVL17:
 412              	.L12:
 413 01b6 FEE7     		b	.L12
 414              	.L28:
 415              		.align	2
 416              	.L27:
 417 01b8 E8460040 		.word	1073759976
 418 01bc 00000000 		.word	.LANCHOR0
 419 01c0 00760040 		.word	1073772032
 420 01c4 02780040 		.word	1073772546
 421 01c8 00000000 		.word	.LANCHOR1
 422 01cc 06760040 		.word	1073772038
 423 01d0 FCFFFFFF 		.word	.LANCHOR2-4
 424 01d4 0C780040 		.word	1073772556
 425 01d8 24790040 		.word	1073772836
 426 01dc 18700040 		.word	1073770520
 427 01e0 28700040 		.word	1073770536
 428 01e4 38700040 		.word	1073770552
 429 01e8 68700040 		.word	1073770600
 430 01ec 78700040 		.word	1073770616
 431 01f0 03500140 		.word	1073827843
 432 01f4 A0430040 		.word	1073759136
 433 01f8 25420040 		.word	1073758757
 434 01fc B8050048 		.word	1207961016
 435 0200 00480040 		.word	1073760256
ARM GAS  C:\Users\Joe\AppData\Local\Temp\ccMP3HST.s 			page 20


 436 0204 08010049 		.word	1224737032
 437 0208 A1460040 		.word	1073759905
 438 020c 22420040 		.word	1073758754
 439 0210 04400040 		.word	1073758212
 440 0214 06400040 		.word	1073758214
 441 0218 CF010049 		.word	1224737231
 442 021c 6E580040 		.word	1073764462
 443 0220 B0430040 		.word	1073759152
 444 0224 76580040 		.word	1073764470
 445              	.LBE45:
 446              	.LBE47:
 447              		.cfi_endproc
 448              	.LFE8:
 449              		.size	cyfitter_cfg, .-cyfitter_cfg
 450              		.section	.rodata
 451              		.align	2
 452              		.set	.LANCHOR2,. + 0
 453              		.type	CFG_TD_ADDR0.4983, %object
 454              		.size	CFG_TD_ADDR0.4983, 140
 455              	CFG_TD_ADDR0.4983:
 456 0000 35010000 		.word	CH1_ADDR_DATA0.4976
 457 0004 2D010000 		.word	CH2_ADDR_DATA0.4977
 458 0008 25010000 		.word	CH5_ADDR_DATA0.4978
 459 000c 1D010000 		.word	CH6_ADDR_DATA0.4979
 460 0010 18010000 		.word	DMA_TD_START_CMD.4980
 461 0014 18010000 		.word	DMA_TD_START_CMD.4980
 462 0018 18010000 		.word	DMA_TD_START_CMD.4980
 463 001c 18010000 		.word	DMA_TD_START_CMD.4980
 464 0020 00000000 		.word	DMA_ZERO_VAL.4981
 465 0024 00000000 		.word	DMA_ZERO_VAL.4981
 466 0028 00000000 		.word	DMA_ZERO_VAL.4981
 467 002c 00000000 		.word	DMA_ZERO_VAL.4981
 468 0030 00000000 		.word	DMA_ZERO_VAL.4981
 469 0034 00000000 		.word	DMA_ZERO_VAL.4981
 470 0038 00000000 		.word	DMA_ZERO_VAL.4981
 471 003c 00000000 		.word	DMA_ZERO_VAL.4981
 472 0040 00000000 		.word	DMA_ZERO_VAL.4981
 473 0044 00000000 		.word	DMA_ZERO_VAL.4981
 474 0048 00000000 		.word	DMA_ZERO_VAL.4981
 475 004c 00000000 		.word	DMA_ZERO_VAL.4981
 476 0050 00000000 		.word	DMA_ZERO_VAL.4981
 477 0054 88010048 		.word	1207959944
 478 0058 00000048 		.word	1207959552
 479 005c 08000048 		.word	1207959560
 480 0060 88000048 		.word	1207959688
 481 0064 08010048 		.word	1207959816
 482 0068 A8010048 		.word	1207959976
 483 006c B8010048 		.word	1207959992
 484 0070 38020048 		.word	1207960120
 485 0074 B8020048 		.word	1207960248
 486 0078 38030048 		.word	1207960376
 487 007c B8030048 		.word	1207960504
 488 0080 38040048 		.word	1207960632
 489 0084 B8040048 		.word	1207960760
 490 0088 38050048 		.word	1207960888
 491              		.section	.dma_init,"a",%progbits
 492              		.set	.LANCHOR1,. + 0
ARM GAS  C:\Users\Joe\AppData\Local\Temp\ccMP3HST.s 			page 21


 493              		.type	CFG_TD_LIST0.4982, %object
 494              		.size	CFG_TD_LIST0.4982, 280
 495              	CFG_TD_LIST0.4982:
 496 0000 0800     		.2byte	8
 497 0002 02       		.byte	2
 498 0003 23       		.byte	35
 499 0004 0000     		.2byte	0
 500 0006 0876     		.2byte	30216
 501 0008 0800     		.2byte	8
 502 000a 03       		.byte	3
 503 000b 23       		.byte	35
 504 000c 0000     		.2byte	0
 505 000e 1076     		.2byte	30224
 506 0010 0800     		.2byte	8
 507 0012 04       		.byte	4
 508 0013 23       		.byte	35
 509 0014 0000     		.2byte	0
 510 0016 2876     		.2byte	30248
 511 0018 0800     		.2byte	8
 512 001a 05       		.byte	5
 513 001b 23       		.byte	35
 514 001c 0000     		.2byte	0
 515 001e 3076     		.2byte	30256
 516 0020 0500     		.2byte	5
 517 0022 06       		.byte	6
 518 0023 23       		.byte	35
 519 0024 0000     		.2byte	0
 520 0026 2070     		.2byte	28704
 521 0028 0500     		.2byte	5
 522 002a 07       		.byte	7
 523 002b 23       		.byte	35
 524 002c 0000     		.2byte	0
 525 002e 3070     		.2byte	28720
 526 0030 0500     		.2byte	5
 527 0032 08       		.byte	8
 528 0033 23       		.byte	35
 529 0034 0000     		.2byte	0
 530 0036 6070     		.2byte	28768
 531 0038 0500     		.2byte	5
 532 003a FE       		.byte	-2
 533 003b 23       		.byte	35
 534 003c 0000     		.2byte	0
 535 003e 7070     		.2byte	28784
 536 0040 1000     		.2byte	16
 537 0042 0A       		.byte	10
 538 0043 22       		.byte	34
 539 0044 0000     		.2byte	0
 540 0046 0051     		.2byte	20736
 541 0048 4000     		.2byte	64
 542 004a 0B       		.byte	11
 543 004b 22       		.byte	34
 544 004c 0000     		.2byte	0
 545 004e 3051     		.2byte	20784
 546 0050 1000     		.2byte	16
 547 0052 0C       		.byte	12
 548 0053 22       		.byte	34
 549 0054 0000     		.2byte	0
ARM GAS  C:\Users\Joe\AppData\Local\Temp\ccMP3HST.s 			page 22


 550 0056 C051     		.2byte	20928
 551 0058 1000     		.2byte	16
 552 005a FE       		.byte	-2
 553 005b 22       		.byte	34
 554 005c 0000     		.2byte	0
 555 005e F051     		.2byte	20976
 556 0060 8003     		.2byte	896
 557 0062 0E       		.byte	14
 558 0063 22       		.byte	34
 559 0064 0000     		.2byte	0
 560 0066 0000     		.2byte	0
 561 0068 0006     		.2byte	1536
 562 006a 0F       		.byte	15
 563 006b 22       		.byte	34
 564 006c 0000     		.2byte	0
 565 006e 0004     		.2byte	1024
 566 0070 8000     		.2byte	128
 567 0072 10       		.byte	16
 568 0073 22       		.byte	34
 569 0074 0000     		.2byte	0
 570 0076 800C     		.2byte	3200
 571 0078 0002     		.2byte	512
 572 007a 11       		.byte	17
 573 007b 22       		.byte	34
 574 007c 0000     		.2byte	0
 575 007e 000E     		.2byte	3584
 576 0080 0008     		.2byte	2048
 577 0082 12       		.byte	18
 578 0083 22       		.byte	34
 579 0084 0000     		.2byte	0
 580 0086 0014     		.2byte	5120
 581 0088 8000     		.2byte	128
 582 008a 13       		.byte	19
 583 008b 22       		.byte	34
 584 008c 0000     		.2byte	0
 585 008e 0041     		.2byte	16640
 586 0090 0008     		.2byte	2048
 587 0092 14       		.byte	20
 588 0093 22       		.byte	34
 589 0094 0000     		.2byte	0
 590 0096 0042     		.2byte	16896
 591 0098 0002     		.2byte	512
 592 009a 15       		.byte	21
 593 009b 22       		.byte	34
 594 009c 0000     		.2byte	0
 595 009e 004C     		.2byte	19456
 596 00a0 1000     		.2byte	16
 597 00a2 FE       		.byte	-2
 598 00a3 22       		.byte	34
 599 00a4 0000     		.2byte	0
 600 00a6 1050     		.2byte	20496
 601 00a8 2000     		.2byte	32
 602 00aa FE       		.byte	-2
 603 00ab 23       		.byte	35
 604 00ac 0000     		.2byte	0
 605 00ae 7064     		.2byte	25712
 606 00b0 0800     		.2byte	8
ARM GAS  C:\Users\Joe\AppData\Local\Temp\ccMP3HST.s 			page 23


 607 00b2 18       		.byte	24
 608 00b3 23       		.byte	35
 609 00b4 0000     		.2byte	0
 610 00b6 0051     		.2byte	20736
 611 00b8 8000     		.2byte	128
 612 00ba 19       		.byte	25
 613 00bb 23       		.byte	35
 614 00bc 0000     		.2byte	0
 615 00be 000A     		.2byte	2560
 616 00c0 8000     		.2byte	128
 617 00c2 1A       		.byte	26
 618 00c3 23       		.byte	35
 619 00c4 0000     		.2byte	0
 620 00c6 800A     		.2byte	2688
 621 00c8 8000     		.2byte	128
 622 00ca 1B       		.byte	27
 623 00cb 23       		.byte	35
 624 00cc 0000     		.2byte	0
 625 00ce 000C     		.2byte	3072
 626 00d0 1000     		.2byte	16
 627 00d2 1C       		.byte	28
 628 00d3 23       		.byte	35
 629 00d4 0000     		.2byte	0
 630 00d6 0050     		.2byte	20480
 631 00d8 8000     		.2byte	128
 632 00da 1D       		.byte	29
 633 00db 23       		.byte	35
 634 00dc 0000     		.2byte	0
 635 00de 000B     		.2byte	2816
 636 00e0 8000     		.2byte	128
 637 00e2 1E       		.byte	30
 638 00e3 23       		.byte	35
 639 00e4 0000     		.2byte	0
 640 00e6 800B     		.2byte	2944
 641 00e8 8000     		.2byte	128
 642 00ea 1F       		.byte	31
 643 00eb 23       		.byte	35
 644 00ec 0000     		.2byte	0
 645 00ee 000D     		.2byte	3328
 646 00f0 8000     		.2byte	128
 647 00f2 20       		.byte	32
 648 00f3 23       		.byte	35
 649 00f4 0000     		.2byte	0
 650 00f6 800D     		.2byte	3456
 651 00f8 8000     		.2byte	128
 652 00fa 21       		.byte	33
 653 00fb 23       		.byte	35
 654 00fc 0000     		.2byte	0
 655 00fe 8003     		.2byte	896
 656 0100 8000     		.2byte	128
 657 0102 22       		.byte	34
 658 0103 23       		.byte	35
 659 0104 0000     		.2byte	0
 660 0106 8041     		.2byte	16768
 661 0108 8000     		.2byte	128
 662 010a 23       		.byte	35
 663 010b 23       		.byte	35
ARM GAS  C:\Users\Joe\AppData\Local\Temp\ccMP3HST.s 			page 24


 664 010c 0000     		.2byte	0
 665 010e 0040     		.2byte	16384
 666 0110 8000     		.2byte	128
 667 0112 FE       		.byte	-2
 668 0113 23       		.byte	35
 669 0114 0000     		.2byte	0
 670 0116 8040     		.2byte	16512
 671              		.type	DMA_TD_START_CMD.4980, %object
 672              		.size	DMA_TD_START_CMD.4980, 5
 673              	DMA_TD_START_CMD.4980:
 674 0118 01       		.byte	1
 675 0119 00       		.byte	0
 676 011a 00       		.byte	0
 677 011b 00       		.byte	0
 678 011c 01       		.byte	1
 679              		.type	CH6_ADDR_DATA0.4979, %object
 680              		.size	CH6_ADDR_DATA0.4979, 8
 681              	CH6_ADDR_DATA0.4979:
 682 011d 01       		.byte	1
 683 011e 00       		.byte	0
 684 011f 00       		.byte	0
 685 0120 00       		.byte	0
 686 0121 00       		.byte	0
 687 0122 48       		.byte	72
 688 0123 01       		.byte	1
 689 0124 40       		.byte	64
 690              		.type	CH5_ADDR_DATA0.4978, %object
 691              		.size	CH5_ADDR_DATA0.4978, 8
 692              	CH5_ADDR_DATA0.4978:
 693 0125 01       		.byte	1
 694 0126 00       		.byte	0
 695 0127 00       		.byte	0
 696 0128 00       		.byte	0
 697 0129 00       		.byte	0
 698 012a 48       		.byte	72
 699 012b 00       		.byte	0
 700 012c 40       		.byte	64
 701              		.type	CH2_ADDR_DATA0.4977, %object
 702              		.size	CH2_ADDR_DATA0.4977, 8
 703              	CH2_ADDR_DATA0.4977:
 704 012d 01       		.byte	1
 705 012e 00       		.byte	0
 706 012f 00       		.byte	0
 707 0130 00       		.byte	0
 708 0131 00       		.byte	0
 709 0132 20       		.byte	32
 710 0133 01       		.byte	1
 711 0134 40       		.byte	64
 712              		.type	CH1_ADDR_DATA0.4976, %object
 713              		.size	CH1_ADDR_DATA0.4976, 8
 714              	CH1_ADDR_DATA0.4976:
 715 0135 01       		.byte	1
 716 0136 00       		.byte	0
 717 0137 00       		.byte	0
 718 0138 00       		.byte	0
 719 0139 00       		.byte	0
 720 013a 20       		.byte	32
ARM GAS  C:\Users\Joe\AppData\Local\Temp\ccMP3HST.s 			page 25


 721 013b 00       		.byte	0
 722 013c 40       		.byte	64
 723              		.bss
 724              		.align	3
 725              		.set	.LANCHOR0,. + 0
 726              		.type	DMA_ZERO_VAL.4981, %object
 727              		.size	DMA_ZERO_VAL.4981, 4
 728              	DMA_ZERO_VAL.4981:
 729 0000 00000000 		.space	4
 730              		.text
 731              	.Letext0:
 732              		.file 2 "c:\\program files (x86)\\cypress\\psoc creator\\4.2\\psoc creator\\import\\gnu\\arm\\5.4.
 733              		.file 3 "Generated_Source\\PSoC5\\cytypes.h"
 734              		.file 4 "Generated_Source\\PSoC5\\CyLib.h"