ARM GAS  C:\Users\Joe\AppData\Local\Temp\ccVurVSh.s 			page 1


   1              		.syntax unified
   2              		.cpu cortex-m3
   3              		.fpu softvfp
   4              		.eabi_attribute 20, 1
   5              		.eabi_attribute 21, 1
   6              		.eabi_attribute 23, 3
   7              		.eabi_attribute 24, 1
   8              		.eabi_attribute 25, 1
   9              		.eabi_attribute 26, 1
  10              		.eabi_attribute 30, 4
  11              		.eabi_attribute 34, 1
  12              		.eabi_attribute 18, 4
  13              		.thumb
  14              		.syntax unified
  15              		.file	"SPIS_1.c"
  16              		.text
  17              	.Ltext0:
  18              		.cfi_sections	.debug_frame
  19              		.section	.text.SPIS_1_Enable,"ax",%progbits
  20              		.align	1
  21              		.global	SPIS_1_Enable
  22              		.thumb
  23              		.thumb_func
  24              		.type	SPIS_1_Enable, %function
  25              	SPIS_1_Enable:
  26              	.LFB1:
  27              		.file 1 "Generated_Source\\PSoC5\\SPIS_1.c"
   1:Generated_Source\PSoC5/SPIS_1.c **** /*******************************************************************************
   2:Generated_Source\PSoC5/SPIS_1.c **** * File Name: SPIS_1.c
   3:Generated_Source\PSoC5/SPIS_1.c **** * Version 2.70
   4:Generated_Source\PSoC5/SPIS_1.c **** *
   5:Generated_Source\PSoC5/SPIS_1.c **** * Description:
   6:Generated_Source\PSoC5/SPIS_1.c **** *  This file provides all API functionality of the SPI Slave component.
   7:Generated_Source\PSoC5/SPIS_1.c **** *
   8:Generated_Source\PSoC5/SPIS_1.c **** * Note:
   9:Generated_Source\PSoC5/SPIS_1.c **** *  None.
  10:Generated_Source\PSoC5/SPIS_1.c **** *
  11:Generated_Source\PSoC5/SPIS_1.c **** ********************************************************************************
  12:Generated_Source\PSoC5/SPIS_1.c **** * Copyright 2008-2015, Cypress Semiconductor Corporation.  All rights reserved.
  13:Generated_Source\PSoC5/SPIS_1.c **** * You may use this file only in accordance with the license, terms, conditions,
  14:Generated_Source\PSoC5/SPIS_1.c **** * disclaimers, and limitations in the end user license agreement accompanying
  15:Generated_Source\PSoC5/SPIS_1.c **** * the software package with which this file was provided.
  16:Generated_Source\PSoC5/SPIS_1.c **** *******************************************************************************/
  17:Generated_Source\PSoC5/SPIS_1.c **** 
  18:Generated_Source\PSoC5/SPIS_1.c **** #include "SPIS_1_PVT.h"
  19:Generated_Source\PSoC5/SPIS_1.c **** 
  20:Generated_Source\PSoC5/SPIS_1.c **** #if (SPIS_1_TX_SOFTWARE_BUF_ENABLED)
  21:Generated_Source\PSoC5/SPIS_1.c **** 
  22:Generated_Source\PSoC5/SPIS_1.c ****     volatile uint8 SPIS_1_txBuffer[SPIS_1_TX_BUFFER_SIZE];
  23:Generated_Source\PSoC5/SPIS_1.c ****     volatile uint8 SPIS_1_txBufferRead;
  24:Generated_Source\PSoC5/SPIS_1.c ****     volatile uint8 SPIS_1_txBufferWrite;
  25:Generated_Source\PSoC5/SPIS_1.c ****     volatile uint8 SPIS_1_txBufferFull;
  26:Generated_Source\PSoC5/SPIS_1.c **** 
  27:Generated_Source\PSoC5/SPIS_1.c **** #endif /* SPIS_1_TX_SOFTWARE_BUF_ENABLED*/
  28:Generated_Source\PSoC5/SPIS_1.c **** 
  29:Generated_Source\PSoC5/SPIS_1.c **** #if (SPIS_1_RX_SOFTWARE_BUF_ENABLED)
  30:Generated_Source\PSoC5/SPIS_1.c **** 
ARM GAS  C:\Users\Joe\AppData\Local\Temp\ccVurVSh.s 			page 2


  31:Generated_Source\PSoC5/SPIS_1.c ****     volatile uint8 SPIS_1_rxBuffer[SPIS_1_RX_BUFFER_SIZE];
  32:Generated_Source\PSoC5/SPIS_1.c ****     volatile uint8 SPIS_1_rxBufferRead;
  33:Generated_Source\PSoC5/SPIS_1.c ****     volatile uint8 SPIS_1_rxBufferWrite;
  34:Generated_Source\PSoC5/SPIS_1.c ****     volatile uint8 SPIS_1_rxBufferFull;
  35:Generated_Source\PSoC5/SPIS_1.c **** 
  36:Generated_Source\PSoC5/SPIS_1.c **** #endif /* SPIS_1_RX_SOFTWARE_BUF_ENABLED */
  37:Generated_Source\PSoC5/SPIS_1.c **** 
  38:Generated_Source\PSoC5/SPIS_1.c **** uint8 SPIS_1_initVar = 0u;
  39:Generated_Source\PSoC5/SPIS_1.c **** 
  40:Generated_Source\PSoC5/SPIS_1.c **** volatile uint8 SPIS_1_swStatusTx;
  41:Generated_Source\PSoC5/SPIS_1.c **** volatile uint8 SPIS_1_swStatusRx;
  42:Generated_Source\PSoC5/SPIS_1.c **** 
  43:Generated_Source\PSoC5/SPIS_1.c **** 
  44:Generated_Source\PSoC5/SPIS_1.c **** /*******************************************************************************
  45:Generated_Source\PSoC5/SPIS_1.c **** * Function Name: SPIS_1_Init
  46:Generated_Source\PSoC5/SPIS_1.c **** ********************************************************************************
  47:Generated_Source\PSoC5/SPIS_1.c **** *
  48:Generated_Source\PSoC5/SPIS_1.c **** * Summary:
  49:Generated_Source\PSoC5/SPIS_1.c **** *  Inits/Restores default SPIS configuration provided with customizer.
  50:Generated_Source\PSoC5/SPIS_1.c **** *
  51:Generated_Source\PSoC5/SPIS_1.c **** * Parameters:
  52:Generated_Source\PSoC5/SPIS_1.c **** *  None.
  53:Generated_Source\PSoC5/SPIS_1.c **** *
  54:Generated_Source\PSoC5/SPIS_1.c **** * Return:
  55:Generated_Source\PSoC5/SPIS_1.c **** *  None.
  56:Generated_Source\PSoC5/SPIS_1.c **** *
  57:Generated_Source\PSoC5/SPIS_1.c **** * Side Effects:
  58:Generated_Source\PSoC5/SPIS_1.c **** *  When this function is called it initializes all of the necessary parameters
  59:Generated_Source\PSoC5/SPIS_1.c **** *  for execution. i.e. setting the initial interrupt mask, configuring the
  60:Generated_Source\PSoC5/SPIS_1.c **** *  interrupt service routine, configuring the bit-counter parameters and
  61:Generated_Source\PSoC5/SPIS_1.c **** *  clearing the FIFO and Status Register.
  62:Generated_Source\PSoC5/SPIS_1.c **** *
  63:Generated_Source\PSoC5/SPIS_1.c **** * Reentrant:
  64:Generated_Source\PSoC5/SPIS_1.c **** *  No.
  65:Generated_Source\PSoC5/SPIS_1.c **** *
  66:Generated_Source\PSoC5/SPIS_1.c **** *******************************************************************************/
  67:Generated_Source\PSoC5/SPIS_1.c **** void SPIS_1_Init(void) 
  68:Generated_Source\PSoC5/SPIS_1.c **** {
  69:Generated_Source\PSoC5/SPIS_1.c ****     /*Initialize the Bit counter */
  70:Generated_Source\PSoC5/SPIS_1.c ****     SPIS_1_COUNTER_PERIOD_REG = SPIS_1_BITCTR_INIT;
  71:Generated_Source\PSoC5/SPIS_1.c **** 
  72:Generated_Source\PSoC5/SPIS_1.c ****     /* ISR initialization */
  73:Generated_Source\PSoC5/SPIS_1.c ****     #if(SPIS_1_INTERNAL_TX_INT_ENABLED)
  74:Generated_Source\PSoC5/SPIS_1.c **** 
  75:Generated_Source\PSoC5/SPIS_1.c ****         CyIntDisable(SPIS_1_TX_ISR_NUMBER);
  76:Generated_Source\PSoC5/SPIS_1.c **** 
  77:Generated_Source\PSoC5/SPIS_1.c ****         /* Set the ISR to point to the SPIS_1_isr Interrupt. */
  78:Generated_Source\PSoC5/SPIS_1.c ****         (void)CyIntSetVector(SPIS_1_TX_ISR_NUMBER, &SPIS_1_TX_ISR);
  79:Generated_Source\PSoC5/SPIS_1.c **** 
  80:Generated_Source\PSoC5/SPIS_1.c ****         /* Set the priority. */
  81:Generated_Source\PSoC5/SPIS_1.c ****         CyIntSetPriority(SPIS_1_TX_ISR_NUMBER, SPIS_1_TX_ISR_PRIORITY);
  82:Generated_Source\PSoC5/SPIS_1.c **** 
  83:Generated_Source\PSoC5/SPIS_1.c ****     #endif /* SPIS_1_INTERNAL_TX_INT_ENABLED */
  84:Generated_Source\PSoC5/SPIS_1.c **** 
  85:Generated_Source\PSoC5/SPIS_1.c ****     #if(SPIS_1_INTERNAL_RX_INT_ENABLED)
  86:Generated_Source\PSoC5/SPIS_1.c **** 
  87:Generated_Source\PSoC5/SPIS_1.c ****         CyIntDisable(SPIS_1_RX_ISR_NUMBER);
ARM GAS  C:\Users\Joe\AppData\Local\Temp\ccVurVSh.s 			page 3


  88:Generated_Source\PSoC5/SPIS_1.c **** 
  89:Generated_Source\PSoC5/SPIS_1.c ****         /* Set the ISR to point to the SPIS_1_isr Interrupt. */
  90:Generated_Source\PSoC5/SPIS_1.c ****         (void)CyIntSetVector(SPIS_1_RX_ISR_NUMBER, &SPIS_1_RX_ISR);
  91:Generated_Source\PSoC5/SPIS_1.c **** 
  92:Generated_Source\PSoC5/SPIS_1.c ****         /* Set the priority. */
  93:Generated_Source\PSoC5/SPIS_1.c ****         CyIntSetPriority(SPIS_1_RX_ISR_NUMBER, SPIS_1_RX_ISR_PRIORITY);
  94:Generated_Source\PSoC5/SPIS_1.c **** 
  95:Generated_Source\PSoC5/SPIS_1.c ****     #endif /* SPIS_1_INTERNAL_RX_INT_ENABLED */
  96:Generated_Source\PSoC5/SPIS_1.c **** 
  97:Generated_Source\PSoC5/SPIS_1.c ****     /* Clear any stray data from the RX and TX FIFO */
  98:Generated_Source\PSoC5/SPIS_1.c ****     SPIS_1_ClearFIFO();
  99:Generated_Source\PSoC5/SPIS_1.c **** 
 100:Generated_Source\PSoC5/SPIS_1.c ****     #if(SPIS_1_RX_SOFTWARE_BUF_ENABLED)
 101:Generated_Source\PSoC5/SPIS_1.c ****         SPIS_1_rxBufferFull = 0u;
 102:Generated_Source\PSoC5/SPIS_1.c ****         SPIS_1_rxBufferRead = 0u;
 103:Generated_Source\PSoC5/SPIS_1.c ****         SPIS_1_rxBufferWrite = 0u;
 104:Generated_Source\PSoC5/SPIS_1.c ****     #endif /* SPIS_1_RX_SOFTWARE_BUF_ENABLED */
 105:Generated_Source\PSoC5/SPIS_1.c **** 
 106:Generated_Source\PSoC5/SPIS_1.c ****     #if(SPIS_1_TX_SOFTWARE_BUF_ENABLED)
 107:Generated_Source\PSoC5/SPIS_1.c ****         SPIS_1_txBufferFull = 0u;
 108:Generated_Source\PSoC5/SPIS_1.c ****         SPIS_1_txBufferRead = 0u;
 109:Generated_Source\PSoC5/SPIS_1.c ****         SPIS_1_txBufferWrite = 0u;
 110:Generated_Source\PSoC5/SPIS_1.c ****     #endif /* SPIS_1_TX_SOFTWARE_BUF_ENABLED */
 111:Generated_Source\PSoC5/SPIS_1.c **** 
 112:Generated_Source\PSoC5/SPIS_1.c ****     (void) SPIS_1_ReadTxStatus(); /* Clear any pending status bits */
 113:Generated_Source\PSoC5/SPIS_1.c ****     (void) SPIS_1_ReadRxStatus(); /* Clear any pending status bits */
 114:Generated_Source\PSoC5/SPIS_1.c **** 
 115:Generated_Source\PSoC5/SPIS_1.c **** 
 116:Generated_Source\PSoC5/SPIS_1.c ****     /* Configure the Initial interrupt mask */
 117:Generated_Source\PSoC5/SPIS_1.c ****     #if (SPIS_1_TX_SOFTWARE_BUF_ENABLED)
 118:Generated_Source\PSoC5/SPIS_1.c ****         SPIS_1_TX_STATUS_MASK_REG  = (SPIS_1_TX_INIT_INTERRUPTS_MASK &
 119:Generated_Source\PSoC5/SPIS_1.c ****                                                 (uint8)~SPIS_1_STS_TX_FIFO_NOT_FULL);
 120:Generated_Source\PSoC5/SPIS_1.c ****     #else /* SPIS_1_TX_SOFTWARE_BUF_ENABLED */
 121:Generated_Source\PSoC5/SPIS_1.c ****         SPIS_1_TX_STATUS_MASK_REG  = SPIS_1_TX_INIT_INTERRUPTS_MASK;
 122:Generated_Source\PSoC5/SPIS_1.c ****     #endif /* SPIS_1_TX_SOFTWARE_BUF_ENABLED */
 123:Generated_Source\PSoC5/SPIS_1.c **** 
 124:Generated_Source\PSoC5/SPIS_1.c ****     SPIS_1_RX_STATUS_MASK_REG  = SPIS_1_RX_INIT_INTERRUPTS_MASK;
 125:Generated_Source\PSoC5/SPIS_1.c **** }
 126:Generated_Source\PSoC5/SPIS_1.c **** 
 127:Generated_Source\PSoC5/SPIS_1.c **** 
 128:Generated_Source\PSoC5/SPIS_1.c **** /*******************************************************************************
 129:Generated_Source\PSoC5/SPIS_1.c **** * Function Name: SPIS_1_Enable
 130:Generated_Source\PSoC5/SPIS_1.c **** ********************************************************************************
 131:Generated_Source\PSoC5/SPIS_1.c **** *
 132:Generated_Source\PSoC5/SPIS_1.c **** * Summary:
 133:Generated_Source\PSoC5/SPIS_1.c **** *  Enable SPIS component.
 134:Generated_Source\PSoC5/SPIS_1.c **** *
 135:Generated_Source\PSoC5/SPIS_1.c **** * Parameters:
 136:Generated_Source\PSoC5/SPIS_1.c **** *  None.
 137:Generated_Source\PSoC5/SPIS_1.c **** *
 138:Generated_Source\PSoC5/SPIS_1.c **** * Return:
 139:Generated_Source\PSoC5/SPIS_1.c **** *  None.
 140:Generated_Source\PSoC5/SPIS_1.c **** *
 141:Generated_Source\PSoC5/SPIS_1.c **** *******************************************************************************/
 142:Generated_Source\PSoC5/SPIS_1.c **** void SPIS_1_Enable(void) 
 143:Generated_Source\PSoC5/SPIS_1.c **** {
  28              		.loc 1 143 0
ARM GAS  C:\Users\Joe\AppData\Local\Temp\ccVurVSh.s 			page 4


  29              		.cfi_startproc
  30              		@ args = 0, pretend = 0, frame = 0
  31              		@ frame_needed = 0, uses_anonymous_args = 0
  32 0000 08B5     		push	{r3, lr}
  33              		.cfi_def_cfa_offset 8
  34              		.cfi_offset 3, -8
  35              		.cfi_offset 14, -4
 144:Generated_Source\PSoC5/SPIS_1.c ****     uint8 enableInterrupts;
 145:Generated_Source\PSoC5/SPIS_1.c ****     enableInterrupts = CyEnterCriticalSection();
  36              		.loc 1 145 0
  37 0002 FFF7FEFF 		bl	CyEnterCriticalSection
  38              	.LVL0:
 146:Generated_Source\PSoC5/SPIS_1.c **** 
 147:Generated_Source\PSoC5/SPIS_1.c ****     SPIS_1_COUNTER_CONTROL_REG |= SPIS_1_CNTR_ENABLE;
  39              		.loc 1 147 0
  40 0006 0A4A     		ldr	r2, .L2
  41 0008 1378     		ldrb	r3, [r2]	@ zero_extendqisi2
  42 000a 43F02003 		orr	r3, r3, #32
  43 000e 1370     		strb	r3, [r2]
 148:Generated_Source\PSoC5/SPIS_1.c ****     SPIS_1_TX_STATUS_ACTL_REG |= SPIS_1_INT_ENABLE;
  44              		.loc 1 148 0
  45 0010 5379     		ldrb	r3, [r2, #5]	@ zero_extendqisi2
  46 0012 43F01003 		orr	r3, r3, #16
  47 0016 5371     		strb	r3, [r2, #5]
 149:Generated_Source\PSoC5/SPIS_1.c ****     SPIS_1_RX_STATUS_ACTL_REG |= SPIS_1_INT_ENABLE;
  48              		.loc 1 149 0
  49 0018 9378     		ldrb	r3, [r2, #2]	@ zero_extendqisi2
  50 001a 43F01003 		orr	r3, r3, #16
  51 001e 9370     		strb	r3, [r2, #2]
 150:Generated_Source\PSoC5/SPIS_1.c **** 
 151:Generated_Source\PSoC5/SPIS_1.c ****     CyExitCriticalSection(enableInterrupts);
  52              		.loc 1 151 0
  53 0020 FFF7FEFF 		bl	CyExitCriticalSection
  54              	.LVL1:
 152:Generated_Source\PSoC5/SPIS_1.c **** 
 153:Generated_Source\PSoC5/SPIS_1.c ****     #if(SPIS_1_INTERNAL_TX_INT_ENABLED)
 154:Generated_Source\PSoC5/SPIS_1.c ****         CyIntEnable(SPIS_1_TX_ISR_NUMBER);
  55              		.loc 1 154 0
  56 0024 034B     		ldr	r3, .L2+4
  57 0026 0222     		movs	r2, #2
  58 0028 1A60     		str	r2, [r3]
 155:Generated_Source\PSoC5/SPIS_1.c ****     #endif /* SPIS_1_INTERNAL_TX_INT_ENABLED */
 156:Generated_Source\PSoC5/SPIS_1.c **** 
 157:Generated_Source\PSoC5/SPIS_1.c ****     #if(SPIS_1_INTERNAL_RX_INT_ENABLED)
 158:Generated_Source\PSoC5/SPIS_1.c ****         CyIntEnable(SPIS_1_RX_ISR_NUMBER);
  59              		.loc 1 158 0
  60 002a 0122     		movs	r2, #1
  61 002c 1A60     		str	r2, [r3]
  62 002e 08BD     		pop	{r3, pc}
  63              	.L3:
  64              		.align	2
  65              	.L2:
  66 0030 92640040 		.word	1073767570
  67 0034 00E100E0 		.word	-536813312
  68              		.cfi_endproc
  69              	.LFE1:
  70              		.size	SPIS_1_Enable, .-SPIS_1_Enable
ARM GAS  C:\Users\Joe\AppData\Local\Temp\ccVurVSh.s 			page 5


  71              		.section	.text.SPIS_1_Stop,"ax",%progbits
  72              		.align	1
  73              		.global	SPIS_1_Stop
  74              		.thumb
  75              		.thumb_func
  76              		.type	SPIS_1_Stop, %function
  77              	SPIS_1_Stop:
  78              	.LFB3:
 159:Generated_Source\PSoC5/SPIS_1.c ****     #endif /* SPIS_1_INTERNAL_RX_INT_ENABLED */
 160:Generated_Source\PSoC5/SPIS_1.c **** }
 161:Generated_Source\PSoC5/SPIS_1.c **** 
 162:Generated_Source\PSoC5/SPIS_1.c **** 
 163:Generated_Source\PSoC5/SPIS_1.c **** /*******************************************************************************
 164:Generated_Source\PSoC5/SPIS_1.c **** * Function Name: SPIS_1_Start
 165:Generated_Source\PSoC5/SPIS_1.c **** ********************************************************************************
 166:Generated_Source\PSoC5/SPIS_1.c **** *
 167:Generated_Source\PSoC5/SPIS_1.c **** * Summary:
 168:Generated_Source\PSoC5/SPIS_1.c **** *  Initialize and Enable the SPI Slave component.
 169:Generated_Source\PSoC5/SPIS_1.c **** *
 170:Generated_Source\PSoC5/SPIS_1.c **** * Parameters:
 171:Generated_Source\PSoC5/SPIS_1.c **** *  None.
 172:Generated_Source\PSoC5/SPIS_1.c **** *
 173:Generated_Source\PSoC5/SPIS_1.c **** * Return:
 174:Generated_Source\PSoC5/SPIS_1.c **** *  None.
 175:Generated_Source\PSoC5/SPIS_1.c **** *
 176:Generated_Source\PSoC5/SPIS_1.c **** * Global variables:
 177:Generated_Source\PSoC5/SPIS_1.c **** *  SPIS_1_initVar - used to check initial configuration, modified on
 178:Generated_Source\PSoC5/SPIS_1.c **** *  first function call.
 179:Generated_Source\PSoC5/SPIS_1.c **** *
 180:Generated_Source\PSoC5/SPIS_1.c **** * Theory:
 181:Generated_Source\PSoC5/SPIS_1.c **** *  Enable the clock input to enable operation.
 182:Generated_Source\PSoC5/SPIS_1.c **** *
 183:Generated_Source\PSoC5/SPIS_1.c **** * Reentrant:
 184:Generated_Source\PSoC5/SPIS_1.c **** *  No.
 185:Generated_Source\PSoC5/SPIS_1.c **** *
 186:Generated_Source\PSoC5/SPIS_1.c **** *******************************************************************************/
 187:Generated_Source\PSoC5/SPIS_1.c **** void SPIS_1_Start(void) 
 188:Generated_Source\PSoC5/SPIS_1.c **** {
 189:Generated_Source\PSoC5/SPIS_1.c ****     if(SPIS_1_initVar == 0u)
 190:Generated_Source\PSoC5/SPIS_1.c ****     {
 191:Generated_Source\PSoC5/SPIS_1.c ****         SPIS_1_Init();
 192:Generated_Source\PSoC5/SPIS_1.c ****         SPIS_1_initVar = 1u;
 193:Generated_Source\PSoC5/SPIS_1.c ****     }
 194:Generated_Source\PSoC5/SPIS_1.c **** 
 195:Generated_Source\PSoC5/SPIS_1.c ****     SPIS_1_Enable();
 196:Generated_Source\PSoC5/SPIS_1.c **** }
 197:Generated_Source\PSoC5/SPIS_1.c **** 
 198:Generated_Source\PSoC5/SPIS_1.c **** 
 199:Generated_Source\PSoC5/SPIS_1.c **** /*******************************************************************************
 200:Generated_Source\PSoC5/SPIS_1.c **** * Function Name: SPIS_1_Stop
 201:Generated_Source\PSoC5/SPIS_1.c **** ********************************************************************************
 202:Generated_Source\PSoC5/SPIS_1.c **** *
 203:Generated_Source\PSoC5/SPIS_1.c **** * Summary:
 204:Generated_Source\PSoC5/SPIS_1.c **** *  Disable the SPI Slave component.
 205:Generated_Source\PSoC5/SPIS_1.c **** *
 206:Generated_Source\PSoC5/SPIS_1.c **** * Parameters:
 207:Generated_Source\PSoC5/SPIS_1.c **** *  None.
ARM GAS  C:\Users\Joe\AppData\Local\Temp\ccVurVSh.s 			page 6


 208:Generated_Source\PSoC5/SPIS_1.c **** *
 209:Generated_Source\PSoC5/SPIS_1.c **** * Return:
 210:Generated_Source\PSoC5/SPIS_1.c **** *  None.
 211:Generated_Source\PSoC5/SPIS_1.c **** *
 212:Generated_Source\PSoC5/SPIS_1.c **** * Theory:
 213:Generated_Source\PSoC5/SPIS_1.c **** *  Disable the internal interrupt if one is used.
 214:Generated_Source\PSoC5/SPIS_1.c **** *
 215:Generated_Source\PSoC5/SPIS_1.c **** *******************************************************************************/
 216:Generated_Source\PSoC5/SPIS_1.c **** void SPIS_1_Stop(void) 
 217:Generated_Source\PSoC5/SPIS_1.c **** {
  79              		.loc 1 217 0
  80              		.cfi_startproc
  81              		@ args = 0, pretend = 0, frame = 0
  82              		@ frame_needed = 0, uses_anonymous_args = 0
  83 0000 08B5     		push	{r3, lr}
  84              		.cfi_def_cfa_offset 8
  85              		.cfi_offset 3, -8
  86              		.cfi_offset 14, -4
 218:Generated_Source\PSoC5/SPIS_1.c ****     uint8 enableInterrupts;
 219:Generated_Source\PSoC5/SPIS_1.c ****     enableInterrupts = CyEnterCriticalSection();
  87              		.loc 1 219 0
  88 0002 FFF7FEFF 		bl	CyEnterCriticalSection
  89              	.LVL2:
 220:Generated_Source\PSoC5/SPIS_1.c **** 
 221:Generated_Source\PSoC5/SPIS_1.c ****     SPIS_1_TX_STATUS_ACTL_REG &= (uint8)~SPIS_1_INT_ENABLE;
  90              		.loc 1 221 0
  91 0006 094A     		ldr	r2, .L5
  92 0008 1378     		ldrb	r3, [r2]	@ zero_extendqisi2
  93 000a 03F0EF03 		and	r3, r3, #239
  94 000e 1370     		strb	r3, [r2]
 222:Generated_Source\PSoC5/SPIS_1.c ****     SPIS_1_RX_STATUS_ACTL_REG &= (uint8)~SPIS_1_INT_ENABLE;
  95              		.loc 1 222 0
  96 0010 12F8033C 		ldrb	r3, [r2, #-3]	@ zero_extendqisi2
  97 0014 03F0EF03 		and	r3, r3, #239
  98 0018 02F8033C 		strb	r3, [r2, #-3]
 223:Generated_Source\PSoC5/SPIS_1.c **** 
 224:Generated_Source\PSoC5/SPIS_1.c ****     CyExitCriticalSection(enableInterrupts);
  99              		.loc 1 224 0
 100 001c FFF7FEFF 		bl	CyExitCriticalSection
 101              	.LVL3:
 225:Generated_Source\PSoC5/SPIS_1.c **** 
 226:Generated_Source\PSoC5/SPIS_1.c ****     #if(SPIS_1_INTERNAL_TX_INT_ENABLED)
 227:Generated_Source\PSoC5/SPIS_1.c ****         CyIntDisable(SPIS_1_TX_ISR_NUMBER);
 102              		.loc 1 227 0
 103 0020 034B     		ldr	r3, .L5+4
 104 0022 0222     		movs	r2, #2
 105 0024 1A60     		str	r2, [r3]
 228:Generated_Source\PSoC5/SPIS_1.c ****     #endif /* SPIS_1_INTERNAL_TX_INT_ENABLED */
 229:Generated_Source\PSoC5/SPIS_1.c **** 
 230:Generated_Source\PSoC5/SPIS_1.c ****     #if(SPIS_1_INTERNAL_RX_INT_ENABLED)
 231:Generated_Source\PSoC5/SPIS_1.c ****         CyIntDisable(SPIS_1_RX_ISR_NUMBER);
 106              		.loc 1 231 0
 107 0026 0122     		movs	r2, #1
 108 0028 1A60     		str	r2, [r3]
 109 002a 08BD     		pop	{r3, pc}
 110              	.L6:
 111              		.align	2
ARM GAS  C:\Users\Joe\AppData\Local\Temp\ccVurVSh.s 			page 7


 112              	.L5:
 113 002c 97640040 		.word	1073767575
 114 0030 80E100E0 		.word	-536813184
 115              		.cfi_endproc
 116              	.LFE3:
 117              		.size	SPIS_1_Stop, .-SPIS_1_Stop
 118              		.section	.text.SPIS_1_EnableTxInt,"ax",%progbits
 119              		.align	1
 120              		.global	SPIS_1_EnableTxInt
 121              		.thumb
 122              		.thumb_func
 123              		.type	SPIS_1_EnableTxInt, %function
 124              	SPIS_1_EnableTxInt:
 125              	.LFB4:
 232:Generated_Source\PSoC5/SPIS_1.c ****     #endif /* SPIS_1_INTERNAL_RX_INT_ENABLED */
 233:Generated_Source\PSoC5/SPIS_1.c **** }
 234:Generated_Source\PSoC5/SPIS_1.c **** 
 235:Generated_Source\PSoC5/SPIS_1.c **** 
 236:Generated_Source\PSoC5/SPIS_1.c **** /*******************************************************************************
 237:Generated_Source\PSoC5/SPIS_1.c **** * Function Name: SPIS_1_EnableTxInt
 238:Generated_Source\PSoC5/SPIS_1.c **** ********************************************************************************
 239:Generated_Source\PSoC5/SPIS_1.c **** *
 240:Generated_Source\PSoC5/SPIS_1.c **** * Summary:
 241:Generated_Source\PSoC5/SPIS_1.c **** *  Enable internal Tx interrupt generation.
 242:Generated_Source\PSoC5/SPIS_1.c **** *
 243:Generated_Source\PSoC5/SPIS_1.c **** * Parameters:
 244:Generated_Source\PSoC5/SPIS_1.c **** *  None.
 245:Generated_Source\PSoC5/SPIS_1.c **** *
 246:Generated_Source\PSoC5/SPIS_1.c **** * Return:
 247:Generated_Source\PSoC5/SPIS_1.c **** *  None.
 248:Generated_Source\PSoC5/SPIS_1.c **** *
 249:Generated_Source\PSoC5/SPIS_1.c **** * Theory:
 250:Generated_Source\PSoC5/SPIS_1.c **** *  Enable the internal Tx interrupt output -or- the interrupt component itself.
 251:Generated_Source\PSoC5/SPIS_1.c **** *
 252:Generated_Source\PSoC5/SPIS_1.c **** *******************************************************************************/
 253:Generated_Source\PSoC5/SPIS_1.c **** void SPIS_1_EnableTxInt(void) 
 254:Generated_Source\PSoC5/SPIS_1.c **** {
 126              		.loc 1 254 0
 127              		.cfi_startproc
 128              		@ args = 0, pretend = 0, frame = 0
 129              		@ frame_needed = 0, uses_anonymous_args = 0
 130              		@ link register save eliminated.
 255:Generated_Source\PSoC5/SPIS_1.c ****     #if(SPIS_1_INTERNAL_TX_INT_ENABLED)
 256:Generated_Source\PSoC5/SPIS_1.c ****         CyIntEnable(SPIS_1_TX_ISR_NUMBER);
 131              		.loc 1 256 0
 132 0000 014B     		ldr	r3, .L8
 133 0002 0222     		movs	r2, #2
 134 0004 1A60     		str	r2, [r3]
 135 0006 7047     		bx	lr
 136              	.L9:
 137              		.align	2
 138              	.L8:
 139 0008 00E100E0 		.word	-536813312
 140              		.cfi_endproc
 141              	.LFE4:
 142              		.size	SPIS_1_EnableTxInt, .-SPIS_1_EnableTxInt
 143              		.section	.text.SPIS_1_EnableRxInt,"ax",%progbits
ARM GAS  C:\Users\Joe\AppData\Local\Temp\ccVurVSh.s 			page 8


 144              		.align	1
 145              		.global	SPIS_1_EnableRxInt
 146              		.thumb
 147              		.thumb_func
 148              		.type	SPIS_1_EnableRxInt, %function
 149              	SPIS_1_EnableRxInt:
 150              	.LFB5:
 257:Generated_Source\PSoC5/SPIS_1.c ****     #endif /* SPIS_1_INTERNAL_TX_INT_ENABLED */
 258:Generated_Source\PSoC5/SPIS_1.c **** }
 259:Generated_Source\PSoC5/SPIS_1.c **** 
 260:Generated_Source\PSoC5/SPIS_1.c **** 
 261:Generated_Source\PSoC5/SPIS_1.c **** /*******************************************************************************
 262:Generated_Source\PSoC5/SPIS_1.c **** * Function Name: SPIS_1_EnableRxInt
 263:Generated_Source\PSoC5/SPIS_1.c **** ********************************************************************************
 264:Generated_Source\PSoC5/SPIS_1.c **** *
 265:Generated_Source\PSoC5/SPIS_1.c **** * Summary:
 266:Generated_Source\PSoC5/SPIS_1.c **** *  Enable internal Rx interrupt generation.
 267:Generated_Source\PSoC5/SPIS_1.c **** *
 268:Generated_Source\PSoC5/SPIS_1.c **** * Parameters:
 269:Generated_Source\PSoC5/SPIS_1.c **** *  None.
 270:Generated_Source\PSoC5/SPIS_1.c **** *
 271:Generated_Source\PSoC5/SPIS_1.c **** * Return:
 272:Generated_Source\PSoC5/SPIS_1.c **** *  None.
 273:Generated_Source\PSoC5/SPIS_1.c **** *
 274:Generated_Source\PSoC5/SPIS_1.c **** * Theory:
 275:Generated_Source\PSoC5/SPIS_1.c **** *  Enable the internal Rx interrupt output -or- the interrupt component itself.
 276:Generated_Source\PSoC5/SPIS_1.c **** *
 277:Generated_Source\PSoC5/SPIS_1.c **** *******************************************************************************/
 278:Generated_Source\PSoC5/SPIS_1.c **** void SPIS_1_EnableRxInt(void) 
 279:Generated_Source\PSoC5/SPIS_1.c **** {
 151              		.loc 1 279 0
 152              		.cfi_startproc
 153              		@ args = 0, pretend = 0, frame = 0
 154              		@ frame_needed = 0, uses_anonymous_args = 0
 155              		@ link register save eliminated.
 280:Generated_Source\PSoC5/SPIS_1.c ****     #if(SPIS_1_INTERNAL_RX_INT_ENABLED)
 281:Generated_Source\PSoC5/SPIS_1.c ****         CyIntEnable(SPIS_1_RX_ISR_NUMBER);
 156              		.loc 1 281 0
 157 0000 014B     		ldr	r3, .L11
 158 0002 0122     		movs	r2, #1
 159 0004 1A60     		str	r2, [r3]
 160 0006 7047     		bx	lr
 161              	.L12:
 162              		.align	2
 163              	.L11:
 164 0008 00E100E0 		.word	-536813312
 165              		.cfi_endproc
 166              	.LFE5:
 167              		.size	SPIS_1_EnableRxInt, .-SPIS_1_EnableRxInt
 168              		.section	.text.SPIS_1_DisableTxInt,"ax",%progbits
 169              		.align	1
 170              		.global	SPIS_1_DisableTxInt
 171              		.thumb
 172              		.thumb_func
 173              		.type	SPIS_1_DisableTxInt, %function
 174              	SPIS_1_DisableTxInt:
 175              	.LFB6:
ARM GAS  C:\Users\Joe\AppData\Local\Temp\ccVurVSh.s 			page 9


 282:Generated_Source\PSoC5/SPIS_1.c ****     #endif /* SPIS_1_INTERNAL_RX_INT_ENABLED */
 283:Generated_Source\PSoC5/SPIS_1.c **** }
 284:Generated_Source\PSoC5/SPIS_1.c **** 
 285:Generated_Source\PSoC5/SPIS_1.c **** 
 286:Generated_Source\PSoC5/SPIS_1.c **** /*******************************************************************************
 287:Generated_Source\PSoC5/SPIS_1.c **** * Function Name: SPIS_1_DisableTxInt
 288:Generated_Source\PSoC5/SPIS_1.c **** ********************************************************************************
 289:Generated_Source\PSoC5/SPIS_1.c **** *
 290:Generated_Source\PSoC5/SPIS_1.c **** * Summary:
 291:Generated_Source\PSoC5/SPIS_1.c **** *  Disable internal Tx interrupt generation.
 292:Generated_Source\PSoC5/SPIS_1.c **** *
 293:Generated_Source\PSoC5/SPIS_1.c **** * Parameters:
 294:Generated_Source\PSoC5/SPIS_1.c **** *  None.
 295:Generated_Source\PSoC5/SPIS_1.c **** *
 296:Generated_Source\PSoC5/SPIS_1.c **** * Return:
 297:Generated_Source\PSoC5/SPIS_1.c **** *  None.
 298:Generated_Source\PSoC5/SPIS_1.c **** *
 299:Generated_Source\PSoC5/SPIS_1.c **** * Theory:
 300:Generated_Source\PSoC5/SPIS_1.c **** *  Disable the internal Tx interrupt output -or- the interrupt component itself.
 301:Generated_Source\PSoC5/SPIS_1.c **** *
 302:Generated_Source\PSoC5/SPIS_1.c **** *******************************************************************************/
 303:Generated_Source\PSoC5/SPIS_1.c **** void SPIS_1_DisableTxInt(void) 
 304:Generated_Source\PSoC5/SPIS_1.c **** {
 176              		.loc 1 304 0
 177              		.cfi_startproc
 178              		@ args = 0, pretend = 0, frame = 0
 179              		@ frame_needed = 0, uses_anonymous_args = 0
 180              		@ link register save eliminated.
 305:Generated_Source\PSoC5/SPIS_1.c ****     #if(SPIS_1_INTERNAL_TX_INT_ENABLED)
 306:Generated_Source\PSoC5/SPIS_1.c ****         CyIntDisable(SPIS_1_TX_ISR_NUMBER);
 181              		.loc 1 306 0
 182 0000 014B     		ldr	r3, .L14
 183 0002 0222     		movs	r2, #2
 184 0004 1A60     		str	r2, [r3]
 185 0006 7047     		bx	lr
 186              	.L15:
 187              		.align	2
 188              	.L14:
 189 0008 80E100E0 		.word	-536813184
 190              		.cfi_endproc
 191              	.LFE6:
 192              		.size	SPIS_1_DisableTxInt, .-SPIS_1_DisableTxInt
 193              		.section	.text.SPIS_1_DisableRxInt,"ax",%progbits
 194              		.align	1
 195              		.global	SPIS_1_DisableRxInt
 196              		.thumb
 197              		.thumb_func
 198              		.type	SPIS_1_DisableRxInt, %function
 199              	SPIS_1_DisableRxInt:
 200              	.LFB7:
 307:Generated_Source\PSoC5/SPIS_1.c ****     #endif /* SPIS_1_INTERNAL_TX_INT_ENABLED */
 308:Generated_Source\PSoC5/SPIS_1.c **** }
 309:Generated_Source\PSoC5/SPIS_1.c **** 
 310:Generated_Source\PSoC5/SPIS_1.c **** 
 311:Generated_Source\PSoC5/SPIS_1.c **** /*******************************************************************************
 312:Generated_Source\PSoC5/SPIS_1.c **** * Function Name: SPIS_1_DisableRxInt
 313:Generated_Source\PSoC5/SPIS_1.c **** ********************************************************************************
ARM GAS  C:\Users\Joe\AppData\Local\Temp\ccVurVSh.s 			page 10


 314:Generated_Source\PSoC5/SPIS_1.c **** *
 315:Generated_Source\PSoC5/SPIS_1.c **** * Summary:
 316:Generated_Source\PSoC5/SPIS_1.c **** *  Disable internal Rx interrupt generation.
 317:Generated_Source\PSoC5/SPIS_1.c **** *
 318:Generated_Source\PSoC5/SPIS_1.c **** * Parameters:
 319:Generated_Source\PSoC5/SPIS_1.c **** *  None.
 320:Generated_Source\PSoC5/SPIS_1.c **** *
 321:Generated_Source\PSoC5/SPIS_1.c **** * Return:
 322:Generated_Source\PSoC5/SPIS_1.c **** *  None.
 323:Generated_Source\PSoC5/SPIS_1.c **** *
 324:Generated_Source\PSoC5/SPIS_1.c **** * Theory:
 325:Generated_Source\PSoC5/SPIS_1.c **** *  Disable the internal Rx interrupt output -or- the interrupt component itself.
 326:Generated_Source\PSoC5/SPIS_1.c **** *
 327:Generated_Source\PSoC5/SPIS_1.c **** *******************************************************************************/
 328:Generated_Source\PSoC5/SPIS_1.c **** void SPIS_1_DisableRxInt(void) 
 329:Generated_Source\PSoC5/SPIS_1.c **** {
 201              		.loc 1 329 0
 202              		.cfi_startproc
 203              		@ args = 0, pretend = 0, frame = 0
 204              		@ frame_needed = 0, uses_anonymous_args = 0
 205              		@ link register save eliminated.
 330:Generated_Source\PSoC5/SPIS_1.c ****     #if(SPIS_1_INTERNAL_RX_INT_ENABLED)
 331:Generated_Source\PSoC5/SPIS_1.c ****         CyIntDisable(SPIS_1_RX_ISR_NUMBER);
 206              		.loc 1 331 0
 207 0000 014B     		ldr	r3, .L17
 208 0002 0122     		movs	r2, #1
 209 0004 1A60     		str	r2, [r3]
 210 0006 7047     		bx	lr
 211              	.L18:
 212              		.align	2
 213              	.L17:
 214 0008 80E100E0 		.word	-536813184
 215              		.cfi_endproc
 216              	.LFE7:
 217              		.size	SPIS_1_DisableRxInt, .-SPIS_1_DisableRxInt
 218              		.section	.text.SPIS_1_SetTxInterruptMode,"ax",%progbits
 219              		.align	1
 220              		.global	SPIS_1_SetTxInterruptMode
 221              		.thumb
 222              		.thumb_func
 223              		.type	SPIS_1_SetTxInterruptMode, %function
 224              	SPIS_1_SetTxInterruptMode:
 225              	.LFB8:
 332:Generated_Source\PSoC5/SPIS_1.c ****     #endif /* SPIS_1_INTERNAL_RX_INT_ENABLED */
 333:Generated_Source\PSoC5/SPIS_1.c **** }
 334:Generated_Source\PSoC5/SPIS_1.c **** 
 335:Generated_Source\PSoC5/SPIS_1.c **** 
 336:Generated_Source\PSoC5/SPIS_1.c **** /*******************************************************************************
 337:Generated_Source\PSoC5/SPIS_1.c **** * Function Name: SPIS_1_SetTxInterruptMode
 338:Generated_Source\PSoC5/SPIS_1.c **** ********************************************************************************
 339:Generated_Source\PSoC5/SPIS_1.c **** *
 340:Generated_Source\PSoC5/SPIS_1.c **** * Summary:
 341:Generated_Source\PSoC5/SPIS_1.c **** *  Configure which status bits trigger an interrupt event.
 342:Generated_Source\PSoC5/SPIS_1.c **** *
 343:Generated_Source\PSoC5/SPIS_1.c **** * Parameters:
 344:Generated_Source\PSoC5/SPIS_1.c **** *  intSrc: An or'd combination of the desired status bit masks (defined in the
 345:Generated_Source\PSoC5/SPIS_1.c **** *  header file).
ARM GAS  C:\Users\Joe\AppData\Local\Temp\ccVurVSh.s 			page 11


 346:Generated_Source\PSoC5/SPIS_1.c **** *
 347:Generated_Source\PSoC5/SPIS_1.c **** * Return:
 348:Generated_Source\PSoC5/SPIS_1.c **** *  None.
 349:Generated_Source\PSoC5/SPIS_1.c **** *
 350:Generated_Source\PSoC5/SPIS_1.c **** * Theory:
 351:Generated_Source\PSoC5/SPIS_1.c **** *  Enables the output of specific status bits to the interrupt controller.
 352:Generated_Source\PSoC5/SPIS_1.c **** *
 353:Generated_Source\PSoC5/SPIS_1.c **** *******************************************************************************/
 354:Generated_Source\PSoC5/SPIS_1.c **** void SPIS_1_SetTxInterruptMode(uint8 intSrc) 
 355:Generated_Source\PSoC5/SPIS_1.c **** {
 226              		.loc 1 355 0
 227              		.cfi_startproc
 228              		@ args = 0, pretend = 0, frame = 0
 229              		@ frame_needed = 0, uses_anonymous_args = 0
 230              		@ link register save eliminated.
 231              	.LVL4:
 356:Generated_Source\PSoC5/SPIS_1.c ****     SPIS_1_TX_STATUS_MASK_REG  = intSrc;
 232              		.loc 1 356 0
 233 0000 014B     		ldr	r3, .L20
 234 0002 1870     		strb	r0, [r3]
 235 0004 7047     		bx	lr
 236              	.L21:
 237 0006 00BF     		.align	2
 238              	.L20:
 239 0008 87640040 		.word	1073767559
 240              		.cfi_endproc
 241              	.LFE8:
 242              		.size	SPIS_1_SetTxInterruptMode, .-SPIS_1_SetTxInterruptMode
 243              		.section	.text.SPIS_1_SetRxInterruptMode,"ax",%progbits
 244              		.align	1
 245              		.global	SPIS_1_SetRxInterruptMode
 246              		.thumb
 247              		.thumb_func
 248              		.type	SPIS_1_SetRxInterruptMode, %function
 249              	SPIS_1_SetRxInterruptMode:
 250              	.LFB9:
 357:Generated_Source\PSoC5/SPIS_1.c **** }
 358:Generated_Source\PSoC5/SPIS_1.c **** 
 359:Generated_Source\PSoC5/SPIS_1.c **** 
 360:Generated_Source\PSoC5/SPIS_1.c **** /*******************************************************************************
 361:Generated_Source\PSoC5/SPIS_1.c **** * Function Name: SPIS_1_SetRxInterruptMode
 362:Generated_Source\PSoC5/SPIS_1.c **** ********************************************************************************
 363:Generated_Source\PSoC5/SPIS_1.c **** *
 364:Generated_Source\PSoC5/SPIS_1.c **** * Summary:
 365:Generated_Source\PSoC5/SPIS_1.c **** *  Configure which status bits trigger an interrupt event.
 366:Generated_Source\PSoC5/SPIS_1.c **** *
 367:Generated_Source\PSoC5/SPIS_1.c **** * Parameters:
 368:Generated_Source\PSoC5/SPIS_1.c **** *  intSrc: An or'd combination of the desired status bit masks (defined in the
 369:Generated_Source\PSoC5/SPIS_1.c **** *  header file).
 370:Generated_Source\PSoC5/SPIS_1.c **** *
 371:Generated_Source\PSoC5/SPIS_1.c **** * Return:
 372:Generated_Source\PSoC5/SPIS_1.c **** *  None.
 373:Generated_Source\PSoC5/SPIS_1.c **** *
 374:Generated_Source\PSoC5/SPIS_1.c **** * Theory:
 375:Generated_Source\PSoC5/SPIS_1.c **** *  Enables the output of specific status bits to the interrupt controller.
 376:Generated_Source\PSoC5/SPIS_1.c **** *
 377:Generated_Source\PSoC5/SPIS_1.c **** *******************************************************************************/
ARM GAS  C:\Users\Joe\AppData\Local\Temp\ccVurVSh.s 			page 12


 378:Generated_Source\PSoC5/SPIS_1.c **** void SPIS_1_SetRxInterruptMode(uint8 intSrc) 
 379:Generated_Source\PSoC5/SPIS_1.c **** {
 251              		.loc 1 379 0
 252              		.cfi_startproc
 253              		@ args = 0, pretend = 0, frame = 0
 254              		@ frame_needed = 0, uses_anonymous_args = 0
 255              		@ link register save eliminated.
 256              	.LVL5:
 380:Generated_Source\PSoC5/SPIS_1.c ****     SPIS_1_RX_STATUS_MASK_REG  = intSrc;
 257              		.loc 1 380 0
 258 0000 014B     		ldr	r3, .L23
 259 0002 1870     		strb	r0, [r3]
 260 0004 7047     		bx	lr
 261              	.L24:
 262 0006 00BF     		.align	2
 263              	.L23:
 264 0008 84640040 		.word	1073767556
 265              		.cfi_endproc
 266              	.LFE9:
 267              		.size	SPIS_1_SetRxInterruptMode, .-SPIS_1_SetRxInterruptMode
 268              		.section	.text.SPIS_1_ReadTxStatus,"ax",%progbits
 269              		.align	1
 270              		.global	SPIS_1_ReadTxStatus
 271              		.thumb
 272              		.thumb_func
 273              		.type	SPIS_1_ReadTxStatus, %function
 274              	SPIS_1_ReadTxStatus:
 275              	.LFB10:
 381:Generated_Source\PSoC5/SPIS_1.c **** }
 382:Generated_Source\PSoC5/SPIS_1.c **** 
 383:Generated_Source\PSoC5/SPIS_1.c **** 
 384:Generated_Source\PSoC5/SPIS_1.c **** /*******************************************************************************
 385:Generated_Source\PSoC5/SPIS_1.c **** * Function Name: SPIS_1_ReadTxStatus
 386:Generated_Source\PSoC5/SPIS_1.c **** ********************************************************************************
 387:Generated_Source\PSoC5/SPIS_1.c **** *
 388:Generated_Source\PSoC5/SPIS_1.c **** * Summary:
 389:Generated_Source\PSoC5/SPIS_1.c **** *  Read the Tx status register for the component.
 390:Generated_Source\PSoC5/SPIS_1.c **** *
 391:Generated_Source\PSoC5/SPIS_1.c **** * Parameters:
 392:Generated_Source\PSoC5/SPIS_1.c **** *  None.
 393:Generated_Source\PSoC5/SPIS_1.c **** *
 394:Generated_Source\PSoC5/SPIS_1.c **** * Return:
 395:Generated_Source\PSoC5/SPIS_1.c **** *  Contents of the Tx status register.
 396:Generated_Source\PSoC5/SPIS_1.c **** *
 397:Generated_Source\PSoC5/SPIS_1.c **** * Global variables:
 398:Generated_Source\PSoC5/SPIS_1.c **** *  SPIS_1_swStatusTx - used to store in software status register,
 399:Generated_Source\PSoC5/SPIS_1.c **** *  modified every function call - resets to zero.
 400:Generated_Source\PSoC5/SPIS_1.c **** *
 401:Generated_Source\PSoC5/SPIS_1.c **** * Theory:
 402:Generated_Source\PSoC5/SPIS_1.c **** *  Allows the user and the API to read the Tx status register for error
 403:Generated_Source\PSoC5/SPIS_1.c **** *  detection and flow control.
 404:Generated_Source\PSoC5/SPIS_1.c **** *
 405:Generated_Source\PSoC5/SPIS_1.c **** * Side Effects:
 406:Generated_Source\PSoC5/SPIS_1.c **** *  Clear Tx status register of the component.
 407:Generated_Source\PSoC5/SPIS_1.c **** *
 408:Generated_Source\PSoC5/SPIS_1.c **** * Reentrant:
 409:Generated_Source\PSoC5/SPIS_1.c **** *  No.
ARM GAS  C:\Users\Joe\AppData\Local\Temp\ccVurVSh.s 			page 13


 410:Generated_Source\PSoC5/SPIS_1.c **** *
 411:Generated_Source\PSoC5/SPIS_1.c **** *******************************************************************************/
 412:Generated_Source\PSoC5/SPIS_1.c **** uint8 SPIS_1_ReadTxStatus(void) 
 413:Generated_Source\PSoC5/SPIS_1.c **** {
 276              		.loc 1 413 0
 277              		.cfi_startproc
 278              		@ args = 0, pretend = 0, frame = 0
 279              		@ frame_needed = 0, uses_anonymous_args = 0
 280 0000 10B5     		push	{r4, lr}
 281              		.cfi_def_cfa_offset 8
 282              		.cfi_offset 4, -8
 283              		.cfi_offset 14, -4
 284              	.LBB34:
 285              	.LBB35:
 306:Generated_Source\PSoC5/SPIS_1.c ****     #endif /* SPIS_1_INTERNAL_TX_INT_ENABLED */
 286              		.loc 1 306 0
 287 0002 074B     		ldr	r3, .L26
 288 0004 0222     		movs	r2, #2
 289 0006 1A60     		str	r2, [r3]
 290              	.LBE35:
 291              	.LBE34:
 414:Generated_Source\PSoC5/SPIS_1.c ****     uint8 tmpStatus;
 415:Generated_Source\PSoC5/SPIS_1.c **** 
 416:Generated_Source\PSoC5/SPIS_1.c ****     #if (SPIS_1_TX_SOFTWARE_BUF_ENABLED)
 417:Generated_Source\PSoC5/SPIS_1.c **** 
 418:Generated_Source\PSoC5/SPIS_1.c ****         SPIS_1_DisableTxInt();
 419:Generated_Source\PSoC5/SPIS_1.c **** 
 420:Generated_Source\PSoC5/SPIS_1.c ****         tmpStatus = SPIS_1_GET_STATUS_TX(SPIS_1_swStatusTx);
 292              		.loc 1 420 0
 293 0008 0649     		ldr	r1, .L26+4
 294 000a 074B     		ldr	r3, .L26+8
 421:Generated_Source\PSoC5/SPIS_1.c **** 
 422:Generated_Source\PSoC5/SPIS_1.c ****         SPIS_1_swStatusTx = 0u;
 295              		.loc 1 422 0
 296 000c 0024     		movs	r4, #0
 420:Generated_Source\PSoC5/SPIS_1.c **** 
 297              		.loc 1 420 0
 298 000e 1878     		ldrb	r0, [r3]	@ zero_extendqisi2
 299 0010 0B78     		ldrb	r3, [r1]	@ zero_extendqisi2
 300              	.LVL6:
 301              		.loc 1 422 0
 302 0012 0C70     		strb	r4, [r1]
 303              	.LBB36:
 304              	.LBB37:
 256:Generated_Source\PSoC5/SPIS_1.c ****     #endif /* SPIS_1_INTERNAL_TX_INT_ENABLED */
 305              		.loc 1 256 0
 306 0014 0549     		ldr	r1, .L26+12
 307              	.LBE37:
 308              	.LBE36:
 423:Generated_Source\PSoC5/SPIS_1.c **** 
 424:Generated_Source\PSoC5/SPIS_1.c ****         /* Enable Interrupts */
 425:Generated_Source\PSoC5/SPIS_1.c ****         SPIS_1_EnableTxInt();
 426:Generated_Source\PSoC5/SPIS_1.c **** 
 427:Generated_Source\PSoC5/SPIS_1.c ****     #else /* !SPIS_1_TX_SOFTWARE_BUF_ENABLED */
 428:Generated_Source\PSoC5/SPIS_1.c **** 
 429:Generated_Source\PSoC5/SPIS_1.c ****         tmpStatus = SPIS_1_TX_STATUS_REG;
 430:Generated_Source\PSoC5/SPIS_1.c **** 
ARM GAS  C:\Users\Joe\AppData\Local\Temp\ccVurVSh.s 			page 14


 431:Generated_Source\PSoC5/SPIS_1.c ****     #endif /* SPIS_1_TX_SOFTWARE_BUF_ENABLED */
 432:Generated_Source\PSoC5/SPIS_1.c **** 
 433:Generated_Source\PSoC5/SPIS_1.c ****     return(tmpStatus);
 309              		.loc 1 433 0
 310 0016 03F06103 		and	r3, r3, #97
 311              	.LVL7:
 312              	.LBB39:
 313              	.LBB38:
 256:Generated_Source\PSoC5/SPIS_1.c ****     #endif /* SPIS_1_INTERNAL_TX_INT_ENABLED */
 314              		.loc 1 256 0
 315 001a 0A60     		str	r2, [r1]
 316              	.LBE38:
 317              	.LBE39:
 434:Generated_Source\PSoC5/SPIS_1.c **** }
 318              		.loc 1 434 0
 319 001c 1843     		orrs	r0, r0, r3
 320 001e 10BD     		pop	{r4, pc}
 321              	.L27:
 322              		.align	2
 323              	.L26:
 324 0020 80E100E0 		.word	-536813184
 325 0024 00000000 		.word	SPIS_1_swStatusTx
 326 0028 67640040 		.word	1073767527
 327 002c 00E100E0 		.word	-536813312
 328              		.cfi_endproc
 329              	.LFE10:
 330              		.size	SPIS_1_ReadTxStatus, .-SPIS_1_ReadTxStatus
 331              		.section	.text.SPIS_1_ReadRxStatus,"ax",%progbits
 332              		.align	1
 333              		.global	SPIS_1_ReadRxStatus
 334              		.thumb
 335              		.thumb_func
 336              		.type	SPIS_1_ReadRxStatus, %function
 337              	SPIS_1_ReadRxStatus:
 338              	.LFB11:
 435:Generated_Source\PSoC5/SPIS_1.c **** 
 436:Generated_Source\PSoC5/SPIS_1.c **** 
 437:Generated_Source\PSoC5/SPIS_1.c **** /*******************************************************************************
 438:Generated_Source\PSoC5/SPIS_1.c **** * Function Name: SPIS_1_ReadRxStatus
 439:Generated_Source\PSoC5/SPIS_1.c **** ********************************************************************************
 440:Generated_Source\PSoC5/SPIS_1.c **** *
 441:Generated_Source\PSoC5/SPIS_1.c **** * Summary:
 442:Generated_Source\PSoC5/SPIS_1.c **** *  Read the Rx status register for the component.
 443:Generated_Source\PSoC5/SPIS_1.c **** *
 444:Generated_Source\PSoC5/SPIS_1.c **** * Parameters:
 445:Generated_Source\PSoC5/SPIS_1.c **** *  None.
 446:Generated_Source\PSoC5/SPIS_1.c **** *
 447:Generated_Source\PSoC5/SPIS_1.c **** * Return:
 448:Generated_Source\PSoC5/SPIS_1.c **** *  Contents of the Rx status register.
 449:Generated_Source\PSoC5/SPIS_1.c **** *
 450:Generated_Source\PSoC5/SPIS_1.c **** * Global variables:
 451:Generated_Source\PSoC5/SPIS_1.c **** *  SPIS_1_swStatusRx - used to store in software Rx status register,
 452:Generated_Source\PSoC5/SPIS_1.c **** *  modified every function call - resets to zero.
 453:Generated_Source\PSoC5/SPIS_1.c **** *
 454:Generated_Source\PSoC5/SPIS_1.c **** * Theory:
 455:Generated_Source\PSoC5/SPIS_1.c **** *  Allows the user and the API to read the Rx status register for error
 456:Generated_Source\PSoC5/SPIS_1.c **** *  detection and flow control.
ARM GAS  C:\Users\Joe\AppData\Local\Temp\ccVurVSh.s 			page 15


 457:Generated_Source\PSoC5/SPIS_1.c **** *
 458:Generated_Source\PSoC5/SPIS_1.c **** * Side Effects:
 459:Generated_Source\PSoC5/SPIS_1.c **** *  Clear Rx status register of the component.
 460:Generated_Source\PSoC5/SPIS_1.c **** *
 461:Generated_Source\PSoC5/SPIS_1.c **** * Reentrant:
 462:Generated_Source\PSoC5/SPIS_1.c **** *  No.
 463:Generated_Source\PSoC5/SPIS_1.c **** *
 464:Generated_Source\PSoC5/SPIS_1.c **** *******************************************************************************/
 465:Generated_Source\PSoC5/SPIS_1.c **** uint8 SPIS_1_ReadRxStatus(void) 
 466:Generated_Source\PSoC5/SPIS_1.c **** {
 339              		.loc 1 466 0
 340              		.cfi_startproc
 341              		@ args = 0, pretend = 0, frame = 0
 342              		@ frame_needed = 0, uses_anonymous_args = 0
 343 0000 10B5     		push	{r4, lr}
 344              		.cfi_def_cfa_offset 8
 345              		.cfi_offset 4, -8
 346              		.cfi_offset 14, -4
 347              	.LBB40:
 348              	.LBB41:
 331:Generated_Source\PSoC5/SPIS_1.c ****     #endif /* SPIS_1_INTERNAL_RX_INT_ENABLED */
 349              		.loc 1 331 0
 350 0002 074B     		ldr	r3, .L29
 351 0004 0122     		movs	r2, #1
 352 0006 1A60     		str	r2, [r3]
 353              	.LBE41:
 354              	.LBE40:
 467:Generated_Source\PSoC5/SPIS_1.c ****     uint8 tmpStatus;
 468:Generated_Source\PSoC5/SPIS_1.c **** 
 469:Generated_Source\PSoC5/SPIS_1.c ****     #if (SPIS_1_RX_SOFTWARE_BUF_ENABLED)
 470:Generated_Source\PSoC5/SPIS_1.c **** 
 471:Generated_Source\PSoC5/SPIS_1.c ****         SPIS_1_DisableRxInt();
 472:Generated_Source\PSoC5/SPIS_1.c **** 
 473:Generated_Source\PSoC5/SPIS_1.c ****         tmpStatus = SPIS_1_GET_STATUS_RX(SPIS_1_swStatusRx);
 355              		.loc 1 473 0
 356 0008 0649     		ldr	r1, .L29+4
 357 000a 074B     		ldr	r3, .L29+8
 474:Generated_Source\PSoC5/SPIS_1.c **** 
 475:Generated_Source\PSoC5/SPIS_1.c ****         SPIS_1_swStatusRx = 0u;
 358              		.loc 1 475 0
 359 000c 0024     		movs	r4, #0
 473:Generated_Source\PSoC5/SPIS_1.c **** 
 360              		.loc 1 473 0
 361 000e 1878     		ldrb	r0, [r3]	@ zero_extendqisi2
 362 0010 0B78     		ldrb	r3, [r1]	@ zero_extendqisi2
 363              	.LVL8:
 364              		.loc 1 475 0
 365 0012 0C70     		strb	r4, [r1]
 366              	.LBB42:
 367              	.LBB43:
 281:Generated_Source\PSoC5/SPIS_1.c ****     #endif /* SPIS_1_INTERNAL_RX_INT_ENABLED */
 368              		.loc 1 281 0
 369 0014 0549     		ldr	r1, .L29+12
 370              	.LBE43:
 371              	.LBE42:
 476:Generated_Source\PSoC5/SPIS_1.c **** 
 477:Generated_Source\PSoC5/SPIS_1.c ****         /* Enable Interrupts */
ARM GAS  C:\Users\Joe\AppData\Local\Temp\ccVurVSh.s 			page 16


 478:Generated_Source\PSoC5/SPIS_1.c ****         SPIS_1_EnableRxInt();
 479:Generated_Source\PSoC5/SPIS_1.c **** 
 480:Generated_Source\PSoC5/SPIS_1.c ****     #else /* !SPIS_1_RX_SOFTWARE_BUF_ENABLED */
 481:Generated_Source\PSoC5/SPIS_1.c **** 
 482:Generated_Source\PSoC5/SPIS_1.c ****         tmpStatus = SPIS_1_RX_STATUS_REG;
 483:Generated_Source\PSoC5/SPIS_1.c **** 
 484:Generated_Source\PSoC5/SPIS_1.c ****     #endif /* SPIS_1_RX_SOFTWARE_BUF_ENABLED */
 485:Generated_Source\PSoC5/SPIS_1.c **** 
 486:Generated_Source\PSoC5/SPIS_1.c ****     return(tmpStatus);
 372              		.loc 1 486 0
 373 0016 03F06103 		and	r3, r3, #97
 374              	.LVL9:
 375              	.LBB45:
 376              	.LBB44:
 281:Generated_Source\PSoC5/SPIS_1.c ****     #endif /* SPIS_1_INTERNAL_RX_INT_ENABLED */
 377              		.loc 1 281 0
 378 001a 0A60     		str	r2, [r1]
 379              	.LBE44:
 380              	.LBE45:
 487:Generated_Source\PSoC5/SPIS_1.c **** }
 381              		.loc 1 487 0
 382 001c 1843     		orrs	r0, r0, r3
 383 001e 10BD     		pop	{r4, pc}
 384              	.L30:
 385              		.align	2
 386              	.L29:
 387 0020 80E100E0 		.word	-536813184
 388 0024 00000000 		.word	SPIS_1_swStatusRx
 389 0028 64640040 		.word	1073767524
 390 002c 00E100E0 		.word	-536813312
 391              		.cfi_endproc
 392              	.LFE11:
 393              		.size	SPIS_1_ReadRxStatus, .-SPIS_1_ReadRxStatus
 394              		.section	.text.SPIS_1_WriteTxData,"ax",%progbits
 395              		.align	1
 396              		.global	SPIS_1_WriteTxData
 397              		.thumb
 398              		.thumb_func
 399              		.type	SPIS_1_WriteTxData, %function
 400              	SPIS_1_WriteTxData:
 401              	.LFB12:
 488:Generated_Source\PSoC5/SPIS_1.c **** 
 489:Generated_Source\PSoC5/SPIS_1.c **** 
 490:Generated_Source\PSoC5/SPIS_1.c **** /*******************************************************************************
 491:Generated_Source\PSoC5/SPIS_1.c **** * Function Name: SPIS_1_WriteTxData
 492:Generated_Source\PSoC5/SPIS_1.c **** ********************************************************************************
 493:Generated_Source\PSoC5/SPIS_1.c **** *
 494:Generated_Source\PSoC5/SPIS_1.c **** * Summary:
 495:Generated_Source\PSoC5/SPIS_1.c **** *  Write a byte of data to be sent across the SPI.
 496:Generated_Source\PSoC5/SPIS_1.c **** *
 497:Generated_Source\PSoC5/SPIS_1.c **** * Parameters:
 498:Generated_Source\PSoC5/SPIS_1.c **** *  txDataByte: The data value to send across the SPI.
 499:Generated_Source\PSoC5/SPIS_1.c **** *
 500:Generated_Source\PSoC5/SPIS_1.c **** * Return:
 501:Generated_Source\PSoC5/SPIS_1.c **** *  None.
 502:Generated_Source\PSoC5/SPIS_1.c **** *
 503:Generated_Source\PSoC5/SPIS_1.c **** * Global variables:
ARM GAS  C:\Users\Joe\AppData\Local\Temp\ccVurVSh.s 			page 17


 504:Generated_Source\PSoC5/SPIS_1.c **** *  SPIS_1_txBufferWrite - used for the account of the bytes which
 505:Generated_Source\PSoC5/SPIS_1.c **** *  have been written down in the TX software buffer, modified every function
 506:Generated_Source\PSoC5/SPIS_1.c **** *  call if TX Software Buffer is used.
 507:Generated_Source\PSoC5/SPIS_1.c **** *  SPIS_1_txBufferRead - used for the account of the bytes which
 508:Generated_Source\PSoC5/SPIS_1.c **** *  have been read from the TX software buffer.
 509:Generated_Source\PSoC5/SPIS_1.c **** *  SPIS_1_txBuffer[SPIS_1_TX_BUFFER_SIZE] - used to store
 510:Generated_Source\PSoC5/SPIS_1.c **** *  data to sending, modified every function call if TX Software Buffer is used.
 511:Generated_Source\PSoC5/SPIS_1.c **** *
 512:Generated_Source\PSoC5/SPIS_1.c **** * Theory:
 513:Generated_Source\PSoC5/SPIS_1.c **** *  Allows the user to transmit any byte of data in a single transfer.
 514:Generated_Source\PSoC5/SPIS_1.c **** *
 515:Generated_Source\PSoC5/SPIS_1.c **** * Side Effects:
 516:Generated_Source\PSoC5/SPIS_1.c **** *  If this function is called again before the previous byte is finished then
 517:Generated_Source\PSoC5/SPIS_1.c **** *  the next byte will be appended to the transfer with no time between
 518:Generated_Source\PSoC5/SPIS_1.c **** *  the byte transfers. Clear Tx status register of the component.
 519:Generated_Source\PSoC5/SPIS_1.c **** *
 520:Generated_Source\PSoC5/SPIS_1.c **** * Reentrant:
 521:Generated_Source\PSoC5/SPIS_1.c **** *  No.
 522:Generated_Source\PSoC5/SPIS_1.c **** *
 523:Generated_Source\PSoC5/SPIS_1.c **** *******************************************************************************/
 524:Generated_Source\PSoC5/SPIS_1.c **** void SPIS_1_WriteTxData(uint8 txData) 
 525:Generated_Source\PSoC5/SPIS_1.c **** {
 402              		.loc 1 525 0
 403              		.cfi_startproc
 404              		@ args = 0, pretend = 0, frame = 0
 405              		@ frame_needed = 0, uses_anonymous_args = 0
 406              	.LVL10:
 407 0000 70B5     		push	{r4, r5, r6, lr}
 408              		.cfi_def_cfa_offset 16
 409              		.cfi_offset 4, -16
 410              		.cfi_offset 5, -12
 411              		.cfi_offset 6, -8
 412              		.cfi_offset 14, -4
 526:Generated_Source\PSoC5/SPIS_1.c ****     #if(SPIS_1_TX_SOFTWARE_BUF_ENABLED)
 527:Generated_Source\PSoC5/SPIS_1.c **** 
 528:Generated_Source\PSoC5/SPIS_1.c ****         uint8 tempStatus;
 529:Generated_Source\PSoC5/SPIS_1.c ****         uint8 tmpTxBufferRead;
 530:Generated_Source\PSoC5/SPIS_1.c **** 
 531:Generated_Source\PSoC5/SPIS_1.c ****         /* Block if buffer is full, so we don't overwrite. */
 532:Generated_Source\PSoC5/SPIS_1.c ****         do
 533:Generated_Source\PSoC5/SPIS_1.c ****         {
 534:Generated_Source\PSoC5/SPIS_1.c ****             tmpTxBufferRead = SPIS_1_txBufferRead;
 535:Generated_Source\PSoC5/SPIS_1.c ****             if (0u == tmpTxBufferRead)
 536:Generated_Source\PSoC5/SPIS_1.c ****             {
 537:Generated_Source\PSoC5/SPIS_1.c ****                 tmpTxBufferRead = SPIS_1_TX_BUFFER_SIZE - 1u;
 538:Generated_Source\PSoC5/SPIS_1.c ****             }
 539:Generated_Source\PSoC5/SPIS_1.c ****             else
 540:Generated_Source\PSoC5/SPIS_1.c ****             {
 541:Generated_Source\PSoC5/SPIS_1.c ****                 tmpTxBufferRead--;
 542:Generated_Source\PSoC5/SPIS_1.c ****             }
 543:Generated_Source\PSoC5/SPIS_1.c **** 
 544:Generated_Source\PSoC5/SPIS_1.c ****         }
 545:Generated_Source\PSoC5/SPIS_1.c ****         while(tmpTxBufferRead == SPIS_1_txBufferWrite);
 413              		.loc 1 545 0
 414 0002 2649     		ldr	r1, .L45
 534:Generated_Source\PSoC5/SPIS_1.c ****             if (0u == tmpTxBufferRead)
 415              		.loc 1 534 0
ARM GAS  C:\Users\Joe\AppData\Local\Temp\ccVurVSh.s 			page 18


 416 0004 264E     		ldr	r6, .L45+4
 417              	.L33:
 418 0006 3278     		ldrb	r2, [r6]	@ zero_extendqisi2
 419              	.LVL11:
 420 0008 254C     		ldr	r4, .L45+4
 535:Generated_Source\PSoC5/SPIS_1.c ****             {
 421              		.loc 1 535 0
 422 000a 02F0FF03 		and	r3, r2, #255
 423 000e 12B1     		cbz	r2, .L39
 541:Generated_Source\PSoC5/SPIS_1.c ****             }
 424              		.loc 1 541 0
 425 0010 013B     		subs	r3, r3, #1
 426 0012 DBB2     		uxtb	r3, r3
 427              	.LVL12:
 428 0014 00E0     		b	.L32
 429              	.LVL13:
 430              	.L39:
 537:Generated_Source\PSoC5/SPIS_1.c ****             }
 431              		.loc 1 537 0
 432 0016 0723     		movs	r3, #7
 433              	.LVL14:
 434              	.L32:
 435              		.loc 1 545 0
 436 0018 0A78     		ldrb	r2, [r1]	@ zero_extendqisi2
 437 001a 204D     		ldr	r5, .L45
 438 001c 9342     		cmp	r3, r2
 439 001e 2B46     		mov	r3, r5
 440              	.LVL15:
 441 0020 F1D0     		beq	.L33
 442              	.LBB46:
 443              	.LBB47:
 306:Generated_Source\PSoC5/SPIS_1.c ****     #endif /* SPIS_1_INTERNAL_TX_INT_ENABLED */
 444              		.loc 1 306 0
 445 0022 204A     		ldr	r2, .L45+8
 446 0024 0221     		movs	r1, #2
 447 0026 1160     		str	r1, [r2]
 448              	.LBE47:
 449              	.LBE46:
 546:Generated_Source\PSoC5/SPIS_1.c **** 
 547:Generated_Source\PSoC5/SPIS_1.c ****         /* Disable Interrupt to protect variables that could change on interrupt. */
 548:Generated_Source\PSoC5/SPIS_1.c ****         SPIS_1_DisableTxInt();
 549:Generated_Source\PSoC5/SPIS_1.c **** 
 550:Generated_Source\PSoC5/SPIS_1.c ****         tempStatus = SPIS_1_GET_STATUS_TX(SPIS_1_swStatusTx);
 450              		.loc 1 550 0
 451 0028 1F4A     		ldr	r2, .L45+12
 452 002a 2049     		ldr	r1, .L45+16
 453 002c 1678     		ldrb	r6, [r2]	@ zero_extendqisi2
 454 002e 0A78     		ldrb	r2, [r1]	@ zero_extendqisi2
 455 0030 02F06102 		and	r2, r2, #97
 456 0034 3243     		orrs	r2, r2, r6
 457              	.LVL16:
 551:Generated_Source\PSoC5/SPIS_1.c ****         SPIS_1_swStatusTx = tempStatus;
 458              		.loc 1 551 0
 459 0036 0A70     		strb	r2, [r1]
 552:Generated_Source\PSoC5/SPIS_1.c **** 
 553:Generated_Source\PSoC5/SPIS_1.c ****         if((SPIS_1_txBufferRead == SPIS_1_txBufferWrite) &&
 460              		.loc 1 553 0
ARM GAS  C:\Users\Joe\AppData\Local\Temp\ccVurVSh.s 			page 19


 461 0038 2678     		ldrb	r6, [r4]	@ zero_extendqisi2
 462 003a 2A78     		ldrb	r2, [r5]	@ zero_extendqisi2
 463              	.LVL17:
 464 003c 9642     		cmp	r6, r2
 465 003e 05D1     		bne	.L34
 554:Generated_Source\PSoC5/SPIS_1.c ****             (0u != (SPIS_1_swStatusTx & SPIS_1_STS_TX_FIFO_NOT_FULL)))
 466              		.loc 1 554 0 discriminator 1
 467 0040 0A78     		ldrb	r2, [r1]	@ zero_extendqisi2
 553:Generated_Source\PSoC5/SPIS_1.c ****             (0u != (SPIS_1_swStatusTx & SPIS_1_STS_TX_FIFO_NOT_FULL)))
 468              		.loc 1 553 0 discriminator 1
 469 0042 9207     		lsls	r2, r2, #30
 470 0044 02D5     		bpl	.L34
 555:Generated_Source\PSoC5/SPIS_1.c ****         {
 556:Generated_Source\PSoC5/SPIS_1.c ****             /* Put data element into the TX FIFO */
 557:Generated_Source\PSoC5/SPIS_1.c ****             CY_SET_REG8(SPIS_1_TXDATA_PTR, txData);
 471              		.loc 1 557 0
 472 0046 1A4B     		ldr	r3, .L45+20
 473 0048 1870     		strb	r0, [r3]
 474              	.LVL18:
 475 004a 23E0     		b	.L35
 476              	.LVL19:
 477              	.L34:
 558:Generated_Source\PSoC5/SPIS_1.c ****         }
 559:Generated_Source\PSoC5/SPIS_1.c ****         else
 560:Generated_Source\PSoC5/SPIS_1.c ****         {
 561:Generated_Source\PSoC5/SPIS_1.c ****             /* Put data element into the software buffer */
 562:Generated_Source\PSoC5/SPIS_1.c ****             SPIS_1_txBufferWrite++;
 478              		.loc 1 562 0
 479 004c 1A78     		ldrb	r2, [r3]	@ zero_extendqisi2
 480 004e 0132     		adds	r2, r2, #1
 481 0050 D2B2     		uxtb	r2, r2
 482 0052 1A70     		strb	r2, [r3]
 483              	.LVL20:
 563:Generated_Source\PSoC5/SPIS_1.c ****             if(SPIS_1_txBufferWrite >= SPIS_1_TX_BUFFER_SIZE)
 484              		.loc 1 563 0
 485 0054 1A78     		ldrb	r2, [r3]	@ zero_extendqisi2
 486 0056 072A     		cmp	r2, #7
 564:Generated_Source\PSoC5/SPIS_1.c ****             {
 565:Generated_Source\PSoC5/SPIS_1.c ****                 SPIS_1_txBufferWrite = 0u;
 487              		.loc 1 565 0
 488 0058 82BF     		ittt	hi
 489 005a 104A     		ldrhi	r2, .L45
 490 005c 0021     		movhi	r1, #0
 491 005e 1170     		strbhi	r1, [r2]
 566:Generated_Source\PSoC5/SPIS_1.c ****             }
 567:Generated_Source\PSoC5/SPIS_1.c **** 
 568:Generated_Source\PSoC5/SPIS_1.c ****             if(SPIS_1_txBufferWrite == SPIS_1_txBufferRead)
 492              		.loc 1 568 0
 493 0060 1D78     		ldrb	r5, [r3]	@ zero_extendqisi2
 494 0062 2278     		ldrb	r2, [r4]	@ zero_extendqisi2
 495 0064 0E49     		ldr	r1, .L45+4
 496 0066 9542     		cmp	r5, r2
 497 0068 0BD1     		bne	.L37
 569:Generated_Source\PSoC5/SPIS_1.c ****             {
 570:Generated_Source\PSoC5/SPIS_1.c ****                 SPIS_1_txBufferRead++;
 498              		.loc 1 570 0
 499 006a 0A78     		ldrb	r2, [r1]	@ zero_extendqisi2
ARM GAS  C:\Users\Joe\AppData\Local\Temp\ccVurVSh.s 			page 20


 500 006c 0132     		adds	r2, r2, #1
 501 006e D2B2     		uxtb	r2, r2
 502 0070 0A70     		strb	r2, [r1]
 571:Generated_Source\PSoC5/SPIS_1.c ****                 if(SPIS_1_txBufferRead >= SPIS_1_RX_BUFFER_SIZE)
 503              		.loc 1 571 0
 504 0072 0A78     		ldrb	r2, [r1]	@ zero_extendqisi2
 505 0074 072A     		cmp	r2, #7
 572:Generated_Source\PSoC5/SPIS_1.c ****                 {
 573:Generated_Source\PSoC5/SPIS_1.c ****                     SPIS_1_txBufferRead = 0u;
 506              		.loc 1 573 0
 507 0076 84BF     		itt	hi
 508 0078 0022     		movhi	r2, #0
 509 007a 0A70     		strbhi	r2, [r1]
 574:Generated_Source\PSoC5/SPIS_1.c ****                 }
 575:Generated_Source\PSoC5/SPIS_1.c ****                 SPIS_1_txBufferFull = 1u;
 510              		.loc 1 575 0
 511 007c 0D4A     		ldr	r2, .L45+24
 512 007e 0121     		movs	r1, #1
 513 0080 1170     		strb	r1, [r2]
 514              	.L37:
 576:Generated_Source\PSoC5/SPIS_1.c ****             }
 577:Generated_Source\PSoC5/SPIS_1.c **** 
 578:Generated_Source\PSoC5/SPIS_1.c ****             SPIS_1_txBuffer[SPIS_1_txBufferWrite] = txData;
 515              		.loc 1 578 0
 516 0082 1B78     		ldrb	r3, [r3]	@ zero_extendqisi2
 517 0084 0C4A     		ldr	r2, .L45+28
 518 0086 DBB2     		uxtb	r3, r3
 519 0088 D054     		strb	r0, [r2, r3]
 579:Generated_Source\PSoC5/SPIS_1.c **** 
 580:Generated_Source\PSoC5/SPIS_1.c ****             SPIS_1_TX_STATUS_MASK_REG |= SPIS_1_STS_TX_FIFO_NOT_FULL;
 520              		.loc 1 580 0
 521 008a 0C4A     		ldr	r2, .L45+32
 522 008c 1378     		ldrb	r3, [r2]	@ zero_extendqisi2
 523 008e 43F00203 		orr	r3, r3, #2
 524 0092 1370     		strb	r3, [r2]
 525              	.L35:
 526              	.LBB48:
 527              	.LBB49:
 256:Generated_Source\PSoC5/SPIS_1.c ****     #endif /* SPIS_1_INTERNAL_TX_INT_ENABLED */
 528              		.loc 1 256 0
 529 0094 0A4B     		ldr	r3, .L45+36
 530 0096 0222     		movs	r2, #2
 531 0098 1A60     		str	r2, [r3]
 532 009a 70BD     		pop	{r4, r5, r6, pc}
 533              	.L46:
 534              		.align	2
 535              	.L45:
 536 009c 00000000 		.word	SPIS_1_txBufferWrite
 537 00a0 00000000 		.word	SPIS_1_txBufferRead
 538 00a4 80E100E0 		.word	-536813184
 539 00a8 67640040 		.word	1073767527
 540 00ac 00000000 		.word	SPIS_1_swStatusTx
 541 00b0 42640040 		.word	1073767490
 542 00b4 00000000 		.word	SPIS_1_txBufferFull
 543 00b8 00000000 		.word	SPIS_1_txBuffer
 544 00bc 87640040 		.word	1073767559
 545 00c0 00E100E0 		.word	-536813312
ARM GAS  C:\Users\Joe\AppData\Local\Temp\ccVurVSh.s 			page 21


 546              	.LBE49:
 547              	.LBE48:
 548              		.cfi_endproc
 549              	.LFE12:
 550              		.size	SPIS_1_WriteTxData, .-SPIS_1_WriteTxData
 551              		.section	.text.SPIS_1_WriteTxDataZero,"ax",%progbits
 552              		.align	1
 553              		.global	SPIS_1_WriteTxDataZero
 554              		.thumb
 555              		.thumb_func
 556              		.type	SPIS_1_WriteTxDataZero, %function
 557              	SPIS_1_WriteTxDataZero:
 558              	.LFB13:
 581:Generated_Source\PSoC5/SPIS_1.c ****         }
 582:Generated_Source\PSoC5/SPIS_1.c **** 
 583:Generated_Source\PSoC5/SPIS_1.c ****         /* Enable Interrupt. */
 584:Generated_Source\PSoC5/SPIS_1.c ****         SPIS_1_EnableTxInt();
 585:Generated_Source\PSoC5/SPIS_1.c **** 
 586:Generated_Source\PSoC5/SPIS_1.c ****     #else /* !SPIS_1_TX_SOFTWARE_BUF_ENABLED */
 587:Generated_Source\PSoC5/SPIS_1.c ****         /* Wait until TX FIFO has a place */
 588:Generated_Source\PSoC5/SPIS_1.c ****         while(0u == (SPIS_1_TX_STATUS_REG & SPIS_1_STS_TX_FIFO_NOT_FULL))
 589:Generated_Source\PSoC5/SPIS_1.c ****         {
 590:Generated_Source\PSoC5/SPIS_1.c ****         }
 591:Generated_Source\PSoC5/SPIS_1.c **** 
 592:Generated_Source\PSoC5/SPIS_1.c ****         /* Put data element into the TX FIFO */
 593:Generated_Source\PSoC5/SPIS_1.c ****         CY_SET_REG8(SPIS_1_TXDATA_PTR, txData);
 594:Generated_Source\PSoC5/SPIS_1.c ****         
 595:Generated_Source\PSoC5/SPIS_1.c ****     #endif /* SPIS_1_TX_SOFTWARE_BUF_ENABLED */
 596:Generated_Source\PSoC5/SPIS_1.c **** }
 597:Generated_Source\PSoC5/SPIS_1.c **** 
 598:Generated_Source\PSoC5/SPIS_1.c **** #if(SPIS_1_MODE_USE_ZERO != 0u)
 599:Generated_Source\PSoC5/SPIS_1.c **** 
 600:Generated_Source\PSoC5/SPIS_1.c ****     /*******************************************************************************
 601:Generated_Source\PSoC5/SPIS_1.c ****     * Function Name: SPIS_1_WriteTxDataZero
 602:Generated_Source\PSoC5/SPIS_1.c ****     ********************************************************************************
 603:Generated_Source\PSoC5/SPIS_1.c ****     *
 604:Generated_Source\PSoC5/SPIS_1.c ****     * Summary:
 605:Generated_Source\PSoC5/SPIS_1.c ****     *  Write a byte zero of data to be sent across the SPI. This must be used in
 606:Generated_Source\PSoC5/SPIS_1.c ****     *  Mode 00 and 01 if the FIFO is empty and data is not being sent.
 607:Generated_Source\PSoC5/SPIS_1.c ****     *
 608:Generated_Source\PSoC5/SPIS_1.c ****     * Parameters:
 609:Generated_Source\PSoC5/SPIS_1.c ****     *  txDataByte: The data value to send across the SPI.
 610:Generated_Source\PSoC5/SPIS_1.c ****     *
 611:Generated_Source\PSoC5/SPIS_1.c ****     * Return:
 612:Generated_Source\PSoC5/SPIS_1.c ****     *  None.
 613:Generated_Source\PSoC5/SPIS_1.c ****     *
 614:Generated_Source\PSoC5/SPIS_1.c ****     * Theory:
 615:Generated_Source\PSoC5/SPIS_1.c ****     *  Allows the user to transmit any byte of data in a single transfer. Clear
 616:Generated_Source\PSoC5/SPIS_1.c ****     *  status register of the component.
 617:Generated_Source\PSoC5/SPIS_1.c ****     *
 618:Generated_Source\PSoC5/SPIS_1.c ****     *******************************************************************************/
 619:Generated_Source\PSoC5/SPIS_1.c ****     void SPIS_1_WriteTxDataZero(uint8 txDataByte)
 620:Generated_Source\PSoC5/SPIS_1.c ****                                         
 621:Generated_Source\PSoC5/SPIS_1.c ****     {
 559              		.loc 1 621 0
 560              		.cfi_startproc
 561              		@ args = 0, pretend = 0, frame = 0
ARM GAS  C:\Users\Joe\AppData\Local\Temp\ccVurVSh.s 			page 22


 562              		@ frame_needed = 0, uses_anonymous_args = 0
 563              		@ link register save eliminated.
 564              	.LVL21:
 622:Generated_Source\PSoC5/SPIS_1.c ****         CY_SET_REG8(SPIS_1_TXDATA_ZERO_PTR, txDataByte);
 565              		.loc 1 622 0
 566 0000 014B     		ldr	r3, .L48
 567 0002 1870     		strb	r0, [r3]
 568 0004 7047     		bx	lr
 569              	.L49:
 570 0006 00BF     		.align	2
 571              	.L48:
 572 0008 02640040 		.word	1073767426
 573              		.cfi_endproc
 574              	.LFE13:
 575              		.size	SPIS_1_WriteTxDataZero, .-SPIS_1_WriteTxDataZero
 576              		.section	.text.SPIS_1_ReadRxData,"ax",%progbits
 577              		.align	1
 578              		.global	SPIS_1_ReadRxData
 579              		.thumb
 580              		.thumb_func
 581              		.type	SPIS_1_ReadRxData, %function
 582              	SPIS_1_ReadRxData:
 583              	.LFB14:
 623:Generated_Source\PSoC5/SPIS_1.c ****     }
 624:Generated_Source\PSoC5/SPIS_1.c **** 
 625:Generated_Source\PSoC5/SPIS_1.c **** #endif /* (SPIS_1_MODE_USE_ZERO != 0u) */
 626:Generated_Source\PSoC5/SPIS_1.c **** 
 627:Generated_Source\PSoC5/SPIS_1.c **** 
 628:Generated_Source\PSoC5/SPIS_1.c **** /*******************************************************************************
 629:Generated_Source\PSoC5/SPIS_1.c **** * Function Name: SPIS_1_ReadRxData
 630:Generated_Source\PSoC5/SPIS_1.c **** ********************************************************************************
 631:Generated_Source\PSoC5/SPIS_1.c **** *
 632:Generated_Source\PSoC5/SPIS_1.c **** * Summary:
 633:Generated_Source\PSoC5/SPIS_1.c **** *  Read the next byte of data received across the SPI.
 634:Generated_Source\PSoC5/SPIS_1.c **** *
 635:Generated_Source\PSoC5/SPIS_1.c **** * Parameters:
 636:Generated_Source\PSoC5/SPIS_1.c **** *  None.
 637:Generated_Source\PSoC5/SPIS_1.c **** *
 638:Generated_Source\PSoC5/SPIS_1.c **** * Return:
 639:Generated_Source\PSoC5/SPIS_1.c **** *  The next byte of data read from the FIFO.
 640:Generated_Source\PSoC5/SPIS_1.c **** *
 641:Generated_Source\PSoC5/SPIS_1.c **** * Global variables:
 642:Generated_Source\PSoC5/SPIS_1.c **** *  SPIS_1_rxBufferWrite - used for the account of the bytes which
 643:Generated_Source\PSoC5/SPIS_1.c **** *  have been written down in the RX software buffer.
 644:Generated_Source\PSoC5/SPIS_1.c **** *  SPIS_1_rxBufferRead - used for the account of the bytes which
 645:Generated_Source\PSoC5/SPIS_1.c **** *  have been read from the RX software buffer, modified every function
 646:Generated_Source\PSoC5/SPIS_1.c **** *  call if RX Software Buffer is used.
 647:Generated_Source\PSoC5/SPIS_1.c **** *  SPIS_1_rxBuffer[SPIS_1_RX_BUFFER_SIZE] - used to store
 648:Generated_Source\PSoC5/SPIS_1.c **** *  received data.
 649:Generated_Source\PSoC5/SPIS_1.c **** *
 650:Generated_Source\PSoC5/SPIS_1.c **** * Theory:
 651:Generated_Source\PSoC5/SPIS_1.c **** *  Allows the user to read a byte of data received.
 652:Generated_Source\PSoC5/SPIS_1.c **** *
 653:Generated_Source\PSoC5/SPIS_1.c **** * Side Effects:
 654:Generated_Source\PSoC5/SPIS_1.c **** *  Will return invalid data if the FIFO is empty.  User should poll for FIFO
 655:Generated_Source\PSoC5/SPIS_1.c **** *  empty status before calling Read function.
 656:Generated_Source\PSoC5/SPIS_1.c **** *
ARM GAS  C:\Users\Joe\AppData\Local\Temp\ccVurVSh.s 			page 23


 657:Generated_Source\PSoC5/SPIS_1.c **** * Reentrant:
 658:Generated_Source\PSoC5/SPIS_1.c **** *  No.
 659:Generated_Source\PSoC5/SPIS_1.c **** *
 660:Generated_Source\PSoC5/SPIS_1.c **** *******************************************************************************/
 661:Generated_Source\PSoC5/SPIS_1.c **** uint8 SPIS_1_ReadRxData(void) 
 662:Generated_Source\PSoC5/SPIS_1.c **** {
 584              		.loc 1 662 0
 585              		.cfi_startproc
 586              		@ args = 0, pretend = 0, frame = 0
 587              		@ frame_needed = 0, uses_anonymous_args = 0
 588              		@ link register save eliminated.
 589              	.LBB50:
 590              	.LBB51:
 331:Generated_Source\PSoC5/SPIS_1.c ****     #endif /* SPIS_1_INTERNAL_RX_INT_ENABLED */
 591              		.loc 1 331 0
 592 0000 104B     		ldr	r3, .L55
 593 0002 0122     		movs	r2, #1
 594 0004 1A60     		str	r2, [r3]
 595              	.LBE51:
 596              	.LBE50:
 663:Generated_Source\PSoC5/SPIS_1.c ****     uint8 rxData;
 664:Generated_Source\PSoC5/SPIS_1.c **** 
 665:Generated_Source\PSoC5/SPIS_1.c ****     #if(SPIS_1_RX_SOFTWARE_BUF_ENABLED)
 666:Generated_Source\PSoC5/SPIS_1.c **** 
 667:Generated_Source\PSoC5/SPIS_1.c ****         /* Disable Interrupt to protect variables that could change on interrupt. */
 668:Generated_Source\PSoC5/SPIS_1.c ****         SPIS_1_DisableRxInt();
 669:Generated_Source\PSoC5/SPIS_1.c **** 
 670:Generated_Source\PSoC5/SPIS_1.c ****         if(SPIS_1_rxBufferRead != SPIS_1_rxBufferWrite)
 597              		.loc 1 670 0
 598 0006 104B     		ldr	r3, .L55+4
 599 0008 104A     		ldr	r2, .L55+8
 600 000a 1978     		ldrb	r1, [r3]	@ zero_extendqisi2
 601 000c 1278     		ldrb	r2, [r2]	@ zero_extendqisi2
 602 000e 9142     		cmp	r1, r2
 603 0010 0FD0     		beq	.L52
 671:Generated_Source\PSoC5/SPIS_1.c ****         {
 672:Generated_Source\PSoC5/SPIS_1.c ****             if(SPIS_1_rxBufferFull == 0u)
 604              		.loc 1 672 0
 605 0012 0F4A     		ldr	r2, .L55+12
 606 0014 1178     		ldrb	r1, [r2]	@ zero_extendqisi2
 607 0016 01F0FF00 		and	r0, r1, #255
 608 001a 41B9     		cbnz	r1, .L53
 673:Generated_Source\PSoC5/SPIS_1.c ****             {
 674:Generated_Source\PSoC5/SPIS_1.c ****                 SPIS_1_rxBufferRead++;
 609              		.loc 1 674 0
 610 001c 1A78     		ldrb	r2, [r3]	@ zero_extendqisi2
 611 001e 0132     		adds	r2, r2, #1
 612 0020 D2B2     		uxtb	r2, r2
 613 0022 1A70     		strb	r2, [r3]
 675:Generated_Source\PSoC5/SPIS_1.c ****                 if(SPIS_1_rxBufferRead >= SPIS_1_RX_BUFFER_SIZE)
 614              		.loc 1 675 0
 615 0024 1A78     		ldrb	r2, [r3]	@ zero_extendqisi2
 616 0026 072A     		cmp	r2, #7
 617 0028 03D9     		bls	.L52
 676:Generated_Source\PSoC5/SPIS_1.c ****                 {
 677:Generated_Source\PSoC5/SPIS_1.c ****                     SPIS_1_rxBufferRead = 0u;
 618              		.loc 1 677 0
ARM GAS  C:\Users\Joe\AppData\Local\Temp\ccVurVSh.s 			page 24


 619 002a 1870     		strb	r0, [r3]
 620 002c 01E0     		b	.L52
 621              	.L53:
 678:Generated_Source\PSoC5/SPIS_1.c ****                 }
 679:Generated_Source\PSoC5/SPIS_1.c ****             }
 680:Generated_Source\PSoC5/SPIS_1.c ****             else
 681:Generated_Source\PSoC5/SPIS_1.c ****             {
 682:Generated_Source\PSoC5/SPIS_1.c ****                 SPIS_1_rxBufferFull = 0u;
 622              		.loc 1 682 0
 623 002e 0021     		movs	r1, #0
 624 0030 1170     		strb	r1, [r2]
 625              	.L52:
 683:Generated_Source\PSoC5/SPIS_1.c ****             }
 684:Generated_Source\PSoC5/SPIS_1.c ****         }
 685:Generated_Source\PSoC5/SPIS_1.c **** 
 686:Generated_Source\PSoC5/SPIS_1.c ****         rxData = SPIS_1_rxBuffer[SPIS_1_rxBufferRead];
 626              		.loc 1 686 0
 627 0032 1B78     		ldrb	r3, [r3]	@ zero_extendqisi2
 628 0034 074A     		ldr	r2, .L55+16
 629 0036 DBB2     		uxtb	r3, r3
 630 0038 D05C     		ldrb	r0, [r2, r3]	@ zero_extendqisi2
 631              	.LVL22:
 632              	.LBB52:
 633              	.LBB53:
 281:Generated_Source\PSoC5/SPIS_1.c ****     #endif /* SPIS_1_INTERNAL_RX_INT_ENABLED */
 634              		.loc 1 281 0
 635 003a 074B     		ldr	r3, .L55+20
 636 003c 0122     		movs	r2, #1
 637 003e 1A60     		str	r2, [r3]
 638              	.LBE53:
 639              	.LBE52:
 687:Generated_Source\PSoC5/SPIS_1.c **** 
 688:Generated_Source\PSoC5/SPIS_1.c ****         /* Enable Interrupt. */
 689:Generated_Source\PSoC5/SPIS_1.c ****         SPIS_1_EnableRxInt();
 690:Generated_Source\PSoC5/SPIS_1.c **** 
 691:Generated_Source\PSoC5/SPIS_1.c ****     #else /* !SPIS_1_RX_SOFTWARE_BUF_ENABLED */
 692:Generated_Source\PSoC5/SPIS_1.c **** 
 693:Generated_Source\PSoC5/SPIS_1.c ****         rxData = CY_GET_REG8(SPIS_1_RXDATA_PTR);
 694:Generated_Source\PSoC5/SPIS_1.c **** 
 695:Generated_Source\PSoC5/SPIS_1.c ****     #endif /* SPIS_1_RX_SOFTWARE_BUF_ENABLED */
 696:Generated_Source\PSoC5/SPIS_1.c **** 
 697:Generated_Source\PSoC5/SPIS_1.c ****     return (rxData);
 698:Generated_Source\PSoC5/SPIS_1.c **** 
 699:Generated_Source\PSoC5/SPIS_1.c **** }
 640              		.loc 1 699 0
 641 0040 7047     		bx	lr
 642              	.L56:
 643 0042 00BF     		.align	2
 644              	.L55:
 645 0044 80E100E0 		.word	-536813184
 646 0048 00000000 		.word	SPIS_1_rxBufferRead
 647 004c 00000000 		.word	SPIS_1_rxBufferWrite
 648 0050 00000000 		.word	SPIS_1_rxBufferFull
 649 0054 00000000 		.word	SPIS_1_rxBuffer
 650 0058 00E100E0 		.word	-536813312
 651              		.cfi_endproc
 652              	.LFE14:
ARM GAS  C:\Users\Joe\AppData\Local\Temp\ccVurVSh.s 			page 25


 653              		.size	SPIS_1_ReadRxData, .-SPIS_1_ReadRxData
 654              		.section	.text.SPIS_1_GetRxBufferSize,"ax",%progbits
 655              		.align	1
 656              		.global	SPIS_1_GetRxBufferSize
 657              		.thumb
 658              		.thumb_func
 659              		.type	SPIS_1_GetRxBufferSize, %function
 660              	SPIS_1_GetRxBufferSize:
 661              	.LFB15:
 700:Generated_Source\PSoC5/SPIS_1.c **** 
 701:Generated_Source\PSoC5/SPIS_1.c **** 
 702:Generated_Source\PSoC5/SPIS_1.c **** /*******************************************************************************
 703:Generated_Source\PSoC5/SPIS_1.c **** * Function Name: SPIS_1_GetRxBufferSize
 704:Generated_Source\PSoC5/SPIS_1.c **** ********************************************************************************
 705:Generated_Source\PSoC5/SPIS_1.c **** *
 706:Generated_Source\PSoC5/SPIS_1.c **** * Summary:
 707:Generated_Source\PSoC5/SPIS_1.c **** *  Returns the number of bytes/words of data currently held in the RX buffer.
 708:Generated_Source\PSoC5/SPIS_1.c **** *  If RX Software Buffer not used then function return 0 if FIFO empty or 1 if
 709:Generated_Source\PSoC5/SPIS_1.c **** *  FIFO not empty. In another case function return size of RX Software Buffer.
 710:Generated_Source\PSoC5/SPIS_1.c **** *
 711:Generated_Source\PSoC5/SPIS_1.c **** * Parameters:
 712:Generated_Source\PSoC5/SPIS_1.c **** *  None.
 713:Generated_Source\PSoC5/SPIS_1.c **** *
 714:Generated_Source\PSoC5/SPIS_1.c **** * Return:
 715:Generated_Source\PSoC5/SPIS_1.c **** *  Integer count of the number of bytes/words in the RX buffer.
 716:Generated_Source\PSoC5/SPIS_1.c **** *
 717:Generated_Source\PSoC5/SPIS_1.c **** * Global variables:
 718:Generated_Source\PSoC5/SPIS_1.c **** *  SPIS_1_rxBufferWrite - used for the account of the bytes which
 719:Generated_Source\PSoC5/SPIS_1.c **** *  have been written down in the RX software buffer.
 720:Generated_Source\PSoC5/SPIS_1.c **** *  SPIS_1_rxBufferRead - used for the account of the bytes which
 721:Generated_Source\PSoC5/SPIS_1.c **** *  have been read from the RX software buffer.
 722:Generated_Source\PSoC5/SPIS_1.c **** *
 723:Generated_Source\PSoC5/SPIS_1.c **** * Theory:
 724:Generated_Source\PSoC5/SPIS_1.c **** *  Allows the user to find out how full the RX Buffer is.
 725:Generated_Source\PSoC5/SPIS_1.c **** *
 726:Generated_Source\PSoC5/SPIS_1.c **** *******************************************************************************/
 727:Generated_Source\PSoC5/SPIS_1.c **** uint8 SPIS_1_GetRxBufferSize(void) 
 728:Generated_Source\PSoC5/SPIS_1.c **** {
 662              		.loc 1 728 0
 663              		.cfi_startproc
 664              		@ args = 0, pretend = 0, frame = 0
 665              		@ frame_needed = 0, uses_anonymous_args = 0
 666              		@ link register save eliminated.
 667              	.LBB54:
 668              	.LBB55:
 331:Generated_Source\PSoC5/SPIS_1.c ****     #endif /* SPIS_1_INTERNAL_RX_INT_ENABLED */
 669              		.loc 1 331 0
 670 0000 0D4B     		ldr	r3, .L62
 671 0002 0122     		movs	r2, #1
 672 0004 1A60     		str	r2, [r3]
 673              	.LBE55:
 674              	.LBE54:
 729:Generated_Source\PSoC5/SPIS_1.c ****     uint8 size;
 730:Generated_Source\PSoC5/SPIS_1.c **** 
 731:Generated_Source\PSoC5/SPIS_1.c ****     #if(SPIS_1_RX_SOFTWARE_BUF_ENABLED)
 732:Generated_Source\PSoC5/SPIS_1.c **** 
 733:Generated_Source\PSoC5/SPIS_1.c ****         /* Disable Interrupt to protect variables that could change on interrupt. */
ARM GAS  C:\Users\Joe\AppData\Local\Temp\ccVurVSh.s 			page 26


 734:Generated_Source\PSoC5/SPIS_1.c ****         SPIS_1_DisableRxInt();
 735:Generated_Source\PSoC5/SPIS_1.c **** 
 736:Generated_Source\PSoC5/SPIS_1.c ****         if(SPIS_1_rxBufferRead == SPIS_1_rxBufferWrite)
 675              		.loc 1 736 0
 676 0006 0D4A     		ldr	r2, .L62+4
 677 0008 0D4B     		ldr	r3, .L62+8
 678 000a 1078     		ldrb	r0, [r2]	@ zero_extendqisi2
 679 000c 1978     		ldrb	r1, [r3]	@ zero_extendqisi2
 680 000e 8842     		cmp	r0, r1
 681 0010 0DD0     		beq	.L60
 737:Generated_Source\PSoC5/SPIS_1.c ****         {
 738:Generated_Source\PSoC5/SPIS_1.c ****             size = 0u; /* No data in RX buffer */
 739:Generated_Source\PSoC5/SPIS_1.c ****         }
 740:Generated_Source\PSoC5/SPIS_1.c ****         else if(SPIS_1_rxBufferRead < SPIS_1_rxBufferWrite)
 682              		.loc 1 740 0
 683 0012 1078     		ldrb	r0, [r2]	@ zero_extendqisi2
 684 0014 1978     		ldrb	r1, [r3]	@ zero_extendqisi2
 685 0016 8842     		cmp	r0, r1
 741:Generated_Source\PSoC5/SPIS_1.c ****         {
 742:Generated_Source\PSoC5/SPIS_1.c ****             size = (SPIS_1_rxBufferWrite - SPIS_1_rxBufferRead);
 743:Generated_Source\PSoC5/SPIS_1.c ****         }
 744:Generated_Source\PSoC5/SPIS_1.c ****         else
 745:Generated_Source\PSoC5/SPIS_1.c ****         {
 746:Generated_Source\PSoC5/SPIS_1.c ****             size = (SPIS_1_RX_BUFFER_SIZE - SPIS_1_rxBufferRead) + SPIS_1_rxBufferWrite;
 686              		.loc 1 746 0
 687 0018 2BBF     		itete	cs
 688 001a 1878     		ldrbcs	r0, [r3]	@ zero_extendqisi2
 742:Generated_Source\PSoC5/SPIS_1.c ****         }
 689              		.loc 1 742 0
 690 001c 1B78     		ldrbcc	r3, [r3]	@ zero_extendqisi2
 691              		.loc 1 746 0
 692 001e 1378     		ldrbcs	r3, [r2]	@ zero_extendqisi2
 742:Generated_Source\PSoC5/SPIS_1.c ****         }
 693              		.loc 1 742 0
 694 0020 1078     		ldrbcc	r0, [r2]	@ zero_extendqisi2
 695              		.loc 1 746 0
 696 0022 2ABF     		itet	cs
 697 0024 0830     		addcs	r0, r0, #8
 742:Generated_Source\PSoC5/SPIS_1.c ****         }
 698              		.loc 1 742 0
 699 0026 181A     		subcc	r0, r3, r0
 700              		.loc 1 746 0
 701 0028 C01A     		subcs	r0, r0, r3
 702 002a C0B2     		uxtb	r0, r0
 703              	.LVL23:
 704 002c 00E0     		b	.L58
 705              	.LVL24:
 706              	.L60:
 738:Generated_Source\PSoC5/SPIS_1.c ****         }
 707              		.loc 1 738 0
 708 002e 0020     		movs	r0, #0
 709              	.L58:
 710              	.LVL25:
 711              	.LBB56:
 712              	.LBB57:
 281:Generated_Source\PSoC5/SPIS_1.c ****     #endif /* SPIS_1_INTERNAL_RX_INT_ENABLED */
 713              		.loc 1 281 0
ARM GAS  C:\Users\Joe\AppData\Local\Temp\ccVurVSh.s 			page 27


 714 0030 044B     		ldr	r3, .L62+12
 715 0032 0122     		movs	r2, #1
 716 0034 1A60     		str	r2, [r3]
 717              	.LBE57:
 718              	.LBE56:
 747:Generated_Source\PSoC5/SPIS_1.c ****         }
 748:Generated_Source\PSoC5/SPIS_1.c **** 
 749:Generated_Source\PSoC5/SPIS_1.c ****         /* Enable interrupt. */
 750:Generated_Source\PSoC5/SPIS_1.c ****         SPIS_1_EnableRxInt();
 751:Generated_Source\PSoC5/SPIS_1.c **** 
 752:Generated_Source\PSoC5/SPIS_1.c ****     #else /* !SPIS_1_RX_SOFTWARE_BUF_ENABLED*/
 753:Generated_Source\PSoC5/SPIS_1.c **** 
 754:Generated_Source\PSoC5/SPIS_1.c ****         /* We can only know if there is data in the fifo. */
 755:Generated_Source\PSoC5/SPIS_1.c ****         size = ((SPIS_1_RX_STATUS_REG & SPIS_1_STS_RX_FIFO_NOT_EMPTY) != 0u) ? 1u : 0u;
 756:Generated_Source\PSoC5/SPIS_1.c **** 
 757:Generated_Source\PSoC5/SPIS_1.c ****     #endif /* SPIS_1_RX_SOFTWARE_BUF_ENABLED */
 758:Generated_Source\PSoC5/SPIS_1.c **** 
 759:Generated_Source\PSoC5/SPIS_1.c ****     return (size);
 760:Generated_Source\PSoC5/SPIS_1.c **** }
 719              		.loc 1 760 0
 720 0036 7047     		bx	lr
 721              	.L63:
 722              		.align	2
 723              	.L62:
 724 0038 80E100E0 		.word	-536813184
 725 003c 00000000 		.word	SPIS_1_rxBufferRead
 726 0040 00000000 		.word	SPIS_1_rxBufferWrite
 727 0044 00E100E0 		.word	-536813312
 728              		.cfi_endproc
 729              	.LFE15:
 730              		.size	SPIS_1_GetRxBufferSize, .-SPIS_1_GetRxBufferSize
 731              		.section	.text.SPIS_1_GetTxBufferSize,"ax",%progbits
 732              		.align	1
 733              		.global	SPIS_1_GetTxBufferSize
 734              		.thumb
 735              		.thumb_func
 736              		.type	SPIS_1_GetTxBufferSize, %function
 737              	SPIS_1_GetTxBufferSize:
 738              	.LFB16:
 761:Generated_Source\PSoC5/SPIS_1.c **** 
 762:Generated_Source\PSoC5/SPIS_1.c **** 
 763:Generated_Source\PSoC5/SPIS_1.c **** /*******************************************************************************
 764:Generated_Source\PSoC5/SPIS_1.c **** * Function Name: SPIS_1_GetTxBufferSize
 765:Generated_Source\PSoC5/SPIS_1.c **** ********************************************************************************
 766:Generated_Source\PSoC5/SPIS_1.c **** *
 767:Generated_Source\PSoC5/SPIS_1.c **** * Summary:
 768:Generated_Source\PSoC5/SPIS_1.c **** *  Returns the number of bytes/words of data currently held in the TX buffer.
 769:Generated_Source\PSoC5/SPIS_1.c **** *  If TX Software Buffer not used then function return 0 - if FIFO empty, 1 - if
 770:Generated_Source\PSoC5/SPIS_1.c **** *  FIFO not full, 4 - if FIFO full. In another case function return size of TX
 771:Generated_Source\PSoC5/SPIS_1.c **** *  Software Buffer.
 772:Generated_Source\PSoC5/SPIS_1.c **** *
 773:Generated_Source\PSoC5/SPIS_1.c **** * Parameters:
 774:Generated_Source\PSoC5/SPIS_1.c **** *  None.
 775:Generated_Source\PSoC5/SPIS_1.c **** *
 776:Generated_Source\PSoC5/SPIS_1.c **** * Return:
 777:Generated_Source\PSoC5/SPIS_1.c **** *  Integer count of the number of bytes/words in the TX buffer.
 778:Generated_Source\PSoC5/SPIS_1.c **** *
ARM GAS  C:\Users\Joe\AppData\Local\Temp\ccVurVSh.s 			page 28


 779:Generated_Source\PSoC5/SPIS_1.c **** * Global variables:
 780:Generated_Source\PSoC5/SPIS_1.c **** *  SPIS_1_txBufferWrite - used for the account of the bytes which
 781:Generated_Source\PSoC5/SPIS_1.c **** *  have been written down in the TX software buffer.
 782:Generated_Source\PSoC5/SPIS_1.c **** *  SPIS_1_txBufferRead - used for the account of the bytes which
 783:Generated_Source\PSoC5/SPIS_1.c **** *  have been read from the TX software buffer.
 784:Generated_Source\PSoC5/SPIS_1.c **** *
 785:Generated_Source\PSoC5/SPIS_1.c **** * Theory:
 786:Generated_Source\PSoC5/SPIS_1.c **** *  Allows the user to find out how full the TX Buffer is.
 787:Generated_Source\PSoC5/SPIS_1.c **** *
 788:Generated_Source\PSoC5/SPIS_1.c **** * Side Effects:
 789:Generated_Source\PSoC5/SPIS_1.c **** *  Clear status register of the component.
 790:Generated_Source\PSoC5/SPIS_1.c **** *
 791:Generated_Source\PSoC5/SPIS_1.c **** *******************************************************************************/
 792:Generated_Source\PSoC5/SPIS_1.c **** uint8  SPIS_1_GetTxBufferSize(void) 
 793:Generated_Source\PSoC5/SPIS_1.c **** {
 739              		.loc 1 793 0
 740              		.cfi_startproc
 741              		@ args = 0, pretend = 0, frame = 0
 742              		@ frame_needed = 0, uses_anonymous_args = 0
 743              		@ link register save eliminated.
 744              	.LBB58:
 745              	.LBB59:
 306:Generated_Source\PSoC5/SPIS_1.c ****     #endif /* SPIS_1_INTERNAL_TX_INT_ENABLED */
 746              		.loc 1 306 0
 747 0000 0D4B     		ldr	r3, .L69
 748 0002 0222     		movs	r2, #2
 749 0004 1A60     		str	r2, [r3]
 750              	.LBE59:
 751              	.LBE58:
 794:Generated_Source\PSoC5/SPIS_1.c ****     uint8 size;
 795:Generated_Source\PSoC5/SPIS_1.c **** 
 796:Generated_Source\PSoC5/SPIS_1.c ****     #if(SPIS_1_TX_SOFTWARE_BUF_ENABLED)
 797:Generated_Source\PSoC5/SPIS_1.c **** 
 798:Generated_Source\PSoC5/SPIS_1.c ****         /* Disable Interrupt to protect variables that could change on interrupt. */
 799:Generated_Source\PSoC5/SPIS_1.c ****         SPIS_1_DisableTxInt();
 800:Generated_Source\PSoC5/SPIS_1.c **** 
 801:Generated_Source\PSoC5/SPIS_1.c ****         if(SPIS_1_txBufferRead == SPIS_1_txBufferWrite)
 752              		.loc 1 801 0
 753 0006 0D4A     		ldr	r2, .L69+4
 754 0008 0D4B     		ldr	r3, .L69+8
 755 000a 1078     		ldrb	r0, [r2]	@ zero_extendqisi2
 756 000c 1978     		ldrb	r1, [r3]	@ zero_extendqisi2
 757 000e 8842     		cmp	r0, r1
 758 0010 0DD0     		beq	.L67
 802:Generated_Source\PSoC5/SPIS_1.c ****         {
 803:Generated_Source\PSoC5/SPIS_1.c ****             size = 0u;
 804:Generated_Source\PSoC5/SPIS_1.c ****         }
 805:Generated_Source\PSoC5/SPIS_1.c ****         else if(SPIS_1_txBufferRead < SPIS_1_txBufferWrite)
 759              		.loc 1 805 0
 760 0012 1078     		ldrb	r0, [r2]	@ zero_extendqisi2
 761 0014 1978     		ldrb	r1, [r3]	@ zero_extendqisi2
 762 0016 8842     		cmp	r0, r1
 806:Generated_Source\PSoC5/SPIS_1.c ****         {
 807:Generated_Source\PSoC5/SPIS_1.c ****             size = (SPIS_1_txBufferWrite - SPIS_1_txBufferRead);
 808:Generated_Source\PSoC5/SPIS_1.c ****         }
 809:Generated_Source\PSoC5/SPIS_1.c ****         else
 810:Generated_Source\PSoC5/SPIS_1.c ****         {
ARM GAS  C:\Users\Joe\AppData\Local\Temp\ccVurVSh.s 			page 29


 811:Generated_Source\PSoC5/SPIS_1.c ****             size = (SPIS_1_TX_BUFFER_SIZE - SPIS_1_txBufferRead) + SPIS_1_txBufferWrite;
 763              		.loc 1 811 0
 764 0018 2BBF     		itete	cs
 765 001a 1878     		ldrbcs	r0, [r3]	@ zero_extendqisi2
 807:Generated_Source\PSoC5/SPIS_1.c ****         }
 766              		.loc 1 807 0
 767 001c 1B78     		ldrbcc	r3, [r3]	@ zero_extendqisi2
 768              		.loc 1 811 0
 769 001e 1378     		ldrbcs	r3, [r2]	@ zero_extendqisi2
 807:Generated_Source\PSoC5/SPIS_1.c ****         }
 770              		.loc 1 807 0
 771 0020 1078     		ldrbcc	r0, [r2]	@ zero_extendqisi2
 772              		.loc 1 811 0
 773 0022 2ABF     		itet	cs
 774 0024 0830     		addcs	r0, r0, #8
 807:Generated_Source\PSoC5/SPIS_1.c ****         }
 775              		.loc 1 807 0
 776 0026 181A     		subcc	r0, r3, r0
 777              		.loc 1 811 0
 778 0028 C01A     		subcs	r0, r0, r3
 779 002a C0B2     		uxtb	r0, r0
 780              	.LVL26:
 781 002c 00E0     		b	.L65
 782              	.LVL27:
 783              	.L67:
 803:Generated_Source\PSoC5/SPIS_1.c ****         }
 784              		.loc 1 803 0
 785 002e 0020     		movs	r0, #0
 786              	.L65:
 787              	.LVL28:
 788              	.LBB60:
 789              	.LBB61:
 256:Generated_Source\PSoC5/SPIS_1.c ****     #endif /* SPIS_1_INTERNAL_TX_INT_ENABLED */
 790              		.loc 1 256 0
 791 0030 044B     		ldr	r3, .L69+12
 792 0032 0222     		movs	r2, #2
 793 0034 1A60     		str	r2, [r3]
 794              	.LBE61:
 795              	.LBE60:
 812:Generated_Source\PSoC5/SPIS_1.c ****         }
 813:Generated_Source\PSoC5/SPIS_1.c **** 
 814:Generated_Source\PSoC5/SPIS_1.c ****         /* Enable Interrupt. */
 815:Generated_Source\PSoC5/SPIS_1.c ****         SPIS_1_EnableTxInt();
 816:Generated_Source\PSoC5/SPIS_1.c **** 
 817:Generated_Source\PSoC5/SPIS_1.c ****     #else /* !SPIS_1_TX_SOFTWARE_BUF_ENABLED */
 818:Generated_Source\PSoC5/SPIS_1.c **** 
 819:Generated_Source\PSoC5/SPIS_1.c ****         size = SPIS_1_TX_STATUS_REG;
 820:Generated_Source\PSoC5/SPIS_1.c **** 
 821:Generated_Source\PSoC5/SPIS_1.c ****         /* Is the fifo is full. */
 822:Generated_Source\PSoC5/SPIS_1.c ****         if((size & SPIS_1_STS_TX_FIFO_EMPTY) != 0u)
 823:Generated_Source\PSoC5/SPIS_1.c ****         {
 824:Generated_Source\PSoC5/SPIS_1.c ****             size = 0u;
 825:Generated_Source\PSoC5/SPIS_1.c ****         }
 826:Generated_Source\PSoC5/SPIS_1.c ****         else if((size & SPIS_1_STS_TX_FIFO_NOT_FULL) != 0u)
 827:Generated_Source\PSoC5/SPIS_1.c ****         {
 828:Generated_Source\PSoC5/SPIS_1.c ****             size = 1u;
 829:Generated_Source\PSoC5/SPIS_1.c ****         }
ARM GAS  C:\Users\Joe\AppData\Local\Temp\ccVurVSh.s 			page 30


 830:Generated_Source\PSoC5/SPIS_1.c ****         else
 831:Generated_Source\PSoC5/SPIS_1.c ****         {
 832:Generated_Source\PSoC5/SPIS_1.c ****             size = 4u;
 833:Generated_Source\PSoC5/SPIS_1.c ****         }
 834:Generated_Source\PSoC5/SPIS_1.c **** 
 835:Generated_Source\PSoC5/SPIS_1.c ****     #endif /* SPIS_1_TX_SOFTWARE_BUF_ENABLED */
 836:Generated_Source\PSoC5/SPIS_1.c **** 
 837:Generated_Source\PSoC5/SPIS_1.c ****     return (size);
 838:Generated_Source\PSoC5/SPIS_1.c **** }
 796              		.loc 1 838 0
 797 0036 7047     		bx	lr
 798              	.L70:
 799              		.align	2
 800              	.L69:
 801 0038 80E100E0 		.word	-536813184
 802 003c 00000000 		.word	SPIS_1_txBufferRead
 803 0040 00000000 		.word	SPIS_1_txBufferWrite
 804 0044 00E100E0 		.word	-536813312
 805              		.cfi_endproc
 806              	.LFE16:
 807              		.size	SPIS_1_GetTxBufferSize, .-SPIS_1_GetTxBufferSize
 808              		.section	.text.SPIS_1_ClearRxBuffer,"ax",%progbits
 809              		.align	1
 810              		.global	SPIS_1_ClearRxBuffer
 811              		.thumb
 812              		.thumb_func
 813              		.type	SPIS_1_ClearRxBuffer, %function
 814              	SPIS_1_ClearRxBuffer:
 815              	.LFB17:
 839:Generated_Source\PSoC5/SPIS_1.c **** 
 840:Generated_Source\PSoC5/SPIS_1.c **** 
 841:Generated_Source\PSoC5/SPIS_1.c **** /*******************************************************************************
 842:Generated_Source\PSoC5/SPIS_1.c **** * Function Name: SPIS_1_ClearRxBuffer
 843:Generated_Source\PSoC5/SPIS_1.c **** ********************************************************************************
 844:Generated_Source\PSoC5/SPIS_1.c **** *
 845:Generated_Source\PSoC5/SPIS_1.c **** * Summary:
 846:Generated_Source\PSoC5/SPIS_1.c **** *  Clear the RX RAM buffer by setting the read and write pointers both to zero.
 847:Generated_Source\PSoC5/SPIS_1.c **** *
 848:Generated_Source\PSoC5/SPIS_1.c **** * Parameters:
 849:Generated_Source\PSoC5/SPIS_1.c **** *  None.
 850:Generated_Source\PSoC5/SPIS_1.c **** *
 851:Generated_Source\PSoC5/SPIS_1.c **** * Return:
 852:Generated_Source\PSoC5/SPIS_1.c **** *  None.
 853:Generated_Source\PSoC5/SPIS_1.c **** *
 854:Generated_Source\PSoC5/SPIS_1.c **** * Global variables:
 855:Generated_Source\PSoC5/SPIS_1.c **** *  SPIS_1_rxBufferWrite - used for the account of the bytes which
 856:Generated_Source\PSoC5/SPIS_1.c **** *  have been written down in the RX software buffer, modified every function
 857:Generated_Source\PSoC5/SPIS_1.c **** *  call - resets to zero.
 858:Generated_Source\PSoC5/SPIS_1.c **** *  SPIS_1_rxBufferRead - used for the account of the bytes which
 859:Generated_Source\PSoC5/SPIS_1.c **** *  have been read from the RX software buffer, modified every function call -
 860:Generated_Source\PSoC5/SPIS_1.c **** *  resets to zero.
 861:Generated_Source\PSoC5/SPIS_1.c **** *
 862:Generated_Source\PSoC5/SPIS_1.c **** * Theory:
 863:Generated_Source\PSoC5/SPIS_1.c **** *  Setting the pointers to zero makes the system believe there is no data to
 864:Generated_Source\PSoC5/SPIS_1.c **** *  read and writing will resume at address 0 overwriting any data that may have
 865:Generated_Source\PSoC5/SPIS_1.c **** *  remained in the RAM.
 866:Generated_Source\PSoC5/SPIS_1.c **** *
ARM GAS  C:\Users\Joe\AppData\Local\Temp\ccVurVSh.s 			page 31


 867:Generated_Source\PSoC5/SPIS_1.c **** * Side Effects:
 868:Generated_Source\PSoC5/SPIS_1.c **** *  Any received data not read from the RAM buffer will be lost when overwritten.
 869:Generated_Source\PSoC5/SPIS_1.c **** *
 870:Generated_Source\PSoC5/SPIS_1.c **** * Reentrant:
 871:Generated_Source\PSoC5/SPIS_1.c **** *  No.
 872:Generated_Source\PSoC5/SPIS_1.c **** *
 873:Generated_Source\PSoC5/SPIS_1.c **** *******************************************************************************/
 874:Generated_Source\PSoC5/SPIS_1.c **** void SPIS_1_ClearRxBuffer(void) 
 875:Generated_Source\PSoC5/SPIS_1.c **** {
 816              		.loc 1 875 0
 817              		.cfi_startproc
 818              		@ args = 0, pretend = 0, frame = 0
 819              		@ frame_needed = 0, uses_anonymous_args = 0
 820              		@ link register save eliminated.
 876:Generated_Source\PSoC5/SPIS_1.c ****     /* Clear Hardware RX FIFO */
 877:Generated_Source\PSoC5/SPIS_1.c ****     while((SPIS_1_RX_STATUS_REG & SPIS_1_STS_RX_FIFO_NOT_EMPTY) != 0u)
 821              		.loc 1 877 0
 822 0000 0A49     		ldr	r1, .L75
 878:Generated_Source\PSoC5/SPIS_1.c ****     {
 879:Generated_Source\PSoC5/SPIS_1.c ****         CY_GET_REG8(SPIS_1_RXDATA_PTR);
 823              		.loc 1 879 0
 824 0002 0B48     		ldr	r0, .L75+4
 825              	.L72:
 877:Generated_Source\PSoC5/SPIS_1.c ****     {
 826              		.loc 1 877 0
 827 0004 0B78     		ldrb	r3, [r1]	@ zero_extendqisi2
 828 0006 03F00803 		and	r3, r3, #8
 829 000a 03F0FF02 		and	r2, r3, #255
 830 000e 0BB1     		cbz	r3, .L74
 831              		.loc 1 879 0
 832 0010 0378     		ldrb	r3, [r0]	@ zero_extendqisi2
 833 0012 F7E7     		b	.L72
 834              	.L74:
 835              	.LBB62:
 836              	.LBB63:
 331:Generated_Source\PSoC5/SPIS_1.c ****     #endif /* SPIS_1_INTERNAL_RX_INT_ENABLED */
 837              		.loc 1 331 0
 838 0014 0749     		ldr	r1, .L75+8
 839 0016 0123     		movs	r3, #1
 840 0018 0B60     		str	r3, [r1]
 841              	.LBE63:
 842              	.LBE62:
 880:Generated_Source\PSoC5/SPIS_1.c ****     }
 881:Generated_Source\PSoC5/SPIS_1.c **** 
 882:Generated_Source\PSoC5/SPIS_1.c ****     #if(SPIS_1_RX_SOFTWARE_BUF_ENABLED)
 883:Generated_Source\PSoC5/SPIS_1.c **** 
 884:Generated_Source\PSoC5/SPIS_1.c ****         /* Disable interrupt to protect variables that could change on interrupt. */
 885:Generated_Source\PSoC5/SPIS_1.c ****         SPIS_1_DisableRxInt();
 886:Generated_Source\PSoC5/SPIS_1.c **** 
 887:Generated_Source\PSoC5/SPIS_1.c ****         SPIS_1_rxBufferRead  = 0u;
 843              		.loc 1 887 0
 844 001a 0749     		ldr	r1, .L75+12
 845 001c 0A70     		strb	r2, [r1]
 888:Generated_Source\PSoC5/SPIS_1.c ****         SPIS_1_rxBufferWrite = 0u;
 846              		.loc 1 888 0
 847 001e 0749     		ldr	r1, .L75+16
 848 0020 0A70     		strb	r2, [r1]
ARM GAS  C:\Users\Joe\AppData\Local\Temp\ccVurVSh.s 			page 32


 889:Generated_Source\PSoC5/SPIS_1.c **** 		SPIS_1_rxBufferFull  = 0u;
 849              		.loc 1 889 0
 850 0022 0749     		ldr	r1, .L75+20
 851 0024 0A70     		strb	r2, [r1]
 852              	.LBB64:
 853              	.LBB65:
 281:Generated_Source\PSoC5/SPIS_1.c ****     #endif /* SPIS_1_INTERNAL_RX_INT_ENABLED */
 854              		.loc 1 281 0
 855 0026 074A     		ldr	r2, .L75+24
 856 0028 1360     		str	r3, [r2]
 857 002a 7047     		bx	lr
 858              	.L76:
 859              		.align	2
 860              	.L75:
 861 002c 64640040 		.word	1073767524
 862 0030 52640040 		.word	1073767506
 863 0034 80E100E0 		.word	-536813184
 864 0038 00000000 		.word	SPIS_1_rxBufferRead
 865 003c 00000000 		.word	SPIS_1_rxBufferWrite
 866 0040 00000000 		.word	SPIS_1_rxBufferFull
 867 0044 00E100E0 		.word	-536813312
 868              	.LBE65:
 869              	.LBE64:
 870              		.cfi_endproc
 871              	.LFE17:
 872              		.size	SPIS_1_ClearRxBuffer, .-SPIS_1_ClearRxBuffer
 873              		.section	.text.SPIS_1_ClearTxBuffer,"ax",%progbits
 874              		.align	1
 875              		.global	SPIS_1_ClearTxBuffer
 876              		.thumb
 877              		.thumb_func
 878              		.type	SPIS_1_ClearTxBuffer, %function
 879              	SPIS_1_ClearTxBuffer:
 880              	.LFB18:
 890:Generated_Source\PSoC5/SPIS_1.c ****         /* Enable interrupt. */
 891:Generated_Source\PSoC5/SPIS_1.c ****         SPIS_1_EnableRxInt();
 892:Generated_Source\PSoC5/SPIS_1.c **** 
 893:Generated_Source\PSoC5/SPIS_1.c ****     #endif /* SPIS_1_RX_SOFTWARE_BUF_ENABLED */
 894:Generated_Source\PSoC5/SPIS_1.c **** }
 895:Generated_Source\PSoC5/SPIS_1.c **** 
 896:Generated_Source\PSoC5/SPIS_1.c **** 
 897:Generated_Source\PSoC5/SPIS_1.c **** /*******************************************************************************
 898:Generated_Source\PSoC5/SPIS_1.c **** * Function Name: SPIS_1_ClearTxBuffer
 899:Generated_Source\PSoC5/SPIS_1.c **** ********************************************************************************
 900:Generated_Source\PSoC5/SPIS_1.c **** *
 901:Generated_Source\PSoC5/SPIS_1.c **** * Summary:
 902:Generated_Source\PSoC5/SPIS_1.c **** *  Clear the TX RAM buffer by setting the read and write pointers both to zero.
 903:Generated_Source\PSoC5/SPIS_1.c **** *
 904:Generated_Source\PSoC5/SPIS_1.c **** * Parameters:
 905:Generated_Source\PSoC5/SPIS_1.c **** *  None.
 906:Generated_Source\PSoC5/SPIS_1.c **** *
 907:Generated_Source\PSoC5/SPIS_1.c **** * Return:
 908:Generated_Source\PSoC5/SPIS_1.c **** *  None.
 909:Generated_Source\PSoC5/SPIS_1.c **** *
 910:Generated_Source\PSoC5/SPIS_1.c **** * Global variables:
 911:Generated_Source\PSoC5/SPIS_1.c **** *  SPIS_1_txBufferWrite - used for the account of the bytes which
 912:Generated_Source\PSoC5/SPIS_1.c **** *  have been written down in the TX software buffer, modified every function
ARM GAS  C:\Users\Joe\AppData\Local\Temp\ccVurVSh.s 			page 33


 913:Generated_Source\PSoC5/SPIS_1.c **** *  call - resets to zero.
 914:Generated_Source\PSoC5/SPIS_1.c **** *  SPIS_1_txBufferRead - used for the account of the bytes which
 915:Generated_Source\PSoC5/SPIS_1.c **** *  have been read from the TX software buffer, modified every function call -
 916:Generated_Source\PSoC5/SPIS_1.c **** *  resets to zero.
 917:Generated_Source\PSoC5/SPIS_1.c **** *
 918:Generated_Source\PSoC5/SPIS_1.c **** * Theory:
 919:Generated_Source\PSoC5/SPIS_1.c **** *  Setting the pointers to zero makes the system believe there is no data to
 920:Generated_Source\PSoC5/SPIS_1.c **** *  read and writing will resume at address 0 overwriting any data that may have
 921:Generated_Source\PSoC5/SPIS_1.c **** *  remained in the RAM.
 922:Generated_Source\PSoC5/SPIS_1.c **** *
 923:Generated_Source\PSoC5/SPIS_1.c **** * Side Effects:
 924:Generated_Source\PSoC5/SPIS_1.c **** *  Any data not yet transmitted from the RAM buffer will be lost when
 925:Generated_Source\PSoC5/SPIS_1.c **** *  overwritten.
 926:Generated_Source\PSoC5/SPIS_1.c **** *
 927:Generated_Source\PSoC5/SPIS_1.c **** * Reentrant:
 928:Generated_Source\PSoC5/SPIS_1.c **** *  No.
 929:Generated_Source\PSoC5/SPIS_1.c **** *
 930:Generated_Source\PSoC5/SPIS_1.c **** *******************************************************************************/
 931:Generated_Source\PSoC5/SPIS_1.c **** void SPIS_1_ClearTxBuffer(void) 
 932:Generated_Source\PSoC5/SPIS_1.c **** {
 881              		.loc 1 932 0
 882              		.cfi_startproc
 883              		@ args = 0, pretend = 0, frame = 0
 884              		@ frame_needed = 0, uses_anonymous_args = 0
 885 0000 08B5     		push	{r3, lr}
 886              		.cfi_def_cfa_offset 8
 887              		.cfi_offset 3, -8
 888              		.cfi_offset 14, -4
 933:Generated_Source\PSoC5/SPIS_1.c ****     uint8 enableInterrupts;
 934:Generated_Source\PSoC5/SPIS_1.c **** 
 935:Generated_Source\PSoC5/SPIS_1.c ****     /* Clear Hardware TX FIFO */
 936:Generated_Source\PSoC5/SPIS_1.c ****     enableInterrupts = CyEnterCriticalSection();
 889              		.loc 1 936 0
 890 0002 FFF7FEFF 		bl	CyEnterCriticalSection
 891              	.LVL29:
 937:Generated_Source\PSoC5/SPIS_1.c **** 
 938:Generated_Source\PSoC5/SPIS_1.c ****     #if(SPIS_1_DATA_WIDTH <= 8u)
 939:Generated_Source\PSoC5/SPIS_1.c **** 
 940:Generated_Source\PSoC5/SPIS_1.c ****         /* Clear TX FIFO */
 941:Generated_Source\PSoC5/SPIS_1.c ****         SPIS_1_TX_AUX_CONTROL_DP0_REG |= (uint8)SPIS_1_FIFO_CLR;
 892              		.loc 1 941 0
 893 0006 0E4B     		ldr	r3, .L78
 894 0008 1A78     		ldrb	r2, [r3]	@ zero_extendqisi2
 895 000a 42F00302 		orr	r2, r2, #3
 896 000e 1A70     		strb	r2, [r3]
 942:Generated_Source\PSoC5/SPIS_1.c ****         SPIS_1_TX_AUX_CONTROL_DP0_REG &= (uint8)~SPIS_1_FIFO_CLR;
 897              		.loc 1 942 0
 898 0010 1A78     		ldrb	r2, [r3]	@ zero_extendqisi2
 899 0012 02F0FC02 		and	r2, r2, #252
 900 0016 1A70     		strb	r2, [r3]
 943:Generated_Source\PSoC5/SPIS_1.c **** 
 944:Generated_Source\PSoC5/SPIS_1.c ****     #else
 945:Generated_Source\PSoC5/SPIS_1.c **** 
 946:Generated_Source\PSoC5/SPIS_1.c ****         /* Clear TX FIFO */
 947:Generated_Source\PSoC5/SPIS_1.c ****         SPIS_1_TX_AUX_CONTROL_DP0_REG |= (uint8)SPIS_1_FIFO_CLR;
 948:Generated_Source\PSoC5/SPIS_1.c ****         SPIS_1_TX_AUX_CONTROL_DP0_REG &= (uint8)~SPIS_1_FIFO_CLR;
 949:Generated_Source\PSoC5/SPIS_1.c ****         SPIS_1_TX_AUX_CONTROL_DP1_REG |= (uint8)SPIS_1_FIFO_CLR;
ARM GAS  C:\Users\Joe\AppData\Local\Temp\ccVurVSh.s 			page 34


 950:Generated_Source\PSoC5/SPIS_1.c ****         SPIS_1_TX_AUX_CONTROL_DP1_REG &= (uint8)~SPIS_1_FIFO_CLR;
 951:Generated_Source\PSoC5/SPIS_1.c **** 
 952:Generated_Source\PSoC5/SPIS_1.c ****     #endif /* SPIS_1_DATA_WIDTH > 8u */
 953:Generated_Source\PSoC5/SPIS_1.c **** 
 954:Generated_Source\PSoC5/SPIS_1.c ****     CyExitCriticalSection(enableInterrupts);
 901              		.loc 1 954 0
 902 0018 FFF7FEFF 		bl	CyExitCriticalSection
 903              	.LVL30:
 904              	.LBB66:
 905              	.LBB67:
 306:Generated_Source\PSoC5/SPIS_1.c ****     #endif /* SPIS_1_INTERNAL_TX_INT_ENABLED */
 906              		.loc 1 306 0
 907 001c 094B     		ldr	r3, .L78+4
 908 001e 0222     		movs	r2, #2
 909              	.LBE67:
 910              	.LBE66:
 955:Generated_Source\PSoC5/SPIS_1.c **** 
 956:Generated_Source\PSoC5/SPIS_1.c ****     #if(SPIS_1_TX_SOFTWARE_BUF_ENABLED)
 957:Generated_Source\PSoC5/SPIS_1.c **** 
 958:Generated_Source\PSoC5/SPIS_1.c ****         /* Disable Interrupt to protect variables that could change on interrupt. */
 959:Generated_Source\PSoC5/SPIS_1.c ****         SPIS_1_DisableTxInt();
 960:Generated_Source\PSoC5/SPIS_1.c **** 
 961:Generated_Source\PSoC5/SPIS_1.c ****         SPIS_1_txBufferRead  = 0u;
 911              		.loc 1 961 0
 912 0020 0949     		ldr	r1, .L78+8
 913              	.LBB69:
 914              	.LBB68:
 306:Generated_Source\PSoC5/SPIS_1.c ****     #endif /* SPIS_1_INTERNAL_TX_INT_ENABLED */
 915              		.loc 1 306 0
 916 0022 1A60     		str	r2, [r3]
 917              	.LBE68:
 918              	.LBE69:
 919              		.loc 1 961 0
 920 0024 0023     		movs	r3, #0
 921 0026 0B70     		strb	r3, [r1]
 962:Generated_Source\PSoC5/SPIS_1.c ****         SPIS_1_txBufferWrite = 0u;
 922              		.loc 1 962 0
 923 0028 0849     		ldr	r1, .L78+12
 924 002a 0B70     		strb	r3, [r1]
 963:Generated_Source\PSoC5/SPIS_1.c **** 		SPIS_1_txBufferFull  = 0u;
 925              		.loc 1 963 0
 926 002c 0849     		ldr	r1, .L78+16
 927 002e 0B70     		strb	r3, [r1]
 964:Generated_Source\PSoC5/SPIS_1.c **** 		
 965:Generated_Source\PSoC5/SPIS_1.c ****         /* If Buffer is empty then disable TX FIFO status interrupt */
 966:Generated_Source\PSoC5/SPIS_1.c ****         SPIS_1_TX_STATUS_MASK_REG &= (uint8)~SPIS_1_STS_TX_FIFO_NOT_FULL;
 928              		.loc 1 966 0
 929 0030 0849     		ldr	r1, .L78+20
 930 0032 0B78     		ldrb	r3, [r1]	@ zero_extendqisi2
 931 0034 03F0FD03 		and	r3, r3, #253
 932 0038 0B70     		strb	r3, [r1]
 933              	.LBB70:
 934              	.LBB71:
 256:Generated_Source\PSoC5/SPIS_1.c ****     #endif /* SPIS_1_INTERNAL_TX_INT_ENABLED */
 935              		.loc 1 256 0
 936 003a 074B     		ldr	r3, .L78+24
 937 003c 1A60     		str	r2, [r3]
ARM GAS  C:\Users\Joe\AppData\Local\Temp\ccVurVSh.s 			page 35


 938 003e 08BD     		pop	{r3, pc}
 939              	.L79:
 940              		.align	2
 941              	.L78:
 942 0040 92640040 		.word	1073767570
 943 0044 80E100E0 		.word	-536813184
 944 0048 00000000 		.word	SPIS_1_txBufferRead
 945 004c 00000000 		.word	SPIS_1_txBufferWrite
 946 0050 00000000 		.word	SPIS_1_txBufferFull
 947 0054 87640040 		.word	1073767559
 948 0058 00E100E0 		.word	-536813312
 949              	.LBE71:
 950              	.LBE70:
 951              		.cfi_endproc
 952              	.LFE18:
 953              		.size	SPIS_1_ClearTxBuffer, .-SPIS_1_ClearTxBuffer
 954              		.section	.text.SPIS_1_PutArray,"ax",%progbits
 955              		.align	1
 956              		.global	SPIS_1_PutArray
 957              		.thumb
 958              		.thumb_func
 959              		.type	SPIS_1_PutArray, %function
 960              	SPIS_1_PutArray:
 961              	.LFB19:
 967:Generated_Source\PSoC5/SPIS_1.c **** 
 968:Generated_Source\PSoC5/SPIS_1.c ****         /* Enable Interrupt. */
 969:Generated_Source\PSoC5/SPIS_1.c ****         SPIS_1_EnableTxInt();
 970:Generated_Source\PSoC5/SPIS_1.c **** 
 971:Generated_Source\PSoC5/SPIS_1.c ****     #endif /* SPIS_1_TX_SOFTWARE_BUF_ENABLED */
 972:Generated_Source\PSoC5/SPIS_1.c **** }
 973:Generated_Source\PSoC5/SPIS_1.c **** 
 974:Generated_Source\PSoC5/SPIS_1.c **** 
 975:Generated_Source\PSoC5/SPIS_1.c **** #if (SPIS_1_BIDIRECTIONAL_MODE != 0u)
 976:Generated_Source\PSoC5/SPIS_1.c **** 
 977:Generated_Source\PSoC5/SPIS_1.c ****     /*******************************************************************************
 978:Generated_Source\PSoC5/SPIS_1.c ****     * Function Name: SPIS_1_TxEnable
 979:Generated_Source\PSoC5/SPIS_1.c ****     ********************************************************************************
 980:Generated_Source\PSoC5/SPIS_1.c ****     *
 981:Generated_Source\PSoC5/SPIS_1.c ****     * Summary:
 982:Generated_Source\PSoC5/SPIS_1.c ****     *  If the SPI Slave is configured to use a single bi-directional pin then this
 983:Generated_Source\PSoC5/SPIS_1.c ****     *  will set the bi-directional pin to transmit.
 984:Generated_Source\PSoC5/SPIS_1.c ****     *
 985:Generated_Source\PSoC5/SPIS_1.c ****     * Parameters:
 986:Generated_Source\PSoC5/SPIS_1.c ****     *  None.
 987:Generated_Source\PSoC5/SPIS_1.c ****     *
 988:Generated_Source\PSoC5/SPIS_1.c ****     * Return:
 989:Generated_Source\PSoC5/SPIS_1.c ****     *  None.
 990:Generated_Source\PSoC5/SPIS_1.c ****     *
 991:Generated_Source\PSoC5/SPIS_1.c ****     *******************************************************************************/
 992:Generated_Source\PSoC5/SPIS_1.c ****     void SPIS_1_TxEnable(void) 
 993:Generated_Source\PSoC5/SPIS_1.c ****     {
 994:Generated_Source\PSoC5/SPIS_1.c ****             SPIS_1_CONTROL_REG |= SPIS_1_CTRL_TX_SIGNAL_EN;
 995:Generated_Source\PSoC5/SPIS_1.c ****     }
 996:Generated_Source\PSoC5/SPIS_1.c **** 
 997:Generated_Source\PSoC5/SPIS_1.c **** 
 998:Generated_Source\PSoC5/SPIS_1.c ****     /*******************************************************************************
 999:Generated_Source\PSoC5/SPIS_1.c ****     * Function Name: SPIS_1_TxDisable
ARM GAS  C:\Users\Joe\AppData\Local\Temp\ccVurVSh.s 			page 36


1000:Generated_Source\PSoC5/SPIS_1.c ****     ********************************************************************************
1001:Generated_Source\PSoC5/SPIS_1.c ****     *
1002:Generated_Source\PSoC5/SPIS_1.c ****     * Summary:
1003:Generated_Source\PSoC5/SPIS_1.c ****     *  If the SPI Slave is configured to use a single bi-directional pin then this
1004:Generated_Source\PSoC5/SPIS_1.c ****     *  will set the bi-directional pin to receive.
1005:Generated_Source\PSoC5/SPIS_1.c ****     *
1006:Generated_Source\PSoC5/SPIS_1.c ****     * Parameters:
1007:Generated_Source\PSoC5/SPIS_1.c ****     *  None.
1008:Generated_Source\PSoC5/SPIS_1.c ****     *
1009:Generated_Source\PSoC5/SPIS_1.c ****     * Return:
1010:Generated_Source\PSoC5/SPIS_1.c ****     *  None.
1011:Generated_Source\PSoC5/SPIS_1.c ****     *
1012:Generated_Source\PSoC5/SPIS_1.c ****     *******************************************************************************/
1013:Generated_Source\PSoC5/SPIS_1.c ****     void SPIS_1_TxDisable(void) 
1014:Generated_Source\PSoC5/SPIS_1.c ****     {
1015:Generated_Source\PSoC5/SPIS_1.c ****             SPIS_1_CONTROL_REG &= (uint8)~SPIS_1_CTRL_TX_SIGNAL_EN;
1016:Generated_Source\PSoC5/SPIS_1.c ****     }
1017:Generated_Source\PSoC5/SPIS_1.c **** 
1018:Generated_Source\PSoC5/SPIS_1.c **** #endif /* SPIS_1_BIDIRECTIONAL_MODE != 0u */
1019:Generated_Source\PSoC5/SPIS_1.c **** 
1020:Generated_Source\PSoC5/SPIS_1.c **** 
1021:Generated_Source\PSoC5/SPIS_1.c **** /*******************************************************************************
1022:Generated_Source\PSoC5/SPIS_1.c **** * Function Name: SPIS_1_PutArray
1023:Generated_Source\PSoC5/SPIS_1.c **** ********************************************************************************
1024:Generated_Source\PSoC5/SPIS_1.c **** *
1025:Generated_Source\PSoC5/SPIS_1.c **** * Summary:
1026:Generated_Source\PSoC5/SPIS_1.c **** *  Write available data from RAM/ROM to the TX buffer while space is available
1027:Generated_Source\PSoC5/SPIS_1.c **** *  in the TX buffer. Keep trying until all data is passed to the TX buffer. If
1028:Generated_Source\PSoC5/SPIS_1.c **** *  used Mode 00 or 01 before PutArray() function should be called
1029:Generated_Source\PSoC5/SPIS_1.c **** *  WriteTxDataZero() function.
1030:Generated_Source\PSoC5/SPIS_1.c **** *
1031:Generated_Source\PSoC5/SPIS_1.c **** * Parameters:
1032:Generated_Source\PSoC5/SPIS_1.c **** *  *buffer: Pointer to the location in RAM containing the data to send
1033:Generated_Source\PSoC5/SPIS_1.c **** *  byteCount: The number of bytes to move to the transmit buffer.
1034:Generated_Source\PSoC5/SPIS_1.c **** *
1035:Generated_Source\PSoC5/SPIS_1.c **** * Return:
1036:Generated_Source\PSoC5/SPIS_1.c **** *  None.
1037:Generated_Source\PSoC5/SPIS_1.c **** *
1038:Generated_Source\PSoC5/SPIS_1.c **** * Side Effects:
1039:Generated_Source\PSoC5/SPIS_1.c **** *  Will stay in this routine until all data has been sent.  May get locked in
1040:Generated_Source\PSoC5/SPIS_1.c **** *  this loop if data is not being initiated by the master if there is not
1041:Generated_Source\PSoC5/SPIS_1.c **** *  enough room in the TX FIFO.
1042:Generated_Source\PSoC5/SPIS_1.c **** *
1043:Generated_Source\PSoC5/SPIS_1.c **** * Reentrant:
1044:Generated_Source\PSoC5/SPIS_1.c **** *  No.
1045:Generated_Source\PSoC5/SPIS_1.c **** *
1046:Generated_Source\PSoC5/SPIS_1.c **** *******************************************************************************/
1047:Generated_Source\PSoC5/SPIS_1.c **** void SPIS_1_PutArray(const uint8 buffer[], uint8 byteCount)
1048:Generated_Source\PSoC5/SPIS_1.c ****                                                                     
1049:Generated_Source\PSoC5/SPIS_1.c **** {
 962              		.loc 1 1049 0
 963              		.cfi_startproc
 964              		@ args = 0, pretend = 0, frame = 0
 965              		@ frame_needed = 0, uses_anonymous_args = 0
 966              	.LVL31:
 967 0000 38B5     		push	{r3, r4, r5, lr}
 968              		.cfi_def_cfa_offset 16
ARM GAS  C:\Users\Joe\AppData\Local\Temp\ccVurVSh.s 			page 37


 969              		.cfi_offset 3, -16
 970              		.cfi_offset 4, -12
 971              		.cfi_offset 5, -8
 972              		.cfi_offset 14, -4
 973              		.loc 1 1049 0
 974 0002 0C46     		mov	r4, r1
 975 0004 451E     		subs	r5, r0, #1
 976              	.LVL32:
 977              	.L81:
1050:Generated_Source\PSoC5/SPIS_1.c ****     uint8 bufIndex;
1051:Generated_Source\PSoC5/SPIS_1.c ****     bufIndex = 0u;
1052:Generated_Source\PSoC5/SPIS_1.c **** 
1053:Generated_Source\PSoC5/SPIS_1.c ****     while(byteCount > 0u)
 978              		.loc 1 1053 0
 979 0006 34B1     		cbz	r4, .L83
1054:Generated_Source\PSoC5/SPIS_1.c ****     {
1055:Generated_Source\PSoC5/SPIS_1.c ****         SPIS_1_WriteTxData(buffer[bufIndex]);
 980              		.loc 1 1055 0
 981 0008 15F8010F 		ldrb	r0, [r5, #1]!	@ zero_extendqisi2
 982              	.LVL33:
1056:Generated_Source\PSoC5/SPIS_1.c ****         bufIndex++;
1057:Generated_Source\PSoC5/SPIS_1.c ****         byteCount--;
 983              		.loc 1 1057 0
 984 000c 013C     		subs	r4, r4, #1
 985              	.LVL34:
1055:Generated_Source\PSoC5/SPIS_1.c ****         bufIndex++;
 986              		.loc 1 1055 0
 987 000e FFF7FEFF 		bl	SPIS_1_WriteTxData
 988              	.LVL35:
 989              		.loc 1 1057 0
 990 0012 E4B2     		uxtb	r4, r4
 991              	.LVL36:
 992 0014 F7E7     		b	.L81
 993              	.L83:
1058:Generated_Source\PSoC5/SPIS_1.c ****     }
1059:Generated_Source\PSoC5/SPIS_1.c **** }
 994              		.loc 1 1059 0
 995 0016 38BD     		pop	{r3, r4, r5, pc}
 996              		.cfi_endproc
 997              	.LFE19:
 998              		.size	SPIS_1_PutArray, .-SPIS_1_PutArray
 999              		.section	.text.SPIS_1_ClearFIFO,"ax",%progbits
 1000              		.align	1
 1001              		.global	SPIS_1_ClearFIFO
 1002              		.thumb
 1003              		.thumb_func
 1004              		.type	SPIS_1_ClearFIFO, %function
 1005              	SPIS_1_ClearFIFO:
 1006              	.LFB20:
1060:Generated_Source\PSoC5/SPIS_1.c **** 
1061:Generated_Source\PSoC5/SPIS_1.c **** 
1062:Generated_Source\PSoC5/SPIS_1.c **** /*******************************************************************************
1063:Generated_Source\PSoC5/SPIS_1.c **** * Function Name: SPIS_1_ClearFIFO
1064:Generated_Source\PSoC5/SPIS_1.c **** ********************************************************************************
1065:Generated_Source\PSoC5/SPIS_1.c **** *
1066:Generated_Source\PSoC5/SPIS_1.c **** * Summary:
1067:Generated_Source\PSoC5/SPIS_1.c **** *  Clear the RX and TX FIFO's of all data for a fresh start.
ARM GAS  C:\Users\Joe\AppData\Local\Temp\ccVurVSh.s 			page 38


1068:Generated_Source\PSoC5/SPIS_1.c **** *
1069:Generated_Source\PSoC5/SPIS_1.c **** * Parameters:
1070:Generated_Source\PSoC5/SPIS_1.c **** *  None.
1071:Generated_Source\PSoC5/SPIS_1.c **** *
1072:Generated_Source\PSoC5/SPIS_1.c **** * Return:
1073:Generated_Source\PSoC5/SPIS_1.c **** *  None.
1074:Generated_Source\PSoC5/SPIS_1.c **** *
1075:Generated_Source\PSoC5/SPIS_1.c **** * Side Effects:
1076:Generated_Source\PSoC5/SPIS_1.c **** *  Clear status register of the component.
1077:Generated_Source\PSoC5/SPIS_1.c **** *
1078:Generated_Source\PSoC5/SPIS_1.c **** *******************************************************************************/
1079:Generated_Source\PSoC5/SPIS_1.c **** void SPIS_1_ClearFIFO(void) 
1080:Generated_Source\PSoC5/SPIS_1.c **** {
 1007              		.loc 1 1080 0
 1008              		.cfi_startproc
 1009              		@ args = 0, pretend = 0, frame = 0
 1010              		@ frame_needed = 0, uses_anonymous_args = 0
 1011 0000 08B5     		push	{r3, lr}
 1012              		.cfi_def_cfa_offset 8
 1013              		.cfi_offset 3, -8
 1014              		.cfi_offset 14, -4
1081:Generated_Source\PSoC5/SPIS_1.c ****     uint8 enableInterrupts;
1082:Generated_Source\PSoC5/SPIS_1.c **** 
1083:Generated_Source\PSoC5/SPIS_1.c ****     while((SPIS_1_RX_STATUS_REG & SPIS_1_STS_RX_FIFO_NOT_EMPTY) != 0u)
 1015              		.loc 1 1083 0
 1016 0002 0B4A     		ldr	r2, .L88
1084:Generated_Source\PSoC5/SPIS_1.c ****     {
1085:Generated_Source\PSoC5/SPIS_1.c ****         CY_GET_REG8(SPIS_1_RXDATA_PTR);
 1017              		.loc 1 1085 0
 1018 0004 0B49     		ldr	r1, .L88+4
 1019              	.L85:
1083:Generated_Source\PSoC5/SPIS_1.c ****     {
 1020              		.loc 1 1083 0
 1021 0006 1378     		ldrb	r3, [r2]	@ zero_extendqisi2
 1022 0008 1B07     		lsls	r3, r3, #28
 1023 000a 01D5     		bpl	.L87
 1024              		.loc 1 1085 0
 1025 000c 0B78     		ldrb	r3, [r1]	@ zero_extendqisi2
 1026 000e FAE7     		b	.L85
 1027              	.L87:
1086:Generated_Source\PSoC5/SPIS_1.c ****     }
1087:Generated_Source\PSoC5/SPIS_1.c **** 
1088:Generated_Source\PSoC5/SPIS_1.c ****     enableInterrupts = CyEnterCriticalSection();
 1028              		.loc 1 1088 0
 1029 0010 FFF7FEFF 		bl	CyEnterCriticalSection
 1030              	.LVL37:
1089:Generated_Source\PSoC5/SPIS_1.c **** 
1090:Generated_Source\PSoC5/SPIS_1.c ****     #if(SPIS_1_DATA_WIDTH <= 8u)
1091:Generated_Source\PSoC5/SPIS_1.c **** 
1092:Generated_Source\PSoC5/SPIS_1.c ****         /* Clear TX FIFO */
1093:Generated_Source\PSoC5/SPIS_1.c ****         SPIS_1_TX_AUX_CONTROL_DP0_REG |= (uint8)SPIS_1_FIFO_CLR;
 1031              		.loc 1 1093 0
 1032 0014 084B     		ldr	r3, .L88+8
 1033 0016 1A78     		ldrb	r2, [r3]	@ zero_extendqisi2
 1034 0018 42F00302 		orr	r2, r2, #3
 1035 001c 1A70     		strb	r2, [r3]
1094:Generated_Source\PSoC5/SPIS_1.c ****         SPIS_1_TX_AUX_CONTROL_DP0_REG &= (uint8)~SPIS_1_FIFO_CLR;
ARM GAS  C:\Users\Joe\AppData\Local\Temp\ccVurVSh.s 			page 39


 1036              		.loc 1 1094 0
 1037 001e 1A78     		ldrb	r2, [r3]	@ zero_extendqisi2
 1038 0020 02F0FC02 		and	r2, r2, #252
 1039 0024 1A70     		strb	r2, [r3]
1095:Generated_Source\PSoC5/SPIS_1.c **** 
1096:Generated_Source\PSoC5/SPIS_1.c ****     #else
1097:Generated_Source\PSoC5/SPIS_1.c **** 
1098:Generated_Source\PSoC5/SPIS_1.c ****         /* Clear TX FIFO */
1099:Generated_Source\PSoC5/SPIS_1.c ****         SPIS_1_TX_AUX_CONTROL_DP0_REG |= (uint8)SPIS_1_FIFO_CLR;
1100:Generated_Source\PSoC5/SPIS_1.c ****         SPIS_1_TX_AUX_CONTROL_DP0_REG &= (uint8)~SPIS_1_FIFO_CLR;
1101:Generated_Source\PSoC5/SPIS_1.c ****         SPIS_1_TX_AUX_CONTROL_DP1_REG |= (uint8)SPIS_1_FIFO_CLR;
1102:Generated_Source\PSoC5/SPIS_1.c ****         SPIS_1_TX_AUX_CONTROL_DP1_REG &= (uint8)~SPIS_1_FIFO_CLR;
1103:Generated_Source\PSoC5/SPIS_1.c **** 
1104:Generated_Source\PSoC5/SPIS_1.c ****     #endif /* SPIS_1_DATA_WIDTH <= 8u */
1105:Generated_Source\PSoC5/SPIS_1.c **** 
1106:Generated_Source\PSoC5/SPIS_1.c ****     CyExitCriticalSection(enableInterrupts);
1107:Generated_Source\PSoC5/SPIS_1.c **** }
 1040              		.loc 1 1107 0
 1041 0026 BDE80840 		pop	{r3, lr}
 1042              		.cfi_restore 14
 1043              		.cfi_restore 3
 1044              		.cfi_def_cfa_offset 0
1106:Generated_Source\PSoC5/SPIS_1.c **** }
 1045              		.loc 1 1106 0
 1046 002a FFF7FEBF 		b	CyExitCriticalSection
 1047              	.LVL38:
 1048              	.L89:
 1049 002e 00BF     		.align	2
 1050              	.L88:
 1051 0030 64640040 		.word	1073767524
 1052 0034 52640040 		.word	1073767506
 1053 0038 92640040 		.word	1073767570
 1054              		.cfi_endproc
 1055              	.LFE20:
 1056              		.size	SPIS_1_ClearFIFO, .-SPIS_1_ClearFIFO
 1057              		.section	.text.SPIS_1_Init,"ax",%progbits
 1058              		.align	1
 1059              		.global	SPIS_1_Init
 1060              		.thumb
 1061              		.thumb_func
 1062              		.type	SPIS_1_Init, %function
 1063              	SPIS_1_Init:
 1064              	.LFB0:
  68:Generated_Source\PSoC5/SPIS_1.c ****     /*Initialize the Bit counter */
 1065              		.loc 1 68 0
 1066              		.cfi_startproc
 1067              		@ args = 0, pretend = 0, frame = 0
 1068              		@ frame_needed = 0, uses_anonymous_args = 0
 1069 0000 38B5     		push	{r3, r4, r5, lr}
 1070              		.cfi_def_cfa_offset 16
 1071              		.cfi_offset 3, -16
 1072              		.cfi_offset 4, -12
 1073              		.cfi_offset 5, -8
 1074              		.cfi_offset 14, -4
  70:Generated_Source\PSoC5/SPIS_1.c **** 
 1075              		.loc 1 70 0
 1076 0002 184B     		ldr	r3, .L91
ARM GAS  C:\Users\Joe\AppData\Local\Temp\ccVurVSh.s 			page 40


 1077 0004 0724     		movs	r4, #7
  75:Generated_Source\PSoC5/SPIS_1.c **** 
 1078              		.loc 1 75 0
 1079 0006 184D     		ldr	r5, .L91+4
  70:Generated_Source\PSoC5/SPIS_1.c **** 
 1080              		.loc 1 70 0
 1081 0008 1C70     		strb	r4, [r3]
  75:Generated_Source\PSoC5/SPIS_1.c **** 
 1082              		.loc 1 75 0
 1083 000a 0223     		movs	r3, #2
 1084 000c 2B60     		str	r3, [r5]
  78:Generated_Source\PSoC5/SPIS_1.c **** 
 1085              		.loc 1 78 0
 1086 000e 1749     		ldr	r1, .L91+8
 1087 0010 0120     		movs	r0, #1
 1088 0012 FFF7FEFF 		bl	CyIntSetVector
 1089              	.LVL39:
  81:Generated_Source\PSoC5/SPIS_1.c **** 
 1090              		.loc 1 81 0
 1091 0016 2146     		mov	r1, r4
 1092 0018 0120     		movs	r0, #1
 1093 001a FFF7FEFF 		bl	CyIntSetPriority
 1094              	.LVL40:
  87:Generated_Source\PSoC5/SPIS_1.c **** 
 1095              		.loc 1 87 0
 1096 001e 0123     		movs	r3, #1
 1097 0020 2B60     		str	r3, [r5]
  90:Generated_Source\PSoC5/SPIS_1.c **** 
 1098              		.loc 1 90 0
 1099 0022 1349     		ldr	r1, .L91+12
 1100 0024 0020     		movs	r0, #0
 1101 0026 FFF7FEFF 		bl	CyIntSetVector
 1102              	.LVL41:
  93:Generated_Source\PSoC5/SPIS_1.c **** 
 1103              		.loc 1 93 0
 1104 002a 2146     		mov	r1, r4
 1105 002c 0020     		movs	r0, #0
 1106 002e FFF7FEFF 		bl	CyIntSetPriority
 1107              	.LVL42:
  98:Generated_Source\PSoC5/SPIS_1.c **** 
 1108              		.loc 1 98 0
 1109 0032 FFF7FEFF 		bl	SPIS_1_ClearFIFO
 1110              	.LVL43:
 101:Generated_Source\PSoC5/SPIS_1.c ****         SPIS_1_rxBufferRead = 0u;
 1111              		.loc 1 101 0
 1112 0036 0F4B     		ldr	r3, .L91+16
 1113 0038 0024     		movs	r4, #0
 1114 003a 1C70     		strb	r4, [r3]
 102:Generated_Source\PSoC5/SPIS_1.c ****         SPIS_1_rxBufferWrite = 0u;
 1115              		.loc 1 102 0
 1116 003c 0E4B     		ldr	r3, .L91+20
 1117 003e 1C70     		strb	r4, [r3]
 103:Generated_Source\PSoC5/SPIS_1.c ****     #endif /* SPIS_1_RX_SOFTWARE_BUF_ENABLED */
 1118              		.loc 1 103 0
 1119 0040 0E4B     		ldr	r3, .L91+24
 1120 0042 1C70     		strb	r4, [r3]
 107:Generated_Source\PSoC5/SPIS_1.c ****         SPIS_1_txBufferRead = 0u;
ARM GAS  C:\Users\Joe\AppData\Local\Temp\ccVurVSh.s 			page 41


 1121              		.loc 1 107 0
 1122 0044 0E4B     		ldr	r3, .L91+28
 1123 0046 1C70     		strb	r4, [r3]
 108:Generated_Source\PSoC5/SPIS_1.c ****         SPIS_1_txBufferWrite = 0u;
 1124              		.loc 1 108 0
 1125 0048 0E4B     		ldr	r3, .L91+32
 1126 004a 1C70     		strb	r4, [r3]
 109:Generated_Source\PSoC5/SPIS_1.c ****     #endif /* SPIS_1_TX_SOFTWARE_BUF_ENABLED */
 1127              		.loc 1 109 0
 1128 004c 0E4B     		ldr	r3, .L91+36
 1129 004e 1C70     		strb	r4, [r3]
 112:Generated_Source\PSoC5/SPIS_1.c ****     (void) SPIS_1_ReadRxStatus(); /* Clear any pending status bits */
 1130              		.loc 1 112 0
 1131 0050 FFF7FEFF 		bl	SPIS_1_ReadTxStatus
 1132              	.LVL44:
 113:Generated_Source\PSoC5/SPIS_1.c **** 
 1133              		.loc 1 113 0
 1134 0054 FFF7FEFF 		bl	SPIS_1_ReadRxStatus
 1135              	.LVL45:
 118:Generated_Source\PSoC5/SPIS_1.c ****                                                 (uint8)~SPIS_1_STS_TX_FIFO_NOT_FULL);
 1136              		.loc 1 118 0
 1137 0058 0C4B     		ldr	r3, .L91+40
 124:Generated_Source\PSoC5/SPIS_1.c **** }
 1138              		.loc 1 124 0
 1139 005a 0822     		movs	r2, #8
 118:Generated_Source\PSoC5/SPIS_1.c ****                                                 (uint8)~SPIS_1_STS_TX_FIFO_NOT_FULL);
 1140              		.loc 1 118 0
 1141 005c 1C70     		strb	r4, [r3]
 124:Generated_Source\PSoC5/SPIS_1.c **** }
 1142              		.loc 1 124 0
 1143 005e 03F8032C 		strb	r2, [r3, #-3]
 1144 0062 38BD     		pop	{r3, r4, r5, pc}
 1145              	.L92:
 1146              		.align	2
 1147              	.L91:
 1148 0064 82640040 		.word	1073767554
 1149 0068 80E100E0 		.word	-536813184
 1150 006c 00000000 		.word	SPIS_1_TX_ISR
 1151 0070 00000000 		.word	SPIS_1_RX_ISR
 1152 0074 00000000 		.word	SPIS_1_rxBufferFull
 1153 0078 00000000 		.word	SPIS_1_rxBufferRead
 1154 007c 00000000 		.word	SPIS_1_rxBufferWrite
 1155 0080 00000000 		.word	SPIS_1_txBufferFull
 1156 0084 00000000 		.word	SPIS_1_txBufferRead
 1157 0088 00000000 		.word	SPIS_1_txBufferWrite
 1158 008c 87640040 		.word	1073767559
 1159              		.cfi_endproc
 1160              	.LFE0:
 1161              		.size	SPIS_1_Init, .-SPIS_1_Init
 1162              		.section	.text.SPIS_1_Start,"ax",%progbits
 1163              		.align	1
 1164              		.global	SPIS_1_Start
 1165              		.thumb
 1166              		.thumb_func
 1167              		.type	SPIS_1_Start, %function
 1168              	SPIS_1_Start:
 1169              	.LFB2:
ARM GAS  C:\Users\Joe\AppData\Local\Temp\ccVurVSh.s 			page 42


 188:Generated_Source\PSoC5/SPIS_1.c ****     if(SPIS_1_initVar == 0u)
 1170              		.loc 1 188 0
 1171              		.cfi_startproc
 1172              		@ args = 0, pretend = 0, frame = 0
 1173              		@ frame_needed = 0, uses_anonymous_args = 0
 1174 0000 10B5     		push	{r4, lr}
 1175              		.cfi_def_cfa_offset 8
 1176              		.cfi_offset 4, -8
 1177              		.cfi_offset 14, -4
 189:Generated_Source\PSoC5/SPIS_1.c ****     {
 1178              		.loc 1 189 0
 1179 0002 054C     		ldr	r4, .L95
 1180 0004 2378     		ldrb	r3, [r4]	@ zero_extendqisi2
 1181 0006 1BB9     		cbnz	r3, .L94
 191:Generated_Source\PSoC5/SPIS_1.c ****         SPIS_1_initVar = 1u;
 1182              		.loc 1 191 0
 1183 0008 FFF7FEFF 		bl	SPIS_1_Init
 1184              	.LVL46:
 192:Generated_Source\PSoC5/SPIS_1.c ****     }
 1185              		.loc 1 192 0
 1186 000c 0123     		movs	r3, #1
 1187 000e 2370     		strb	r3, [r4]
 1188              	.L94:
 196:Generated_Source\PSoC5/SPIS_1.c **** 
 1189              		.loc 1 196 0
 1190 0010 BDE81040 		pop	{r4, lr}
 1191              		.cfi_restore 14
 1192              		.cfi_restore 4
 1193              		.cfi_def_cfa_offset 0
 195:Generated_Source\PSoC5/SPIS_1.c **** }
 1194              		.loc 1 195 0
 1195 0014 FFF7FEBF 		b	SPIS_1_Enable
 1196              	.LVL47:
 1197              	.L96:
 1198              		.align	2
 1199              	.L95:
 1200 0018 00000000 		.word	.LANCHOR0
 1201              		.cfi_endproc
 1202              	.LFE2:
 1203              		.size	SPIS_1_Start, .-SPIS_1_Start
 1204              		.section	.text.SPIS_1_EnableInt,"ax",%progbits
 1205              		.align	1
 1206              		.global	SPIS_1_EnableInt
 1207              		.thumb
 1208              		.thumb_func
 1209              		.type	SPIS_1_EnableInt, %function
 1210              	SPIS_1_EnableInt:
 1211              	.LFB21:
1108:Generated_Source\PSoC5/SPIS_1.c **** 
1109:Generated_Source\PSoC5/SPIS_1.c **** 
1110:Generated_Source\PSoC5/SPIS_1.c **** /* Following functions are for version Compatibility, they are obsolete.
1111:Generated_Source\PSoC5/SPIS_1.c **** *  Please do not use it in new projects.
1112:Generated_Source\PSoC5/SPIS_1.c **** */
1113:Generated_Source\PSoC5/SPIS_1.c **** 
1114:Generated_Source\PSoC5/SPIS_1.c **** 
1115:Generated_Source\PSoC5/SPIS_1.c **** /*******************************************************************************
1116:Generated_Source\PSoC5/SPIS_1.c **** * Function Name: SPIS_1_EnableInt
ARM GAS  C:\Users\Joe\AppData\Local\Temp\ccVurVSh.s 			page 43


1117:Generated_Source\PSoC5/SPIS_1.c **** ********************************************************************************
1118:Generated_Source\PSoC5/SPIS_1.c **** *
1119:Generated_Source\PSoC5/SPIS_1.c **** * Summary:
1120:Generated_Source\PSoC5/SPIS_1.c **** *  Enable internal interrupt generation.
1121:Generated_Source\PSoC5/SPIS_1.c **** *
1122:Generated_Source\PSoC5/SPIS_1.c **** * Parameters:
1123:Generated_Source\PSoC5/SPIS_1.c **** *  None.
1124:Generated_Source\PSoC5/SPIS_1.c **** *
1125:Generated_Source\PSoC5/SPIS_1.c **** * Return:
1126:Generated_Source\PSoC5/SPIS_1.c **** *  None.
1127:Generated_Source\PSoC5/SPIS_1.c **** *
1128:Generated_Source\PSoC5/SPIS_1.c **** * Theory:
1129:Generated_Source\PSoC5/SPIS_1.c **** *  Enable the internal interrupt output -or- the interrupt component itself.
1130:Generated_Source\PSoC5/SPIS_1.c **** *
1131:Generated_Source\PSoC5/SPIS_1.c **** *******************************************************************************/
1132:Generated_Source\PSoC5/SPIS_1.c **** void SPIS_1_EnableInt(void) 
1133:Generated_Source\PSoC5/SPIS_1.c **** {
 1212              		.loc 1 1133 0
 1213              		.cfi_startproc
 1214              		@ args = 0, pretend = 0, frame = 0
 1215              		@ frame_needed = 0, uses_anonymous_args = 0
 1216              		@ link register save eliminated.
1134:Generated_Source\PSoC5/SPIS_1.c ****     #if(SPIS_1_INTERNAL_TX_INT_ENABLED)
1135:Generated_Source\PSoC5/SPIS_1.c ****         CyIntEnable(SPIS_1_TX_ISR_NUMBER);
 1217              		.loc 1 1135 0
 1218 0000 024B     		ldr	r3, .L98
 1219 0002 0222     		movs	r2, #2
 1220 0004 1A60     		str	r2, [r3]
1136:Generated_Source\PSoC5/SPIS_1.c ****     #endif /* SPIS_1_INTERNAL_TX_INT_ENABLED */
1137:Generated_Source\PSoC5/SPIS_1.c **** 
1138:Generated_Source\PSoC5/SPIS_1.c ****     #if(SPIS_1_INTERNAL_RX_INT_ENABLED)
1139:Generated_Source\PSoC5/SPIS_1.c ****         CyIntEnable(SPIS_1_RX_ISR_NUMBER);
 1221              		.loc 1 1139 0
 1222 0006 0122     		movs	r2, #1
 1223 0008 1A60     		str	r2, [r3]
 1224 000a 7047     		bx	lr
 1225              	.L99:
 1226              		.align	2
 1227              	.L98:
 1228 000c 00E100E0 		.word	-536813312
 1229              		.cfi_endproc
 1230              	.LFE21:
 1231              		.size	SPIS_1_EnableInt, .-SPIS_1_EnableInt
 1232              		.section	.text.SPIS_1_DisableInt,"ax",%progbits
 1233              		.align	1
 1234              		.global	SPIS_1_DisableInt
 1235              		.thumb
 1236              		.thumb_func
 1237              		.type	SPIS_1_DisableInt, %function
 1238              	SPIS_1_DisableInt:
 1239              	.LFB22:
1140:Generated_Source\PSoC5/SPIS_1.c ****     #endif /* SPIS_1_INTERNAL_RX_INT_ENABLED */
1141:Generated_Source\PSoC5/SPIS_1.c **** }
1142:Generated_Source\PSoC5/SPIS_1.c **** 
1143:Generated_Source\PSoC5/SPIS_1.c **** 
1144:Generated_Source\PSoC5/SPIS_1.c **** /*******************************************************************************
1145:Generated_Source\PSoC5/SPIS_1.c **** * Function Name: SPIS_1_DisableInt
ARM GAS  C:\Users\Joe\AppData\Local\Temp\ccVurVSh.s 			page 44


1146:Generated_Source\PSoC5/SPIS_1.c **** ********************************************************************************
1147:Generated_Source\PSoC5/SPIS_1.c **** *
1148:Generated_Source\PSoC5/SPIS_1.c **** * Summary:
1149:Generated_Source\PSoC5/SPIS_1.c **** *  Disable internal interrupt generation.
1150:Generated_Source\PSoC5/SPIS_1.c **** *
1151:Generated_Source\PSoC5/SPIS_1.c **** * Parameters:
1152:Generated_Source\PSoC5/SPIS_1.c **** *  None.
1153:Generated_Source\PSoC5/SPIS_1.c **** *
1154:Generated_Source\PSoC5/SPIS_1.c **** * Return:
1155:Generated_Source\PSoC5/SPIS_1.c **** *  None.
1156:Generated_Source\PSoC5/SPIS_1.c **** *
1157:Generated_Source\PSoC5/SPIS_1.c **** * Theory:
1158:Generated_Source\PSoC5/SPIS_1.c **** *  Disable the internal interrupt output -or- the interrupt component itself.
1159:Generated_Source\PSoC5/SPIS_1.c **** *
1160:Generated_Source\PSoC5/SPIS_1.c **** *******************************************************************************/
1161:Generated_Source\PSoC5/SPIS_1.c **** void SPIS_1_DisableInt(void) 
1162:Generated_Source\PSoC5/SPIS_1.c **** {
 1240              		.loc 1 1162 0
 1241              		.cfi_startproc
 1242              		@ args = 0, pretend = 0, frame = 0
 1243              		@ frame_needed = 0, uses_anonymous_args = 0
 1244              		@ link register save eliminated.
1163:Generated_Source\PSoC5/SPIS_1.c ****     #if(SPIS_1_INTERNAL_TX_INT_ENABLED)
1164:Generated_Source\PSoC5/SPIS_1.c ****         CyIntDisable(SPIS_1_TX_ISR_NUMBER);
 1245              		.loc 1 1164 0
 1246 0000 024B     		ldr	r3, .L101
 1247 0002 0222     		movs	r2, #2
 1248 0004 1A60     		str	r2, [r3]
1165:Generated_Source\PSoC5/SPIS_1.c ****     #endif /* SPIS_1_INTERNAL_TX_INT_ENABLED */
1166:Generated_Source\PSoC5/SPIS_1.c **** 
1167:Generated_Source\PSoC5/SPIS_1.c ****     #if(SPIS_1_INTERNAL_RX_INT_ENABLED)
1168:Generated_Source\PSoC5/SPIS_1.c ****         CyIntDisable(SPIS_1_RX_ISR_NUMBER);
 1249              		.loc 1 1168 0
 1250 0006 0122     		movs	r2, #1
 1251 0008 1A60     		str	r2, [r3]
 1252 000a 7047     		bx	lr
 1253              	.L102:
 1254              		.align	2
 1255              	.L101:
 1256 000c 80E100E0 		.word	-536813184
 1257              		.cfi_endproc
 1258              	.LFE22:
 1259              		.size	SPIS_1_DisableInt, .-SPIS_1_DisableInt
 1260              		.section	.text.SPIS_1_SetInterruptMode,"ax",%progbits
 1261              		.align	1
 1262              		.global	SPIS_1_SetInterruptMode
 1263              		.thumb
 1264              		.thumb_func
 1265              		.type	SPIS_1_SetInterruptMode, %function
 1266              	SPIS_1_SetInterruptMode:
 1267              	.LFB23:
1169:Generated_Source\PSoC5/SPIS_1.c ****     #endif /* SPIS_1_INTERNAL_RX_INT_ENABLED */
1170:Generated_Source\PSoC5/SPIS_1.c **** }
1171:Generated_Source\PSoC5/SPIS_1.c **** 
1172:Generated_Source\PSoC5/SPIS_1.c **** 
1173:Generated_Source\PSoC5/SPIS_1.c **** /*******************************************************************************
1174:Generated_Source\PSoC5/SPIS_1.c **** * Function Name: SPIS_1_SetInterruptMode
ARM GAS  C:\Users\Joe\AppData\Local\Temp\ccVurVSh.s 			page 45


1175:Generated_Source\PSoC5/SPIS_1.c **** ********************************************************************************
1176:Generated_Source\PSoC5/SPIS_1.c **** *
1177:Generated_Source\PSoC5/SPIS_1.c **** * Summary:
1178:Generated_Source\PSoC5/SPIS_1.c **** *  Configure which status bits trigger an interrupt event.
1179:Generated_Source\PSoC5/SPIS_1.c **** *
1180:Generated_Source\PSoC5/SPIS_1.c **** * Parameters:
1181:Generated_Source\PSoC5/SPIS_1.c **** *  intSrc: An or'd combination of the desired status bit masks (defined in the
1182:Generated_Source\PSoC5/SPIS_1.c **** *  header file).
1183:Generated_Source\PSoC5/SPIS_1.c **** *
1184:Generated_Source\PSoC5/SPIS_1.c **** * Return:
1185:Generated_Source\PSoC5/SPIS_1.c **** *  None.
1186:Generated_Source\PSoC5/SPIS_1.c **** *
1187:Generated_Source\PSoC5/SPIS_1.c **** * Theory:
1188:Generated_Source\PSoC5/SPIS_1.c **** *  Enables the output of specific status bits to the interrupt controller.
1189:Generated_Source\PSoC5/SPIS_1.c **** *
1190:Generated_Source\PSoC5/SPIS_1.c **** *******************************************************************************/
1191:Generated_Source\PSoC5/SPIS_1.c **** void SPIS_1_SetInterruptMode(uint8 intSrc) 
1192:Generated_Source\PSoC5/SPIS_1.c **** {
 1268              		.loc 1 1192 0
 1269              		.cfi_startproc
 1270              		@ args = 0, pretend = 0, frame = 0
 1271              		@ frame_needed = 0, uses_anonymous_args = 0
 1272              		@ link register save eliminated.
 1273              	.LVL48:
1193:Generated_Source\PSoC5/SPIS_1.c ****     SPIS_1_TX_STATUS_MASK_REG  = intSrc;
 1274              		.loc 1 1193 0
 1275 0000 024B     		ldr	r3, .L104
 1276 0002 1870     		strb	r0, [r3]
1194:Generated_Source\PSoC5/SPIS_1.c ****     SPIS_1_RX_STATUS_MASK_REG  = intSrc;
 1277              		.loc 1 1194 0
 1278 0004 03F8030C 		strb	r0, [r3, #-3]
 1279 0008 7047     		bx	lr
 1280              	.L105:
 1281 000a 00BF     		.align	2
 1282              	.L104:
 1283 000c 87640040 		.word	1073767559
 1284              		.cfi_endproc
 1285              	.LFE23:
 1286              		.size	SPIS_1_SetInterruptMode, .-SPIS_1_SetInterruptMode
 1287              		.section	.text.SPIS_1_ReadStatus,"ax",%progbits
 1288              		.align	1
 1289              		.global	SPIS_1_ReadStatus
 1290              		.thumb
 1291              		.thumb_func
 1292              		.type	SPIS_1_ReadStatus, %function
 1293              	SPIS_1_ReadStatus:
 1294              	.LFB24:
1195:Generated_Source\PSoC5/SPIS_1.c **** }
1196:Generated_Source\PSoC5/SPIS_1.c **** 
1197:Generated_Source\PSoC5/SPIS_1.c **** 
1198:Generated_Source\PSoC5/SPIS_1.c **** /*******************************************************************************
1199:Generated_Source\PSoC5/SPIS_1.c **** * Function Name: SPIS_1_ReadStatus
1200:Generated_Source\PSoC5/SPIS_1.c **** ********************************************************************************
1201:Generated_Source\PSoC5/SPIS_1.c **** *
1202:Generated_Source\PSoC5/SPIS_1.c **** * Summary:
1203:Generated_Source\PSoC5/SPIS_1.c **** *  Read the status register for the component.
1204:Generated_Source\PSoC5/SPIS_1.c **** *
ARM GAS  C:\Users\Joe\AppData\Local\Temp\ccVurVSh.s 			page 46


1205:Generated_Source\PSoC5/SPIS_1.c **** * Parameters:
1206:Generated_Source\PSoC5/SPIS_1.c **** *  None.
1207:Generated_Source\PSoC5/SPIS_1.c **** *
1208:Generated_Source\PSoC5/SPIS_1.c **** * Return:
1209:Generated_Source\PSoC5/SPIS_1.c **** *  Contents of the status register.
1210:Generated_Source\PSoC5/SPIS_1.c **** *
1211:Generated_Source\PSoC5/SPIS_1.c **** * Global variables:
1212:Generated_Source\PSoC5/SPIS_1.c **** *  SPIS_1_swStatus - used to store in software status register,
1213:Generated_Source\PSoC5/SPIS_1.c **** *  modified every function call - resets to zero.
1214:Generated_Source\PSoC5/SPIS_1.c **** *
1215:Generated_Source\PSoC5/SPIS_1.c **** * Theory:
1216:Generated_Source\PSoC5/SPIS_1.c **** *  Allows the user and the API to read the status register for error detection
1217:Generated_Source\PSoC5/SPIS_1.c **** *  and flow control.
1218:Generated_Source\PSoC5/SPIS_1.c **** *
1219:Generated_Source\PSoC5/SPIS_1.c **** * Side Effects:
1220:Generated_Source\PSoC5/SPIS_1.c **** *  Clear status register of the component.
1221:Generated_Source\PSoC5/SPIS_1.c **** *
1222:Generated_Source\PSoC5/SPIS_1.c **** * Reentrant:
1223:Generated_Source\PSoC5/SPIS_1.c **** *  No.
1224:Generated_Source\PSoC5/SPIS_1.c **** *
1225:Generated_Source\PSoC5/SPIS_1.c **** *******************************************************************************/
1226:Generated_Source\PSoC5/SPIS_1.c **** uint8 SPIS_1_ReadStatus(void) 
1227:Generated_Source\PSoC5/SPIS_1.c **** {
 1295              		.loc 1 1227 0
 1296              		.cfi_startproc
 1297              		@ args = 0, pretend = 0, frame = 0
 1298              		@ frame_needed = 0, uses_anonymous_args = 0
 1299 0000 70B5     		push	{r4, r5, r6, lr}
 1300              		.cfi_def_cfa_offset 16
 1301              		.cfi_offset 4, -16
 1302              		.cfi_offset 5, -12
 1303              		.cfi_offset 6, -8
 1304              		.cfi_offset 14, -4
1228:Generated_Source\PSoC5/SPIS_1.c ****     uint8 tmpStatus;
1229:Generated_Source\PSoC5/SPIS_1.c **** 
1230:Generated_Source\PSoC5/SPIS_1.c ****     #if ((SPIS_1_TX_SOFTWARE_BUF_ENABLED) || (SPIS_1_RX_SOFTWARE_BUF_ENABLED))
1231:Generated_Source\PSoC5/SPIS_1.c **** 
1232:Generated_Source\PSoC5/SPIS_1.c ****         SPIS_1_DisableInt();
 1305              		.loc 1 1232 0
 1306 0002 FFF7FEFF 		bl	SPIS_1_DisableInt
 1307              	.LVL49:
1233:Generated_Source\PSoC5/SPIS_1.c **** 
1234:Generated_Source\PSoC5/SPIS_1.c ****         tmpStatus = SPIS_1_GET_STATUS_TX(SPIS_1_swStatusTx) |
 1308              		.loc 1 1234 0
 1309 0006 0D4E     		ldr	r6, .L107
1235:Generated_Source\PSoC5/SPIS_1.c ****               (SPIS_1_GET_STATUS_RX(SPIS_1_swStatusRx) & (uint8)~SPIS_1_STS_RX_FIFO_FULL);
 1310              		.loc 1 1235 0
 1311 0008 0D4A     		ldr	r2, .L107+4
1234:Generated_Source\PSoC5/SPIS_1.c ****               (SPIS_1_GET_STATUS_RX(SPIS_1_swStatusRx) & (uint8)~SPIS_1_STS_RX_FIFO_FULL);
 1312              		.loc 1 1234 0
 1313 000a 0E4B     		ldr	r3, .L107+8
 1314 000c 1878     		ldrb	r0, [r3]	@ zero_extendqisi2
 1315 000e 3478     		ldrb	r4, [r6]	@ zero_extendqisi2
 1316              		.loc 1 1235 0
 1317 0010 13F8031C 		ldrb	r1, [r3, #-3]	@ zero_extendqisi2
 1318 0014 1378     		ldrb	r3, [r2]	@ zero_extendqisi2
 1319 0016 CDB2     		uxtb	r5, r1
ARM GAS  C:\Users\Joe\AppData\Local\Temp\ccVurVSh.s 			page 47


 1320 0018 D9B2     		uxtb	r1, r3
1236:Generated_Source\PSoC5/SPIS_1.c **** 
1237:Generated_Source\PSoC5/SPIS_1.c ****         SPIS_1_swStatusTx = 0u;
 1321              		.loc 1 1237 0
 1322 001a 0023     		movs	r3, #0
 1323 001c 3370     		strb	r3, [r6]
1234:Generated_Source\PSoC5/SPIS_1.c ****               (SPIS_1_GET_STATUS_RX(SPIS_1_swStatusRx) & (uint8)~SPIS_1_STS_RX_FIFO_FULL);
 1324              		.loc 1 1234 0
 1325 001e C0B2     		uxtb	r0, r0
1238:Generated_Source\PSoC5/SPIS_1.c ****         SPIS_1_swStatusRx = 0u;
 1326              		.loc 1 1238 0
 1327 0020 1370     		strb	r3, [r2]
1239:Generated_Source\PSoC5/SPIS_1.c **** 
1240:Generated_Source\PSoC5/SPIS_1.c ****         /* Enable Interrupts */
1241:Generated_Source\PSoC5/SPIS_1.c ****         SPIS_1_EnableInt();
 1328              		.loc 1 1241 0
 1329 0022 FFF7FEFF 		bl	SPIS_1_EnableInt
 1330              	.LVL50:
1234:Generated_Source\PSoC5/SPIS_1.c ****               (SPIS_1_GET_STATUS_RX(SPIS_1_swStatusRx) & (uint8)~SPIS_1_STS_RX_FIFO_FULL);
 1331              		.loc 1 1234 0
 1332 0026 E4B2     		uxtb	r4, r4
1242:Generated_Source\PSoC5/SPIS_1.c **** 
1243:Generated_Source\PSoC5/SPIS_1.c ****     #else /* !((SPIS_1_TX_SOFTWARE_BUF_ENABLED) || (SPIS_1_RX_SOFTWARE_BUF_ENABLED)) */
1244:Generated_Source\PSoC5/SPIS_1.c **** 
1245:Generated_Source\PSoC5/SPIS_1.c ****         tmpStatus = SPIS_1_TX_STATUS_REG | (SPIS_1_RX_STATUS_REG &
1246:Generated_Source\PSoC5/SPIS_1.c ****                                                       (uint8)~SPIS_1_STS_RX_FIFO_FULL);
1247:Generated_Source\PSoC5/SPIS_1.c **** 
1248:Generated_Source\PSoC5/SPIS_1.c ****     #endif /* (SPIS_1_TX_SOFTWARE_BUF_ENABLED) || (SPIS_1_RX_SOFTWARE_BUF_ENABLED) */
1249:Generated_Source\PSoC5/SPIS_1.c **** 
1250:Generated_Source\PSoC5/SPIS_1.c ****     return(tmpStatus);
 1333              		.loc 1 1250 0
 1334 0028 01F06101 		and	r1, r1, #97
 1335 002c 2943     		orrs	r1, r1, r5
 1336 002e 04F06104 		and	r4, r4, #97
 1337 0032 21F04001 		bic	r1, r1, #64
 1338 0036 2043     		orrs	r0, r0, r4
1251:Generated_Source\PSoC5/SPIS_1.c **** }
 1339              		.loc 1 1251 0
 1340 0038 0843     		orrs	r0, r0, r1
 1341 003a 70BD     		pop	{r4, r5, r6, pc}
 1342              	.L108:
 1343              		.align	2
 1344              	.L107:
 1345 003c 00000000 		.word	SPIS_1_swStatusTx
 1346 0040 00000000 		.word	SPIS_1_swStatusRx
 1347 0044 67640040 		.word	1073767527
 1348              		.cfi_endproc
 1349              	.LFE24:
 1350              		.size	SPIS_1_ReadStatus, .-SPIS_1_ReadStatus
 1351              		.comm	SPIS_1_swStatusRx,1,1
 1352              		.comm	SPIS_1_swStatusTx,1,1
 1353              		.global	SPIS_1_initVar
 1354              		.comm	SPIS_1_rxBufferFull,1,1
 1355              		.comm	SPIS_1_rxBufferWrite,1,1
 1356              		.comm	SPIS_1_rxBufferRead,1,1
 1357              		.comm	SPIS_1_rxBuffer,8,1
 1358              		.comm	SPIS_1_txBufferFull,1,1
ARM GAS  C:\Users\Joe\AppData\Local\Temp\ccVurVSh.s 			page 48


 1359              		.comm	SPIS_1_txBufferWrite,1,1
 1360              		.comm	SPIS_1_txBufferRead,1,1
 1361              		.comm	SPIS_1_txBuffer,8,1
 1362              		.bss
 1363              		.set	.LANCHOR0,. + 0
 1364              		.type	SPIS_1_initVar, %object
 1365              		.size	SPIS_1_initVar, 1
 1366              	SPIS_1_initVar:
 1367 0000 00       		.space	1
 1368              		.text
 1369              	.Letext0:
 1370              		.file 2 "Generated_Source\\PSoC5\\cytypes.h"
 1371              		.file 3 "Generated_Source\\PSoC5\\CyLib.h"