ARM GAS  C:\Users\Joe\AppData\Local\Temp\ccwCXT19.s 			page 1


   1              		.syntax unified
   2              		.cpu cortex-m3
   3              		.fpu softvfp
   4              		.eabi_attribute 20, 1
   5              		.eabi_attribute 21, 1
   6              		.eabi_attribute 23, 3
   7              		.eabi_attribute 24, 1
   8              		.eabi_attribute 25, 1
   9              		.eabi_attribute 26, 1
  10              		.eabi_attribute 30, 6
  11              		.eabi_attribute 34, 1
  12              		.eabi_attribute 18, 4
  13              		.thumb
  14              		.syntax unified
  15              		.file	"ADC_DelSig_1.c"
  16              		.text
  17              	.Ltext0:
  18              		.cfi_sections	.debug_frame
  19              		.global	ADC_DelSig_1_convDone
  20              		.bss
  21              		.type	ADC_DelSig_1_convDone, %object
  22              		.size	ADC_DelSig_1_convDone, 1
  23              	ADC_DelSig_1_convDone:
  24 0000 00       		.space	1
  25              		.global	ADC_DelSig_1_stopConversion
  26              		.type	ADC_DelSig_1_stopConversion, %object
  27              		.size	ADC_DelSig_1_stopConversion, 1
  28              	ADC_DelSig_1_stopConversion:
  29 0001 00       		.space	1
  30              		.global	ADC_DelSig_1_initVar
  31              		.type	ADC_DelSig_1_initVar, %object
  32              		.size	ADC_DelSig_1_initVar, 1
  33              	ADC_DelSig_1_initVar:
  34 0002 00       		.space	1
  35              		.global	ADC_DelSig_1_started
  36              		.type	ADC_DelSig_1_started, %object
  37              		.size	ADC_DelSig_1_started, 1
  38              	ADC_DelSig_1_started:
  39 0003 00       		.space	1
  40              		.global	ADC_DelSig_1_Config
  41              		.data
  42              		.type	ADC_DelSig_1_Config, %object
  43              		.size	ADC_DelSig_1_Config, 1
  44              	ADC_DelSig_1_Config:
  45 0000 01       		.byte	1
  46              		.comm	ADC_DelSig_1_Offset,4,4
  47              		.comm	ADC_DelSig_1_CountsPerVolt,4,4
  48              		.bss
  49              		.align	2
  50              	ADC_DelSig_1_gcor:
  51 0004 00000000 		.space	4
  52              		.section	.text.ADC_DelSig_1_Init,"ax",%progbits
  53              		.align	2
  54              		.global	ADC_DelSig_1_Init
  55              		.thumb
  56              		.thumb_func
  57              		.type	ADC_DelSig_1_Init, %function
ARM GAS  C:\Users\Joe\AppData\Local\Temp\ccwCXT19.s 			page 2


  58              	ADC_DelSig_1_Init:
  59              	.LFB0:
  60              		.file 1 "Generated_Source\\PSoC5\\ADC_DelSig_1.c"
   1:Generated_Source\PSoC5/ADC_DelSig_1.c **** /*******************************************************************************
   2:Generated_Source\PSoC5/ADC_DelSig_1.c **** * File Name: ADC_DelSig_1.c
   3:Generated_Source\PSoC5/ADC_DelSig_1.c **** * Version 3.20
   4:Generated_Source\PSoC5/ADC_DelSig_1.c **** *
   5:Generated_Source\PSoC5/ADC_DelSig_1.c **** * Description:
   6:Generated_Source\PSoC5/ADC_DelSig_1.c **** *  This file provides the source code to the API for the Delta-Sigma ADC
   7:Generated_Source\PSoC5/ADC_DelSig_1.c **** *  Component.
   8:Generated_Source\PSoC5/ADC_DelSig_1.c **** *
   9:Generated_Source\PSoC5/ADC_DelSig_1.c **** * Note:
  10:Generated_Source\PSoC5/ADC_DelSig_1.c **** *
  11:Generated_Source\PSoC5/ADC_DelSig_1.c **** ********************************************************************************
  12:Generated_Source\PSoC5/ADC_DelSig_1.c **** * Copyright 2008-2015, Cypress Semiconductor Corporation.  All rights reserved.
  13:Generated_Source\PSoC5/ADC_DelSig_1.c **** * You may use this file only in accordance with the license, terms, conditions,
  14:Generated_Source\PSoC5/ADC_DelSig_1.c **** * disclaimers, and limitations in the end user license agreement accompanying
  15:Generated_Source\PSoC5/ADC_DelSig_1.c **** * the software package with which this file was provided.
  16:Generated_Source\PSoC5/ADC_DelSig_1.c **** *******************************************************************************/
  17:Generated_Source\PSoC5/ADC_DelSig_1.c **** 
  18:Generated_Source\PSoC5/ADC_DelSig_1.c **** #include "ADC_DelSig_1.h"
  19:Generated_Source\PSoC5/ADC_DelSig_1.c **** 
  20:Generated_Source\PSoC5/ADC_DelSig_1.c **** #if(ADC_DelSig_1_DEFAULT_INTERNAL_CLK)
  21:Generated_Source\PSoC5/ADC_DelSig_1.c ****     #include "ADC_DelSig_1_theACLK.h"
  22:Generated_Source\PSoC5/ADC_DelSig_1.c **** #endif /* ADC_DelSig_1_DEFAULT_INTERNAL_CLK */
  23:Generated_Source\PSoC5/ADC_DelSig_1.c **** 
  24:Generated_Source\PSoC5/ADC_DelSig_1.c **** #include "ADC_DelSig_1_Ext_CP_Clk.h"
  25:Generated_Source\PSoC5/ADC_DelSig_1.c **** 
  26:Generated_Source\PSoC5/ADC_DelSig_1.c **** #if(ADC_DelSig_1_DEFAULT_INPUT_MODE)
  27:Generated_Source\PSoC5/ADC_DelSig_1.c ****     #include "ADC_DelSig_1_AMux.h"
  28:Generated_Source\PSoC5/ADC_DelSig_1.c **** #endif /* ADC_DelSig_1_DEFAULT_INPUT_MODE */
  29:Generated_Source\PSoC5/ADC_DelSig_1.c **** 
  30:Generated_Source\PSoC5/ADC_DelSig_1.c **** 
  31:Generated_Source\PSoC5/ADC_DelSig_1.c **** /***************************************
  32:Generated_Source\PSoC5/ADC_DelSig_1.c **** * Global data allocation
  33:Generated_Source\PSoC5/ADC_DelSig_1.c **** ***************************************/
  34:Generated_Source\PSoC5/ADC_DelSig_1.c **** 
  35:Generated_Source\PSoC5/ADC_DelSig_1.c **** /* Software flag for checking conversion completed or not */
  36:Generated_Source\PSoC5/ADC_DelSig_1.c **** volatile uint8 ADC_DelSig_1_convDone = 0u;
  37:Generated_Source\PSoC5/ADC_DelSig_1.c **** 
  38:Generated_Source\PSoC5/ADC_DelSig_1.c **** /* Software flag to stop conversion for single sample conversion mode
  39:Generated_Source\PSoC5/ADC_DelSig_1.c **** *   with resolution above 16 bits 
  40:Generated_Source\PSoC5/ADC_DelSig_1.c **** */
  41:Generated_Source\PSoC5/ADC_DelSig_1.c **** volatile uint8 ADC_DelSig_1_stopConversion = 0u;
  42:Generated_Source\PSoC5/ADC_DelSig_1.c **** 
  43:Generated_Source\PSoC5/ADC_DelSig_1.c **** /* To run the initialization block only at the start up */
  44:Generated_Source\PSoC5/ADC_DelSig_1.c **** uint8 ADC_DelSig_1_initVar = 0u;
  45:Generated_Source\PSoC5/ADC_DelSig_1.c **** 
  46:Generated_Source\PSoC5/ADC_DelSig_1.c **** /* To check whether ADC started or not before switching the configuration */
  47:Generated_Source\PSoC5/ADC_DelSig_1.c **** volatile uint8 ADC_DelSig_1_started = 0u;
  48:Generated_Source\PSoC5/ADC_DelSig_1.c **** 
  49:Generated_Source\PSoC5/ADC_DelSig_1.c **** /* Flag to hold ADC config number. By default active config is 1. */
  50:Generated_Source\PSoC5/ADC_DelSig_1.c **** volatile uint8 ADC_DelSig_1_Config = 1u;
  51:Generated_Source\PSoC5/ADC_DelSig_1.c **** 
  52:Generated_Source\PSoC5/ADC_DelSig_1.c **** volatile int32 ADC_DelSig_1_Offset;
  53:Generated_Source\PSoC5/ADC_DelSig_1.c **** volatile int32 ADC_DelSig_1_CountsPerVolt;
  54:Generated_Source\PSoC5/ADC_DelSig_1.c **** 
ARM GAS  C:\Users\Joe\AppData\Local\Temp\ccwCXT19.s 			page 3


  55:Generated_Source\PSoC5/ADC_DelSig_1.c **** 
  56:Generated_Source\PSoC5/ADC_DelSig_1.c **** /***************************************
  57:Generated_Source\PSoC5/ADC_DelSig_1.c **** * Local data allocation
  58:Generated_Source\PSoC5/ADC_DelSig_1.c **** ***************************************/
  59:Generated_Source\PSoC5/ADC_DelSig_1.c **** 
  60:Generated_Source\PSoC5/ADC_DelSig_1.c **** /* The array with precalculated gain compensation coefficients */
  61:Generated_Source\PSoC5/ADC_DelSig_1.c **** static ADC_DelSig_1_GCOR_STRUCT ADC_DelSig_1_gcor[ADC_DelSig_1_DEFAULT_NUM_CONFIGS];
  62:Generated_Source\PSoC5/ADC_DelSig_1.c **** 
  63:Generated_Source\PSoC5/ADC_DelSig_1.c **** 
  64:Generated_Source\PSoC5/ADC_DelSig_1.c **** 
  65:Generated_Source\PSoC5/ADC_DelSig_1.c **** /***************************************
  66:Generated_Source\PSoC5/ADC_DelSig_1.c **** * Forward function references
  67:Generated_Source\PSoC5/ADC_DelSig_1.c **** ***************************************/
  68:Generated_Source\PSoC5/ADC_DelSig_1.c **** static void ADC_DelSig_1_InitConfig(uint8 config) ;
  69:Generated_Source\PSoC5/ADC_DelSig_1.c **** static void ADC_DelSig_1_GainCompensation(uint8 inputRange, uint16 idealDecGain, uint16 idealOddDec
  70:Generated_Source\PSoC5/ADC_DelSig_1.c ****                             uint8 resolution, uint8 config) ;
  71:Generated_Source\PSoC5/ADC_DelSig_1.c **** static void ADC_DelSig_1_SetDSMRef0Reg(uint8 value) ;
  72:Generated_Source\PSoC5/ADC_DelSig_1.c **** 
  73:Generated_Source\PSoC5/ADC_DelSig_1.c **** 
  74:Generated_Source\PSoC5/ADC_DelSig_1.c **** /******************************************************************************
  75:Generated_Source\PSoC5/ADC_DelSig_1.c **** * Function Name: ADC_DelSig_1_Init
  76:Generated_Source\PSoC5/ADC_DelSig_1.c **** *******************************************************************************
  77:Generated_Source\PSoC5/ADC_DelSig_1.c **** *
  78:Generated_Source\PSoC5/ADC_DelSig_1.c **** * Summary:
  79:Generated_Source\PSoC5/ADC_DelSig_1.c **** *  Initialize component's parameters to the parameters set by user in the
  80:Generated_Source\PSoC5/ADC_DelSig_1.c **** *  customizer of the component placed onto schematic. Usually called in
  81:Generated_Source\PSoC5/ADC_DelSig_1.c **** * ADC_DelSig_1_Start().
  82:Generated_Source\PSoC5/ADC_DelSig_1.c **** *
  83:Generated_Source\PSoC5/ADC_DelSig_1.c **** *
  84:Generated_Source\PSoC5/ADC_DelSig_1.c **** * Parameters:
  85:Generated_Source\PSoC5/ADC_DelSig_1.c **** *  None
  86:Generated_Source\PSoC5/ADC_DelSig_1.c **** *
  87:Generated_Source\PSoC5/ADC_DelSig_1.c **** * Return:
  88:Generated_Source\PSoC5/ADC_DelSig_1.c **** *  None
  89:Generated_Source\PSoC5/ADC_DelSig_1.c **** *
  90:Generated_Source\PSoC5/ADC_DelSig_1.c **** *******************************************************************************/
  91:Generated_Source\PSoC5/ADC_DelSig_1.c **** void ADC_DelSig_1_Init(void) 
  92:Generated_Source\PSoC5/ADC_DelSig_1.c **** {
  61              		.loc 1 92 0
  62              		.cfi_startproc
  63              		@ args = 0, pretend = 0, frame = 0
  64              		@ frame_needed = 1, uses_anonymous_args = 0
  65 0000 80B5     		push	{r7, lr}
  66              		.cfi_def_cfa_offset 8
  67              		.cfi_offset 7, -8
  68              		.cfi_offset 14, -4
  69 0002 82B0     		sub	sp, sp, #8
  70              		.cfi_def_cfa_offset 16
  71 0004 02AF     		add	r7, sp, #8
  72              		.cfi_def_cfa 7, 8
  93:Generated_Source\PSoC5/ADC_DelSig_1.c **** 
  94:Generated_Source\PSoC5/ADC_DelSig_1.c ****     ADC_DelSig_1_Config = 1u;
  73              		.loc 1 94 0
  74 0006 324B     		ldr	r3, .L2
  75 0008 0122     		movs	r2, #1
  76 000a 1A70     		strb	r2, [r3]
  95:Generated_Source\PSoC5/ADC_DelSig_1.c ****     ADC_DelSig_1_convDone = 0u;
ARM GAS  C:\Users\Joe\AppData\Local\Temp\ccwCXT19.s 			page 4


  77              		.loc 1 95 0
  78 000c 314B     		ldr	r3, .L2+4
  79 000e 0022     		movs	r2, #0
  80 0010 1A70     		strb	r2, [r3]
  96:Generated_Source\PSoC5/ADC_DelSig_1.c **** 
  97:Generated_Source\PSoC5/ADC_DelSig_1.c ****     ADC_DelSig_1_Ext_CP_Clk_SetMode(CYCLK_DUTY);
  81              		.loc 1 97 0
  82 0012 1020     		movs	r0, #16
  83 0014 FFF7FEFF 		bl	ADC_DelSig_1_Ext_CP_Clk_SetModeRegister
  98:Generated_Source\PSoC5/ADC_DelSig_1.c **** 
  99:Generated_Source\PSoC5/ADC_DelSig_1.c ****     /* This is only valid if there is an internal clock */
 100:Generated_Source\PSoC5/ADC_DelSig_1.c ****     #if(ADC_DelSig_1_DEFAULT_INTERNAL_CLK)
 101:Generated_Source\PSoC5/ADC_DelSig_1.c ****         ADC_DelSig_1_theACLK_SetMode(CYCLK_DUTY);
  84              		.loc 1 101 0
  85 0018 1020     		movs	r0, #16
  86 001a FFF7FEFF 		bl	ADC_DelSig_1_theACLK_SetModeRegister
 102:Generated_Source\PSoC5/ADC_DelSig_1.c ****     #endif /* ADC_DelSig_1_DEFAULT_INTERNAL_CLK */
 103:Generated_Source\PSoC5/ADC_DelSig_1.c **** 
 104:Generated_Source\PSoC5/ADC_DelSig_1.c ****     #if(ADC_DelSig_1_IRQ_REMOVE == 0u)
 105:Generated_Source\PSoC5/ADC_DelSig_1.c ****         /* Set interrupt priority */
 106:Generated_Source\PSoC5/ADC_DelSig_1.c ****         CyIntSetPriority(ADC_DelSig_1_INTC_NUMBER, ADC_DelSig_1_INTC_PRIOR_NUMBER);
  87              		.loc 1 106 0
  88 001e 0721     		movs	r1, #7
  89 0020 1D20     		movs	r0, #29
  90 0022 FFF7FEFF 		bl	CyIntSetPriority
 107:Generated_Source\PSoC5/ADC_DelSig_1.c ****     #endif   /* End ADC_DelSig_1_IRQ_REMOVE */
 108:Generated_Source\PSoC5/ADC_DelSig_1.c **** 
 109:Generated_Source\PSoC5/ADC_DelSig_1.c ****     /* Init static registers with common configuration */
 110:Generated_Source\PSoC5/ADC_DelSig_1.c ****     ADC_DelSig_1_DSM_DEM0_REG    = ADC_DelSig_1_CFG1_DSM_DEM0;
  91              		.loc 1 110 0
  92 0026 2C4B     		ldr	r3, .L2+8
  93 0028 0422     		movs	r2, #4
  94 002a 1A70     		strb	r2, [r3]
 111:Generated_Source\PSoC5/ADC_DelSig_1.c ****     ADC_DelSig_1_DSM_DEM1_REG    = ADC_DelSig_1_CFG1_DSM_DEM1;
  95              		.loc 1 111 0
  96 002c 2B4B     		ldr	r3, .L2+12
  97 002e 0022     		movs	r2, #0
  98 0030 1A70     		strb	r2, [r3]
 112:Generated_Source\PSoC5/ADC_DelSig_1.c ****     ADC_DelSig_1_DSM_MISC_REG    = ADC_DelSig_1_CFG1_DSM_MISC;
  99              		.loc 1 112 0
 100 0032 2B4B     		ldr	r3, .L2+16
 101 0034 0022     		movs	r2, #0
 102 0036 1A70     		strb	r2, [r3]
 113:Generated_Source\PSoC5/ADC_DelSig_1.c ****     ADC_DelSig_1_DSM_CLK_REG    |= ADC_DelSig_1_CFG1_DSM_CLK;
 103              		.loc 1 113 0
 104 0038 2A4A     		ldr	r2, .L2+20
 105 003a 2A4B     		ldr	r3, .L2+20
 106 003c 1B78     		ldrb	r3, [r3]
 107 003e DBB2     		uxtb	r3, r3
 108 0040 43F01803 		orr	r3, r3, #24
 109 0044 DBB2     		uxtb	r3, r3
 110 0046 1370     		strb	r3, [r2]
 114:Generated_Source\PSoC5/ADC_DelSig_1.c ****     ADC_DelSig_1_DSM_REF1_REG    = ADC_DelSig_1_CFG1_DSM_REF1;
 111              		.loc 1 114 0
 112 0048 274B     		ldr	r3, .L2+24
 113 004a 0022     		movs	r2, #0
 114 004c 1A70     		strb	r2, [r3]
ARM GAS  C:\Users\Joe\AppData\Local\Temp\ccwCXT19.s 			page 5


 115:Generated_Source\PSoC5/ADC_DelSig_1.c **** 
 116:Generated_Source\PSoC5/ADC_DelSig_1.c ****     ADC_DelSig_1_DSM_OUT0_REG    = ADC_DelSig_1_CFG1_DSM_OUT0;
 115              		.loc 1 116 0
 116 004e 274B     		ldr	r3, .L2+28
 117 0050 0022     		movs	r2, #0
 118 0052 1A70     		strb	r2, [r3]
 117:Generated_Source\PSoC5/ADC_DelSig_1.c ****     ADC_DelSig_1_DSM_OUT1_REG    = ADC_DelSig_1_CFG1_DSM_OUT1;
 119              		.loc 1 117 0
 120 0054 264B     		ldr	r3, .L2+32
 121 0056 0022     		movs	r2, #0
 122 0058 1A70     		strb	r2, [r3]
 118:Generated_Source\PSoC5/ADC_DelSig_1.c **** 
 119:Generated_Source\PSoC5/ADC_DelSig_1.c ****     ADC_DelSig_1_DSM_CR0_REG     = ADC_DelSig_1_CFG1_DSM_CR0;
 123              		.loc 1 119 0
 124 005a 264B     		ldr	r3, .L2+36
 125 005c 0A22     		movs	r2, #10
 126 005e 1A70     		strb	r2, [r3]
 120:Generated_Source\PSoC5/ADC_DelSig_1.c ****     ADC_DelSig_1_DSM_CR1_REG     = ADC_DelSig_1_CFG1_DSM_CR1;
 127              		.loc 1 120 0
 128 0060 254B     		ldr	r3, .L2+40
 129 0062 0022     		movs	r2, #0
 130 0064 1A70     		strb	r2, [r3]
 121:Generated_Source\PSoC5/ADC_DelSig_1.c **** #if(ADC_DelSig_1_MI_ENABLE != 0u) /* Enable Modulator Input */
 122:Generated_Source\PSoC5/ADC_DelSig_1.c ****     ADC_DelSig_1_DSM_CR3_REG     |= ADC_DelSig_1_DSM_MODBIT_EN;
 123:Generated_Source\PSoC5/ADC_DelSig_1.c **** #else
 124:Generated_Source\PSoC5/ADC_DelSig_1.c ****     ADC_DelSig_1_DSM_CR3_REG     = ADC_DelSig_1_CFG1_DSM_CR3;
 131              		.loc 1 124 0
 132 0066 254B     		ldr	r3, .L2+44
 133 0068 0022     		movs	r2, #0
 134 006a 1A70     		strb	r2, [r3]
 125:Generated_Source\PSoC5/ADC_DelSig_1.c **** #endif /* ADC_DelSig_1_MI_ENABLE != 0u*/    
 126:Generated_Source\PSoC5/ADC_DelSig_1.c ****     ADC_DelSig_1_DSM_CR8_REG     = ADC_DelSig_1_CFG1_DSM_CR8;
 135              		.loc 1 126 0
 136 006c 244B     		ldr	r3, .L2+48
 137 006e 5B22     		movs	r2, #91
 138 0070 1A70     		strb	r2, [r3]
 127:Generated_Source\PSoC5/ADC_DelSig_1.c ****     ADC_DelSig_1_DSM_CR9_REG     = ADC_DelSig_1_CFG1_DSM_CR9;
 139              		.loc 1 127 0
 140 0072 244B     		ldr	r3, .L2+52
 141 0074 5E22     		movs	r2, #94
 142 0076 1A70     		strb	r2, [r3]
 128:Generated_Source\PSoC5/ADC_DelSig_1.c ****     ADC_DelSig_1_DSM_CR13_REG    = ADC_DelSig_1_CFG1_DSM_CR13;
 143              		.loc 1 128 0
 144 0078 234B     		ldr	r3, .L2+56
 145 007a 0022     		movs	r2, #0
 146 007c 1A70     		strb	r2, [r3]
 129:Generated_Source\PSoC5/ADC_DelSig_1.c **** 
 130:Generated_Source\PSoC5/ADC_DelSig_1.c ****     ADC_DelSig_1_DEC_SR_REG      = ADC_DelSig_1_CFG1_DEC_SR;
 147              		.loc 1 130 0
 148 007e 234B     		ldr	r3, .L2+60
 149 0080 1422     		movs	r2, #20
 150 0082 1A70     		strb	r2, [r3]
 131:Generated_Source\PSoC5/ADC_DelSig_1.c **** 
 132:Generated_Source\PSoC5/ADC_DelSig_1.c ****     /* Calculate Gain compensation coefficients for all configurations */
 133:Generated_Source\PSoC5/ADC_DelSig_1.c ****     ADC_DelSig_1_GainCompensation(ADC_DelSig_1_CFG1_INPUT_RANGE,
 151              		.loc 1 133 0
 152 0084 0123     		movs	r3, #1
ARM GAS  C:\Users\Joe\AppData\Local\Temp\ccwCXT19.s 			page 6


 153 0086 0093     		str	r3, [sp]
 154 0088 1023     		movs	r3, #16
 155 008a 4FF40042 		mov	r2, #32768
 156 008e 48F6F051 		movw	r1, #36336
 157 0092 0220     		movs	r0, #2
 158 0094 FFF7FEFF 		bl	ADC_DelSig_1_GainCompensation
 134:Generated_Source\PSoC5/ADC_DelSig_1.c ****                                       ADC_DelSig_1_CFG1_IDEAL_DEC_GAIN,
 135:Generated_Source\PSoC5/ADC_DelSig_1.c ****                                       ADC_DelSig_1_CFG1_IDEAL_ODDDEC_GAIN,
 136:Generated_Source\PSoC5/ADC_DelSig_1.c ****                                       ADC_DelSig_1_CFG1_RESOLUTION,
 137:Generated_Source\PSoC5/ADC_DelSig_1.c ****                                       ADC_DelSig_1_CFG1);
 138:Generated_Source\PSoC5/ADC_DelSig_1.c ****     #if(ADC_DelSig_1_DEFAULT_NUM_CONFIGS > 1)
 139:Generated_Source\PSoC5/ADC_DelSig_1.c ****         ADC_DelSig_1_GainCompensation(ADC_DelSig_1_CFG2_INPUT_RANGE,
 140:Generated_Source\PSoC5/ADC_DelSig_1.c ****                                           ADC_DelSig_1_CFG2_IDEAL_DEC_GAIN,
 141:Generated_Source\PSoC5/ADC_DelSig_1.c ****                                           ADC_DelSig_1_CFG2_IDEAL_ODDDEC_GAIN,
 142:Generated_Source\PSoC5/ADC_DelSig_1.c ****                                           ADC_DelSig_1_CFG2_RESOLUTION,
 143:Generated_Source\PSoC5/ADC_DelSig_1.c ****                                           ADC_DelSig_1_CFG2);
 144:Generated_Source\PSoC5/ADC_DelSig_1.c ****     #endif /* ADC_DelSig_1_DEFAULT_NUM_CONFIGS > 1 */
 145:Generated_Source\PSoC5/ADC_DelSig_1.c ****     #if(ADC_DelSig_1_DEFAULT_NUM_CONFIGS > 2)
 146:Generated_Source\PSoC5/ADC_DelSig_1.c ****         ADC_DelSig_1_GainCompensation(ADC_DelSig_1_CFG3_INPUT_RANGE,
 147:Generated_Source\PSoC5/ADC_DelSig_1.c ****                                           ADC_DelSig_1_CFG3_IDEAL_DEC_GAIN,
 148:Generated_Source\PSoC5/ADC_DelSig_1.c ****                                           ADC_DelSig_1_CFG3_IDEAL_ODDDEC_GAIN,
 149:Generated_Source\PSoC5/ADC_DelSig_1.c ****                                           ADC_DelSig_1_CFG3_RESOLUTION,
 150:Generated_Source\PSoC5/ADC_DelSig_1.c ****                                           ADC_DelSig_1_CFG3);
 151:Generated_Source\PSoC5/ADC_DelSig_1.c ****     #endif /* ADC_DelSig_1_DEFAULT_NUM_CONFIGS > 2 */
 152:Generated_Source\PSoC5/ADC_DelSig_1.c ****     #if(ADC_DelSig_1_DEFAULT_NUM_CONFIGS > 3)
 153:Generated_Source\PSoC5/ADC_DelSig_1.c ****         ADC_DelSig_1_GainCompensation(ADC_DelSig_1_CFG4_INPUT_RANGE,
 154:Generated_Source\PSoC5/ADC_DelSig_1.c ****                                           ADC_DelSig_1_CFG4_IDEAL_DEC_GAIN,
 155:Generated_Source\PSoC5/ADC_DelSig_1.c ****                                           ADC_DelSig_1_CFG4_IDEAL_ODDDEC_GAIN,
 156:Generated_Source\PSoC5/ADC_DelSig_1.c ****                                           ADC_DelSig_1_CFG4_RESOLUTION,
 157:Generated_Source\PSoC5/ADC_DelSig_1.c ****                                           ADC_DelSig_1_CFG4);
 158:Generated_Source\PSoC5/ADC_DelSig_1.c ****     #endif /* ADC_DelSig_1_DEFAULT_NUM_CONFIGS > 3 */
 159:Generated_Source\PSoC5/ADC_DelSig_1.c **** 
 160:Generated_Source\PSoC5/ADC_DelSig_1.c ****     /* Set GCOR register for config1 */
 161:Generated_Source\PSoC5/ADC_DelSig_1.c ****     ADC_DelSig_1_DEC_GVAL_REG = ADC_DelSig_1_gcor[ADC_DelSig_1_Config - 1u].gval;
 159              		.loc 1 161 0
 160 0098 1D4A     		ldr	r2, .L2+64
 161 009a 0D4B     		ldr	r3, .L2
 162 009c 1B78     		ldrb	r3, [r3]
 163 009e DBB2     		uxtb	r3, r3
 164 00a0 013B     		subs	r3, r3, #1
 165 00a2 1C49     		ldr	r1, .L2+68
 166 00a4 9B00     		lsls	r3, r3, #2
 167 00a6 0B44     		add	r3, r3, r1
 168 00a8 9B78     		ldrb	r3, [r3, #2]	@ zero_extendqisi2
 169 00aa 1370     		strb	r3, [r2]
 162:Generated_Source\PSoC5/ADC_DelSig_1.c ****     CY_SET_REG16(ADC_DelSig_1_DEC_GCOR_16B_PTR, ADC_DelSig_1_gcor[ADC_DelSig_1_Config - 1u].gcor);
 170              		.loc 1 162 0
 171 00ac 1A4A     		ldr	r2, .L2+72
 172 00ae 084B     		ldr	r3, .L2
 173 00b0 1B78     		ldrb	r3, [r3]
 174 00b2 DBB2     		uxtb	r3, r3
 175 00b4 013B     		subs	r3, r3, #1
 176 00b6 1749     		ldr	r1, .L2+68
 177 00b8 31F82330 		ldrh	r3, [r1, r3, lsl #2]
 178 00bc 1380     		strh	r3, [r2]	@ movhi
 163:Generated_Source\PSoC5/ADC_DelSig_1.c **** 
 164:Generated_Source\PSoC5/ADC_DelSig_1.c ****     /* Initialize the registers with default customizer settings for config1 */
ARM GAS  C:\Users\Joe\AppData\Local\Temp\ccwCXT19.s 			page 7


 165:Generated_Source\PSoC5/ADC_DelSig_1.c ****     ADC_DelSig_1_InitConfig(ADC_DelSig_1_Config);
 179              		.loc 1 165 0
 180 00be 044B     		ldr	r3, .L2
 181 00c0 1B78     		ldrb	r3, [r3]
 182 00c2 DBB2     		uxtb	r3, r3
 183 00c4 1846     		mov	r0, r3
 184 00c6 FFF7FEFF 		bl	ADC_DelSig_1_InitConfig
 166:Generated_Source\PSoC5/ADC_DelSig_1.c **** }
 185              		.loc 1 166 0
 186 00ca 00BF     		nop
 187 00cc BD46     		mov	sp, r7
 188              		.cfi_def_cfa_register 13
 189              		@ sp needed
 190 00ce 80BD     		pop	{r7, pc}
 191              	.L3:
 192              		.align	2
 193              	.L2:
 194 00d0 00000000 		.word	ADC_DelSig_1_Config
 195 00d4 00000000 		.word	ADC_DelSig_1_convDone
 196 00d8 96580040 		.word	1073764502
 197 00dc 97580040 		.word	1073764503
 198 00e0 9E580040 		.word	1073764510
 199 00e4 075B0040 		.word	1073765127
 200 00e8 93580040 		.word	1073764499
 201 00ec 885B0040 		.word	1073765256
 202 00f0 895B0040 		.word	1073765257
 203 00f4 80580040 		.word	1073764480
 204 00f8 81580040 		.word	1073764481
 205 00fc 83580040 		.word	1073764483
 206 0100 88580040 		.word	1073764488
 207 0104 89580040 		.word	1073764489
 208 0108 8D580040 		.word	1073764493
 209 010c 014E0040 		.word	1073761793
 210 0110 0E4E0040 		.word	1073761806
 211 0114 04000000 		.word	ADC_DelSig_1_gcor
 212 0118 0C4E0040 		.word	1073761804
 213              		.cfi_endproc
 214              	.LFE0:
 215              		.size	ADC_DelSig_1_Init, .-ADC_DelSig_1_Init
 216              		.section	.text.ADC_DelSig_1_Enable,"ax",%progbits
 217              		.align	2
 218              		.global	ADC_DelSig_1_Enable
 219              		.thumb
 220              		.thumb_func
 221              		.type	ADC_DelSig_1_Enable, %function
 222              	ADC_DelSig_1_Enable:
 223              	.LFB1:
 167:Generated_Source\PSoC5/ADC_DelSig_1.c **** 
 168:Generated_Source\PSoC5/ADC_DelSig_1.c **** 
 169:Generated_Source\PSoC5/ADC_DelSig_1.c **** /******************************************************************************
 170:Generated_Source\PSoC5/ADC_DelSig_1.c **** * Function Name: ADC_DelSig_1_Enable
 171:Generated_Source\PSoC5/ADC_DelSig_1.c **** *******************************************************************************
 172:Generated_Source\PSoC5/ADC_DelSig_1.c **** *
 173:Generated_Source\PSoC5/ADC_DelSig_1.c **** * Summary:
 174:Generated_Source\PSoC5/ADC_DelSig_1.c **** *  Enables the ADC DelSig block operation.
 175:Generated_Source\PSoC5/ADC_DelSig_1.c **** *
 176:Generated_Source\PSoC5/ADC_DelSig_1.c **** *
ARM GAS  C:\Users\Joe\AppData\Local\Temp\ccwCXT19.s 			page 8


 177:Generated_Source\PSoC5/ADC_DelSig_1.c **** * Parameters:
 178:Generated_Source\PSoC5/ADC_DelSig_1.c **** *  None
 179:Generated_Source\PSoC5/ADC_DelSig_1.c **** *
 180:Generated_Source\PSoC5/ADC_DelSig_1.c **** * Return:
 181:Generated_Source\PSoC5/ADC_DelSig_1.c **** *  None
 182:Generated_Source\PSoC5/ADC_DelSig_1.c **** *
 183:Generated_Source\PSoC5/ADC_DelSig_1.c **** *******************************************************************************/
 184:Generated_Source\PSoC5/ADC_DelSig_1.c **** void ADC_DelSig_1_Enable(void) 
 185:Generated_Source\PSoC5/ADC_DelSig_1.c **** {
 224              		.loc 1 185 0
 225              		.cfi_startproc
 226              		@ args = 0, pretend = 0, frame = 8
 227              		@ frame_needed = 1, uses_anonymous_args = 0
 228 0000 80B5     		push	{r7, lr}
 229              		.cfi_def_cfa_offset 8
 230              		.cfi_offset 7, -8
 231              		.cfi_offset 14, -4
 232 0002 82B0     		sub	sp, sp, #8
 233              		.cfi_def_cfa_offset 16
 234 0004 00AF     		add	r7, sp, #0
 235              		.cfi_def_cfa_register 7
 186:Generated_Source\PSoC5/ADC_DelSig_1.c **** 	uint8 config;
 187:Generated_Source\PSoC5/ADC_DelSig_1.c ****     uint8 enableInterrupts;
 188:Generated_Source\PSoC5/ADC_DelSig_1.c ****     enableInterrupts = CyEnterCriticalSection();
 236              		.loc 1 188 0
 237 0006 FFF7FEFF 		bl	CyEnterCriticalSection
 238 000a 0346     		mov	r3, r0
 239 000c FB71     		strb	r3, [r7, #7]
 189:Generated_Source\PSoC5/ADC_DelSig_1.c **** 
 190:Generated_Source\PSoC5/ADC_DelSig_1.c ****     /* Read volatile variable to the local variable */
 191:Generated_Source\PSoC5/ADC_DelSig_1.c ****     config = ADC_DelSig_1_Config;
 240              		.loc 1 191 0
 241 000e 444B     		ldr	r3, .L5
 242 0010 1B78     		ldrb	r3, [r3]
 243 0012 BB71     		strb	r3, [r7, #6]
 192:Generated_Source\PSoC5/ADC_DelSig_1.c ****     
 193:Generated_Source\PSoC5/ADC_DelSig_1.c ****     /* Enable active mode power for ADC */
 194:Generated_Source\PSoC5/ADC_DelSig_1.c ****     ADC_DelSig_1_PWRMGR_DEC_REG |= ADC_DelSig_1_ACT_PWR_DEC_EN;
 244              		.loc 1 194 0
 245 0014 434A     		ldr	r2, .L5+4
 246 0016 434B     		ldr	r3, .L5+4
 247 0018 1B78     		ldrb	r3, [r3]
 248 001a DBB2     		uxtb	r3, r3
 249 001c 43F00103 		orr	r3, r3, #1
 250 0020 DBB2     		uxtb	r3, r3
 251 0022 1370     		strb	r3, [r2]
 195:Generated_Source\PSoC5/ADC_DelSig_1.c ****     ADC_DelSig_1_PWRMGR_DSM_REG |= ADC_DelSig_1_ACT_PWR_DSM_EN;
 252              		.loc 1 195 0
 253 0024 3F4A     		ldr	r2, .L5+4
 254 0026 3F4B     		ldr	r3, .L5+4
 255 0028 1B78     		ldrb	r3, [r3]
 256 002a DBB2     		uxtb	r3, r3
 257 002c 43F01003 		orr	r3, r3, #16
 258 0030 DBB2     		uxtb	r3, r3
 259 0032 1370     		strb	r3, [r2]
 196:Generated_Source\PSoC5/ADC_DelSig_1.c **** 
 197:Generated_Source\PSoC5/ADC_DelSig_1.c ****      /* Enable alternative active mode power for ADC */
ARM GAS  C:\Users\Joe\AppData\Local\Temp\ccwCXT19.s 			page 9


 198:Generated_Source\PSoC5/ADC_DelSig_1.c ****     ADC_DelSig_1_STBY_PWRMGR_DEC_REG |= ADC_DelSig_1_STBY_PWR_DEC_EN;
 260              		.loc 1 198 0
 261 0034 3C4A     		ldr	r2, .L5+8
 262 0036 3C4B     		ldr	r3, .L5+8
 263 0038 1B78     		ldrb	r3, [r3]
 264 003a DBB2     		uxtb	r3, r3
 265 003c 43F00103 		orr	r3, r3, #1
 266 0040 DBB2     		uxtb	r3, r3
 267 0042 1370     		strb	r3, [r2]
 199:Generated_Source\PSoC5/ADC_DelSig_1.c ****     ADC_DelSig_1_STBY_PWRMGR_DSM_REG |= ADC_DelSig_1_STBY_PWR_DSM_EN;
 268              		.loc 1 199 0
 269 0044 384A     		ldr	r2, .L5+8
 270 0046 384B     		ldr	r3, .L5+8
 271 0048 1B78     		ldrb	r3, [r3]
 272 004a DBB2     		uxtb	r3, r3
 273 004c 43F01003 		orr	r3, r3, #16
 274 0050 DBB2     		uxtb	r3, r3
 275 0052 1370     		strb	r3, [r2]
 200:Generated_Source\PSoC5/ADC_DelSig_1.c **** 
 201:Generated_Source\PSoC5/ADC_DelSig_1.c ****     /* Disable PRES, Enable power to VCMBUF0, REFBUF0 and REFBUF1, enable PRES */
 202:Generated_Source\PSoC5/ADC_DelSig_1.c ****     ADC_DelSig_1_RESET_CR4_REG |= ADC_DelSig_1_IGNORE_PRESA1;
 276              		.loc 1 202 0
 277 0054 354A     		ldr	r2, .L5+12
 278 0056 354B     		ldr	r3, .L5+12
 279 0058 1B78     		ldrb	r3, [r3]
 280 005a DBB2     		uxtb	r3, r3
 281 005c 43F00203 		orr	r3, r3, #2
 282 0060 DBB2     		uxtb	r3, r3
 283 0062 1370     		strb	r3, [r2]
 203:Generated_Source\PSoC5/ADC_DelSig_1.c ****     ADC_DelSig_1_RESET_CR5_REG |= ADC_DelSig_1_IGNORE_PRESA2;
 284              		.loc 1 203 0
 285 0064 324A     		ldr	r2, .L5+16
 286 0066 324B     		ldr	r3, .L5+16
 287 0068 1B78     		ldrb	r3, [r3]
 288 006a DBB2     		uxtb	r3, r3
 289 006c 43F00203 		orr	r3, r3, #2
 290 0070 DBB2     		uxtb	r3, r3
 291 0072 1370     		strb	r3, [r2]
 204:Generated_Source\PSoC5/ADC_DelSig_1.c **** 
 205:Generated_Source\PSoC5/ADC_DelSig_1.c ****     ADC_DelSig_1_DSM_CR17_REG |= (ADC_DelSig_1_DSM_EN_BUF_VREF | ADC_DelSig_1_DSM_EN_BUF_VCM);
 292              		.loc 1 205 0
 293 0074 2F4A     		ldr	r2, .L5+20
 294 0076 2F4B     		ldr	r3, .L5+20
 295 0078 1B78     		ldrb	r3, [r3]
 296 007a DBB2     		uxtb	r3, r3
 297 007c 43F00303 		orr	r3, r3, #3
 298 0080 DBB2     		uxtb	r3, r3
 299 0082 1370     		strb	r3, [r2]
 206:Generated_Source\PSoC5/ADC_DelSig_1.c **** 
 207:Generated_Source\PSoC5/ADC_DelSig_1.c ****     /* Code to disable the REFBUF0 if reference chosen is External ref */
 208:Generated_Source\PSoC5/ADC_DelSig_1.c ****     #if (((ADC_DelSig_1_CFG1_REFERENCE == ADC_DelSig_1_EXT_REF_ON_P03) || \
 209:Generated_Source\PSoC5/ADC_DelSig_1.c ****           (ADC_DelSig_1_CFG1_REFERENCE == ADC_DelSig_1_EXT_REF_ON_P32)) || \
 210:Generated_Source\PSoC5/ADC_DelSig_1.c ****          ((ADC_DelSig_1_DEFAULT_NUM_CONFIGS > 1) && \
 211:Generated_Source\PSoC5/ADC_DelSig_1.c ****           ((ADC_DelSig_1_CFG2_REFERENCE == ADC_DelSig_1_EXT_REF_ON_P03) ||  \
 212:Generated_Source\PSoC5/ADC_DelSig_1.c ****            (ADC_DelSig_1_CFG2_REFERENCE == ADC_DelSig_1_EXT_REF_ON_P32))) || \
 213:Generated_Source\PSoC5/ADC_DelSig_1.c ****          ((ADC_DelSig_1_DEFAULT_NUM_CONFIGS > 2) && \
 214:Generated_Source\PSoC5/ADC_DelSig_1.c ****           ((ADC_DelSig_1_CFG3_REFERENCE == ADC_DelSig_1_EXT_REF_ON_P03) ||  \
ARM GAS  C:\Users\Joe\AppData\Local\Temp\ccwCXT19.s 			page 10


 215:Generated_Source\PSoC5/ADC_DelSig_1.c ****            (ADC_DelSig_1_CFG3_REFERENCE == ADC_DelSig_1_EXT_REF_ON_P32))) || \
 216:Generated_Source\PSoC5/ADC_DelSig_1.c ****          ((ADC_DelSig_1_DEFAULT_NUM_CONFIGS > 3) && \
 217:Generated_Source\PSoC5/ADC_DelSig_1.c ****           ((ADC_DelSig_1_CFG4_REFERENCE == ADC_DelSig_1_EXT_REF_ON_P03) || \
 218:Generated_Source\PSoC5/ADC_DelSig_1.c ****            (ADC_DelSig_1_CFG4_REFERENCE == ADC_DelSig_1_EXT_REF_ON_P32))))
 219:Generated_Source\PSoC5/ADC_DelSig_1.c ****         if (((config == 1u) &&
 220:Generated_Source\PSoC5/ADC_DelSig_1.c ****             ((ADC_DelSig_1_CFG1_REFERENCE == ADC_DelSig_1_EXT_REF_ON_P03) ||
 221:Generated_Source\PSoC5/ADC_DelSig_1.c ****              (ADC_DelSig_1_CFG1_REFERENCE == ADC_DelSig_1_EXT_REF_ON_P32))) ||
 222:Generated_Source\PSoC5/ADC_DelSig_1.c ****             ((config == 2u) &&
 223:Generated_Source\PSoC5/ADC_DelSig_1.c ****             ((ADC_DelSig_1_CFG2_REFERENCE == ADC_DelSig_1_EXT_REF_ON_P03) ||
 224:Generated_Source\PSoC5/ADC_DelSig_1.c ****              (ADC_DelSig_1_CFG2_REFERENCE == ADC_DelSig_1_EXT_REF_ON_P32))) ||
 225:Generated_Source\PSoC5/ADC_DelSig_1.c ****             ((config == 3u) &&
 226:Generated_Source\PSoC5/ADC_DelSig_1.c ****             ((ADC_DelSig_1_CFG3_REFERENCE == ADC_DelSig_1_EXT_REF_ON_P03) ||
 227:Generated_Source\PSoC5/ADC_DelSig_1.c ****              (ADC_DelSig_1_CFG3_REFERENCE == ADC_DelSig_1_EXT_REF_ON_P32))) ||
 228:Generated_Source\PSoC5/ADC_DelSig_1.c ****             ((config == 4u) &&
 229:Generated_Source\PSoC5/ADC_DelSig_1.c ****             ((ADC_DelSig_1_CFG4_REFERENCE == ADC_DelSig_1_EXT_REF_ON_P03) ||
 230:Generated_Source\PSoC5/ADC_DelSig_1.c ****              (ADC_DelSig_1_CFG4_REFERENCE == ADC_DelSig_1_EXT_REF_ON_P32))))
 231:Generated_Source\PSoC5/ADC_DelSig_1.c ****         {
 232:Generated_Source\PSoC5/ADC_DelSig_1.c ****             /* Disable the REFBUF0 */
 233:Generated_Source\PSoC5/ADC_DelSig_1.c ****             ADC_DelSig_1_DSM_CR17_REG &= (uint8)~ADC_DelSig_1_DSM_EN_BUF_VREF;
 234:Generated_Source\PSoC5/ADC_DelSig_1.c ****         }
 235:Generated_Source\PSoC5/ADC_DelSig_1.c ****     #endif /* External ref */
 236:Generated_Source\PSoC5/ADC_DelSig_1.c **** 
 237:Generated_Source\PSoC5/ADC_DelSig_1.c ****     #if (((ADC_DelSig_1_CFG1_INPUT_RANGE == ADC_DelSig_1_IR_VSSA_TO_2VREF) || \
 238:Generated_Source\PSoC5/ADC_DelSig_1.c ****          ((ADC_DelSig_1_DEFAULT_NUM_CONFIGS > 1) && \
 239:Generated_Source\PSoC5/ADC_DelSig_1.c ****           (ADC_DelSig_1_CFG2_INPUT_RANGE == ADC_DelSig_1_IR_VSSA_TO_2VREF)) || \
 240:Generated_Source\PSoC5/ADC_DelSig_1.c ****          ((ADC_DelSig_1_DEFAULT_NUM_CONFIGS > 2) && \
 241:Generated_Source\PSoC5/ADC_DelSig_1.c ****           (ADC_DelSig_1_CFG3_INPUT_RANGE == ADC_DelSig_1_IR_VSSA_TO_2VREF)) || \
 242:Generated_Source\PSoC5/ADC_DelSig_1.c ****          ((ADC_DelSig_1_DEFAULT_NUM_CONFIGS > 3) && \
 243:Generated_Source\PSoC5/ADC_DelSig_1.c ****           (ADC_DelSig_1_CFG4_INPUT_RANGE == ADC_DelSig_1_IR_VSSA_TO_2VREF))))
 244:Generated_Source\PSoC5/ADC_DelSig_1.c ****         if(((config == 1u) &&
 245:Generated_Source\PSoC5/ADC_DelSig_1.c ****             (ADC_DelSig_1_CFG1_INPUT_RANGE == ADC_DelSig_1_IR_VSSA_TO_2VREF) &&
 246:Generated_Source\PSoC5/ADC_DelSig_1.c ****             ((ADC_DelSig_1_CFG1_REFERENCE != ADC_DelSig_1_EXT_REF_ON_P03) &&
 247:Generated_Source\PSoC5/ADC_DelSig_1.c ****              (ADC_DelSig_1_CFG1_REFERENCE != ADC_DelSig_1_EXT_REF_ON_P32))) ||
 248:Generated_Source\PSoC5/ADC_DelSig_1.c ****              ((config == 2u) &&
 249:Generated_Source\PSoC5/ADC_DelSig_1.c ****               (ADC_DelSig_1_CFG2_INPUT_RANGE == ADC_DelSig_1_IR_VSSA_TO_2VREF) &&
 250:Generated_Source\PSoC5/ADC_DelSig_1.c ****              ((ADC_DelSig_1_CFG2_REFERENCE != ADC_DelSig_1_EXT_REF_ON_P03) &&
 251:Generated_Source\PSoC5/ADC_DelSig_1.c ****              (ADC_DelSig_1_CFG2_REFERENCE != ADC_DelSig_1_EXT_REF_ON_P32))) ||
 252:Generated_Source\PSoC5/ADC_DelSig_1.c ****              ((config == 3u) &&
 253:Generated_Source\PSoC5/ADC_DelSig_1.c ****               (ADC_DelSig_1_CFG3_INPUT_RANGE == ADC_DelSig_1_IR_VSSA_TO_2VREF) &&
 254:Generated_Source\PSoC5/ADC_DelSig_1.c ****              ((ADC_DelSig_1_CFG3_REFERENCE != ADC_DelSig_1_EXT_REF_ON_P03) &&
 255:Generated_Source\PSoC5/ADC_DelSig_1.c ****              (ADC_DelSig_1_CFG3_REFERENCE != ADC_DelSig_1_EXT_REF_ON_P32))) ||
 256:Generated_Source\PSoC5/ADC_DelSig_1.c ****              ((config == 4u) &&
 257:Generated_Source\PSoC5/ADC_DelSig_1.c ****               (ADC_DelSig_1_CFG4_INPUT_RANGE == ADC_DelSig_1_IR_VSSA_TO_2VREF) &&
 258:Generated_Source\PSoC5/ADC_DelSig_1.c ****              ((ADC_DelSig_1_CFG4_REFERENCE != ADC_DelSig_1_EXT_REF_ON_P03) &&
 259:Generated_Source\PSoC5/ADC_DelSig_1.c ****              (ADC_DelSig_1_CFG4_REFERENCE != ADC_DelSig_1_EXT_REF_ON_P32))))
 260:Generated_Source\PSoC5/ADC_DelSig_1.c ****         {
 261:Generated_Source\PSoC5/ADC_DelSig_1.c ****             /* Enable the REFBUF1 */
 262:Generated_Source\PSoC5/ADC_DelSig_1.c ****             ADC_DelSig_1_DSM_REF0_REG |= ADC_DelSig_1_DSM_EN_BUF_VREF_INN;
 263:Generated_Source\PSoC5/ADC_DelSig_1.c ****         }
 264:Generated_Source\PSoC5/ADC_DelSig_1.c ****     #endif /* VSSA_TO_2VREF */
 265:Generated_Source\PSoC5/ADC_DelSig_1.c ****     if(config != 0u)
 266:Generated_Source\PSoC5/ADC_DelSig_1.c ****     {
 267:Generated_Source\PSoC5/ADC_DelSig_1.c ****         /* Suppress compiler warning */
 268:Generated_Source\PSoC5/ADC_DelSig_1.c ****     }
 269:Generated_Source\PSoC5/ADC_DelSig_1.c **** 
 270:Generated_Source\PSoC5/ADC_DelSig_1.c ****     /* Wait for 3 microseconds */
 271:Generated_Source\PSoC5/ADC_DelSig_1.c ****     CyDelayUs(ADC_DelSig_1_PRES_DELAY_TIME);
ARM GAS  C:\Users\Joe\AppData\Local\Temp\ccwCXT19.s 			page 11


 300              		.loc 1 271 0
 301 0084 0320     		movs	r0, #3
 302 0086 FFF7FEFF 		bl	CyDelayUs
 272:Generated_Source\PSoC5/ADC_DelSig_1.c **** 
 273:Generated_Source\PSoC5/ADC_DelSig_1.c ****     /* Enable the press circuit */
 274:Generated_Source\PSoC5/ADC_DelSig_1.c ****     ADC_DelSig_1_RESET_CR4_REG &= (uint8)~ADC_DelSig_1_IGNORE_PRESA1;
 303              		.loc 1 274 0
 304 008a 284A     		ldr	r2, .L5+12
 305 008c 274B     		ldr	r3, .L5+12
 306 008e 1B78     		ldrb	r3, [r3]
 307 0090 DBB2     		uxtb	r3, r3
 308 0092 23F00203 		bic	r3, r3, #2
 309 0096 DBB2     		uxtb	r3, r3
 310 0098 1370     		strb	r3, [r2]
 275:Generated_Source\PSoC5/ADC_DelSig_1.c ****     ADC_DelSig_1_RESET_CR5_REG &= (uint8)~ADC_DelSig_1_IGNORE_PRESA2;
 311              		.loc 1 275 0
 312 009a 254A     		ldr	r2, .L5+16
 313 009c 244B     		ldr	r3, .L5+16
 314 009e 1B78     		ldrb	r3, [r3]
 315 00a0 DBB2     		uxtb	r3, r3
 316 00a2 23F00203 		bic	r3, r3, #2
 317 00a6 DBB2     		uxtb	r3, r3
 318 00a8 1370     		strb	r3, [r2]
 276:Generated_Source\PSoC5/ADC_DelSig_1.c **** 
 277:Generated_Source\PSoC5/ADC_DelSig_1.c ****     /* Enable negative pumps for DSM  */
 278:Generated_Source\PSoC5/ADC_DelSig_1.c ****     ADC_DelSig_1_PUMP_CR1_REG  |= ( ADC_DelSig_1_PUMP_CR1_CLKSEL | ADC_DelSig_1_PUMP_CR1_FORCE );
 319              		.loc 1 278 0
 320 00aa 234A     		ldr	r2, .L5+24
 321 00ac 224B     		ldr	r3, .L5+24
 322 00ae 1B78     		ldrb	r3, [r3]
 323 00b0 DBB2     		uxtb	r3, r3
 324 00b2 43F00603 		orr	r3, r3, #6
 325 00b6 DBB2     		uxtb	r3, r3
 326 00b8 1370     		strb	r3, [r2]
 279:Generated_Source\PSoC5/ADC_DelSig_1.c **** 
 280:Generated_Source\PSoC5/ADC_DelSig_1.c ****     /* Enable Modulator Chopping if required */
 281:Generated_Source\PSoC5/ADC_DelSig_1.c ****     ADC_DelSig_1_DSM_CR2_REG = ADC_DelSig_1_CFG1_DSM_CR2;
 327              		.loc 1 281 0
 328 00ba 204B     		ldr	r3, .L5+28
 329 00bc 7A22     		movs	r2, #122
 330 00be 1A70     		strb	r2, [r3]
 282:Generated_Source\PSoC5/ADC_DelSig_1.c **** 
 283:Generated_Source\PSoC5/ADC_DelSig_1.c ****     /* This is only valid if there is an internal clock */
 284:Generated_Source\PSoC5/ADC_DelSig_1.c ****     #if(ADC_DelSig_1_DEFAULT_INTERNAL_CLK)
 285:Generated_Source\PSoC5/ADC_DelSig_1.c ****         ADC_DelSig_1_PWRMGR_CLK_REG |= ADC_DelSig_1_ACT_PWR_CLK_EN;
 331              		.loc 1 285 0
 332 00c0 1F4A     		ldr	r2, .L5+32
 333 00c2 1F4B     		ldr	r3, .L5+32
 334 00c4 1B78     		ldrb	r3, [r3]
 335 00c6 DBB2     		uxtb	r3, r3
 336 00c8 43F00203 		orr	r3, r3, #2
 337 00cc DBB2     		uxtb	r3, r3
 338 00ce 1370     		strb	r3, [r2]
 286:Generated_Source\PSoC5/ADC_DelSig_1.c ****         ADC_DelSig_1_STBY_PWRMGR_CLK_REG |= ADC_DelSig_1_STBY_PWR_CLK_EN;
 339              		.loc 1 286 0
 340 00d0 1C4A     		ldr	r2, .L5+36
 341 00d2 1C4B     		ldr	r3, .L5+36
ARM GAS  C:\Users\Joe\AppData\Local\Temp\ccwCXT19.s 			page 12


 342 00d4 1B78     		ldrb	r3, [r3]
 343 00d6 DBB2     		uxtb	r3, r3
 344 00d8 43F00203 		orr	r3, r3, #2
 345 00dc DBB2     		uxtb	r3, r3
 346 00de 1370     		strb	r3, [r2]
 287:Generated_Source\PSoC5/ADC_DelSig_1.c ****     #endif /* ADC_DelSig_1_DEFAULT_INTERNAL_CLK */
 288:Generated_Source\PSoC5/ADC_DelSig_1.c **** 
 289:Generated_Source\PSoC5/ADC_DelSig_1.c ****     /* Enable the active and alternate active power for charge pump clock */
 290:Generated_Source\PSoC5/ADC_DelSig_1.c ****     ADC_DelSig_1_PWRMGR_CHARGE_PUMP_CLK_REG |= ADC_DelSig_1_ACT_PWR_CHARGE_PUMP_CLK_EN;
 347              		.loc 1 290 0
 348 00e0 194A     		ldr	r2, .L5+40
 349 00e2 194B     		ldr	r3, .L5+40
 350 00e4 1B78     		ldrb	r3, [r3]
 351 00e6 DBB2     		uxtb	r3, r3
 352 00e8 43F00103 		orr	r3, r3, #1
 353 00ec DBB2     		uxtb	r3, r3
 354 00ee 1370     		strb	r3, [r2]
 291:Generated_Source\PSoC5/ADC_DelSig_1.c ****     ADC_DelSig_1_STBY_PWRMGR_CHARGE_PUMP_CLK_REG |= ADC_DelSig_1_STBY_PWR_CHARGE_PUMP_CLK_EN;
 355              		.loc 1 291 0
 356 00f0 164A     		ldr	r2, .L5+44
 357 00f2 164B     		ldr	r3, .L5+44
 358 00f4 1B78     		ldrb	r3, [r3]
 359 00f6 DBB2     		uxtb	r3, r3
 360 00f8 43F00103 		orr	r3, r3, #1
 361 00fc DBB2     		uxtb	r3, r3
 362 00fe 1370     		strb	r3, [r2]
 292:Generated_Source\PSoC5/ADC_DelSig_1.c **** 
 293:Generated_Source\PSoC5/ADC_DelSig_1.c ****     #if(ADC_DelSig_1_IRQ_REMOVE == 0u)
 294:Generated_Source\PSoC5/ADC_DelSig_1.c ****         /* Clear a pending interrupt */
 295:Generated_Source\PSoC5/ADC_DelSig_1.c ****         CyIntClearPending(ADC_DelSig_1_INTC_NUMBER);
 363              		.loc 1 295 0
 364 0100 134B     		ldr	r3, .L5+48
 365 0102 4FF00052 		mov	r2, #536870912
 366 0106 1A60     		str	r2, [r3]
 296:Generated_Source\PSoC5/ADC_DelSig_1.c ****         /* Enable interrupt */
 297:Generated_Source\PSoC5/ADC_DelSig_1.c ****         CyIntEnable(ADC_DelSig_1_INTC_NUMBER);
 367              		.loc 1 297 0
 368 0108 124B     		ldr	r3, .L5+52
 369 010a 4FF00052 		mov	r2, #536870912
 370 010e 1A60     		str	r2, [r3]
 298:Generated_Source\PSoC5/ADC_DelSig_1.c ****     #endif   /* End ADC_DelSig_1_IRQ_REMOVE */
 299:Generated_Source\PSoC5/ADC_DelSig_1.c **** 
 300:Generated_Source\PSoC5/ADC_DelSig_1.c ****     CyExitCriticalSection(enableInterrupts);
 371              		.loc 1 300 0
 372 0110 FB79     		ldrb	r3, [r7, #7]	@ zero_extendqisi2
 373 0112 1846     		mov	r0, r3
 374 0114 FFF7FEFF 		bl	CyExitCriticalSection
 301:Generated_Source\PSoC5/ADC_DelSig_1.c **** 
 302:Generated_Source\PSoC5/ADC_DelSig_1.c **** }
 375              		.loc 1 302 0
 376 0118 00BF     		nop
 377 011a 0837     		adds	r7, r7, #8
 378              		.cfi_def_cfa_offset 8
 379 011c BD46     		mov	sp, r7
 380              		.cfi_def_cfa_register 13
 381              		@ sp needed
 382 011e 80BD     		pop	{r7, pc}
ARM GAS  C:\Users\Joe\AppData\Local\Temp\ccwCXT19.s 			page 13


 383              	.L6:
 384              		.align	2
 385              	.L5:
 386 0120 00000000 		.word	ADC_DelSig_1_Config
 387 0124 AA430040 		.word	1073759146
 388 0128 BA430040 		.word	1073759162
 389 012c F8460040 		.word	1073759992
 390 0130 F9460040 		.word	1073759993
 391 0134 91580040 		.word	1073764497
 392 0138 77580040 		.word	1073764471
 393 013c 82580040 		.word	1073764482
 394 0140 A1430040 		.word	1073759137
 395 0144 B1430040 		.word	1073759153
 396 0148 A2430040 		.word	1073759138
 397 014c B2430040 		.word	1073759154
 398 0150 80E200E0 		.word	-536812928
 399 0154 00E100E0 		.word	-536813312
 400              		.cfi_endproc
 401              	.LFE1:
 402              		.size	ADC_DelSig_1_Enable, .-ADC_DelSig_1_Enable
 403              		.section	.text.ADC_DelSig_1_Start,"ax",%progbits
 404              		.align	2
 405              		.global	ADC_DelSig_1_Start
 406              		.thumb
 407              		.thumb_func
 408              		.type	ADC_DelSig_1_Start, %function
 409              	ADC_DelSig_1_Start:
 410              	.LFB2:
 303:Generated_Source\PSoC5/ADC_DelSig_1.c **** 
 304:Generated_Source\PSoC5/ADC_DelSig_1.c **** 
 305:Generated_Source\PSoC5/ADC_DelSig_1.c **** /*******************************************************************************
 306:Generated_Source\PSoC5/ADC_DelSig_1.c **** * Function Name: ADC_DelSig_1_Start
 307:Generated_Source\PSoC5/ADC_DelSig_1.c **** ********************************************************************************
 308:Generated_Source\PSoC5/ADC_DelSig_1.c **** *
 309:Generated_Source\PSoC5/ADC_DelSig_1.c **** * Summary:
 310:Generated_Source\PSoC5/ADC_DelSig_1.c **** *  Performs all required initialization for this component and enables
 311:Generated_Source\PSoC5/ADC_DelSig_1.c **** *  the power. It configure all the register the first time it is called.
 312:Generated_Source\PSoC5/ADC_DelSig_1.c **** *  Subsequent calls of the Start function only enable the ADC and turn
 313:Generated_Source\PSoC5/ADC_DelSig_1.c **** *  on the power. If multiple configurations are selected, it will
 314:Generated_Source\PSoC5/ADC_DelSig_1.c **** *  configure the ADC for configuration 1 by default, unless the
 315:Generated_Source\PSoC5/ADC_DelSig_1.c **** *  ADC_DelSig_1_SelectConfiguration( ) function has been called to change
 316:Generated_Source\PSoC5/ADC_DelSig_1.c **** *  the default setting.
 317:Generated_Source\PSoC5/ADC_DelSig_1.c **** *
 318:Generated_Source\PSoC5/ADC_DelSig_1.c **** * Parameters:
 319:Generated_Source\PSoC5/ADC_DelSig_1.c **** *  None
 320:Generated_Source\PSoC5/ADC_DelSig_1.c **** *
 321:Generated_Source\PSoC5/ADC_DelSig_1.c **** * Return:
 322:Generated_Source\PSoC5/ADC_DelSig_1.c **** *  None
 323:Generated_Source\PSoC5/ADC_DelSig_1.c **** *
 324:Generated_Source\PSoC5/ADC_DelSig_1.c **** * Global variables:
 325:Generated_Source\PSoC5/ADC_DelSig_1.c **** *  ADC_DelSig_1_initVar:  Used to check the initial configuration,
 326:Generated_Source\PSoC5/ADC_DelSig_1.c **** *  modified when this function is called for the first time.
 327:Generated_Source\PSoC5/ADC_DelSig_1.c **** *
 328:Generated_Source\PSoC5/ADC_DelSig_1.c **** *******************************************************************************/
 329:Generated_Source\PSoC5/ADC_DelSig_1.c **** void ADC_DelSig_1_Start(void) 
 330:Generated_Source\PSoC5/ADC_DelSig_1.c **** {
 411              		.loc 1 330 0
ARM GAS  C:\Users\Joe\AppData\Local\Temp\ccwCXT19.s 			page 14


 412              		.cfi_startproc
 413              		@ args = 0, pretend = 0, frame = 0
 414              		@ frame_needed = 1, uses_anonymous_args = 0
 415 0000 80B5     		push	{r7, lr}
 416              		.cfi_def_cfa_offset 8
 417              		.cfi_offset 7, -8
 418              		.cfi_offset 14, -4
 419 0002 00AF     		add	r7, sp, #0
 420              		.cfi_def_cfa_register 7
 331:Generated_Source\PSoC5/ADC_DelSig_1.c ****     if(ADC_DelSig_1_initVar == 0u)
 421              		.loc 1 331 0
 422 0004 084B     		ldr	r3, .L10
 423 0006 1B78     		ldrb	r3, [r3]	@ zero_extendqisi2
 424 0008 002B     		cmp	r3, #0
 425 000a 09D1     		bne	.L8
 332:Generated_Source\PSoC5/ADC_DelSig_1.c ****     {
 333:Generated_Source\PSoC5/ADC_DelSig_1.c ****         if(ADC_DelSig_1_started == 0u)
 426              		.loc 1 333 0
 427 000c 074B     		ldr	r3, .L10+4
 428 000e 1B78     		ldrb	r3, [r3]
 429 0010 DBB2     		uxtb	r3, r3
 430 0012 002B     		cmp	r3, #0
 431 0014 01D1     		bne	.L9
 334:Generated_Source\PSoC5/ADC_DelSig_1.c ****         {
 335:Generated_Source\PSoC5/ADC_DelSig_1.c ****             ADC_DelSig_1_Init();
 432              		.loc 1 335 0
 433 0016 FFF7FEFF 		bl	ADC_DelSig_1_Init
 434              	.L9:
 336:Generated_Source\PSoC5/ADC_DelSig_1.c ****         }
 337:Generated_Source\PSoC5/ADC_DelSig_1.c ****         ADC_DelSig_1_initVar = 1u;
 435              		.loc 1 337 0
 436 001a 034B     		ldr	r3, .L10
 437 001c 0122     		movs	r2, #1
 438 001e 1A70     		strb	r2, [r3]
 439              	.L8:
 338:Generated_Source\PSoC5/ADC_DelSig_1.c ****     }
 339:Generated_Source\PSoC5/ADC_DelSig_1.c **** 
 340:Generated_Source\PSoC5/ADC_DelSig_1.c ****     /* Enable the ADC */
 341:Generated_Source\PSoC5/ADC_DelSig_1.c ****     ADC_DelSig_1_Enable();
 440              		.loc 1 341 0
 441 0020 FFF7FEFF 		bl	ADC_DelSig_1_Enable
 342:Generated_Source\PSoC5/ADC_DelSig_1.c **** }
 442              		.loc 1 342 0
 443 0024 00BF     		nop
 444 0026 80BD     		pop	{r7, pc}
 445              	.L11:
 446              		.align	2
 447              	.L10:
 448 0028 00000000 		.word	ADC_DelSig_1_initVar
 449 002c 00000000 		.word	ADC_DelSig_1_started
 450              		.cfi_endproc
 451              	.LFE2:
 452              		.size	ADC_DelSig_1_Start, .-ADC_DelSig_1_Start
 453              		.section	.text.ADC_DelSig_1_Stop,"ax",%progbits
 454              		.align	2
 455              		.global	ADC_DelSig_1_Stop
 456              		.thumb
ARM GAS  C:\Users\Joe\AppData\Local\Temp\ccwCXT19.s 			page 15


 457              		.thumb_func
 458              		.type	ADC_DelSig_1_Stop, %function
 459              	ADC_DelSig_1_Stop:
 460              	.LFB3:
 343:Generated_Source\PSoC5/ADC_DelSig_1.c **** 
 344:Generated_Source\PSoC5/ADC_DelSig_1.c **** 
 345:Generated_Source\PSoC5/ADC_DelSig_1.c **** /*******************************************************************************
 346:Generated_Source\PSoC5/ADC_DelSig_1.c **** * Function Name: ADC_DelSig_1_Stop
 347:Generated_Source\PSoC5/ADC_DelSig_1.c **** ********************************************************************************
 348:Generated_Source\PSoC5/ADC_DelSig_1.c **** *
 349:Generated_Source\PSoC5/ADC_DelSig_1.c **** * Summary:
 350:Generated_Source\PSoC5/ADC_DelSig_1.c **** *  This function stops and powers down the ADC component and the internal
 351:Generated_Source\PSoC5/ADC_DelSig_1.c **** *  clock if the external clock is not selected. If an external clock is
 352:Generated_Source\PSoC5/ADC_DelSig_1.c **** *  used, it is up to the designer to power down the external clock it
 353:Generated_Source\PSoC5/ADC_DelSig_1.c **** *  required.
 354:Generated_Source\PSoC5/ADC_DelSig_1.c **** *
 355:Generated_Source\PSoC5/ADC_DelSig_1.c **** * Parameters:
 356:Generated_Source\PSoC5/ADC_DelSig_1.c **** *  None
 357:Generated_Source\PSoC5/ADC_DelSig_1.c **** *
 358:Generated_Source\PSoC5/ADC_DelSig_1.c **** * Return:
 359:Generated_Source\PSoC5/ADC_DelSig_1.c **** *  None
 360:Generated_Source\PSoC5/ADC_DelSig_1.c **** *
 361:Generated_Source\PSoC5/ADC_DelSig_1.c **** *******************************************************************************/
 362:Generated_Source\PSoC5/ADC_DelSig_1.c **** void ADC_DelSig_1_Stop(void) 
 363:Generated_Source\PSoC5/ADC_DelSig_1.c **** {
 461              		.loc 1 363 0
 462              		.cfi_startproc
 463              		@ args = 0, pretend = 0, frame = 8
 464              		@ frame_needed = 1, uses_anonymous_args = 0
 465 0000 80B5     		push	{r7, lr}
 466              		.cfi_def_cfa_offset 8
 467              		.cfi_offset 7, -8
 468              		.cfi_offset 14, -4
 469 0002 82B0     		sub	sp, sp, #8
 470              		.cfi_def_cfa_offset 16
 471 0004 00AF     		add	r7, sp, #0
 472              		.cfi_def_cfa_register 7
 364:Generated_Source\PSoC5/ADC_DelSig_1.c ****     uint8 enableInterrupts;
 365:Generated_Source\PSoC5/ADC_DelSig_1.c ****     enableInterrupts = CyEnterCriticalSection();
 473              		.loc 1 365 0
 474 0006 FFF7FEFF 		bl	CyEnterCriticalSection
 475 000a 0346     		mov	r3, r0
 476 000c FB71     		strb	r3, [r7, #7]
 366:Generated_Source\PSoC5/ADC_DelSig_1.c **** 
 367:Generated_Source\PSoC5/ADC_DelSig_1.c ****     /* Stop conversions */
 368:Generated_Source\PSoC5/ADC_DelSig_1.c ****     ADC_DelSig_1_DEC_CR_REG &= (uint8)~ADC_DelSig_1_DEC_START_CONV;
 477              		.loc 1 368 0
 478 000e 4D4A     		ldr	r2, .L13
 479 0010 4C4B     		ldr	r3, .L13
 480 0012 1B78     		ldrb	r3, [r3]
 481 0014 DBB2     		uxtb	r3, r3
 482 0016 23F00103 		bic	r3, r3, #1
 483 001a DBB2     		uxtb	r3, r3
 484 001c 1370     		strb	r3, [r2]
 369:Generated_Source\PSoC5/ADC_DelSig_1.c ****     ADC_DelSig_1_DEC_SR_REG |=  ADC_DelSig_1_DEC_INTR_CLEAR;
 485              		.loc 1 369 0
 486 001e 4A4A     		ldr	r2, .L13+4
ARM GAS  C:\Users\Joe\AppData\Local\Temp\ccwCXT19.s 			page 16


 487 0020 494B     		ldr	r3, .L13+4
 488 0022 1B78     		ldrb	r3, [r3]
 489 0024 DBB2     		uxtb	r3, r3
 490 0026 43F00403 		orr	r3, r3, #4
 491 002a DBB2     		uxtb	r3, r3
 492 002c 1370     		strb	r3, [r2]
 370:Generated_Source\PSoC5/ADC_DelSig_1.c **** 
 371:Generated_Source\PSoC5/ADC_DelSig_1.c ****     /* Disable PRES, Disable power to VCMBUF0, REFBUF0 and REFBUF1,
 372:Generated_Source\PSoC5/ADC_DelSig_1.c ****        enable PRES */
 373:Generated_Source\PSoC5/ADC_DelSig_1.c ****     ADC_DelSig_1_RESET_CR4_REG |= ADC_DelSig_1_IGNORE_PRESA1;
 493              		.loc 1 373 0
 494 002e 474A     		ldr	r2, .L13+8
 495 0030 464B     		ldr	r3, .L13+8
 496 0032 1B78     		ldrb	r3, [r3]
 497 0034 DBB2     		uxtb	r3, r3
 498 0036 43F00203 		orr	r3, r3, #2
 499 003a DBB2     		uxtb	r3, r3
 500 003c 1370     		strb	r3, [r2]
 374:Generated_Source\PSoC5/ADC_DelSig_1.c ****     ADC_DelSig_1_RESET_CR5_REG |= ADC_DelSig_1_IGNORE_PRESA2;
 501              		.loc 1 374 0
 502 003e 444A     		ldr	r2, .L13+12
 503 0040 434B     		ldr	r3, .L13+12
 504 0042 1B78     		ldrb	r3, [r3]
 505 0044 DBB2     		uxtb	r3, r3
 506 0046 43F00203 		orr	r3, r3, #2
 507 004a DBB2     		uxtb	r3, r3
 508 004c 1370     		strb	r3, [r2]
 375:Generated_Source\PSoC5/ADC_DelSig_1.c **** 
 376:Generated_Source\PSoC5/ADC_DelSig_1.c ****     ADC_DelSig_1_DSM_CR17_REG &= (uint8)~(ADC_DelSig_1_DSM_EN_BUF_VREF | ADC_DelSig_1_DSM_EN_BUF_VC
 509              		.loc 1 376 0
 510 004e 414A     		ldr	r2, .L13+16
 511 0050 404B     		ldr	r3, .L13+16
 512 0052 1B78     		ldrb	r3, [r3]
 513 0054 DBB2     		uxtb	r3, r3
 514 0056 23F00303 		bic	r3, r3, #3
 515 005a DBB2     		uxtb	r3, r3
 516 005c 1370     		strb	r3, [r2]
 377:Generated_Source\PSoC5/ADC_DelSig_1.c ****     ADC_DelSig_1_DSM_REF0_REG &= (uint8)~ADC_DelSig_1_DSM_EN_BUF_VREF_INN;
 517              		.loc 1 377 0
 518 005e 3E4A     		ldr	r2, .L13+20
 519 0060 3D4B     		ldr	r3, .L13+20
 520 0062 1B78     		ldrb	r3, [r3]
 521 0064 DBB2     		uxtb	r3, r3
 522 0066 23F00803 		bic	r3, r3, #8
 523 006a DBB2     		uxtb	r3, r3
 524 006c 1370     		strb	r3, [r2]
 378:Generated_Source\PSoC5/ADC_DelSig_1.c **** 
 379:Generated_Source\PSoC5/ADC_DelSig_1.c ****     /* Wait for 3 microseconds. */
 380:Generated_Source\PSoC5/ADC_DelSig_1.c ****     CyDelayUs(ADC_DelSig_1_PRES_DELAY_TIME);
 525              		.loc 1 380 0
 526 006e 0320     		movs	r0, #3
 527 0070 FFF7FEFF 		bl	CyDelayUs
 381:Generated_Source\PSoC5/ADC_DelSig_1.c **** 
 382:Generated_Source\PSoC5/ADC_DelSig_1.c ****     /* Enable the press circuit */
 383:Generated_Source\PSoC5/ADC_DelSig_1.c ****     ADC_DelSig_1_RESET_CR4_REG &= (uint8)~ADC_DelSig_1_IGNORE_PRESA1;
 528              		.loc 1 383 0
 529 0074 354A     		ldr	r2, .L13+8
ARM GAS  C:\Users\Joe\AppData\Local\Temp\ccwCXT19.s 			page 17


 530 0076 354B     		ldr	r3, .L13+8
 531 0078 1B78     		ldrb	r3, [r3]
 532 007a DBB2     		uxtb	r3, r3
 533 007c 23F00203 		bic	r3, r3, #2
 534 0080 DBB2     		uxtb	r3, r3
 535 0082 1370     		strb	r3, [r2]
 384:Generated_Source\PSoC5/ADC_DelSig_1.c ****     ADC_DelSig_1_RESET_CR5_REG &= (uint8)~ADC_DelSig_1_IGNORE_PRESA2;
 536              		.loc 1 384 0
 537 0084 324A     		ldr	r2, .L13+12
 538 0086 324B     		ldr	r3, .L13+12
 539 0088 1B78     		ldrb	r3, [r3]
 540 008a DBB2     		uxtb	r3, r3
 541 008c 23F00203 		bic	r3, r3, #2
 542 0090 DBB2     		uxtb	r3, r3
 543 0092 1370     		strb	r3, [r2]
 385:Generated_Source\PSoC5/ADC_DelSig_1.c **** 
 386:Generated_Source\PSoC5/ADC_DelSig_1.c ****     /* Disable power to the ADC */
 387:Generated_Source\PSoC5/ADC_DelSig_1.c ****     ADC_DelSig_1_PWRMGR_DSM_REG &= (uint8)~ADC_DelSig_1_ACT_PWR_DSM_EN;
 544              		.loc 1 387 0
 545 0094 314A     		ldr	r2, .L13+24
 546 0096 314B     		ldr	r3, .L13+24
 547 0098 1B78     		ldrb	r3, [r3]
 548 009a DBB2     		uxtb	r3, r3
 549 009c 23F01003 		bic	r3, r3, #16
 550 00a0 DBB2     		uxtb	r3, r3
 551 00a2 1370     		strb	r3, [r2]
 388:Generated_Source\PSoC5/ADC_DelSig_1.c **** 
 389:Generated_Source\PSoC5/ADC_DelSig_1.c ****     /* Disable power to Decimator block */
 390:Generated_Source\PSoC5/ADC_DelSig_1.c ****     ADC_DelSig_1_PWRMGR_DEC_REG &= (uint8)~ADC_DelSig_1_ACT_PWR_DEC_EN;
 552              		.loc 1 390 0
 553 00a4 2D4A     		ldr	r2, .L13+24
 554 00a6 2D4B     		ldr	r3, .L13+24
 555 00a8 1B78     		ldrb	r3, [r3]
 556 00aa DBB2     		uxtb	r3, r3
 557 00ac 23F00103 		bic	r3, r3, #1
 558 00b0 DBB2     		uxtb	r3, r3
 559 00b2 1370     		strb	r3, [r2]
 391:Generated_Source\PSoC5/ADC_DelSig_1.c **** 
 392:Generated_Source\PSoC5/ADC_DelSig_1.c ****     /* Disable alternative active power to the ADC */
 393:Generated_Source\PSoC5/ADC_DelSig_1.c ****     ADC_DelSig_1_STBY_PWRMGR_DEC_REG &= (uint8)~ADC_DelSig_1_STBY_PWR_DEC_EN;
 560              		.loc 1 393 0
 561 00b4 2A4A     		ldr	r2, .L13+28
 562 00b6 2A4B     		ldr	r3, .L13+28
 563 00b8 1B78     		ldrb	r3, [r3]
 564 00ba DBB2     		uxtb	r3, r3
 565 00bc 23F00103 		bic	r3, r3, #1
 566 00c0 DBB2     		uxtb	r3, r3
 567 00c2 1370     		strb	r3, [r2]
 394:Generated_Source\PSoC5/ADC_DelSig_1.c ****     ADC_DelSig_1_STBY_PWRMGR_DSM_REG &= (uint8)~ADC_DelSig_1_STBY_PWR_DSM_EN;
 568              		.loc 1 394 0
 569 00c4 264A     		ldr	r2, .L13+28
 570 00c6 264B     		ldr	r3, .L13+28
 571 00c8 1B78     		ldrb	r3, [r3]
 572 00ca DBB2     		uxtb	r3, r3
 573 00cc 23F01003 		bic	r3, r3, #16
 574 00d0 DBB2     		uxtb	r3, r3
 575 00d2 1370     		strb	r3, [r2]
ARM GAS  C:\Users\Joe\AppData\Local\Temp\ccwCXT19.s 			page 18


 395:Generated_Source\PSoC5/ADC_DelSig_1.c **** 
 396:Generated_Source\PSoC5/ADC_DelSig_1.c ****    /* Disable negative pumps for DSM  */
 397:Generated_Source\PSoC5/ADC_DelSig_1.c ****     ADC_DelSig_1_PUMP_CR1_REG &= (uint8)~(ADC_DelSig_1_PUMP_CR1_CLKSEL | ADC_DelSig_1_PUMP_CR1_FORC
 576              		.loc 1 397 0
 577 00d4 234A     		ldr	r2, .L13+32
 578 00d6 234B     		ldr	r3, .L13+32
 579 00d8 1B78     		ldrb	r3, [r3]
 580 00da DBB2     		uxtb	r3, r3
 581 00dc 23F00603 		bic	r3, r3, #6
 582 00e0 DBB2     		uxtb	r3, r3
 583 00e2 1370     		strb	r3, [r2]
 398:Generated_Source\PSoC5/ADC_DelSig_1.c **** 
 399:Generated_Source\PSoC5/ADC_DelSig_1.c ****     /* This is only valid if there is an internal clock */
 400:Generated_Source\PSoC5/ADC_DelSig_1.c ****     #if(ADC_DelSig_1_DEFAULT_INTERNAL_CLK)
 401:Generated_Source\PSoC5/ADC_DelSig_1.c ****         ADC_DelSig_1_PWRMGR_CLK_REG &= (uint8)~ADC_DelSig_1_ACT_PWR_CLK_EN;
 584              		.loc 1 401 0
 585 00e4 204A     		ldr	r2, .L13+36
 586 00e6 204B     		ldr	r3, .L13+36
 587 00e8 1B78     		ldrb	r3, [r3]
 588 00ea DBB2     		uxtb	r3, r3
 589 00ec 23F00203 		bic	r3, r3, #2
 590 00f0 DBB2     		uxtb	r3, r3
 591 00f2 1370     		strb	r3, [r2]
 402:Generated_Source\PSoC5/ADC_DelSig_1.c ****         ADC_DelSig_1_STBY_PWRMGR_CLK_REG &= (uint8)~ADC_DelSig_1_STBY_PWR_CLK_EN;
 592              		.loc 1 402 0
 593 00f4 1D4A     		ldr	r2, .L13+40
 594 00f6 1D4B     		ldr	r3, .L13+40
 595 00f8 1B78     		ldrb	r3, [r3]
 596 00fa DBB2     		uxtb	r3, r3
 597 00fc 23F00203 		bic	r3, r3, #2
 598 0100 DBB2     		uxtb	r3, r3
 599 0102 1370     		strb	r3, [r2]
 403:Generated_Source\PSoC5/ADC_DelSig_1.c ****     #endif /* ADC_DelSig_1_DEFAULT_INTERNAL_CLK */
 404:Generated_Source\PSoC5/ADC_DelSig_1.c **** 
 405:Generated_Source\PSoC5/ADC_DelSig_1.c ****     /* Disable Modulator Chopping */
 406:Generated_Source\PSoC5/ADC_DelSig_1.c ****     ADC_DelSig_1_DSM_CR2_REG &= (uint8)~ADC_DelSig_1_DSM_MOD_CHOP_EN;
 600              		.loc 1 406 0
 601 0104 1A4A     		ldr	r2, .L13+44
 602 0106 1A4B     		ldr	r3, .L13+44
 603 0108 1B78     		ldrb	r3, [r3]
 604 010a DBB2     		uxtb	r3, r3
 605 010c 23F00803 		bic	r3, r3, #8
 606 0110 DBB2     		uxtb	r3, r3
 607 0112 1370     		strb	r3, [r2]
 407:Generated_Source\PSoC5/ADC_DelSig_1.c ****     /* Disable power to charge pump clock */
 408:Generated_Source\PSoC5/ADC_DelSig_1.c ****     ADC_DelSig_1_PWRMGR_CHARGE_PUMP_CLK_REG &= (uint8)~ADC_DelSig_1_ACT_PWR_CHARGE_PUMP_CLK_EN;
 608              		.loc 1 408 0
 609 0114 174A     		ldr	r2, .L13+48
 610 0116 174B     		ldr	r3, .L13+48
 611 0118 1B78     		ldrb	r3, [r3]
 612 011a DBB2     		uxtb	r3, r3
 613 011c 23F00103 		bic	r3, r3, #1
 614 0120 DBB2     		uxtb	r3, r3
 615 0122 1370     		strb	r3, [r2]
 409:Generated_Source\PSoC5/ADC_DelSig_1.c ****     ADC_DelSig_1_STBY_PWRMGR_CHARGE_PUMP_CLK_REG &= (uint8)~ADC_DelSig_1_STBY_PWR_CHARGE_PUMP_CLK_E
 616              		.loc 1 409 0
 617 0124 144A     		ldr	r2, .L13+52
ARM GAS  C:\Users\Joe\AppData\Local\Temp\ccwCXT19.s 			page 19


 618 0126 144B     		ldr	r3, .L13+52
 619 0128 1B78     		ldrb	r3, [r3]
 620 012a DBB2     		uxtb	r3, r3
 621 012c 23F00103 		bic	r3, r3, #1
 622 0130 DBB2     		uxtb	r3, r3
 623 0132 1370     		strb	r3, [r2]
 410:Generated_Source\PSoC5/ADC_DelSig_1.c ****     
 411:Generated_Source\PSoC5/ADC_DelSig_1.c ****     CyExitCriticalSection(enableInterrupts);
 624              		.loc 1 411 0
 625 0134 FB79     		ldrb	r3, [r7, #7]	@ zero_extendqisi2
 626 0136 1846     		mov	r0, r3
 627 0138 FFF7FEFF 		bl	CyExitCriticalSection
 412:Generated_Source\PSoC5/ADC_DelSig_1.c **** }
 628              		.loc 1 412 0
 629 013c 00BF     		nop
 630 013e 0837     		adds	r7, r7, #8
 631              		.cfi_def_cfa_offset 8
 632 0140 BD46     		mov	sp, r7
 633              		.cfi_def_cfa_register 13
 634              		@ sp needed
 635 0142 80BD     		pop	{r7, pc}
 636              	.L14:
 637              		.align	2
 638              	.L13:
 639 0144 004E0040 		.word	1073761792
 640 0148 014E0040 		.word	1073761793
 641 014c F8460040 		.word	1073759992
 642 0150 F9460040 		.word	1073759993
 643 0154 91580040 		.word	1073764497
 644 0158 92580040 		.word	1073764498
 645 015c AA430040 		.word	1073759146
 646 0160 BA430040 		.word	1073759162
 647 0164 77580040 		.word	1073764471
 648 0168 A1430040 		.word	1073759137
 649 016c B1430040 		.word	1073759153
 650 0170 82580040 		.word	1073764482
 651 0174 A2430040 		.word	1073759138
 652 0178 B2430040 		.word	1073759154
 653              		.cfi_endproc
 654              	.LFE3:
 655              		.size	ADC_DelSig_1_Stop, .-ADC_DelSig_1_Stop
 656              		.section	.text.ADC_DelSig_1_SetBufferGain,"ax",%progbits
 657              		.align	2
 658              		.global	ADC_DelSig_1_SetBufferGain
 659              		.thumb
 660              		.thumb_func
 661              		.type	ADC_DelSig_1_SetBufferGain, %function
 662              	ADC_DelSig_1_SetBufferGain:
 663              	.LFB4:
 413:Generated_Source\PSoC5/ADC_DelSig_1.c **** 
 414:Generated_Source\PSoC5/ADC_DelSig_1.c **** 
 415:Generated_Source\PSoC5/ADC_DelSig_1.c **** /*******************************************************************************
 416:Generated_Source\PSoC5/ADC_DelSig_1.c **** * Function Name: ADC_DelSig_1_SetBufferGain
 417:Generated_Source\PSoC5/ADC_DelSig_1.c **** ********************************************************************************
 418:Generated_Source\PSoC5/ADC_DelSig_1.c **** *
 419:Generated_Source\PSoC5/ADC_DelSig_1.c **** * Summary:
 420:Generated_Source\PSoC5/ADC_DelSig_1.c **** *  Sets input buffer gain.
ARM GAS  C:\Users\Joe\AppData\Local\Temp\ccwCXT19.s 			page 20


 421:Generated_Source\PSoC5/ADC_DelSig_1.c **** *
 422:Generated_Source\PSoC5/ADC_DelSig_1.c **** * Parameters:
 423:Generated_Source\PSoC5/ADC_DelSig_1.c **** *  gain:  Two bit value to select a gain of 1, 2, 4, or 8.
 424:Generated_Source\PSoC5/ADC_DelSig_1.c **** *
 425:Generated_Source\PSoC5/ADC_DelSig_1.c **** * Return:
 426:Generated_Source\PSoC5/ADC_DelSig_1.c **** *  None
 427:Generated_Source\PSoC5/ADC_DelSig_1.c **** *
 428:Generated_Source\PSoC5/ADC_DelSig_1.c **** *******************************************************************************/
 429:Generated_Source\PSoC5/ADC_DelSig_1.c **** void ADC_DelSig_1_SetBufferGain(uint8 gain) 
 430:Generated_Source\PSoC5/ADC_DelSig_1.c **** {
 664              		.loc 1 430 0
 665              		.cfi_startproc
 666              		@ args = 0, pretend = 0, frame = 16
 667              		@ frame_needed = 1, uses_anonymous_args = 0
 668              		@ link register save eliminated.
 669 0000 80B4     		push	{r7}
 670              		.cfi_def_cfa_offset 4
 671              		.cfi_offset 7, -4
 672 0002 85B0     		sub	sp, sp, #20
 673              		.cfi_def_cfa_offset 24
 674 0004 00AF     		add	r7, sp, #0
 675              		.cfi_def_cfa_register 7
 676 0006 0346     		mov	r3, r0
 677 0008 FB71     		strb	r3, [r7, #7]
 431:Generated_Source\PSoC5/ADC_DelSig_1.c ****     uint8 tmpReg;
 432:Generated_Source\PSoC5/ADC_DelSig_1.c ****     tmpReg = ADC_DelSig_1_DSM_BUF1_REG & (uint8)~ADC_DelSig_1_DSM_GAIN_MASK;
 678              		.loc 1 432 0
 679 000a 0B4B     		ldr	r3, .L16
 680 000c 1B78     		ldrb	r3, [r3]
 681 000e DBB2     		uxtb	r3, r3
 682 0010 23F00C03 		bic	r3, r3, #12
 683 0014 FB73     		strb	r3, [r7, #15]
 433:Generated_Source\PSoC5/ADC_DelSig_1.c ****     tmpReg |= (uint8)(gain << ADC_DelSig_1_DSM_GAIN_SHIFT) & ADC_DelSig_1_DSM_GAIN_MASK;
 684              		.loc 1 433 0
 685 0016 FB79     		ldrb	r3, [r7, #7]
 686 0018 9B00     		lsls	r3, r3, #2
 687 001a DBB2     		uxtb	r3, r3
 688 001c 03F00C03 		and	r3, r3, #12
 689 0020 DAB2     		uxtb	r2, r3
 690 0022 FB7B     		ldrb	r3, [r7, #15]
 691 0024 1343     		orrs	r3, r3, r2
 692 0026 FB73     		strb	r3, [r7, #15]
 434:Generated_Source\PSoC5/ADC_DelSig_1.c ****     ADC_DelSig_1_DSM_BUF1_REG = tmpReg;
 693              		.loc 1 434 0
 694 0028 034A     		ldr	r2, .L16
 695 002a FB7B     		ldrb	r3, [r7, #15]
 696 002c 1370     		strb	r3, [r2]
 435:Generated_Source\PSoC5/ADC_DelSig_1.c **** }
 697              		.loc 1 435 0
 698 002e 00BF     		nop
 699 0030 1437     		adds	r7, r7, #20
 700              		.cfi_def_cfa_offset 4
 701 0032 BD46     		mov	sp, r7
 702              		.cfi_def_cfa_register 13
 703              		@ sp needed
 704 0034 80BC     		pop	{r7}
 705              		.cfi_restore 7
ARM GAS  C:\Users\Joe\AppData\Local\Temp\ccwCXT19.s 			page 21


 706              		.cfi_def_cfa_offset 0
 707 0036 7047     		bx	lr
 708              	.L17:
 709              		.align	2
 710              	.L16:
 711 0038 9B580040 		.word	1073764507
 712              		.cfi_endproc
 713              	.LFE4:
 714              		.size	ADC_DelSig_1_SetBufferGain, .-ADC_DelSig_1_SetBufferGain
 715              		.section	.text.ADC_DelSig_1_SetCoherency,"ax",%progbits
 716              		.align	2
 717              		.global	ADC_DelSig_1_SetCoherency
 718              		.thumb
 719              		.thumb_func
 720              		.type	ADC_DelSig_1_SetCoherency, %function
 721              	ADC_DelSig_1_SetCoherency:
 722              	.LFB5:
 436:Generated_Source\PSoC5/ADC_DelSig_1.c **** 
 437:Generated_Source\PSoC5/ADC_DelSig_1.c **** 
 438:Generated_Source\PSoC5/ADC_DelSig_1.c **** /*******************************************************************************
 439:Generated_Source\PSoC5/ADC_DelSig_1.c **** * Function Name: ADC_DelSig_1_SetCoherency
 440:Generated_Source\PSoC5/ADC_DelSig_1.c **** ********************************************************************************
 441:Generated_Source\PSoC5/ADC_DelSig_1.c **** *
 442:Generated_Source\PSoC5/ADC_DelSig_1.c **** * Summary:
 443:Generated_Source\PSoC5/ADC_DelSig_1.c **** *  This function allows the user to change which of the ADC's 3 word
 444:Generated_Source\PSoC5/ADC_DelSig_1.c **** *  result will trigger a coherency unlock. The ADC's result will not be
 445:Generated_Source\PSoC5/ADC_DelSig_1.c **** *  updated until the set byte is read either by the ADC or DMA. 
 446:Generated_Source\PSoC5/ADC_DelSig_1.c **** *  By default the LSB is the coherency byte for right alignment data format. 
 447:Generated_Source\PSoC5/ADC_DelSig_1.c **** *  The middle or high byte is set automatically depend on left alignment 
 448:Generated_Source\PSoC5/ADC_DelSig_1.c **** *  configuration for DMA data transfer.
 449:Generated_Source\PSoC5/ADC_DelSig_1.c **** *  If DMA or if a custom API requires different byte to be read the last,
 450:Generated_Source\PSoC5/ADC_DelSig_1.c **** *  this API should be used to set the last byte of the ADC result that is read. 
 451:Generated_Source\PSoC5/ADC_DelSig_1.c **** *  If a multibyte read is performed either by DMA or the ARM processor, the
 452:Generated_Source\PSoC5/ADC_DelSig_1.c **** *  coherency can be set to any byte in the last word read.
 453:Generated_Source\PSoC5/ADC_DelSig_1.c **** *
 454:Generated_Source\PSoC5/ADC_DelSig_1.c **** * Parameters:
 455:Generated_Source\PSoC5/ADC_DelSig_1.c **** *  coherency:  Two bit value to set the coherency bit.
 456:Generated_Source\PSoC5/ADC_DelSig_1.c **** *           00-Coherency checking off
 457:Generated_Source\PSoC5/ADC_DelSig_1.c **** *           01-low byte is key byte
 458:Generated_Source\PSoC5/ADC_DelSig_1.c **** *           02-middle byte is the key byte
 459:Generated_Source\PSoC5/ADC_DelSig_1.c **** *           03-high byte is the key byte
 460:Generated_Source\PSoC5/ADC_DelSig_1.c **** *
 461:Generated_Source\PSoC5/ADC_DelSig_1.c **** * Return:
 462:Generated_Source\PSoC5/ADC_DelSig_1.c **** *  None
 463:Generated_Source\PSoC5/ADC_DelSig_1.c **** *
 464:Generated_Source\PSoC5/ADC_DelSig_1.c **** *******************************************************************************/
 465:Generated_Source\PSoC5/ADC_DelSig_1.c **** void ADC_DelSig_1_SetCoherency(uint8 coherency) 
 466:Generated_Source\PSoC5/ADC_DelSig_1.c **** {
 723              		.loc 1 466 0
 724              		.cfi_startproc
 725              		@ args = 0, pretend = 0, frame = 16
 726              		@ frame_needed = 1, uses_anonymous_args = 0
 727              		@ link register save eliminated.
 728 0000 80B4     		push	{r7}
 729              		.cfi_def_cfa_offset 4
 730              		.cfi_offset 7, -4
 731 0002 85B0     		sub	sp, sp, #20
ARM GAS  C:\Users\Joe\AppData\Local\Temp\ccwCXT19.s 			page 22


 732              		.cfi_def_cfa_offset 24
 733 0004 00AF     		add	r7, sp, #0
 734              		.cfi_def_cfa_register 7
 735 0006 0346     		mov	r3, r0
 736 0008 FB71     		strb	r3, [r7, #7]
 467:Generated_Source\PSoC5/ADC_DelSig_1.c ****     uint8 tmpReg;
 468:Generated_Source\PSoC5/ADC_DelSig_1.c **** 
 469:Generated_Source\PSoC5/ADC_DelSig_1.c ****     tmpReg = ADC_DelSig_1_DEC_COHER_REG & (uint8)~ADC_DelSig_1_DEC_SAMP_KEY_MASK;
 737              		.loc 1 469 0
 738 000a 0A4B     		ldr	r3, .L19
 739 000c 1B78     		ldrb	r3, [r3]
 740 000e DBB2     		uxtb	r3, r3
 741 0010 23F00303 		bic	r3, r3, #3
 742 0014 FB73     		strb	r3, [r7, #15]
 470:Generated_Source\PSoC5/ADC_DelSig_1.c ****     tmpReg |= coherency & ADC_DelSig_1_DEC_SAMP_KEY_MASK;
 743              		.loc 1 470 0
 744 0016 FB79     		ldrb	r3, [r7, #7]
 745 0018 03F00303 		and	r3, r3, #3
 746 001c DAB2     		uxtb	r2, r3
 747 001e FB7B     		ldrb	r3, [r7, #15]
 748 0020 1343     		orrs	r3, r3, r2
 749 0022 FB73     		strb	r3, [r7, #15]
 471:Generated_Source\PSoC5/ADC_DelSig_1.c ****     ADC_DelSig_1_DEC_COHER_REG = tmpReg;
 750              		.loc 1 471 0
 751 0024 034A     		ldr	r2, .L19
 752 0026 FB7B     		ldrb	r3, [r7, #15]
 753 0028 1370     		strb	r3, [r2]
 472:Generated_Source\PSoC5/ADC_DelSig_1.c **** }
 754              		.loc 1 472 0
 755 002a 00BF     		nop
 756 002c 1437     		adds	r7, r7, #20
 757              		.cfi_def_cfa_offset 4
 758 002e BD46     		mov	sp, r7
 759              		.cfi_def_cfa_register 13
 760              		@ sp needed
 761 0030 80BC     		pop	{r7}
 762              		.cfi_restore 7
 763              		.cfi_def_cfa_offset 0
 764 0032 7047     		bx	lr
 765              	.L20:
 766              		.align	2
 767              	.L19:
 768 0034 144E0040 		.word	1073761812
 769              		.cfi_endproc
 770              	.LFE5:
 771              		.size	ADC_DelSig_1_SetCoherency, .-ADC_DelSig_1_SetCoherency
 772              		.global	__aeabi_ui2f
 773              		.global	__aeabi_fdiv
 774              		.global	__aeabi_fmul
 775              		.global	__aeabi_f2d
 776              		.global	__aeabi_dcmpgt
 777              		.global	__aeabi_f2uiz
 778              		.section	.text.ADC_DelSig_1_SetGCOR,"ax",%progbits
 779              		.align	2
 780              		.global	ADC_DelSig_1_SetGCOR
 781              		.thumb
 782              		.thumb_func
ARM GAS  C:\Users\Joe\AppData\Local\Temp\ccwCXT19.s 			page 23


 783              		.type	ADC_DelSig_1_SetGCOR, %function
 784              	ADC_DelSig_1_SetGCOR:
 785              	.LFB6:
 473:Generated_Source\PSoC5/ADC_DelSig_1.c **** 
 474:Generated_Source\PSoC5/ADC_DelSig_1.c **** 
 475:Generated_Source\PSoC5/ADC_DelSig_1.c **** /*******************************************************************************
 476:Generated_Source\PSoC5/ADC_DelSig_1.c **** * Function Name: ADC_DelSig_1_SetGCOR
 477:Generated_Source\PSoC5/ADC_DelSig_1.c **** ********************************************************************************
 478:Generated_Source\PSoC5/ADC_DelSig_1.c **** *
 479:Generated_Source\PSoC5/ADC_DelSig_1.c **** * Summary:
 480:Generated_Source\PSoC5/ADC_DelSig_1.c **** *  Calculates a new GCOR value and writes it into the GCOR register. 
 481:Generated_Source\PSoC5/ADC_DelSig_1.c **** *  The GCOR value is a 16-bit value that represents a gain of 0 to 2. 
 482:Generated_Source\PSoC5/ADC_DelSig_1.c **** *  The ADC result is multiplied by this value before it is placed in the ADC 
 483:Generated_Source\PSoC5/ADC_DelSig_1.c **** *  output registers. The numerical format for the GCOR value is:
 484:Generated_Source\PSoC5/ADC_DelSig_1.c **** *  0x0000 -> 0.000
 485:Generated_Source\PSoC5/ADC_DelSig_1.c **** *  0x8000 -> 1.000
 486:Generated_Source\PSoC5/ADC_DelSig_1.c **** *  0xFFFF -> 1.99997
 487:Generated_Source\PSoC5/ADC_DelSig_1.c **** *  When executing the function, the old GCOR value is multiplied by
 488:Generated_Source\PSoC5/ADC_DelSig_1.c **** *  gainAdjust and reloaded into the GCOR register.
 489:Generated_Source\PSoC5/ADC_DelSig_1.c **** *
 490:Generated_Source\PSoC5/ADC_DelSig_1.c **** * Parameters:
 491:Generated_Source\PSoC5/ADC_DelSig_1.c **** *  gainAdjust:  floating point value to set GCOR registers.
 492:Generated_Source\PSoC5/ADC_DelSig_1.c **** *
 493:Generated_Source\PSoC5/ADC_DelSig_1.c **** * Return:
 494:Generated_Source\PSoC5/ADC_DelSig_1.c **** *  uint8: 0 - if GCOR value is within the expected range.
 495:Generated_Source\PSoC5/ADC_DelSig_1.c **** *         1 - the correction value is outside GCOR value range of
 496:Generated_Source\PSoC5/ADC_DelSig_1.c **** *             0.00 to 1.9999.
 497:Generated_Source\PSoC5/ADC_DelSig_1.c **** *
 498:Generated_Source\PSoC5/ADC_DelSig_1.c **** * Side Effects:  The GVAL register is set to the amount of valid bits in the
 499:Generated_Source\PSoC5/ADC_DelSig_1.c **** *                GCOR  register minus one. If GVAL is 15 (0x0F), all 16 bits
 500:Generated_Source\PSoC5/ADC_DelSig_1.c **** *                of the GCOR registers will be valid. If for example GVAL is
 501:Generated_Source\PSoC5/ADC_DelSig_1.c **** *                11 (0x0B) only 12 bits will be valid. The least 4 bits will
 502:Generated_Source\PSoC5/ADC_DelSig_1.c **** *                be lost when the GCOR value is shifted 4 places to the right.
 503:Generated_Source\PSoC5/ADC_DelSig_1.c **** *
 504:Generated_Source\PSoC5/ADC_DelSig_1.c **** ******************************************************************************/
 505:Generated_Source\PSoC5/ADC_DelSig_1.c **** uint8 ADC_DelSig_1_SetGCOR(float32 gainAdjust) 
 506:Generated_Source\PSoC5/ADC_DelSig_1.c **** {
 786              		.loc 1 506 0
 787              		.cfi_startproc
 788              		@ args = 0, pretend = 0, frame = 16
 789              		@ frame_needed = 1, uses_anonymous_args = 0
 790 0000 80B5     		push	{r7, lr}
 791              		.cfi_def_cfa_offset 8
 792              		.cfi_offset 7, -8
 793              		.cfi_offset 14, -4
 794 0002 84B0     		sub	sp, sp, #16
 795              		.cfi_def_cfa_offset 24
 796 0004 00AF     		add	r7, sp, #0
 797              		.cfi_def_cfa_register 7
 798 0006 7860     		str	r0, [r7, #4]	@ float
 507:Generated_Source\PSoC5/ADC_DelSig_1.c ****     uint16 tmpReg;
 508:Generated_Source\PSoC5/ADC_DelSig_1.c ****     uint8 status;
 509:Generated_Source\PSoC5/ADC_DelSig_1.c ****     float32 tmpValue;
 510:Generated_Source\PSoC5/ADC_DelSig_1.c **** 
 511:Generated_Source\PSoC5/ADC_DelSig_1.c ****     tmpReg = ADC_DelSig_1_gcor[ADC_DelSig_1_Config - 1u].gcor;
 799              		.loc 1 511 0
 800 0008 254B     		ldr	r3, .L28+8
ARM GAS  C:\Users\Joe\AppData\Local\Temp\ccwCXT19.s 			page 24


 801 000a 1B78     		ldrb	r3, [r3]
 802 000c DBB2     		uxtb	r3, r3
 803 000e 013B     		subs	r3, r3, #1
 804 0010 244A     		ldr	r2, .L28+12
 805 0012 32F82330 		ldrh	r3, [r2, r3, lsl #2]	@ movhi
 806 0016 BB81     		strh	r3, [r7, #12]	@ movhi
 512:Generated_Source\PSoC5/ADC_DelSig_1.c ****     tmpValue = ((float32)tmpReg / (float32)ADC_DelSig_1_IDEAL_GAIN_CONST);
 807              		.loc 1 512 0
 808 0018 BB89     		ldrh	r3, [r7, #12]
 809 001a 1846     		mov	r0, r3
 810 001c FFF7FEFF 		bl	__aeabi_ui2f
 811 0020 0346     		mov	r3, r0
 812 0022 4FF08E41 		mov	r1, #1191182336
 813 0026 1846     		mov	r0, r3
 814 0028 FFF7FEFF 		bl	__aeabi_fdiv
 815 002c 0346     		mov	r3, r0
 816 002e BB60     		str	r3, [r7, #8]	@ float
 513:Generated_Source\PSoC5/ADC_DelSig_1.c ****     tmpValue = tmpValue * gainAdjust;
 817              		.loc 1 513 0
 818 0030 7968     		ldr	r1, [r7, #4]	@ float
 819 0032 B868     		ldr	r0, [r7, #8]	@ float
 820 0034 FFF7FEFF 		bl	__aeabi_fmul
 821 0038 0346     		mov	r3, r0
 822 003a BB60     		str	r3, [r7, #8]	@ float
 514:Generated_Source\PSoC5/ADC_DelSig_1.c **** 
 515:Generated_Source\PSoC5/ADC_DelSig_1.c ****     if (tmpValue > 1.9999)
 823              		.loc 1 515 0
 824 003c B868     		ldr	r0, [r7, #8]	@ float
 825 003e FFF7FEFF 		bl	__aeabi_f2d
 826 0042 15A3     		adr	r3, .L28
 827 0044 D3E90023 		ldrd	r2, [r3]
 828 0048 FFF7FEFF 		bl	__aeabi_dcmpgt
 829 004c 0346     		mov	r3, r0
 830 004e 002B     		cmp	r3, #0
 831 0050 02D0     		beq	.L27
 516:Generated_Source\PSoC5/ADC_DelSig_1.c ****     {
 517:Generated_Source\PSoC5/ADC_DelSig_1.c ****         status = 1u;
 832              		.loc 1 517 0
 833 0052 0123     		movs	r3, #1
 834 0054 FB73     		strb	r3, [r7, #15]
 835 0056 18E0     		b	.L24
 836              	.L27:
 518:Generated_Source\PSoC5/ADC_DelSig_1.c ****     }
 519:Generated_Source\PSoC5/ADC_DelSig_1.c ****     else
 520:Generated_Source\PSoC5/ADC_DelSig_1.c ****     {
 521:Generated_Source\PSoC5/ADC_DelSig_1.c ****         tmpValue *= (float32)ADC_DelSig_1_IDEAL_GAIN_CONST;
 837              		.loc 1 521 0
 838 0058 4FF08E41 		mov	r1, #1191182336
 839 005c B868     		ldr	r0, [r7, #8]	@ float
 840 005e FFF7FEFF 		bl	__aeabi_fmul
 841 0062 0346     		mov	r3, r0
 842 0064 BB60     		str	r3, [r7, #8]	@ float
 522:Generated_Source\PSoC5/ADC_DelSig_1.c **** 		tmpReg = (uint16)tmpValue;
 843              		.loc 1 522 0
 844 0066 B868     		ldr	r0, [r7, #8]	@ float
 845 0068 FFF7FEFF 		bl	__aeabi_f2uiz
 846 006c 0346     		mov	r3, r0
ARM GAS  C:\Users\Joe\AppData\Local\Temp\ccwCXT19.s 			page 25


 847 006e BB81     		strh	r3, [r7, #12]	@ movhi
 523:Generated_Source\PSoC5/ADC_DelSig_1.c ****         CY_SET_REG16(ADC_DelSig_1_DEC_GCOR_16B_PTR, tmpReg);
 848              		.loc 1 523 0
 849 0070 0D4A     		ldr	r2, .L28+16
 850 0072 BB89     		ldrh	r3, [r7, #12]	@ movhi
 851 0074 1380     		strh	r3, [r2]	@ movhi
 524:Generated_Source\PSoC5/ADC_DelSig_1.c ****         /* Update gain array to be used by SelectConfiguration() API */
 525:Generated_Source\PSoC5/ADC_DelSig_1.c ****        ADC_DelSig_1_gcor[ADC_DelSig_1_Config - 1u].gcor = tmpReg;
 852              		.loc 1 525 0
 853 0076 0A4B     		ldr	r3, .L28+8
 854 0078 1B78     		ldrb	r3, [r3]
 855 007a DBB2     		uxtb	r3, r3
 856 007c 013B     		subs	r3, r3, #1
 857 007e 0949     		ldr	r1, .L28+12
 858 0080 BA89     		ldrh	r2, [r7, #12]	@ movhi
 859 0082 21F82320 		strh	r2, [r1, r3, lsl #2]	@ movhi
 526:Generated_Source\PSoC5/ADC_DelSig_1.c **** 
 527:Generated_Source\PSoC5/ADC_DelSig_1.c ****         status = 0u;
 860              		.loc 1 527 0
 861 0086 0023     		movs	r3, #0
 862 0088 FB73     		strb	r3, [r7, #15]
 863              	.L24:
 528:Generated_Source\PSoC5/ADC_DelSig_1.c **** 
 529:Generated_Source\PSoC5/ADC_DelSig_1.c ****     }
 530:Generated_Source\PSoC5/ADC_DelSig_1.c ****     return(status);
 864              		.loc 1 530 0
 865 008a FB7B     		ldrb	r3, [r7, #15]	@ zero_extendqisi2
 531:Generated_Source\PSoC5/ADC_DelSig_1.c **** }
 866              		.loc 1 531 0
 867 008c 1846     		mov	r0, r3
 868 008e 1037     		adds	r7, r7, #16
 869              		.cfi_def_cfa_offset 8
 870 0090 BD46     		mov	sp, r7
 871              		.cfi_def_cfa_register 13
 872              		@ sp needed
 873 0092 80BD     		pop	{r7, pc}
 874              	.L29:
 875 0094 AFF30080 		.align	3
 876              	.L28:
 877 0098 8F537424 		.word	611603343
 878 009c 97FFFF3F 		.word	1073741719
 879 00a0 00000000 		.word	ADC_DelSig_1_Config
 880 00a4 04000000 		.word	ADC_DelSig_1_gcor
 881 00a8 0C4E0040 		.word	1073761804
 882              		.cfi_endproc
 883              	.LFE6:
 884              		.size	ADC_DelSig_1_SetGCOR, .-ADC_DelSig_1_SetGCOR
 885              		.section	.text.ADC_DelSig_1_ReadGCOR,"ax",%progbits
 886              		.align	2
 887              		.global	ADC_DelSig_1_ReadGCOR
 888              		.thumb
 889              		.thumb_func
 890              		.type	ADC_DelSig_1_ReadGCOR, %function
 891              	ADC_DelSig_1_ReadGCOR:
 892              	.LFB7:
 532:Generated_Source\PSoC5/ADC_DelSig_1.c **** 
 533:Generated_Source\PSoC5/ADC_DelSig_1.c **** 
ARM GAS  C:\Users\Joe\AppData\Local\Temp\ccwCXT19.s 			page 26


 534:Generated_Source\PSoC5/ADC_DelSig_1.c **** /******************************************************************************
 535:Generated_Source\PSoC5/ADC_DelSig_1.c **** * Function Name: ADC_DelSig_1_ReadGCOR
 536:Generated_Source\PSoC5/ADC_DelSig_1.c **** *******************************************************************************
 537:Generated_Source\PSoC5/ADC_DelSig_1.c **** *
 538:Generated_Source\PSoC5/ADC_DelSig_1.c **** * Summary:
 539:Generated_Source\PSoC5/ADC_DelSig_1.c **** *  This API returns the current GCOR register value, normalized based on the
 540:Generated_Source\PSoC5/ADC_DelSig_1.c **** *  GVAL register settings.
 541:Generated_Source\PSoC5/ADC_DelSig_1.c **** *  For example, if the GCOR value is 0x0812 and the GVAL register is set to 
 542:Generated_Source\PSoC5/ADC_DelSig_1.c **** *  11 (0x0B) then the returned value will be shifted by for bits to the left.
 543:Generated_Source\PSoC5/ADC_DelSig_1.c **** *  (Actual GCOR value = 0x0812, returned value = 0x8120)
 544:Generated_Source\PSoC5/ADC_DelSig_1.c **** *
 545:Generated_Source\PSoC5/ADC_DelSig_1.c **** * Parameters:
 546:Generated_Source\PSoC5/ADC_DelSig_1.c **** *  None
 547:Generated_Source\PSoC5/ADC_DelSig_1.c **** *
 548:Generated_Source\PSoC5/ADC_DelSig_1.c **** * Return:
 549:Generated_Source\PSoC5/ADC_DelSig_1.c **** *  uint16:  Normalized GCOR value.
 550:Generated_Source\PSoC5/ADC_DelSig_1.c **** *
 551:Generated_Source\PSoC5/ADC_DelSig_1.c **** *******************************************************************************/
 552:Generated_Source\PSoC5/ADC_DelSig_1.c **** uint16 ADC_DelSig_1_ReadGCOR(void) 
 553:Generated_Source\PSoC5/ADC_DelSig_1.c **** {
 893              		.loc 1 553 0
 894              		.cfi_startproc
 895              		@ args = 0, pretend = 0, frame = 8
 896              		@ frame_needed = 1, uses_anonymous_args = 0
 897              		@ link register save eliminated.
 898 0000 80B4     		push	{r7}
 899              		.cfi_def_cfa_offset 4
 900              		.cfi_offset 7, -4
 901 0002 83B0     		sub	sp, sp, #12
 902              		.cfi_def_cfa_offset 16
 903 0004 00AF     		add	r7, sp, #0
 904              		.cfi_def_cfa_register 7
 554:Generated_Source\PSoC5/ADC_DelSig_1.c ****     uint8 gValue;
 555:Generated_Source\PSoC5/ADC_DelSig_1.c ****     uint16 gcorValue;
 556:Generated_Source\PSoC5/ADC_DelSig_1.c **** 
 557:Generated_Source\PSoC5/ADC_DelSig_1.c ****     gValue = ADC_DelSig_1_DEC_GVAL_REG;
 905              		.loc 1 557 0
 906 0006 0B4B     		ldr	r3, .L33
 907 0008 1B78     		ldrb	r3, [r3]
 908 000a 7B71     		strb	r3, [r7, #5]
 558:Generated_Source\PSoC5/ADC_DelSig_1.c ****     gcorValue = CY_GET_REG16(ADC_DelSig_1_DEC_GCOR_16B_PTR);
 909              		.loc 1 558 0
 910 000c 0A4B     		ldr	r3, .L33+4
 911 000e 1B88     		ldrh	r3, [r3]	@ movhi
 912 0010 FB80     		strh	r3, [r7, #6]	@ movhi
 559:Generated_Source\PSoC5/ADC_DelSig_1.c **** 
 560:Generated_Source\PSoC5/ADC_DelSig_1.c ****     if (gValue < ADC_DelSig_1_MAX_GVAL)
 913              		.loc 1 560 0
 914 0012 7B79     		ldrb	r3, [r7, #5]	@ zero_extendqisi2
 915 0014 0E2B     		cmp	r3, #14
 916 0016 06D8     		bhi	.L31
 561:Generated_Source\PSoC5/ADC_DelSig_1.c ****     {
 562:Generated_Source\PSoC5/ADC_DelSig_1.c ****         gcorValue <<= ADC_DelSig_1_MAX_GVAL - gValue;
 917              		.loc 1 562 0
 918 0018 FA88     		ldrh	r2, [r7, #6]
 919 001a 7B79     		ldrb	r3, [r7, #5]	@ zero_extendqisi2
 920 001c C3F10F03 		rsb	r3, r3, #15
ARM GAS  C:\Users\Joe\AppData\Local\Temp\ccwCXT19.s 			page 27


 921 0020 02FA03F3 		lsl	r3, r2, r3
 922 0024 FB80     		strh	r3, [r7, #6]	@ movhi
 923              	.L31:
 563:Generated_Source\PSoC5/ADC_DelSig_1.c ****     }
 564:Generated_Source\PSoC5/ADC_DelSig_1.c **** 
 565:Generated_Source\PSoC5/ADC_DelSig_1.c ****     return gcorValue;
 924              		.loc 1 565 0
 925 0026 FB88     		ldrh	r3, [r7, #6]
 566:Generated_Source\PSoC5/ADC_DelSig_1.c **** }
 926              		.loc 1 566 0
 927 0028 1846     		mov	r0, r3
 928 002a 0C37     		adds	r7, r7, #12
 929              		.cfi_def_cfa_offset 4
 930 002c BD46     		mov	sp, r7
 931              		.cfi_def_cfa_register 13
 932              		@ sp needed
 933 002e 80BC     		pop	{r7}
 934              		.cfi_restore 7
 935              		.cfi_def_cfa_offset 0
 936 0030 7047     		bx	lr
 937              	.L34:
 938 0032 00BF     		.align	2
 939              	.L33:
 940 0034 0E4E0040 		.word	1073761806
 941 0038 0C4E0040 		.word	1073761804
 942              		.cfi_endproc
 943              	.LFE7:
 944              		.size	ADC_DelSig_1_ReadGCOR, .-ADC_DelSig_1_ReadGCOR
 945              		.section	.text.ADC_DelSig_1_StartConvert,"ax",%progbits
 946              		.align	2
 947              		.global	ADC_DelSig_1_StartConvert
 948              		.thumb
 949              		.thumb_func
 950              		.type	ADC_DelSig_1_StartConvert, %function
 951              	ADC_DelSig_1_StartConvert:
 952              	.LFB8:
 567:Generated_Source\PSoC5/ADC_DelSig_1.c **** 
 568:Generated_Source\PSoC5/ADC_DelSig_1.c **** 
 569:Generated_Source\PSoC5/ADC_DelSig_1.c **** /*******************************************************************************
 570:Generated_Source\PSoC5/ADC_DelSig_1.c **** * Function Name: ADC_DelSig_1_StartConvert
 571:Generated_Source\PSoC5/ADC_DelSig_1.c **** ********************************************************************************
 572:Generated_Source\PSoC5/ADC_DelSig_1.c **** *
 573:Generated_Source\PSoC5/ADC_DelSig_1.c **** * Summary:
 574:Generated_Source\PSoC5/ADC_DelSig_1.c **** *  Forces the ADC to initiate a conversion. If in the "Single Sample"
 575:Generated_Source\PSoC5/ADC_DelSig_1.c **** *  mode, one conversion will be performed then the ADC will halt. If in
 576:Generated_Source\PSoC5/ADC_DelSig_1.c **** *  one of the other three conversion modes, the ADC will run
 577:Generated_Source\PSoC5/ADC_DelSig_1.c **** *  continuously until the ADC_Stop() or ADC_StopConvert() is called.
 578:Generated_Source\PSoC5/ADC_DelSig_1.c **** *
 579:Generated_Source\PSoC5/ADC_DelSig_1.c **** * Parameters:
 580:Generated_Source\PSoC5/ADC_DelSig_1.c **** *  None
 581:Generated_Source\PSoC5/ADC_DelSig_1.c **** *
 582:Generated_Source\PSoC5/ADC_DelSig_1.c **** * Return:
 583:Generated_Source\PSoC5/ADC_DelSig_1.c **** *  None
 584:Generated_Source\PSoC5/ADC_DelSig_1.c **** *
 585:Generated_Source\PSoC5/ADC_DelSig_1.c **** *******************************************************************************/
 586:Generated_Source\PSoC5/ADC_DelSig_1.c **** void ADC_DelSig_1_StartConvert(void) 
 587:Generated_Source\PSoC5/ADC_DelSig_1.c **** {
ARM GAS  C:\Users\Joe\AppData\Local\Temp\ccwCXT19.s 			page 28


 953              		.loc 1 587 0
 954              		.cfi_startproc
 955              		@ args = 0, pretend = 0, frame = 0
 956              		@ frame_needed = 1, uses_anonymous_args = 0
 957              		@ link register save eliminated.
 958 0000 80B4     		push	{r7}
 959              		.cfi_def_cfa_offset 4
 960              		.cfi_offset 7, -4
 961 0002 00AF     		add	r7, sp, #0
 962              		.cfi_def_cfa_register 7
 588:Generated_Source\PSoC5/ADC_DelSig_1.c ****     /* Start the conversion */
 589:Generated_Source\PSoC5/ADC_DelSig_1.c ****     ADC_DelSig_1_DEC_CR_REG |= ADC_DelSig_1_DEC_START_CONV;
 963              		.loc 1 589 0
 964 0004 054A     		ldr	r2, .L36
 965 0006 054B     		ldr	r3, .L36
 966 0008 1B78     		ldrb	r3, [r3]
 967 000a DBB2     		uxtb	r3, r3
 968 000c 43F00103 		orr	r3, r3, #1
 969 0010 DBB2     		uxtb	r3, r3
 970 0012 1370     		strb	r3, [r2]
 590:Generated_Source\PSoC5/ADC_DelSig_1.c **** }
 971              		.loc 1 590 0
 972 0014 00BF     		nop
 973 0016 BD46     		mov	sp, r7
 974              		.cfi_def_cfa_register 13
 975              		@ sp needed
 976 0018 80BC     		pop	{r7}
 977              		.cfi_restore 7
 978              		.cfi_def_cfa_offset 0
 979 001a 7047     		bx	lr
 980              	.L37:
 981              		.align	2
 982              	.L36:
 983 001c 004E0040 		.word	1073761792
 984              		.cfi_endproc
 985              	.LFE8:
 986              		.size	ADC_DelSig_1_StartConvert, .-ADC_DelSig_1_StartConvert
 987              		.section	.text.ADC_DelSig_1_StopConvert,"ax",%progbits
 988              		.align	2
 989              		.global	ADC_DelSig_1_StopConvert
 990              		.thumb
 991              		.thumb_func
 992              		.type	ADC_DelSig_1_StopConvert, %function
 993              	ADC_DelSig_1_StopConvert:
 994              	.LFB9:
 591:Generated_Source\PSoC5/ADC_DelSig_1.c **** 
 592:Generated_Source\PSoC5/ADC_DelSig_1.c **** 
 593:Generated_Source\PSoC5/ADC_DelSig_1.c **** /*******************************************************************************
 594:Generated_Source\PSoC5/ADC_DelSig_1.c **** * Function Name: ADC_DelSig_1_StopConvert
 595:Generated_Source\PSoC5/ADC_DelSig_1.c **** ********************************************************************************
 596:Generated_Source\PSoC5/ADC_DelSig_1.c **** *
 597:Generated_Source\PSoC5/ADC_DelSig_1.c **** * Summary:
 598:Generated_Source\PSoC5/ADC_DelSig_1.c **** *  Forces the ADC to stop all conversions. If the ADC is in the middle of a
 599:Generated_Source\PSoC5/ADC_DelSig_1.c **** *  conversion, the ADC will be reset and not provide a result for that partial
 600:Generated_Source\PSoC5/ADC_DelSig_1.c **** *  conversion.
 601:Generated_Source\PSoC5/ADC_DelSig_1.c **** *
 602:Generated_Source\PSoC5/ADC_DelSig_1.c **** * Parameters:
ARM GAS  C:\Users\Joe\AppData\Local\Temp\ccwCXT19.s 			page 29


 603:Generated_Source\PSoC5/ADC_DelSig_1.c **** *  None
 604:Generated_Source\PSoC5/ADC_DelSig_1.c **** *
 605:Generated_Source\PSoC5/ADC_DelSig_1.c **** * Return:
 606:Generated_Source\PSoC5/ADC_DelSig_1.c **** *  None
 607:Generated_Source\PSoC5/ADC_DelSig_1.c **** *
 608:Generated_Source\PSoC5/ADC_DelSig_1.c **** *******************************************************************************/
 609:Generated_Source\PSoC5/ADC_DelSig_1.c **** void ADC_DelSig_1_StopConvert(void) 
 610:Generated_Source\PSoC5/ADC_DelSig_1.c **** {
 995              		.loc 1 610 0
 996              		.cfi_startproc
 997              		@ args = 0, pretend = 0, frame = 0
 998              		@ frame_needed = 1, uses_anonymous_args = 0
 999              		@ link register save eliminated.
 1000 0000 80B4     		push	{r7}
 1001              		.cfi_def_cfa_offset 4
 1002              		.cfi_offset 7, -4
 1003 0002 00AF     		add	r7, sp, #0
 1004              		.cfi_def_cfa_register 7
 611:Generated_Source\PSoC5/ADC_DelSig_1.c ****     /* Stop all conversions */
 612:Generated_Source\PSoC5/ADC_DelSig_1.c ****     ADC_DelSig_1_DEC_CR_REG &= (uint8)~ADC_DelSig_1_DEC_START_CONV;
 1005              		.loc 1 612 0
 1006 0004 054A     		ldr	r2, .L39
 1007 0006 054B     		ldr	r3, .L39
 1008 0008 1B78     		ldrb	r3, [r3]
 1009 000a DBB2     		uxtb	r3, r3
 1010 000c 23F00103 		bic	r3, r3, #1
 1011 0010 DBB2     		uxtb	r3, r3
 1012 0012 1370     		strb	r3, [r2]
 613:Generated_Source\PSoC5/ADC_DelSig_1.c **** }
 1013              		.loc 1 613 0
 1014 0014 00BF     		nop
 1015 0016 BD46     		mov	sp, r7
 1016              		.cfi_def_cfa_register 13
 1017              		@ sp needed
 1018 0018 80BC     		pop	{r7}
 1019              		.cfi_restore 7
 1020              		.cfi_def_cfa_offset 0
 1021 001a 7047     		bx	lr
 1022              	.L40:
 1023              		.align	2
 1024              	.L39:
 1025 001c 004E0040 		.word	1073761792
 1026              		.cfi_endproc
 1027              	.LFE9:
 1028              		.size	ADC_DelSig_1_StopConvert, .-ADC_DelSig_1_StopConvert
 1029              		.section	.text.ADC_DelSig_1_IsEndConversion,"ax",%progbits
 1030              		.align	2
 1031              		.global	ADC_DelSig_1_IsEndConversion
 1032              		.thumb
 1033              		.thumb_func
 1034              		.type	ADC_DelSig_1_IsEndConversion, %function
 1035              	ADC_DelSig_1_IsEndConversion:
 1036              	.LFB10:
 614:Generated_Source\PSoC5/ADC_DelSig_1.c **** 
 615:Generated_Source\PSoC5/ADC_DelSig_1.c **** 
 616:Generated_Source\PSoC5/ADC_DelSig_1.c **** /*******************************************************************************
 617:Generated_Source\PSoC5/ADC_DelSig_1.c **** * Function Name: ADC_DelSig_1_IsEndConversion
ARM GAS  C:\Users\Joe\AppData\Local\Temp\ccwCXT19.s 			page 30


 618:Generated_Source\PSoC5/ADC_DelSig_1.c **** ********************************************************************************
 619:Generated_Source\PSoC5/ADC_DelSig_1.c **** *
 620:Generated_Source\PSoC5/ADC_DelSig_1.c **** * Summary:
 621:Generated_Source\PSoC5/ADC_DelSig_1.c **** *  Checks the status that the most recently started conversion has completed.
 622:Generated_Source\PSoC5/ADC_DelSig_1.c **** *  The status is cleared by any of ADC_GetResult8(), ADC_GetResult16() or 
 623:Generated_Source\PSoC5/ADC_DelSig_1.c **** *  ADC_GetResult32() API.
 624:Generated_Source\PSoC5/ADC_DelSig_1.c **** *  This function provides the programmer with two options. In one mode this 
 625:Generated_Source\PSoC5/ADC_DelSig_1.c **** *  function immediately returns with the conversion status. In the other mode,
 626:Generated_Source\PSoC5/ADC_DelSig_1.c **** *  the function does not return (blocking) until the conversion has completed.
 627:Generated_Source\PSoC5/ADC_DelSig_1.c **** *
 628:Generated_Source\PSoC5/ADC_DelSig_1.c **** * Parameters:
 629:Generated_Source\PSoC5/ADC_DelSig_1.c **** *  retMode: Check conversion return mode. See the following table for options.
 630:Generated_Source\PSoC5/ADC_DelSig_1.c **** *   ADC_DelSig_1_RETURN_STATUS -   Immediately returns conversion result
 631:Generated_Source\PSoC5/ADC_DelSig_1.c **** *                                      status.
 632:Generated_Source\PSoC5/ADC_DelSig_1.c **** *   ADC_DelSig_1_WAIT_FOR_RESULT - Does not return until ADC conversion
 633:Generated_Source\PSoC5/ADC_DelSig_1.c **** *                                      is complete.
 634:Generated_Source\PSoC5/ADC_DelSig_1.c **** *
 635:Generated_Source\PSoC5/ADC_DelSig_1.c **** * Return:
 636:Generated_Source\PSoC5/ADC_DelSig_1.c **** *  If a nonzero value is returned, the last conversion has completed.
 637:Generated_Source\PSoC5/ADC_DelSig_1.c **** *  If the returned value is zero, the ADC is still calculating the last result.
 638:Generated_Source\PSoC5/ADC_DelSig_1.c **** *
 639:Generated_Source\PSoC5/ADC_DelSig_1.c **** * Global variables:
 640:Generated_Source\PSoC5/ADC_DelSig_1.c **** *  ADC_DelSig_1_convDone:  Used to check whether conversion is complete
 641:Generated_Source\PSoC5/ADC_DelSig_1.c **** *  or not for single sample mode with resolution is above 16
 642:Generated_Source\PSoC5/ADC_DelSig_1.c **** *
 643:Generated_Source\PSoC5/ADC_DelSig_1.c **** *******************************************************************************/
 644:Generated_Source\PSoC5/ADC_DelSig_1.c **** uint8 ADC_DelSig_1_IsEndConversion(uint8 retMode) 
 645:Generated_Source\PSoC5/ADC_DelSig_1.c **** {
 1037              		.loc 1 645 0
 1038              		.cfi_startproc
 1039              		@ args = 0, pretend = 0, frame = 16
 1040              		@ frame_needed = 1, uses_anonymous_args = 0
 1041              		@ link register save eliminated.
 1042 0000 80B4     		push	{r7}
 1043              		.cfi_def_cfa_offset 4
 1044              		.cfi_offset 7, -4
 1045 0002 85B0     		sub	sp, sp, #20
 1046              		.cfi_def_cfa_offset 24
 1047 0004 00AF     		add	r7, sp, #0
 1048              		.cfi_def_cfa_register 7
 1049 0006 0346     		mov	r3, r0
 1050 0008 FB71     		strb	r3, [r7, #7]
 1051              	.L45:
 646:Generated_Source\PSoC5/ADC_DelSig_1.c ****     uint8 status;
 647:Generated_Source\PSoC5/ADC_DelSig_1.c **** 
 648:Generated_Source\PSoC5/ADC_DelSig_1.c ****     do
 649:Generated_Source\PSoC5/ADC_DelSig_1.c ****     {
 650:Generated_Source\PSoC5/ADC_DelSig_1.c ****         /* Check for stop convert if conversion mode is Single Sample with
 651:Generated_Source\PSoC5/ADC_DelSig_1.c ****         *   resolution above 16 bit
 652:Generated_Source\PSoC5/ADC_DelSig_1.c ****         */
 653:Generated_Source\PSoC5/ADC_DelSig_1.c ****         if(ADC_DelSig_1_stopConversion != 0u)
 1052              		.loc 1 653 0
 1053 000a 0D4B     		ldr	r3, .L47
 1054 000c 1B78     		ldrb	r3, [r3]
 1055 000e DBB2     		uxtb	r3, r3
 1056 0010 002B     		cmp	r3, #0
 1057 0012 03D0     		beq	.L42
ARM GAS  C:\Users\Joe\AppData\Local\Temp\ccwCXT19.s 			page 31


 654:Generated_Source\PSoC5/ADC_DelSig_1.c ****         {
 655:Generated_Source\PSoC5/ADC_DelSig_1.c ****             status = ADC_DelSig_1_convDone;
 1058              		.loc 1 655 0
 1059 0014 0B4B     		ldr	r3, .L47+4
 1060 0016 1B78     		ldrb	r3, [r3]
 1061 0018 FB73     		strb	r3, [r7, #15]
 1062 001a 05E0     		b	.L43
 1063              	.L42:
 656:Generated_Source\PSoC5/ADC_DelSig_1.c ****         }
 657:Generated_Source\PSoC5/ADC_DelSig_1.c ****         else
 658:Generated_Source\PSoC5/ADC_DelSig_1.c ****         {
 659:Generated_Source\PSoC5/ADC_DelSig_1.c ****             status = ADC_DelSig_1_DEC_SR_REG & ADC_DelSig_1_DEC_CONV_DONE;
 1064              		.loc 1 659 0
 1065 001c 0A4B     		ldr	r3, .L47+8
 1066 001e 1B78     		ldrb	r3, [r3]
 1067 0020 DBB2     		uxtb	r3, r3
 1068 0022 03F00103 		and	r3, r3, #1
 1069 0026 FB73     		strb	r3, [r7, #15]
 1070              	.L43:
 660:Generated_Source\PSoC5/ADC_DelSig_1.c ****         }
 661:Generated_Source\PSoC5/ADC_DelSig_1.c ****     }while((status != ADC_DelSig_1_DEC_CONV_DONE) && (retMode == ADC_DelSig_1_WAIT_FOR_RESULT));
 1071              		.loc 1 661 0
 1072 0028 FB7B     		ldrb	r3, [r7, #15]	@ zero_extendqisi2
 1073 002a 012B     		cmp	r3, #1
 1074 002c 02D0     		beq	.L44
 1075              		.loc 1 661 0 is_stmt 0 discriminator 1
 1076 002e FB79     		ldrb	r3, [r7, #7]	@ zero_extendqisi2
 1077 0030 002B     		cmp	r3, #0
 1078 0032 EAD0     		beq	.L45
 1079              	.L44:
 662:Generated_Source\PSoC5/ADC_DelSig_1.c **** 
 663:Generated_Source\PSoC5/ADC_DelSig_1.c ****     return(status);
 1080              		.loc 1 663 0 is_stmt 1
 1081 0034 FB7B     		ldrb	r3, [r7, #15]	@ zero_extendqisi2
 664:Generated_Source\PSoC5/ADC_DelSig_1.c **** }
 1082              		.loc 1 664 0
 1083 0036 1846     		mov	r0, r3
 1084 0038 1437     		adds	r7, r7, #20
 1085              		.cfi_def_cfa_offset 4
 1086 003a BD46     		mov	sp, r7
 1087              		.cfi_def_cfa_register 13
 1088              		@ sp needed
 1089 003c 80BC     		pop	{r7}
 1090              		.cfi_restore 7
 1091              		.cfi_def_cfa_offset 0
 1092 003e 7047     		bx	lr
 1093              	.L48:
 1094              		.align	2
 1095              	.L47:
 1096 0040 00000000 		.word	ADC_DelSig_1_stopConversion
 1097 0044 00000000 		.word	ADC_DelSig_1_convDone
 1098 0048 014E0040 		.word	1073761793
 1099              		.cfi_endproc
 1100              	.LFE10:
 1101              		.size	ADC_DelSig_1_IsEndConversion, .-ADC_DelSig_1_IsEndConversion
 1102              		.section	.text.ADC_DelSig_1_GetResult8,"ax",%progbits
 1103              		.align	2
ARM GAS  C:\Users\Joe\AppData\Local\Temp\ccwCXT19.s 			page 32


 1104              		.global	ADC_DelSig_1_GetResult8
 1105              		.thumb
 1106              		.thumb_func
 1107              		.type	ADC_DelSig_1_GetResult8, %function
 1108              	ADC_DelSig_1_GetResult8:
 1109              	.LFB11:
 665:Generated_Source\PSoC5/ADC_DelSig_1.c **** 
 666:Generated_Source\PSoC5/ADC_DelSig_1.c **** 
 667:Generated_Source\PSoC5/ADC_DelSig_1.c **** /*******************************************************************************
 668:Generated_Source\PSoC5/ADC_DelSig_1.c **** * Function Name: ADC_DelSig_1_GetResult8
 669:Generated_Source\PSoC5/ADC_DelSig_1.c **** ********************************************************************************
 670:Generated_Source\PSoC5/ADC_DelSig_1.c **** *
 671:Generated_Source\PSoC5/ADC_DelSig_1.c **** * Summary:
 672:Generated_Source\PSoC5/ADC_DelSig_1.c **** *  This function returns the result of an 8-bit conversion. If the
 673:Generated_Source\PSoC5/ADC_DelSig_1.c **** *  resolution is set greater than 8-bits, the LSB of the result will be
 674:Generated_Source\PSoC5/ADC_DelSig_1.c **** *  returned. When the ADC is configured for 8-bit single ended mode,
 675:Generated_Source\PSoC5/ADC_DelSig_1.c **** *  the ADC_GetResult16() function should be used instead. This
 676:Generated_Source\PSoC5/ADC_DelSig_1.c **** *  function returns only signed 8-bit values. The maximum positive
 677:Generated_Source\PSoC5/ADC_DelSig_1.c **** *  signed 8-bit value is 127, but in singled ended 8-bit mode, the
 678:Generated_Source\PSoC5/ADC_DelSig_1.c **** *  maximum positive value is 255.
 679:Generated_Source\PSoC5/ADC_DelSig_1.c **** *
 680:Generated_Source\PSoC5/ADC_DelSig_1.c **** * Parameters:
 681:Generated_Source\PSoC5/ADC_DelSig_1.c **** *  None
 682:Generated_Source\PSoC5/ADC_DelSig_1.c **** *
 683:Generated_Source\PSoC5/ADC_DelSig_1.c **** * Return:
 684:Generated_Source\PSoC5/ADC_DelSig_1.c **** *  int8: The LSB of the last ADC conversion.
 685:Generated_Source\PSoC5/ADC_DelSig_1.c **** *
 686:Generated_Source\PSoC5/ADC_DelSig_1.c **** * Global variables:
 687:Generated_Source\PSoC5/ADC_DelSig_1.c **** *  ADC_DelSig_1_convDone:  Cleared in single sample mode with resolution
 688:Generated_Source\PSoC5/ADC_DelSig_1.c **** *                              above 16 bits
 689:Generated_Source\PSoC5/ADC_DelSig_1.c **** *
 690:Generated_Source\PSoC5/ADC_DelSig_1.c **** *******************************************************************************/
 691:Generated_Source\PSoC5/ADC_DelSig_1.c **** int8 ADC_DelSig_1_GetResult8( void ) 
 692:Generated_Source\PSoC5/ADC_DelSig_1.c **** {
 1110              		.loc 1 692 0
 1111              		.cfi_startproc
 1112              		@ args = 0, pretend = 0, frame = 8
 1113              		@ frame_needed = 1, uses_anonymous_args = 0
 1114              		@ link register save eliminated.
 1115 0000 80B4     		push	{r7}
 1116              		.cfi_def_cfa_offset 4
 1117              		.cfi_offset 7, -4
 1118 0002 83B0     		sub	sp, sp, #12
 1119              		.cfi_def_cfa_offset 16
 1120 0004 00AF     		add	r7, sp, #0
 1121              		.cfi_def_cfa_register 7
 693:Generated_Source\PSoC5/ADC_DelSig_1.c ****     int8 result;
 694:Generated_Source\PSoC5/ADC_DelSig_1.c ****     uint8 coherency;
 695:Generated_Source\PSoC5/ADC_DelSig_1.c **** 
 696:Generated_Source\PSoC5/ADC_DelSig_1.c ****     /* Read active coherency configuration */
 697:Generated_Source\PSoC5/ADC_DelSig_1.c ****     coherency = ADC_DelSig_1_DEC_COHER_REG & ADC_DelSig_1_DEC_SAMP_KEY_MASK;
 1122              		.loc 1 697 0
 1123 0006 124B     		ldr	r3, .L54
 1124 0008 1B78     		ldrb	r3, [r3]
 1125 000a DBB2     		uxtb	r3, r3
 1126 000c 03F00303 		and	r3, r3, #3
 1127 0010 FB71     		strb	r3, [r7, #7]
ARM GAS  C:\Users\Joe\AppData\Local\Temp\ccwCXT19.s 			page 33


 698:Generated_Source\PSoC5/ADC_DelSig_1.c **** 
 699:Generated_Source\PSoC5/ADC_DelSig_1.c ****     result = (int8)ADC_DelSig_1_DEC_SAMP_REG;
 1128              		.loc 1 699 0
 1129 0012 104B     		ldr	r3, .L54+4
 1130 0014 1B78     		ldrb	r3, [r3]
 1131 0016 DBB2     		uxtb	r3, r3
 1132 0018 BB71     		strb	r3, [r7, #6]
 700:Generated_Source\PSoC5/ADC_DelSig_1.c **** 
 701:Generated_Source\PSoC5/ADC_DelSig_1.c ****     if(coherency == ADC_DelSig_1_DEC_SAMP_KEY_MID)
 1133              		.loc 1 701 0
 1134 001a FB79     		ldrb	r3, [r7, #7]	@ zero_extendqisi2
 1135 001c 022B     		cmp	r3, #2
 1136 001e 02D1     		bne	.L50
 702:Generated_Source\PSoC5/ADC_DelSig_1.c ****     {   /* Dummy read of the middle byte to unlock the coherency */
 703:Generated_Source\PSoC5/ADC_DelSig_1.c ****         (void)ADC_DelSig_1_DEC_SAMPM_REG;
 1137              		.loc 1 703 0
 1138 0020 0D4B     		ldr	r3, .L54+8
 1139 0022 1B78     		ldrb	r3, [r3]
 1140 0024 04E0     		b	.L51
 1141              	.L50:
 704:Generated_Source\PSoC5/ADC_DelSig_1.c ****     }
 705:Generated_Source\PSoC5/ADC_DelSig_1.c ****     else  if(coherency == ADC_DelSig_1_DEC_SAMP_KEY_HIGH)
 1142              		.loc 1 705 0
 1143 0026 FB79     		ldrb	r3, [r7, #7]	@ zero_extendqisi2
 1144 0028 032B     		cmp	r3, #3
 1145 002a 01D1     		bne	.L51
 706:Generated_Source\PSoC5/ADC_DelSig_1.c ****     {   /* Dummy read of the MSB byte to unlock the coherency */
 707:Generated_Source\PSoC5/ADC_DelSig_1.c ****         (void)ADC_DelSig_1_DEC_SAMPH_REG;
 1146              		.loc 1 707 0
 1147 002c 0B4B     		ldr	r3, .L54+12
 1148 002e 1B78     		ldrb	r3, [r3]
 1149              	.L51:
 708:Generated_Source\PSoC5/ADC_DelSig_1.c ****     }
 709:Generated_Source\PSoC5/ADC_DelSig_1.c ****     else /*No action required for other coherency */
 710:Generated_Source\PSoC5/ADC_DelSig_1.c ****     {
 711:Generated_Source\PSoC5/ADC_DelSig_1.c ****     }
 712:Generated_Source\PSoC5/ADC_DelSig_1.c ****     /* Clear conversion complete status in Single Sample mode with resolution above 16 bit */
 713:Generated_Source\PSoC5/ADC_DelSig_1.c ****     if(ADC_DelSig_1_stopConversion != 0u)
 1150              		.loc 1 713 0
 1151 0030 0B4B     		ldr	r3, .L54+16
 1152 0032 1B78     		ldrb	r3, [r3]
 1153 0034 DBB2     		uxtb	r3, r3
 1154 0036 002B     		cmp	r3, #0
 1155 0038 02D0     		beq	.L52
 714:Generated_Source\PSoC5/ADC_DelSig_1.c ****     {
 715:Generated_Source\PSoC5/ADC_DelSig_1.c ****         ADC_DelSig_1_convDone = 0u;
 1156              		.loc 1 715 0
 1157 003a 0A4B     		ldr	r3, .L54+20
 1158 003c 0022     		movs	r2, #0
 1159 003e 1A70     		strb	r2, [r3]
 1160              	.L52:
 716:Generated_Source\PSoC5/ADC_DelSig_1.c ****     }
 717:Generated_Source\PSoC5/ADC_DelSig_1.c ****     return (result);
 1161              		.loc 1 717 0
 1162 0040 97F90630 		ldrsb	r3, [r7, #6]
 718:Generated_Source\PSoC5/ADC_DelSig_1.c **** }
 1163              		.loc 1 718 0
ARM GAS  C:\Users\Joe\AppData\Local\Temp\ccwCXT19.s 			page 34


 1164 0044 1846     		mov	r0, r3
 1165 0046 0C37     		adds	r7, r7, #12
 1166              		.cfi_def_cfa_offset 4
 1167 0048 BD46     		mov	sp, r7
 1168              		.cfi_def_cfa_register 13
 1169              		@ sp needed
 1170 004a 80BC     		pop	{r7}
 1171              		.cfi_restore 7
 1172              		.cfi_def_cfa_offset 0
 1173 004c 7047     		bx	lr
 1174              	.L55:
 1175 004e 00BF     		.align	2
 1176              	.L54:
 1177 0050 144E0040 		.word	1073761812
 1178 0054 104E0040 		.word	1073761808
 1179 0058 114E0040 		.word	1073761809
 1180 005c 124E0040 		.word	1073761810
 1181 0060 00000000 		.word	ADC_DelSig_1_stopConversion
 1182 0064 00000000 		.word	ADC_DelSig_1_convDone
 1183              		.cfi_endproc
 1184              	.LFE11:
 1185              		.size	ADC_DelSig_1_GetResult8, .-ADC_DelSig_1_GetResult8
 1186              		.section	.text.ADC_DelSig_1_GetResult16,"ax",%progbits
 1187              		.align	2
 1188              		.global	ADC_DelSig_1_GetResult16
 1189              		.thumb
 1190              		.thumb_func
 1191              		.type	ADC_DelSig_1_GetResult16, %function
 1192              	ADC_DelSig_1_GetResult16:
 1193              	.LFB12:
 719:Generated_Source\PSoC5/ADC_DelSig_1.c **** 
 720:Generated_Source\PSoC5/ADC_DelSig_1.c **** 
 721:Generated_Source\PSoC5/ADC_DelSig_1.c **** /*******************************************************************************
 722:Generated_Source\PSoC5/ADC_DelSig_1.c **** * Function Name: ADC_DelSig_1_GetResult16
 723:Generated_Source\PSoC5/ADC_DelSig_1.c **** ********************************************************************************
 724:Generated_Source\PSoC5/ADC_DelSig_1.c **** *
 725:Generated_Source\PSoC5/ADC_DelSig_1.c **** * Summary:
 726:Generated_Source\PSoC5/ADC_DelSig_1.c **** *  Returns a 16-bit result for a conversion with a result that has a
 727:Generated_Source\PSoC5/ADC_DelSig_1.c **** *  resolution of 8 to 16 bits. If the resolution is set greater than 16-bits,
 728:Generated_Source\PSoC5/ADC_DelSig_1.c **** *  it will return the 16 least significant bits of the result. When the ADC
 729:Generated_Source\PSoC5/ADC_DelSig_1.c **** *  is configured for 16-bit single ended mode, the ADC_GetResult32()
 730:Generated_Source\PSoC5/ADC_DelSig_1.c **** *  function should be used instead. This function returns only signed
 731:Generated_Source\PSoC5/ADC_DelSig_1.c **** *  16-bit result, which allows a maximum positive value of 32767, not 65535.
 732:Generated_Source\PSoC5/ADC_DelSig_1.c **** *  This function supports different coherency settings.
 733:Generated_Source\PSoC5/ADC_DelSig_1.c **** *
 734:Generated_Source\PSoC5/ADC_DelSig_1.c **** * Parameters:
 735:Generated_Source\PSoC5/ADC_DelSig_1.c **** *   void
 736:Generated_Source\PSoC5/ADC_DelSig_1.c **** *
 737:Generated_Source\PSoC5/ADC_DelSig_1.c **** * Return:
 738:Generated_Source\PSoC5/ADC_DelSig_1.c **** *  int16:  ADC result.
 739:Generated_Source\PSoC5/ADC_DelSig_1.c **** *
 740:Generated_Source\PSoC5/ADC_DelSig_1.c **** * Global variables:
 741:Generated_Source\PSoC5/ADC_DelSig_1.c **** *  ADC_DelSig_1_convDone:  Cleared in single sample mode with resolution
 742:Generated_Source\PSoC5/ADC_DelSig_1.c **** *                              above 16 bits
 743:Generated_Source\PSoC5/ADC_DelSig_1.c **** *
 744:Generated_Source\PSoC5/ADC_DelSig_1.c **** *******************************************************************************/
 745:Generated_Source\PSoC5/ADC_DelSig_1.c **** int16 ADC_DelSig_1_GetResult16(void) 
ARM GAS  C:\Users\Joe\AppData\Local\Temp\ccwCXT19.s 			page 35


 746:Generated_Source\PSoC5/ADC_DelSig_1.c **** {
 1194              		.loc 1 746 0
 1195              		.cfi_startproc
 1196              		@ args = 0, pretend = 0, frame = 8
 1197              		@ frame_needed = 1, uses_anonymous_args = 0
 1198              		@ link register save eliminated.
 1199 0000 80B4     		push	{r7}
 1200              		.cfi_def_cfa_offset 4
 1201              		.cfi_offset 7, -4
 1202 0002 83B0     		sub	sp, sp, #12
 1203              		.cfi_def_cfa_offset 16
 1204 0004 00AF     		add	r7, sp, #0
 1205              		.cfi_def_cfa_register 7
 747:Generated_Source\PSoC5/ADC_DelSig_1.c ****     uint16 result;
 748:Generated_Source\PSoC5/ADC_DelSig_1.c ****     uint8 coherency;
 749:Generated_Source\PSoC5/ADC_DelSig_1.c **** 
 750:Generated_Source\PSoC5/ADC_DelSig_1.c ****     /* Read active coherency configuration */
 751:Generated_Source\PSoC5/ADC_DelSig_1.c ****     coherency = ADC_DelSig_1_DEC_COHER_REG & ADC_DelSig_1_DEC_SAMP_KEY_MASK;
 1206              		.loc 1 751 0
 1207 0006 174B     		ldr	r3, .L61
 1208 0008 1B78     		ldrb	r3, [r3]
 1209 000a DBB2     		uxtb	r3, r3
 1210 000c 03F00303 		and	r3, r3, #3
 1211 0010 7B71     		strb	r3, [r7, #5]
 752:Generated_Source\PSoC5/ADC_DelSig_1.c **** 
 753:Generated_Source\PSoC5/ADC_DelSig_1.c ****     if(coherency <= ADC_DelSig_1_DEC_SAMP_KEY_LOW)
 1212              		.loc 1 753 0
 1213 0012 7B79     		ldrb	r3, [r7, #5]	@ zero_extendqisi2
 1214 0014 012B     		cmp	r3, #1
 1215 0016 03D8     		bhi	.L57
 754:Generated_Source\PSoC5/ADC_DelSig_1.c ****     {   /*  Use default method to read result registers i.e. LSB byte read at the end*/
 755:Generated_Source\PSoC5/ADC_DelSig_1.c ****         #if (CY_PSOC3)
 756:Generated_Source\PSoC5/ADC_DelSig_1.c ****             result = ADC_DelSig_1_DEC_SAMPM_REG;
 757:Generated_Source\PSoC5/ADC_DelSig_1.c ****             result = (result << 8u) | ADC_DelSig_1_DEC_SAMP_REG;
 758:Generated_Source\PSoC5/ADC_DelSig_1.c ****         #else
 759:Generated_Source\PSoC5/ADC_DelSig_1.c ****             result = (CY_GET_REG16(ADC_DelSig_1_DEC_SAMP_16B_PTR));
 1216              		.loc 1 759 0
 1217 0018 134B     		ldr	r3, .L61+4
 1218 001a 1B88     		ldrh	r3, [r3]	@ movhi
 1219 001c FB80     		strh	r3, [r7, #6]	@ movhi
 1220 001e 11E0     		b	.L58
 1221              	.L57:
 760:Generated_Source\PSoC5/ADC_DelSig_1.c ****         #endif /* CY_PSOC3 */
 761:Generated_Source\PSoC5/ADC_DelSig_1.c ****     }
 762:Generated_Source\PSoC5/ADC_DelSig_1.c ****     else /* MID or HIGH */
 763:Generated_Source\PSoC5/ADC_DelSig_1.c ****     {   /* Read middle byte at the end */
 764:Generated_Source\PSoC5/ADC_DelSig_1.c ****         #if (CY_PSOC3)
 765:Generated_Source\PSoC5/ADC_DelSig_1.c ****             result = (CY_GET_REG16(ADC_DelSig_1_DEC_SAMP_16B_PTR));
 766:Generated_Source\PSoC5/ADC_DelSig_1.c ****         #else
 767:Generated_Source\PSoC5/ADC_DelSig_1.c ****             result = ADC_DelSig_1_DEC_SAMP_REG;
 1222              		.loc 1 767 0
 1223 0020 114B     		ldr	r3, .L61+4
 1224 0022 1B78     		ldrb	r3, [r3]
 1225 0024 DBB2     		uxtb	r3, r3
 1226 0026 FB80     		strh	r3, [r7, #6]	@ movhi
 768:Generated_Source\PSoC5/ADC_DelSig_1.c ****             result |=  (uint16)((uint16)ADC_DelSig_1_DEC_SAMPM_REG << 8u);
 1227              		.loc 1 768 0
ARM GAS  C:\Users\Joe\AppData\Local\Temp\ccwCXT19.s 			page 36


 1228 0028 104B     		ldr	r3, .L61+8
 1229 002a 1B78     		ldrb	r3, [r3]
 1230 002c DBB2     		uxtb	r3, r3
 1231 002e 9BB2     		uxth	r3, r3
 1232 0030 1B02     		lsls	r3, r3, #8
 1233 0032 9AB2     		uxth	r2, r3
 1234 0034 FB88     		ldrh	r3, [r7, #6]	@ movhi
 1235 0036 1343     		orrs	r3, r3, r2
 1236 0038 FB80     		strh	r3, [r7, #6]	@ movhi
 769:Generated_Source\PSoC5/ADC_DelSig_1.c ****         #endif /* CY_PSOC3 */
 770:Generated_Source\PSoC5/ADC_DelSig_1.c ****         if(coherency == ADC_DelSig_1_DEC_SAMP_KEY_HIGH)
 1237              		.loc 1 770 0
 1238 003a 7B79     		ldrb	r3, [r7, #5]	@ zero_extendqisi2
 1239 003c 032B     		cmp	r3, #3
 1240 003e 01D1     		bne	.L58
 771:Generated_Source\PSoC5/ADC_DelSig_1.c ****         {   /* Dummy read of the MSB byte to unlock the coherency */
 772:Generated_Source\PSoC5/ADC_DelSig_1.c ****             (void)ADC_DelSig_1_DEC_SAMPH_REG;
 1241              		.loc 1 772 0
 1242 0040 0B4B     		ldr	r3, .L61+12
 1243 0042 1B78     		ldrb	r3, [r3]
 1244              	.L58:
 773:Generated_Source\PSoC5/ADC_DelSig_1.c ****         }
 774:Generated_Source\PSoC5/ADC_DelSig_1.c ****     }
 775:Generated_Source\PSoC5/ADC_DelSig_1.c ****     /* Clear conversion complete status in Single Sample mode with resolution above 16 bit */
 776:Generated_Source\PSoC5/ADC_DelSig_1.c ****     if(ADC_DelSig_1_stopConversion != 0u)
 1245              		.loc 1 776 0
 1246 0044 0B4B     		ldr	r3, .L61+16
 1247 0046 1B78     		ldrb	r3, [r3]
 1248 0048 DBB2     		uxtb	r3, r3
 1249 004a 002B     		cmp	r3, #0
 1250 004c 02D0     		beq	.L59
 777:Generated_Source\PSoC5/ADC_DelSig_1.c ****     {
 778:Generated_Source\PSoC5/ADC_DelSig_1.c ****         ADC_DelSig_1_convDone = 0u;
 1251              		.loc 1 778 0
 1252 004e 0A4B     		ldr	r3, .L61+20
 1253 0050 0022     		movs	r2, #0
 1254 0052 1A70     		strb	r2, [r3]
 1255              	.L59:
 779:Generated_Source\PSoC5/ADC_DelSig_1.c ****     }
 780:Generated_Source\PSoC5/ADC_DelSig_1.c **** 
 781:Generated_Source\PSoC5/ADC_DelSig_1.c ****     return ((int16)result);
 1256              		.loc 1 781 0
 1257 0054 B7F90630 		ldrsh	r3, [r7, #6]
 782:Generated_Source\PSoC5/ADC_DelSig_1.c **** }
 1258              		.loc 1 782 0
 1259 0058 1846     		mov	r0, r3
 1260 005a 0C37     		adds	r7, r7, #12
 1261              		.cfi_def_cfa_offset 4
 1262 005c BD46     		mov	sp, r7
 1263              		.cfi_def_cfa_register 13
 1264              		@ sp needed
 1265 005e 80BC     		pop	{r7}
 1266              		.cfi_restore 7
 1267              		.cfi_def_cfa_offset 0
 1268 0060 7047     		bx	lr
 1269              	.L62:
 1270 0062 00BF     		.align	2
ARM GAS  C:\Users\Joe\AppData\Local\Temp\ccwCXT19.s 			page 37


 1271              	.L61:
 1272 0064 144E0040 		.word	1073761812
 1273 0068 104E0040 		.word	1073761808
 1274 006c 114E0040 		.word	1073761809
 1275 0070 124E0040 		.word	1073761810
 1276 0074 00000000 		.word	ADC_DelSig_1_stopConversion
 1277 0078 00000000 		.word	ADC_DelSig_1_convDone
 1278              		.cfi_endproc
 1279              	.LFE12:
 1280              		.size	ADC_DelSig_1_GetResult16, .-ADC_DelSig_1_GetResult16
 1281              		.section	.text.ADC_DelSig_1_GetResult32,"ax",%progbits
 1282              		.align	2
 1283              		.global	ADC_DelSig_1_GetResult32
 1284              		.thumb
 1285              		.thumb_func
 1286              		.type	ADC_DelSig_1_GetResult32, %function
 1287              	ADC_DelSig_1_GetResult32:
 1288              	.LFB13:
 783:Generated_Source\PSoC5/ADC_DelSig_1.c **** 
 784:Generated_Source\PSoC5/ADC_DelSig_1.c **** 
 785:Generated_Source\PSoC5/ADC_DelSig_1.c **** /*******************************************************************************
 786:Generated_Source\PSoC5/ADC_DelSig_1.c **** * Function Name: ADC_DelSig_1_GetResult32
 787:Generated_Source\PSoC5/ADC_DelSig_1.c **** ********************************************************************************
 788:Generated_Source\PSoC5/ADC_DelSig_1.c **** *
 789:Generated_Source\PSoC5/ADC_DelSig_1.c **** * Summary:
 790:Generated_Source\PSoC5/ADC_DelSig_1.c **** *  Returns a 32-bit result for a conversion with a result that has a
 791:Generated_Source\PSoC5/ADC_DelSig_1.c **** *  resolution of 8 to 20 bits.
 792:Generated_Source\PSoC5/ADC_DelSig_1.c **** *  This function supports different coherency settings.
 793:Generated_Source\PSoC5/ADC_DelSig_1.c **** *
 794:Generated_Source\PSoC5/ADC_DelSig_1.c **** * Parameters:
 795:Generated_Source\PSoC5/ADC_DelSig_1.c **** *  None
 796:Generated_Source\PSoC5/ADC_DelSig_1.c **** *
 797:Generated_Source\PSoC5/ADC_DelSig_1.c **** * Return:
 798:Generated_Source\PSoC5/ADC_DelSig_1.c **** *  int32: Result of the last ADC conversion.
 799:Generated_Source\PSoC5/ADC_DelSig_1.c **** *
 800:Generated_Source\PSoC5/ADC_DelSig_1.c **** * Global variables:
 801:Generated_Source\PSoC5/ADC_DelSig_1.c **** *  ADC_DelSig_1_convDone:  Cleared in single sample mode with resolution
 802:Generated_Source\PSoC5/ADC_DelSig_1.c **** *                              above 16 bits
 803:Generated_Source\PSoC5/ADC_DelSig_1.c **** *
 804:Generated_Source\PSoC5/ADC_DelSig_1.c **** *******************************************************************************/
 805:Generated_Source\PSoC5/ADC_DelSig_1.c **** int32 ADC_DelSig_1_GetResult32(void) 
 806:Generated_Source\PSoC5/ADC_DelSig_1.c **** {
 1289              		.loc 1 806 0
 1290              		.cfi_startproc
 1291              		@ args = 0, pretend = 0, frame = 8
 1292              		@ frame_needed = 1, uses_anonymous_args = 0
 1293              		@ link register save eliminated.
 1294 0000 80B4     		push	{r7}
 1295              		.cfi_def_cfa_offset 4
 1296              		.cfi_offset 7, -4
 1297 0002 83B0     		sub	sp, sp, #12
 1298              		.cfi_def_cfa_offset 16
 1299 0004 00AF     		add	r7, sp, #0
 1300              		.cfi_def_cfa_register 7
 807:Generated_Source\PSoC5/ADC_DelSig_1.c ****     uint32 result;
 808:Generated_Source\PSoC5/ADC_DelSig_1.c ****     uint8 coherency;
 809:Generated_Source\PSoC5/ADC_DelSig_1.c ****     #if (CY_PSOC3)
ARM GAS  C:\Users\Joe\AppData\Local\Temp\ccwCXT19.s 			page 38


 810:Generated_Source\PSoC5/ADC_DelSig_1.c **** 	    uint16 tmp;
 811:Generated_Source\PSoC5/ADC_DelSig_1.c ****     #endif /* CY_PSOC3 */
 812:Generated_Source\PSoC5/ADC_DelSig_1.c **** 
 813:Generated_Source\PSoC5/ADC_DelSig_1.c ****     /* Read active coherency configuration */
 814:Generated_Source\PSoC5/ADC_DelSig_1.c ****     coherency = ADC_DelSig_1_DEC_COHER_REG & ADC_DelSig_1_DEC_SAMP_KEY_MASK;
 1301              		.loc 1 814 0
 1302 0006 224B     		ldr	r3, .L69
 1303 0008 1B78     		ldrb	r3, [r3]
 1304 000a DBB2     		uxtb	r3, r3
 1305 000c 03F00303 		and	r3, r3, #3
 1306 0010 FB70     		strb	r3, [r7, #3]
 815:Generated_Source\PSoC5/ADC_DelSig_1.c **** 
 816:Generated_Source\PSoC5/ADC_DelSig_1.c ****     if(coherency <= ADC_DelSig_1_DEC_SAMP_KEY_LOW)
 1307              		.loc 1 816 0
 1308 0012 FB78     		ldrb	r3, [r7, #3]	@ zero_extendqisi2
 1309 0014 012B     		cmp	r3, #1
 1310 0016 0BD8     		bhi	.L64
 817:Generated_Source\PSoC5/ADC_DelSig_1.c ****     {   /*  Use default method to read result registers i.e. LSB byte read at the end*/
 818:Generated_Source\PSoC5/ADC_DelSig_1.c ****         #if (CY_PSOC3)
 819:Generated_Source\PSoC5/ADC_DelSig_1.c ****             result = ADC_DelSig_1_DEC_SAMPH_REG;
 820:Generated_Source\PSoC5/ADC_DelSig_1.c ****             if((result & 0x80u) != 0u)
 821:Generated_Source\PSoC5/ADC_DelSig_1.c ****             {   /* Sign extend */
 822:Generated_Source\PSoC5/ADC_DelSig_1.c ****                 result |= 0xFF00u;
 823:Generated_Source\PSoC5/ADC_DelSig_1.c ****             }
 824:Generated_Source\PSoC5/ADC_DelSig_1.c ****             result = (result << 8u) | ADC_DelSig_1_DEC_SAMPM_REG;
 825:Generated_Source\PSoC5/ADC_DelSig_1.c ****             result = (result << 8u) | ADC_DelSig_1_DEC_SAMP_REG;
 826:Generated_Source\PSoC5/ADC_DelSig_1.c ****         #else
 827:Generated_Source\PSoC5/ADC_DelSig_1.c ****             result = CY_GET_REG16(ADC_DelSig_1_DEC_SAMPH_16B_PTR);
 1311              		.loc 1 827 0
 1312 0018 1E4B     		ldr	r3, .L69+4
 1313 001a 1B88     		ldrh	r3, [r3]	@ movhi
 1314 001c 9BB2     		uxth	r3, r3
 1315 001e 7B60     		str	r3, [r7, #4]
 828:Generated_Source\PSoC5/ADC_DelSig_1.c ****             result = (result << 16u) | (CY_GET_REG16(ADC_DelSig_1_DEC_SAMP_16B_PTR));
 1316              		.loc 1 828 0
 1317 0020 7B68     		ldr	r3, [r7, #4]
 1318 0022 1B04     		lsls	r3, r3, #16
 1319 0024 1C4A     		ldr	r2, .L69+8
 1320 0026 1288     		ldrh	r2, [r2]	@ movhi
 1321 0028 92B2     		uxth	r2, r2
 1322 002a 1343     		orrs	r3, r3, r2
 1323 002c 7B60     		str	r3, [r7, #4]
 1324 002e 20E0     		b	.L65
 1325              	.L64:
 829:Generated_Source\PSoC5/ADC_DelSig_1.c ****         #endif /* CY_PSOC3 */
 830:Generated_Source\PSoC5/ADC_DelSig_1.c ****     }
 831:Generated_Source\PSoC5/ADC_DelSig_1.c ****     else if(coherency == ADC_DelSig_1_DEC_SAMP_KEY_MID)
 1326              		.loc 1 831 0
 1327 0030 FB78     		ldrb	r3, [r7, #3]	@ zero_extendqisi2
 1328 0032 022B     		cmp	r3, #2
 1329 0034 12D1     		bne	.L66
 832:Generated_Source\PSoC5/ADC_DelSig_1.c ****     {   /* Read middle byte at the end */
 833:Generated_Source\PSoC5/ADC_DelSig_1.c ****         #if (CY_PSOC3)
 834:Generated_Source\PSoC5/ADC_DelSig_1.c ****             result = ADC_DelSig_1_DEC_SAMPH_REG;
 835:Generated_Source\PSoC5/ADC_DelSig_1.c ****             if((result & 0x80u) != 0u)
 836:Generated_Source\PSoC5/ADC_DelSig_1.c ****             {   /* Sign extend */
 837:Generated_Source\PSoC5/ADC_DelSig_1.c ****                 result |= 0xFF00u;
ARM GAS  C:\Users\Joe\AppData\Local\Temp\ccwCXT19.s 			page 39


 838:Generated_Source\PSoC5/ADC_DelSig_1.c ****             }
 839:Generated_Source\PSoC5/ADC_DelSig_1.c ****             result = (result << 16u) | (CY_GET_REG16(ADC_DelSig_1_DEC_SAMP_16B_PTR));
 840:Generated_Source\PSoC5/ADC_DelSig_1.c ****         #else
 841:Generated_Source\PSoC5/ADC_DelSig_1.c ****             result = CY_GET_REG16(ADC_DelSig_1_DEC_SAMPH_16B_PTR);
 1330              		.loc 1 841 0
 1331 0036 174B     		ldr	r3, .L69+4
 1332 0038 1B88     		ldrh	r3, [r3]	@ movhi
 1333 003a 9BB2     		uxth	r3, r3
 1334 003c 7B60     		str	r3, [r7, #4]
 842:Generated_Source\PSoC5/ADC_DelSig_1.c ****             result = (result << 16u) | ADC_DelSig_1_DEC_SAMP_REG;
 1335              		.loc 1 842 0
 1336 003e 7B68     		ldr	r3, [r7, #4]
 1337 0040 1B04     		lsls	r3, r3, #16
 1338 0042 154A     		ldr	r2, .L69+8
 1339 0044 1278     		ldrb	r2, [r2]
 1340 0046 D2B2     		uxtb	r2, r2
 1341 0048 1343     		orrs	r3, r3, r2
 1342 004a 7B60     		str	r3, [r7, #4]
 843:Generated_Source\PSoC5/ADC_DelSig_1.c ****             result |=  (uint32)((uint32)ADC_DelSig_1_DEC_SAMPM_REG << 8u);
 1343              		.loc 1 843 0
 1344 004c 134B     		ldr	r3, .L69+12
 1345 004e 1B78     		ldrb	r3, [r3]
 1346 0050 DBB2     		uxtb	r3, r3
 1347 0052 1B02     		lsls	r3, r3, #8
 1348 0054 7A68     		ldr	r2, [r7, #4]
 1349 0056 1343     		orrs	r3, r3, r2
 1350 0058 7B60     		str	r3, [r7, #4]
 1351 005a 0AE0     		b	.L65
 1352              	.L66:
 844:Generated_Source\PSoC5/ADC_DelSig_1.c ****         #endif /* CY_PSOC3 */
 845:Generated_Source\PSoC5/ADC_DelSig_1.c ****     }
 846:Generated_Source\PSoC5/ADC_DelSig_1.c ****     else /*ADC_DelSig_1_DEC_SAMP_KEY_HIGH */
 847:Generated_Source\PSoC5/ADC_DelSig_1.c ****     {
 848:Generated_Source\PSoC5/ADC_DelSig_1.c ****         /* Read MSB byte at the end */
 849:Generated_Source\PSoC5/ADC_DelSig_1.c ****         #if (CY_PSOC3)
 850:Generated_Source\PSoC5/ADC_DelSig_1.c ****             result = CY_GET_REG16(ADC_DelSig_1_DEC_SAMP_16B_PTR);
 851:Generated_Source\PSoC5/ADC_DelSig_1.c **** 			tmp = ADC_DelSig_1_DEC_SAMPH_REG;
 852:Generated_Source\PSoC5/ADC_DelSig_1.c ****             if((tmp & 0x80u) != 0u)
 853:Generated_Source\PSoC5/ADC_DelSig_1.c ****             {   /* Sign extend */
 854:Generated_Source\PSoC5/ADC_DelSig_1.c ****                 tmp |= 0xFF00u;
 855:Generated_Source\PSoC5/ADC_DelSig_1.c ****             }
 856:Generated_Source\PSoC5/ADC_DelSig_1.c ****             result |= (uint32)tmp << 16u;
 857:Generated_Source\PSoC5/ADC_DelSig_1.c ****         #else
 858:Generated_Source\PSoC5/ADC_DelSig_1.c ****             result = CY_GET_REG16(ADC_DelSig_1_DEC_SAMP_16B_PTR);
 1353              		.loc 1 858 0
 1354 005c 0E4B     		ldr	r3, .L69+8
 1355 005e 1B88     		ldrh	r3, [r3]	@ movhi
 1356 0060 9BB2     		uxth	r3, r3
 1357 0062 7B60     		str	r3, [r7, #4]
 859:Generated_Source\PSoC5/ADC_DelSig_1.c ****             result |= (uint32)((uint32)CY_GET_REG16(ADC_DelSig_1_DEC_SAMPH_16B_PTR) << 16u);
 1358              		.loc 1 859 0
 1359 0064 0B4B     		ldr	r3, .L69+4
 1360 0066 1B88     		ldrh	r3, [r3]	@ movhi
 1361 0068 9BB2     		uxth	r3, r3
 1362 006a 1B04     		lsls	r3, r3, #16
 1363 006c 7A68     		ldr	r2, [r7, #4]
 1364 006e 1343     		orrs	r3, r3, r2
ARM GAS  C:\Users\Joe\AppData\Local\Temp\ccwCXT19.s 			page 40


 1365 0070 7B60     		str	r3, [r7, #4]
 1366              	.L65:
 860:Generated_Source\PSoC5/ADC_DelSig_1.c ****         #endif /* CY_PSOC3 */
 861:Generated_Source\PSoC5/ADC_DelSig_1.c ****     }
 862:Generated_Source\PSoC5/ADC_DelSig_1.c ****     /* Clear conversion complete status in Single Sample mode with resolution above 16 bit */
 863:Generated_Source\PSoC5/ADC_DelSig_1.c ****     if(ADC_DelSig_1_stopConversion != 0u)
 1367              		.loc 1 863 0
 1368 0072 0B4B     		ldr	r3, .L69+16
 1369 0074 1B78     		ldrb	r3, [r3]
 1370 0076 DBB2     		uxtb	r3, r3
 1371 0078 002B     		cmp	r3, #0
 1372 007a 02D0     		beq	.L67
 864:Generated_Source\PSoC5/ADC_DelSig_1.c ****     {
 865:Generated_Source\PSoC5/ADC_DelSig_1.c ****         ADC_DelSig_1_convDone = 0u;
 1373              		.loc 1 865 0
 1374 007c 094B     		ldr	r3, .L69+20
 1375 007e 0022     		movs	r2, #0
 1376 0080 1A70     		strb	r2, [r3]
 1377              	.L67:
 866:Generated_Source\PSoC5/ADC_DelSig_1.c ****     }
 867:Generated_Source\PSoC5/ADC_DelSig_1.c **** 
 868:Generated_Source\PSoC5/ADC_DelSig_1.c ****     return ((int32)result);
 1378              		.loc 1 868 0
 1379 0082 7B68     		ldr	r3, [r7, #4]
 869:Generated_Source\PSoC5/ADC_DelSig_1.c **** }
 1380              		.loc 1 869 0
 1381 0084 1846     		mov	r0, r3
 1382 0086 0C37     		adds	r7, r7, #12
 1383              		.cfi_def_cfa_offset 4
 1384 0088 BD46     		mov	sp, r7
 1385              		.cfi_def_cfa_register 13
 1386              		@ sp needed
 1387 008a 80BC     		pop	{r7}
 1388              		.cfi_restore 7
 1389              		.cfi_def_cfa_offset 0
 1390 008c 7047     		bx	lr
 1391              	.L70:
 1392 008e 00BF     		.align	2
 1393              	.L69:
 1394 0090 144E0040 		.word	1073761812
 1395 0094 124E0040 		.word	1073761810
 1396 0098 104E0040 		.word	1073761808
 1397 009c 114E0040 		.word	1073761809
 1398 00a0 00000000 		.word	ADC_DelSig_1_stopConversion
 1399 00a4 00000000 		.word	ADC_DelSig_1_convDone
 1400              		.cfi_endproc
 1401              	.LFE13:
 1402              		.size	ADC_DelSig_1_GetResult32, .-ADC_DelSig_1_GetResult32
 1403              		.section	.text.ADC_DelSig_1_SetOffset,"ax",%progbits
 1404              		.align	2
 1405              		.global	ADC_DelSig_1_SetOffset
 1406              		.thumb
 1407              		.thumb_func
 1408              		.type	ADC_DelSig_1_SetOffset, %function
 1409              	ADC_DelSig_1_SetOffset:
 1410              	.LFB14:
 870:Generated_Source\PSoC5/ADC_DelSig_1.c **** 
ARM GAS  C:\Users\Joe\AppData\Local\Temp\ccwCXT19.s 			page 41


 871:Generated_Source\PSoC5/ADC_DelSig_1.c **** 
 872:Generated_Source\PSoC5/ADC_DelSig_1.c **** /*******************************************************************************
 873:Generated_Source\PSoC5/ADC_DelSig_1.c **** * Function Name: ADC_DelSig_1_SetOffset
 874:Generated_Source\PSoC5/ADC_DelSig_1.c **** ********************************************************************************
 875:Generated_Source\PSoC5/ADC_DelSig_1.c **** *
 876:Generated_Source\PSoC5/ADC_DelSig_1.c **** * Summary:
 877:Generated_Source\PSoC5/ADC_DelSig_1.c **** *  Sets the ADC offset which is used by the functions ADC_CountsTo_uVolts, 
 878:Generated_Source\PSoC5/ADC_DelSig_1.c **** *  ADC_CountsTo_mVolts, and ADC_CountsTo_Volts to subtract the offset from the 
 879:Generated_Source\PSoC5/ADC_DelSig_1.c **** *  given reading before calculating the voltage conversion.
 880:Generated_Source\PSoC5/ADC_DelSig_1.c **** *
 881:Generated_Source\PSoC5/ADC_DelSig_1.c **** * Parameters:
 882:Generated_Source\PSoC5/ADC_DelSig_1.c **** *  int32:  This value is a measured value when the inputs are shorted or 
 883:Generated_Source\PSoC5/ADC_DelSig_1.c **** *          connected to the same input voltage.
 884:Generated_Source\PSoC5/ADC_DelSig_1.c **** *
 885:Generated_Source\PSoC5/ADC_DelSig_1.c **** * Return:
 886:Generated_Source\PSoC5/ADC_DelSig_1.c **** *  None
 887:Generated_Source\PSoC5/ADC_DelSig_1.c **** *
 888:Generated_Source\PSoC5/ADC_DelSig_1.c **** * Global variables:
 889:Generated_Source\PSoC5/ADC_DelSig_1.c **** *  ADC_DelSig_1_Offset:  Modified to set the user provided offset. This
 890:Generated_Source\PSoC5/ADC_DelSig_1.c **** *  variable is used for offset calibration purpose.
 891:Generated_Source\PSoC5/ADC_DelSig_1.c **** *
 892:Generated_Source\PSoC5/ADC_DelSig_1.c **** * Side Effects:
 893:Generated_Source\PSoC5/ADC_DelSig_1.c **** *  Affects the ADC_DelSig_1_CountsTo_Volts,
 894:Generated_Source\PSoC5/ADC_DelSig_1.c **** *  ADC_DelSig_1_CountsTo_mVolts, ADC_DelSig_1_CountsTo_uVolts functions
 895:Generated_Source\PSoC5/ADC_DelSig_1.c **** *  by subtracting the given offset.
 896:Generated_Source\PSoC5/ADC_DelSig_1.c **** *
 897:Generated_Source\PSoC5/ADC_DelSig_1.c **** *******************************************************************************/
 898:Generated_Source\PSoC5/ADC_DelSig_1.c **** void ADC_DelSig_1_SetOffset(int32 offset) 
 899:Generated_Source\PSoC5/ADC_DelSig_1.c **** {
 1411              		.loc 1 899 0
 1412              		.cfi_startproc
 1413              		@ args = 0, pretend = 0, frame = 8
 1414              		@ frame_needed = 1, uses_anonymous_args = 0
 1415              		@ link register save eliminated.
 1416 0000 80B4     		push	{r7}
 1417              		.cfi_def_cfa_offset 4
 1418              		.cfi_offset 7, -4
 1419 0002 83B0     		sub	sp, sp, #12
 1420              		.cfi_def_cfa_offset 16
 1421 0004 00AF     		add	r7, sp, #0
 1422              		.cfi_def_cfa_register 7
 1423 0006 7860     		str	r0, [r7, #4]
 900:Generated_Source\PSoC5/ADC_DelSig_1.c **** 
 901:Generated_Source\PSoC5/ADC_DelSig_1.c ****     ADC_DelSig_1_Offset = offset;
 1424              		.loc 1 901 0
 1425 0008 034A     		ldr	r2, .L72
 1426 000a 7B68     		ldr	r3, [r7, #4]
 1427 000c 1360     		str	r3, [r2]
 902:Generated_Source\PSoC5/ADC_DelSig_1.c **** }
 1428              		.loc 1 902 0
 1429 000e 00BF     		nop
 1430 0010 0C37     		adds	r7, r7, #12
 1431              		.cfi_def_cfa_offset 4
 1432 0012 BD46     		mov	sp, r7
 1433              		.cfi_def_cfa_register 13
 1434              		@ sp needed
 1435 0014 80BC     		pop	{r7}
ARM GAS  C:\Users\Joe\AppData\Local\Temp\ccwCXT19.s 			page 42


 1436              		.cfi_restore 7
 1437              		.cfi_def_cfa_offset 0
 1438 0016 7047     		bx	lr
 1439              	.L73:
 1440              		.align	2
 1441              	.L72:
 1442 0018 00000000 		.word	ADC_DelSig_1_Offset
 1443              		.cfi_endproc
 1444              	.LFE14:
 1445              		.size	ADC_DelSig_1_SetOffset, .-ADC_DelSig_1_SetOffset
 1446              		.section	.text.ADC_DelSig_1_SetGain,"ax",%progbits
 1447              		.align	2
 1448              		.global	ADC_DelSig_1_SetGain
 1449              		.thumb
 1450              		.thumb_func
 1451              		.type	ADC_DelSig_1_SetGain, %function
 1452              	ADC_DelSig_1_SetGain:
 1453              	.LFB15:
 903:Generated_Source\PSoC5/ADC_DelSig_1.c **** 
 904:Generated_Source\PSoC5/ADC_DelSig_1.c **** 
 905:Generated_Source\PSoC5/ADC_DelSig_1.c **** /*******************************************************************************
 906:Generated_Source\PSoC5/ADC_DelSig_1.c **** * Function Name: ADC_DelSig_1_SetGain
 907:Generated_Source\PSoC5/ADC_DelSig_1.c **** ********************************************************************************
 908:Generated_Source\PSoC5/ADC_DelSig_1.c **** *
 909:Generated_Source\PSoC5/ADC_DelSig_1.c **** * Summary:
 910:Generated_Source\PSoC5/ADC_DelSig_1.c **** *  Sets the ADC gain in counts per volt for the voltage conversion
 911:Generated_Source\PSoC5/ADC_DelSig_1.c **** *  functions below. This value is set by default by the reference and
 912:Generated_Source\PSoC5/ADC_DelSig_1.c **** *  input range settings. It should only be used to further calibrate the
 913:Generated_Source\PSoC5/ADC_DelSig_1.c **** *  ADC with a known input or if an external reference is used. This
 914:Generated_Source\PSoC5/ADC_DelSig_1.c **** *  function may also be used to calibrate an entire signal chain, not
 915:Generated_Source\PSoC5/ADC_DelSig_1.c **** *  just the ADC.
 916:Generated_Source\PSoC5/ADC_DelSig_1.c **** *
 917:Generated_Source\PSoC5/ADC_DelSig_1.c **** * Parameters:
 918:Generated_Source\PSoC5/ADC_DelSig_1.c **** *  int32: ADC gain in counts per volt.
 919:Generated_Source\PSoC5/ADC_DelSig_1.c **** *
 920:Generated_Source\PSoC5/ADC_DelSig_1.c **** * Return:
 921:Generated_Source\PSoC5/ADC_DelSig_1.c **** *  None
 922:Generated_Source\PSoC5/ADC_DelSig_1.c **** *
 923:Generated_Source\PSoC5/ADC_DelSig_1.c **** * Global variables:
 924:Generated_Source\PSoC5/ADC_DelSig_1.c **** *  ADC_DelSig_1_CountsPerVolt:  modified to set the ADC gain in counts
 925:Generated_Source\PSoC5/ADC_DelSig_1.c **** *   per volt.
 926:Generated_Source\PSoC5/ADC_DelSig_1.c **** *
 927:Generated_Source\PSoC5/ADC_DelSig_1.c **** * Side Effects:
 928:Generated_Source\PSoC5/ADC_DelSig_1.c **** *  Affects the ADC_DelSig_1_CountsTo_Volts,
 929:Generated_Source\PSoC5/ADC_DelSig_1.c **** *  ADC_DelSig_1_CountsTo_mVolts, ADC_DelSig_1_CountsTo_uVolts functions
 930:Generated_Source\PSoC5/ADC_DelSig_1.c **** *  supplying the correct conversion between ADC counts and voltage.
 931:Generated_Source\PSoC5/ADC_DelSig_1.c **** *
 932:Generated_Source\PSoC5/ADC_DelSig_1.c **** *******************************************************************************/
 933:Generated_Source\PSoC5/ADC_DelSig_1.c **** void ADC_DelSig_1_SetGain(int32 adcGain) 
 934:Generated_Source\PSoC5/ADC_DelSig_1.c **** {
 1454              		.loc 1 934 0
 1455              		.cfi_startproc
 1456              		@ args = 0, pretend = 0, frame = 8
 1457              		@ frame_needed = 1, uses_anonymous_args = 0
 1458              		@ link register save eliminated.
 1459 0000 80B4     		push	{r7}
 1460              		.cfi_def_cfa_offset 4
ARM GAS  C:\Users\Joe\AppData\Local\Temp\ccwCXT19.s 			page 43


 1461              		.cfi_offset 7, -4
 1462 0002 83B0     		sub	sp, sp, #12
 1463              		.cfi_def_cfa_offset 16
 1464 0004 00AF     		add	r7, sp, #0
 1465              		.cfi_def_cfa_register 7
 1466 0006 7860     		str	r0, [r7, #4]
 935:Generated_Source\PSoC5/ADC_DelSig_1.c ****     ADC_DelSig_1_CountsPerVolt = adcGain;
 1467              		.loc 1 935 0
 1468 0008 034A     		ldr	r2, .L75
 1469 000a 7B68     		ldr	r3, [r7, #4]
 1470 000c 1360     		str	r3, [r2]
 936:Generated_Source\PSoC5/ADC_DelSig_1.c **** }
 1471              		.loc 1 936 0
 1472 000e 00BF     		nop
 1473 0010 0C37     		adds	r7, r7, #12
 1474              		.cfi_def_cfa_offset 4
 1475 0012 BD46     		mov	sp, r7
 1476              		.cfi_def_cfa_register 13
 1477              		@ sp needed
 1478 0014 80BC     		pop	{r7}
 1479              		.cfi_restore 7
 1480              		.cfi_def_cfa_offset 0
 1481 0016 7047     		bx	lr
 1482              	.L76:
 1483              		.align	2
 1484              	.L75:
 1485 0018 00000000 		.word	ADC_DelSig_1_CountsPerVolt
 1486              		.cfi_endproc
 1487              	.LFE15:
 1488              		.size	ADC_DelSig_1_SetGain, .-ADC_DelSig_1_SetGain
 1489              		.section	.text.ADC_DelSig_1_CountsTo_mVolts,"ax",%progbits
 1490              		.align	2
 1491              		.global	ADC_DelSig_1_CountsTo_mVolts
 1492              		.thumb
 1493              		.thumb_func
 1494              		.type	ADC_DelSig_1_CountsTo_mVolts, %function
 1495              	ADC_DelSig_1_CountsTo_mVolts:
 1496              	.LFB16:
 937:Generated_Source\PSoC5/ADC_DelSig_1.c **** 
 938:Generated_Source\PSoC5/ADC_DelSig_1.c **** 
 939:Generated_Source\PSoC5/ADC_DelSig_1.c **** /*******************************************************************************
 940:Generated_Source\PSoC5/ADC_DelSig_1.c **** * Function Name: ADC_DelSig_1_CountsTo_mVolts
 941:Generated_Source\PSoC5/ADC_DelSig_1.c **** ********************************************************************************
 942:Generated_Source\PSoC5/ADC_DelSig_1.c **** *
 943:Generated_Source\PSoC5/ADC_DelSig_1.c **** * Summary:
 944:Generated_Source\PSoC5/ADC_DelSig_1.c **** *  Converts the ADC counts output to mVolts as a 16-bit integer. For
 945:Generated_Source\PSoC5/ADC_DelSig_1.c **** *  example, if the ADC measured 0.534 volts, the return value would
 946:Generated_Source\PSoC5/ADC_DelSig_1.c **** *  be 534 mVolts.
 947:Generated_Source\PSoC5/ADC_DelSig_1.c **** *
 948:Generated_Source\PSoC5/ADC_DelSig_1.c **** * Parameters:
 949:Generated_Source\PSoC5/ADC_DelSig_1.c **** *  int32: adcCounts Result from the ADC conversion.
 950:Generated_Source\PSoC5/ADC_DelSig_1.c **** *
 951:Generated_Source\PSoC5/ADC_DelSig_1.c **** * Return:
 952:Generated_Source\PSoC5/ADC_DelSig_1.c **** *  int16:  Result in mVolts
 953:Generated_Source\PSoC5/ADC_DelSig_1.c **** *
 954:Generated_Source\PSoC5/ADC_DelSig_1.c **** * Global variables:
 955:Generated_Source\PSoC5/ADC_DelSig_1.c **** *  ADC_DelSig_1_CountsPerVolt:  used to convert ADC counts to mVolts.
ARM GAS  C:\Users\Joe\AppData\Local\Temp\ccwCXT19.s 			page 44


 956:Generated_Source\PSoC5/ADC_DelSig_1.c **** *  ADC_DelSig_1_Offset:  Used as the offset while converting ADC counts
 957:Generated_Source\PSoC5/ADC_DelSig_1.c **** *   to mVolts.
 958:Generated_Source\PSoC5/ADC_DelSig_1.c **** *
 959:Generated_Source\PSoC5/ADC_DelSig_1.c **** *******************************************************************************/
 960:Generated_Source\PSoC5/ADC_DelSig_1.c **** int16 ADC_DelSig_1_CountsTo_mVolts(int32 adcCounts) 
 961:Generated_Source\PSoC5/ADC_DelSig_1.c **** {
 1497              		.loc 1 961 0
 1498              		.cfi_startproc
 1499              		@ args = 0, pretend = 0, frame = 16
 1500              		@ frame_needed = 1, uses_anonymous_args = 0
 1501              		@ link register save eliminated.
 1502 0000 80B4     		push	{r7}
 1503              		.cfi_def_cfa_offset 4
 1504              		.cfi_offset 7, -4
 1505 0002 85B0     		sub	sp, sp, #20
 1506              		.cfi_def_cfa_offset 24
 1507 0004 00AF     		add	r7, sp, #0
 1508              		.cfi_def_cfa_register 7
 1509 0006 7860     		str	r0, [r7, #4]
 962:Generated_Source\PSoC5/ADC_DelSig_1.c **** 
 963:Generated_Source\PSoC5/ADC_DelSig_1.c ****     int16 mVolts;
 964:Generated_Source\PSoC5/ADC_DelSig_1.c **** 
 965:Generated_Source\PSoC5/ADC_DelSig_1.c ****     /* Convert adcCounts to the right align if left option selected */
 966:Generated_Source\PSoC5/ADC_DelSig_1.c ****     #if(ADC_DelSig_1_CFG1_DEC_DIV != 0)
 967:Generated_Source\PSoC5/ADC_DelSig_1.c ****         if(ADC_DelSig_1_Config == ADC_DelSig_1_CFG1)
 1510              		.loc 1 967 0
 1511 0008 104B     		ldr	r3, .L81
 1512 000a 1B78     		ldrb	r3, [r3]
 1513 000c DBB2     		uxtb	r3, r3
 1514 000e 012B     		cmp	r3, #1
 1515 0010 05D1     		bne	.L78
 968:Generated_Source\PSoC5/ADC_DelSig_1.c ****         {
 969:Generated_Source\PSoC5/ADC_DelSig_1.c ****             adcCounts /= ADC_DelSig_1_CFG1_DEC_DIV;
 1516              		.loc 1 969 0
 1517 0012 7B68     		ldr	r3, [r7, #4]
 1518 0014 002B     		cmp	r3, #0
 1519 0016 00DA     		bge	.L79
 1520 0018 7F33     		adds	r3, r3, #127
 1521              	.L79:
 1522 001a DB11     		asrs	r3, r3, #7
 1523 001c 7B60     		str	r3, [r7, #4]
 1524              	.L78:
 970:Generated_Source\PSoC5/ADC_DelSig_1.c ****         }
 971:Generated_Source\PSoC5/ADC_DelSig_1.c ****     #endif /* ADC_DelSig_1_CFG1_DEC_DIV */
 972:Generated_Source\PSoC5/ADC_DelSig_1.c ****     #if((ADC_DelSig_1_CFG2_DEC_DIV != 0) && (ADC_DelSig_1_DEFAULT_NUM_CONFIGS > 1))
 973:Generated_Source\PSoC5/ADC_DelSig_1.c ****         if(ADC_DelSig_1_Config == ADC_DelSig_1_CFG2)
 974:Generated_Source\PSoC5/ADC_DelSig_1.c ****         {
 975:Generated_Source\PSoC5/ADC_DelSig_1.c ****             adcCounts /= ADC_DelSig_1_CFG2_DEC_DIV;
 976:Generated_Source\PSoC5/ADC_DelSig_1.c ****         }
 977:Generated_Source\PSoC5/ADC_DelSig_1.c ****     #endif /* ADC_DelSig_1_CFG2_DEC_DIV */
 978:Generated_Source\PSoC5/ADC_DelSig_1.c ****     #if((ADC_DelSig_1_CFG3_DEC_DIV != 0) && (ADC_DelSig_1_DEFAULT_NUM_CONFIGS > 2))
 979:Generated_Source\PSoC5/ADC_DelSig_1.c ****         if(ADC_DelSig_1_Config == ADC_DelSig_1_CFG3)
 980:Generated_Source\PSoC5/ADC_DelSig_1.c ****         {
 981:Generated_Source\PSoC5/ADC_DelSig_1.c ****             adcCounts /= ADC_DelSig_1_CFG3_DEC_DIV;
 982:Generated_Source\PSoC5/ADC_DelSig_1.c ****         }
 983:Generated_Source\PSoC5/ADC_DelSig_1.c ****     #endif /* ADC_DelSig_1_CFG2_DEC_DIV */
 984:Generated_Source\PSoC5/ADC_DelSig_1.c ****     #if((ADC_DelSig_1_CFG4_DEC_DIV != 0) && (ADC_DelSig_1_DEFAULT_NUM_CONFIGS > 3))
ARM GAS  C:\Users\Joe\AppData\Local\Temp\ccwCXT19.s 			page 45


 985:Generated_Source\PSoC5/ADC_DelSig_1.c ****         if(ADC_DelSig_1_Config == ADC_DelSig_1_CFG4)
 986:Generated_Source\PSoC5/ADC_DelSig_1.c ****         {
 987:Generated_Source\PSoC5/ADC_DelSig_1.c ****             adcCounts /= ADC_DelSig_1_CFG4_DEC_DIV;
 988:Generated_Source\PSoC5/ADC_DelSig_1.c ****         }
 989:Generated_Source\PSoC5/ADC_DelSig_1.c ****     #endif /* ADC_DelSig_1_CFG2_DEC_DIV */
 990:Generated_Source\PSoC5/ADC_DelSig_1.c **** 
 991:Generated_Source\PSoC5/ADC_DelSig_1.c ****     /* Subtract ADC offset */
 992:Generated_Source\PSoC5/ADC_DelSig_1.c ****     adcCounts -= ADC_DelSig_1_Offset;
 1525              		.loc 1 992 0
 1526 001e 0C4B     		ldr	r3, .L81+4
 1527 0020 1B68     		ldr	r3, [r3]
 1528 0022 7A68     		ldr	r2, [r7, #4]
 1529 0024 D31A     		subs	r3, r2, r3
 1530 0026 7B60     		str	r3, [r7, #4]
 993:Generated_Source\PSoC5/ADC_DelSig_1.c **** 
 994:Generated_Source\PSoC5/ADC_DelSig_1.c ****     mVolts = (int16)(( adcCounts * ADC_DelSig_1_1MV_COUNTS ) / ADC_DelSig_1_CountsPerVolt) ;
 1531              		.loc 1 994 0
 1532 0028 7B68     		ldr	r3, [r7, #4]
 1533 002a 4FF47A72 		mov	r2, #1000
 1534 002e 02FB03F2 		mul	r2, r2, r3
 1535 0032 084B     		ldr	r3, .L81+8
 1536 0034 1B68     		ldr	r3, [r3]
 1537 0036 92FBF3F3 		sdiv	r3, r2, r3
 1538 003a FB81     		strh	r3, [r7, #14]	@ movhi
 995:Generated_Source\PSoC5/ADC_DelSig_1.c **** 
 996:Generated_Source\PSoC5/ADC_DelSig_1.c ****     return(mVolts);
 1539              		.loc 1 996 0
 1540 003c B7F90E30 		ldrsh	r3, [r7, #14]
 997:Generated_Source\PSoC5/ADC_DelSig_1.c **** }
 1541              		.loc 1 997 0
 1542 0040 1846     		mov	r0, r3
 1543 0042 1437     		adds	r7, r7, #20
 1544              		.cfi_def_cfa_offset 4
 1545 0044 BD46     		mov	sp, r7
 1546              		.cfi_def_cfa_register 13
 1547              		@ sp needed
 1548 0046 80BC     		pop	{r7}
 1549              		.cfi_restore 7
 1550              		.cfi_def_cfa_offset 0
 1551 0048 7047     		bx	lr
 1552              	.L82:
 1553 004a 00BF     		.align	2
 1554              	.L81:
 1555 004c 00000000 		.word	ADC_DelSig_1_Config
 1556 0050 00000000 		.word	ADC_DelSig_1_Offset
 1557 0054 00000000 		.word	ADC_DelSig_1_CountsPerVolt
 1558              		.cfi_endproc
 1559              	.LFE16:
 1560              		.size	ADC_DelSig_1_CountsTo_mVolts, .-ADC_DelSig_1_CountsTo_mVolts
 1561              		.global	__aeabi_i2f
 1562              		.section	.text.ADC_DelSig_1_CountsTo_Volts,"ax",%progbits
 1563              		.align	2
 1564              		.global	ADC_DelSig_1_CountsTo_Volts
 1565              		.thumb
 1566              		.thumb_func
 1567              		.type	ADC_DelSig_1_CountsTo_Volts, %function
 1568              	ADC_DelSig_1_CountsTo_Volts:
ARM GAS  C:\Users\Joe\AppData\Local\Temp\ccwCXT19.s 			page 46


 1569              	.LFB17:
 998:Generated_Source\PSoC5/ADC_DelSig_1.c **** 
 999:Generated_Source\PSoC5/ADC_DelSig_1.c **** 
1000:Generated_Source\PSoC5/ADC_DelSig_1.c **** /*******************************************************************************
1001:Generated_Source\PSoC5/ADC_DelSig_1.c **** * Function Name: ADC_DelSig_1_CountsTo_Volts
1002:Generated_Source\PSoC5/ADC_DelSig_1.c **** ********************************************************************************
1003:Generated_Source\PSoC5/ADC_DelSig_1.c **** *
1004:Generated_Source\PSoC5/ADC_DelSig_1.c **** * Summary:
1005:Generated_Source\PSoC5/ADC_DelSig_1.c **** *  Converts the ADC output to Volts as a floating point number. For
1006:Generated_Source\PSoC5/ADC_DelSig_1.c **** *  example, if the ADC measure a voltage of 1.2345 Volts, the
1007:Generated_Source\PSoC5/ADC_DelSig_1.c **** *  returned result would be +1.2345 Volts.
1008:Generated_Source\PSoC5/ADC_DelSig_1.c **** *
1009:Generated_Source\PSoC5/ADC_DelSig_1.c **** * Parameters:
1010:Generated_Source\PSoC5/ADC_DelSig_1.c **** *  int32 adcCounts:  Result from the ADC conversion.
1011:Generated_Source\PSoC5/ADC_DelSig_1.c **** *
1012:Generated_Source\PSoC5/ADC_DelSig_1.c **** * Return:
1013:Generated_Source\PSoC5/ADC_DelSig_1.c **** *  float32: Result in Volts
1014:Generated_Source\PSoC5/ADC_DelSig_1.c **** *
1015:Generated_Source\PSoC5/ADC_DelSig_1.c **** * Global variables:
1016:Generated_Source\PSoC5/ADC_DelSig_1.c **** *  ADC_DelSig_1_CountsPerVolt:  used to convert to Volts.
1017:Generated_Source\PSoC5/ADC_DelSig_1.c **** *  ADC_DelSig_1_Offset:  Used as the offset while converting ADC counts
1018:Generated_Source\PSoC5/ADC_DelSig_1.c **** *   to Volts.
1019:Generated_Source\PSoC5/ADC_DelSig_1.c **** *
1020:Generated_Source\PSoC5/ADC_DelSig_1.c **** *******************************************************************************/
1021:Generated_Source\PSoC5/ADC_DelSig_1.c **** float32 ADC_DelSig_1_CountsTo_Volts(int32 adcCounts) 
1022:Generated_Source\PSoC5/ADC_DelSig_1.c **** {
 1570              		.loc 1 1022 0
 1571              		.cfi_startproc
 1572              		@ args = 0, pretend = 0, frame = 16
 1573              		@ frame_needed = 1, uses_anonymous_args = 0
 1574 0000 90B5     		push	{r4, r7, lr}
 1575              		.cfi_def_cfa_offset 12
 1576              		.cfi_offset 4, -12
 1577              		.cfi_offset 7, -8
 1578              		.cfi_offset 14, -4
 1579 0002 85B0     		sub	sp, sp, #20
 1580              		.cfi_def_cfa_offset 32
 1581 0004 00AF     		add	r7, sp, #0
 1582              		.cfi_def_cfa_register 7
 1583 0006 7860     		str	r0, [r7, #4]
1023:Generated_Source\PSoC5/ADC_DelSig_1.c **** 
1024:Generated_Source\PSoC5/ADC_DelSig_1.c ****     float32 Volts;
1025:Generated_Source\PSoC5/ADC_DelSig_1.c **** 
1026:Generated_Source\PSoC5/ADC_DelSig_1.c ****     /* Convert adcCounts to the right align if left option selected */
1027:Generated_Source\PSoC5/ADC_DelSig_1.c ****     #if(ADC_DelSig_1_CFG1_DEC_DIV != 0)
1028:Generated_Source\PSoC5/ADC_DelSig_1.c ****         if(ADC_DelSig_1_Config == ADC_DelSig_1_CFG1)
 1584              		.loc 1 1028 0
 1585 0008 124B     		ldr	r3, .L87
 1586 000a 1B78     		ldrb	r3, [r3]
 1587 000c DBB2     		uxtb	r3, r3
 1588 000e 012B     		cmp	r3, #1
 1589 0010 05D1     		bne	.L84
1029:Generated_Source\PSoC5/ADC_DelSig_1.c ****         {
1030:Generated_Source\PSoC5/ADC_DelSig_1.c ****             adcCounts /= ADC_DelSig_1_CFG1_DEC_DIV;
 1590              		.loc 1 1030 0
 1591 0012 7B68     		ldr	r3, [r7, #4]
 1592 0014 002B     		cmp	r3, #0
ARM GAS  C:\Users\Joe\AppData\Local\Temp\ccwCXT19.s 			page 47


 1593 0016 00DA     		bge	.L85
 1594 0018 7F33     		adds	r3, r3, #127
 1595              	.L85:
 1596 001a DB11     		asrs	r3, r3, #7
 1597 001c 7B60     		str	r3, [r7, #4]
 1598              	.L84:
1031:Generated_Source\PSoC5/ADC_DelSig_1.c ****         }
1032:Generated_Source\PSoC5/ADC_DelSig_1.c ****     #endif /* ADC_DelSig_1_CFG1_DEC_DIV */
1033:Generated_Source\PSoC5/ADC_DelSig_1.c ****     #if((ADC_DelSig_1_CFG2_DEC_DIV != 0) && (ADC_DelSig_1_DEFAULT_NUM_CONFIGS > 1))
1034:Generated_Source\PSoC5/ADC_DelSig_1.c ****         if(ADC_DelSig_1_Config == ADC_DelSig_1_CFG2)
1035:Generated_Source\PSoC5/ADC_DelSig_1.c ****         {
1036:Generated_Source\PSoC5/ADC_DelSig_1.c ****             adcCounts /= ADC_DelSig_1_CFG2_DEC_DIV;
1037:Generated_Source\PSoC5/ADC_DelSig_1.c ****         }
1038:Generated_Source\PSoC5/ADC_DelSig_1.c ****     #endif /* ADC_DelSig_1_CFG2_DEC_DIV */
1039:Generated_Source\PSoC5/ADC_DelSig_1.c ****     #if((ADC_DelSig_1_CFG3_DEC_DIV != 0) && (ADC_DelSig_1_DEFAULT_NUM_CONFIGS > 2))
1040:Generated_Source\PSoC5/ADC_DelSig_1.c ****         if(ADC_DelSig_1_Config == ADC_DelSig_1_CFG3)
1041:Generated_Source\PSoC5/ADC_DelSig_1.c ****         {
1042:Generated_Source\PSoC5/ADC_DelSig_1.c ****             adcCounts /= ADC_DelSig_1_CFG3_DEC_DIV;
1043:Generated_Source\PSoC5/ADC_DelSig_1.c ****         }
1044:Generated_Source\PSoC5/ADC_DelSig_1.c ****     #endif /* ADC_DelSig_1_CFG2_DEC_DIV */
1045:Generated_Source\PSoC5/ADC_DelSig_1.c ****     #if((ADC_DelSig_1_CFG4_DEC_DIV != 0) && (ADC_DelSig_1_DEFAULT_NUM_CONFIGS > 3))
1046:Generated_Source\PSoC5/ADC_DelSig_1.c ****         if(ADC_DelSig_1_Config == ADC_DelSig_1_CFG4)
1047:Generated_Source\PSoC5/ADC_DelSig_1.c ****         {
1048:Generated_Source\PSoC5/ADC_DelSig_1.c ****             adcCounts /= ADC_DelSig_1_CFG4_DEC_DIV;
1049:Generated_Source\PSoC5/ADC_DelSig_1.c ****         }
1050:Generated_Source\PSoC5/ADC_DelSig_1.c ****     #endif /* ADC_DelSig_1_CFG2_DEC_DIV */
1051:Generated_Source\PSoC5/ADC_DelSig_1.c **** 
1052:Generated_Source\PSoC5/ADC_DelSig_1.c ****     /* Subtract ADC offset */
1053:Generated_Source\PSoC5/ADC_DelSig_1.c ****     adcCounts -= ADC_DelSig_1_Offset;
 1599              		.loc 1 1053 0
 1600 001e 0E4B     		ldr	r3, .L87+4
 1601 0020 1B68     		ldr	r3, [r3]
 1602 0022 7A68     		ldr	r2, [r7, #4]
 1603 0024 D31A     		subs	r3, r2, r3
 1604 0026 7B60     		str	r3, [r7, #4]
1054:Generated_Source\PSoC5/ADC_DelSig_1.c **** 
1055:Generated_Source\PSoC5/ADC_DelSig_1.c ****     Volts = (float32)adcCounts / (float32)ADC_DelSig_1_CountsPerVolt;
 1605              		.loc 1 1055 0
 1606 0028 7868     		ldr	r0, [r7, #4]
 1607 002a FFF7FEFF 		bl	__aeabi_i2f
 1608 002e 0446     		mov	r4, r0
 1609 0030 0A4B     		ldr	r3, .L87+8
 1610 0032 1B68     		ldr	r3, [r3]
 1611 0034 1846     		mov	r0, r3
 1612 0036 FFF7FEFF 		bl	__aeabi_i2f
 1613 003a 0346     		mov	r3, r0
 1614 003c 1946     		mov	r1, r3
 1615 003e 2046     		mov	r0, r4
 1616 0040 FFF7FEFF 		bl	__aeabi_fdiv
 1617 0044 0346     		mov	r3, r0
 1618 0046 FB60     		str	r3, [r7, #12]	@ float
1056:Generated_Source\PSoC5/ADC_DelSig_1.c **** 
1057:Generated_Source\PSoC5/ADC_DelSig_1.c ****     return( Volts );
 1619              		.loc 1 1057 0
 1620 0048 FB68     		ldr	r3, [r7, #12]	@ float
1058:Generated_Source\PSoC5/ADC_DelSig_1.c **** }
 1621              		.loc 1 1058 0
ARM GAS  C:\Users\Joe\AppData\Local\Temp\ccwCXT19.s 			page 48


 1622 004a 1846     		mov	r0, r3
 1623 004c 1437     		adds	r7, r7, #20
 1624              		.cfi_def_cfa_offset 12
 1625 004e BD46     		mov	sp, r7
 1626              		.cfi_def_cfa_register 13
 1627              		@ sp needed
 1628 0050 90BD     		pop	{r4, r7, pc}
 1629              	.L88:
 1630 0052 00BF     		.align	2
 1631              	.L87:
 1632 0054 00000000 		.word	ADC_DelSig_1_Config
 1633 0058 00000000 		.word	ADC_DelSig_1_Offset
 1634 005c 00000000 		.word	ADC_DelSig_1_CountsPerVolt
 1635              		.cfi_endproc
 1636              	.LFE17:
 1637              		.size	ADC_DelSig_1_CountsTo_Volts, .-ADC_DelSig_1_CountsTo_Volts
 1638              		.section	.text.ADC_DelSig_1_CountsTo_uVolts,"ax",%progbits
 1639              		.align	2
 1640              		.global	ADC_DelSig_1_CountsTo_uVolts
 1641              		.thumb
 1642              		.thumb_func
 1643              		.type	ADC_DelSig_1_CountsTo_uVolts, %function
 1644              	ADC_DelSig_1_CountsTo_uVolts:
 1645              	.LFB18:
1059:Generated_Source\PSoC5/ADC_DelSig_1.c **** 
1060:Generated_Source\PSoC5/ADC_DelSig_1.c **** 
1061:Generated_Source\PSoC5/ADC_DelSig_1.c **** /*******************************************************************************
1062:Generated_Source\PSoC5/ADC_DelSig_1.c **** * Function Name: ADC_DelSig_1_CountsTo_uVolts
1063:Generated_Source\PSoC5/ADC_DelSig_1.c **** ********************************************************************************
1064:Generated_Source\PSoC5/ADC_DelSig_1.c **** *
1065:Generated_Source\PSoC5/ADC_DelSig_1.c **** * Summary:
1066:Generated_Source\PSoC5/ADC_DelSig_1.c **** *  Converts the ADC output to uVolts as a 32-bit integer. For example,
1067:Generated_Source\PSoC5/ADC_DelSig_1.c **** *  if the ADC measured -0.02345 Volts, the return value would be -23450 uVolts.
1068:Generated_Source\PSoC5/ADC_DelSig_1.c **** *
1069:Generated_Source\PSoC5/ADC_DelSig_1.c **** * Parameters:
1070:Generated_Source\PSoC5/ADC_DelSig_1.c **** *  int32 adcCounts: Result from the ADC conversion.
1071:Generated_Source\PSoC5/ADC_DelSig_1.c **** *
1072:Generated_Source\PSoC5/ADC_DelSig_1.c **** * Return:
1073:Generated_Source\PSoC5/ADC_DelSig_1.c **** *  int32:  Result in uVolts
1074:Generated_Source\PSoC5/ADC_DelSig_1.c **** *
1075:Generated_Source\PSoC5/ADC_DelSig_1.c **** * Global variables:
1076:Generated_Source\PSoC5/ADC_DelSig_1.c **** *  ADC_DelSig_1_CountsPerVolt:  used to convert ADC counts to mVolts.
1077:Generated_Source\PSoC5/ADC_DelSig_1.c **** *  ADC_DelSig_1_Offset:  Used as the offset while converting ADC counts
1078:Generated_Source\PSoC5/ADC_DelSig_1.c **** *   to mVolts.
1079:Generated_Source\PSoC5/ADC_DelSig_1.c **** *
1080:Generated_Source\PSoC5/ADC_DelSig_1.c **** * Theory:
1081:Generated_Source\PSoC5/ADC_DelSig_1.c **** *  Care must be taken to not exceed the maximum value for a 31 bit signed
1082:Generated_Source\PSoC5/ADC_DelSig_1.c **** *  number in the conversion to uVolts and at the same time not lose resolution.
1083:Generated_Source\PSoC5/ADC_DelSig_1.c **** *
1084:Generated_Source\PSoC5/ADC_DelSig_1.c **** *  uVolts = ((A * adcCounts) / ((int32)ADC_DelSig_1_CountsPerVolt / B));
1085:Generated_Source\PSoC5/ADC_DelSig_1.c **** *
1086:Generated_Source\PSoC5/ADC_DelSig_1.c **** *******************************************************************************/
1087:Generated_Source\PSoC5/ADC_DelSig_1.c **** int32 ADC_DelSig_1_CountsTo_uVolts(int32 adcCounts) 
1088:Generated_Source\PSoC5/ADC_DelSig_1.c **** {
 1646              		.loc 1 1088 0
 1647              		.cfi_startproc
 1648              		@ args = 0, pretend = 0, frame = 24
ARM GAS  C:\Users\Joe\AppData\Local\Temp\ccwCXT19.s 			page 49


 1649              		@ frame_needed = 1, uses_anonymous_args = 0
 1650              		@ link register save eliminated.
 1651 0000 80B4     		push	{r7}
 1652              		.cfi_def_cfa_offset 4
 1653              		.cfi_offset 7, -4
 1654 0002 87B0     		sub	sp, sp, #28
 1655              		.cfi_def_cfa_offset 32
 1656 0004 00AF     		add	r7, sp, #0
 1657              		.cfi_def_cfa_register 7
 1658 0006 7860     		str	r0, [r7, #4]
1089:Generated_Source\PSoC5/ADC_DelSig_1.c **** 
1090:Generated_Source\PSoC5/ADC_DelSig_1.c ****     int32 uVolts;
1091:Generated_Source\PSoC5/ADC_DelSig_1.c ****     int32 coefA;
1092:Generated_Source\PSoC5/ADC_DelSig_1.c ****     int32 coefB;
1093:Generated_Source\PSoC5/ADC_DelSig_1.c ****     uint8 resolution;
1094:Generated_Source\PSoC5/ADC_DelSig_1.c **** 
1095:Generated_Source\PSoC5/ADC_DelSig_1.c ****     /* Set the resolution based on the configuration */
1096:Generated_Source\PSoC5/ADC_DelSig_1.c ****     /* Convert adcCounts to the right align if left option selected */
1097:Generated_Source\PSoC5/ADC_DelSig_1.c ****     if (ADC_DelSig_1_Config == ADC_DelSig_1_CFG1)
 1659              		.loc 1 1097 0
 1660 0008 254B     		ldr	r3, .L100
 1661 000a 1B78     		ldrb	r3, [r3]
 1662 000c DBB2     		uxtb	r3, r3
 1663 000e 012B     		cmp	r3, #1
 1664 0010 08D1     		bne	.L90
1098:Generated_Source\PSoC5/ADC_DelSig_1.c ****     {
1099:Generated_Source\PSoC5/ADC_DelSig_1.c ****         resolution = ADC_DelSig_1_CFG1_RESOLUTION;
 1665              		.loc 1 1099 0
 1666 0012 1023     		movs	r3, #16
 1667 0014 FB73     		strb	r3, [r7, #15]
1100:Generated_Source\PSoC5/ADC_DelSig_1.c ****         #if(ADC_DelSig_1_CFG1_DEC_DIV != 0)
1101:Generated_Source\PSoC5/ADC_DelSig_1.c ****             adcCounts /= ADC_DelSig_1_CFG1_DEC_DIV;
 1668              		.loc 1 1101 0
 1669 0016 7B68     		ldr	r3, [r7, #4]
 1670 0018 002B     		cmp	r3, #0
 1671 001a 00DA     		bge	.L91
 1672 001c 7F33     		adds	r3, r3, #127
 1673              	.L91:
 1674 001e DB11     		asrs	r3, r3, #7
 1675 0020 7B60     		str	r3, [r7, #4]
 1676 0022 11E0     		b	.L92
 1677              	.L90:
1102:Generated_Source\PSoC5/ADC_DelSig_1.c ****         #endif /* ADC_DelSig_1_CFG1_DEC_DIV */
1103:Generated_Source\PSoC5/ADC_DelSig_1.c ****     }
1104:Generated_Source\PSoC5/ADC_DelSig_1.c ****     else if (ADC_DelSig_1_Config == ADC_DelSig_1_CFG2)
 1678              		.loc 1 1104 0
 1679 0024 1E4B     		ldr	r3, .L100
 1680 0026 1B78     		ldrb	r3, [r3]
 1681 0028 DBB2     		uxtb	r3, r3
 1682 002a 022B     		cmp	r3, #2
 1683 002c 02D1     		bne	.L93
1105:Generated_Source\PSoC5/ADC_DelSig_1.c ****     {
1106:Generated_Source\PSoC5/ADC_DelSig_1.c ****         resolution = ADC_DelSig_1_CFG2_RESOLUTION;
 1684              		.loc 1 1106 0
 1685 002e 1023     		movs	r3, #16
 1686 0030 FB73     		strb	r3, [r7, #15]
 1687 0032 09E0     		b	.L92
ARM GAS  C:\Users\Joe\AppData\Local\Temp\ccwCXT19.s 			page 50


 1688              	.L93:
1107:Generated_Source\PSoC5/ADC_DelSig_1.c ****         #if(ADC_DelSig_1_CFG2_DEC_DIV != 0)
1108:Generated_Source\PSoC5/ADC_DelSig_1.c ****             adcCounts /= ADC_DelSig_1_CFG2_DEC_DIV;
1109:Generated_Source\PSoC5/ADC_DelSig_1.c ****         #endif /* ADC_DelSig_1_CFG2_DEC_DIV */
1110:Generated_Source\PSoC5/ADC_DelSig_1.c ****     }
1111:Generated_Source\PSoC5/ADC_DelSig_1.c ****     else if (ADC_DelSig_1_Config == ADC_DelSig_1_CFG3)
 1689              		.loc 1 1111 0
 1690 0034 1A4B     		ldr	r3, .L100
 1691 0036 1B78     		ldrb	r3, [r3]
 1692 0038 DBB2     		uxtb	r3, r3
 1693 003a 032B     		cmp	r3, #3
 1694 003c 02D1     		bne	.L94
1112:Generated_Source\PSoC5/ADC_DelSig_1.c ****     {
1113:Generated_Source\PSoC5/ADC_DelSig_1.c ****         resolution = ADC_DelSig_1_CFG3_RESOLUTION;
 1695              		.loc 1 1113 0
 1696 003e 1023     		movs	r3, #16
 1697 0040 FB73     		strb	r3, [r7, #15]
 1698 0042 01E0     		b	.L92
 1699              	.L94:
1114:Generated_Source\PSoC5/ADC_DelSig_1.c ****         #if(ADC_DelSig_1_CFG3_DEC_DIV != 0)
1115:Generated_Source\PSoC5/ADC_DelSig_1.c ****             adcCounts /= ADC_DelSig_1_CFG3_DEC_DIV;
1116:Generated_Source\PSoC5/ADC_DelSig_1.c ****         #endif /* ADC_DelSig_1_CFG3_DEC_DIV */
1117:Generated_Source\PSoC5/ADC_DelSig_1.c ****     }
1118:Generated_Source\PSoC5/ADC_DelSig_1.c ****     else
1119:Generated_Source\PSoC5/ADC_DelSig_1.c ****     {
1120:Generated_Source\PSoC5/ADC_DelSig_1.c ****         resolution = ADC_DelSig_1_CFG4_RESOLUTION;
 1700              		.loc 1 1120 0
 1701 0044 1023     		movs	r3, #16
 1702 0046 FB73     		strb	r3, [r7, #15]
 1703              	.L92:
1121:Generated_Source\PSoC5/ADC_DelSig_1.c ****         #if(ADC_DelSig_1_CFG4_DEC_DIV != 0)
1122:Generated_Source\PSoC5/ADC_DelSig_1.c ****             adcCounts /= ADC_DelSig_1_CFG4_DEC_DIV;
1123:Generated_Source\PSoC5/ADC_DelSig_1.c ****         #endif /* ADC_DelSig_1_CFG4_DEC_DIV */
1124:Generated_Source\PSoC5/ADC_DelSig_1.c ****     }
1125:Generated_Source\PSoC5/ADC_DelSig_1.c **** 
1126:Generated_Source\PSoC5/ADC_DelSig_1.c ****     switch (resolution)
 1704              		.loc 1 1126 0
 1705 0048 FB7B     		ldrb	r3, [r7, #15]	@ zero_extendqisi2
 1706 004a 102B     		cmp	r3, #16
 1707 004c 05D1     		bne	.L99
1127:Generated_Source\PSoC5/ADC_DelSig_1.c ****     {
1128:Generated_Source\PSoC5/ADC_DelSig_1.c ****         #if( (ADC_DelSig_1_CFG1_RESOLUTION == ADC_DelSig_1__BITS_12) || \
1129:Generated_Source\PSoC5/ADC_DelSig_1.c ****              (ADC_DelSig_1_CFG2_RESOLUTION == ADC_DelSig_1__BITS_12) || \
1130:Generated_Source\PSoC5/ADC_DelSig_1.c ****              (ADC_DelSig_1_CFG3_RESOLUTION == ADC_DelSig_1__BITS_12) || \
1131:Generated_Source\PSoC5/ADC_DelSig_1.c ****              (ADC_DelSig_1_CFG4_RESOLUTION == ADC_DelSig_1__BITS_12) )
1132:Generated_Source\PSoC5/ADC_DelSig_1.c ****             case (uint8)ADC_DelSig_1__BITS_12:
1133:Generated_Source\PSoC5/ADC_DelSig_1.c ****                 coefA = ADC_DelSig_1_1UV_COUNTS / ADC_DelSig_1_DIVISOR_2;
1134:Generated_Source\PSoC5/ADC_DelSig_1.c ****                 coefB = ADC_DelSig_1_DIVISOR_2;
1135:Generated_Source\PSoC5/ADC_DelSig_1.c ****                 break;
1136:Generated_Source\PSoC5/ADC_DelSig_1.c ****         #endif /* ADC_DelSig_1__BITS_12 */    
1137:Generated_Source\PSoC5/ADC_DelSig_1.c ****         #if( (ADC_DelSig_1_CFG1_RESOLUTION == ADC_DelSig_1__BITS_13) || \
1138:Generated_Source\PSoC5/ADC_DelSig_1.c ****              (ADC_DelSig_1_CFG2_RESOLUTION == ADC_DelSig_1__BITS_13) || \
1139:Generated_Source\PSoC5/ADC_DelSig_1.c ****              (ADC_DelSig_1_CFG3_RESOLUTION == ADC_DelSig_1__BITS_13) || \
1140:Generated_Source\PSoC5/ADC_DelSig_1.c ****              (ADC_DelSig_1_CFG4_RESOLUTION == ADC_DelSig_1__BITS_13) )
1141:Generated_Source\PSoC5/ADC_DelSig_1.c ****             case (uint8)ADC_DelSig_1__BITS_13:
1142:Generated_Source\PSoC5/ADC_DelSig_1.c ****                 coefA = ADC_DelSig_1_1UV_COUNTS / ADC_DelSig_1_DIVISOR_4;
1143:Generated_Source\PSoC5/ADC_DelSig_1.c ****                 coefB = ADC_DelSig_1_DIVISOR_4;
ARM GAS  C:\Users\Joe\AppData\Local\Temp\ccwCXT19.s 			page 51


1144:Generated_Source\PSoC5/ADC_DelSig_1.c ****                 break;
1145:Generated_Source\PSoC5/ADC_DelSig_1.c ****         #endif /* ADC_DelSig_1__BITS_13 */    
1146:Generated_Source\PSoC5/ADC_DelSig_1.c ****         #if( (ADC_DelSig_1_CFG1_RESOLUTION == ADC_DelSig_1__BITS_14) || \
1147:Generated_Source\PSoC5/ADC_DelSig_1.c ****              (ADC_DelSig_1_CFG2_RESOLUTION == ADC_DelSig_1__BITS_14) || \
1148:Generated_Source\PSoC5/ADC_DelSig_1.c ****              (ADC_DelSig_1_CFG3_RESOLUTION == ADC_DelSig_1__BITS_14) || \
1149:Generated_Source\PSoC5/ADC_DelSig_1.c ****              (ADC_DelSig_1_CFG4_RESOLUTION == ADC_DelSig_1__BITS_14) )
1150:Generated_Source\PSoC5/ADC_DelSig_1.c ****             case (uint8)ADC_DelSig_1__BITS_14:
1151:Generated_Source\PSoC5/ADC_DelSig_1.c ****                 coefA = ADC_DelSig_1_1UV_COUNTS / ADC_DelSig_1_DIVISOR_8;
1152:Generated_Source\PSoC5/ADC_DelSig_1.c ****                 coefB = ADC_DelSig_1_DIVISOR_8;
1153:Generated_Source\PSoC5/ADC_DelSig_1.c ****                 break;
1154:Generated_Source\PSoC5/ADC_DelSig_1.c ****         #endif /* ADC_DelSig_1__BITS_14 */    
1155:Generated_Source\PSoC5/ADC_DelSig_1.c ****         #if( (ADC_DelSig_1_CFG1_RESOLUTION == ADC_DelSig_1__BITS_15) || \
1156:Generated_Source\PSoC5/ADC_DelSig_1.c ****              (ADC_DelSig_1_CFG2_RESOLUTION == ADC_DelSig_1__BITS_15) || \
1157:Generated_Source\PSoC5/ADC_DelSig_1.c ****              (ADC_DelSig_1_CFG3_RESOLUTION == ADC_DelSig_1__BITS_15) || \
1158:Generated_Source\PSoC5/ADC_DelSig_1.c ****              (ADC_DelSig_1_CFG4_RESOLUTION == ADC_DelSig_1__BITS_15) )
1159:Generated_Source\PSoC5/ADC_DelSig_1.c ****             case (uint8)ADC_DelSig_1__BITS_15:
1160:Generated_Source\PSoC5/ADC_DelSig_1.c ****                 coefA = ADC_DelSig_1_1UV_COUNTS / ADC_DelSig_1_DIVISOR_16;
1161:Generated_Source\PSoC5/ADC_DelSig_1.c ****                 coefB = ADC_DelSig_1_DIVISOR_16;
1162:Generated_Source\PSoC5/ADC_DelSig_1.c ****                 break;
1163:Generated_Source\PSoC5/ADC_DelSig_1.c ****         #endif /* ADC_DelSig_1__BITS_15 */    
1164:Generated_Source\PSoC5/ADC_DelSig_1.c ****         #if( (ADC_DelSig_1_CFG1_RESOLUTION == ADC_DelSig_1__BITS_16) || \
1165:Generated_Source\PSoC5/ADC_DelSig_1.c ****              (ADC_DelSig_1_CFG2_RESOLUTION == ADC_DelSig_1__BITS_16) || \
1166:Generated_Source\PSoC5/ADC_DelSig_1.c ****              (ADC_DelSig_1_CFG3_RESOLUTION == ADC_DelSig_1__BITS_16) || \
1167:Generated_Source\PSoC5/ADC_DelSig_1.c ****              (ADC_DelSig_1_CFG4_RESOLUTION == ADC_DelSig_1__BITS_16) )
1168:Generated_Source\PSoC5/ADC_DelSig_1.c ****             case (uint8)ADC_DelSig_1__BITS_16:
1169:Generated_Source\PSoC5/ADC_DelSig_1.c ****                 coefA = ADC_DelSig_1_1UV_COUNTS / ADC_DelSig_1_DIVISOR_32;
 1708              		.loc 1 1169 0
 1709 004e 47F61223 		movw	r3, #31250
 1710 0052 7B61     		str	r3, [r7, #20]
1170:Generated_Source\PSoC5/ADC_DelSig_1.c ****                 coefB = ADC_DelSig_1_DIVISOR_32;
 1711              		.loc 1 1170 0
 1712 0054 2023     		movs	r3, #32
 1713 0056 3B61     		str	r3, [r7, #16]
1171:Generated_Source\PSoC5/ADC_DelSig_1.c ****                 break;
 1714              		.loc 1 1171 0
 1715 0058 04E0     		b	.L97
 1716              	.L99:
1172:Generated_Source\PSoC5/ADC_DelSig_1.c ****         #endif /* ADC_DelSig_1__BITS_16 */    
1173:Generated_Source\PSoC5/ADC_DelSig_1.c ****         #if( (ADC_DelSig_1_CFG1_RESOLUTION == ADC_DelSig_1__BITS_17) || \
1174:Generated_Source\PSoC5/ADC_DelSig_1.c ****              (ADC_DelSig_1_CFG2_RESOLUTION == ADC_DelSig_1__BITS_17) || \
1175:Generated_Source\PSoC5/ADC_DelSig_1.c ****              (ADC_DelSig_1_CFG3_RESOLUTION == ADC_DelSig_1__BITS_17) || \
1176:Generated_Source\PSoC5/ADC_DelSig_1.c ****              (ADC_DelSig_1_CFG4_RESOLUTION == ADC_DelSig_1__BITS_17) )
1177:Generated_Source\PSoC5/ADC_DelSig_1.c ****             case (uint8)ADC_DelSig_1__BITS_17:
1178:Generated_Source\PSoC5/ADC_DelSig_1.c ****                 coefA = ADC_DelSig_1_1UV_COUNTS / ADC_DelSig_1_DIVISOR_64;
1179:Generated_Source\PSoC5/ADC_DelSig_1.c ****                 coefB = ADC_DelSig_1_DIVISOR_64;
1180:Generated_Source\PSoC5/ADC_DelSig_1.c ****                 break;
1181:Generated_Source\PSoC5/ADC_DelSig_1.c ****         #endif /* ADC_DelSig_1__BITS_17 */    
1182:Generated_Source\PSoC5/ADC_DelSig_1.c ****         #if( (ADC_DelSig_1_CFG1_RESOLUTION == ADC_DelSig_1__BITS_18) || \
1183:Generated_Source\PSoC5/ADC_DelSig_1.c ****              (ADC_DelSig_1_CFG2_RESOLUTION == ADC_DelSig_1__BITS_18) || \
1184:Generated_Source\PSoC5/ADC_DelSig_1.c ****              (ADC_DelSig_1_CFG3_RESOLUTION == ADC_DelSig_1__BITS_18) || \
1185:Generated_Source\PSoC5/ADC_DelSig_1.c ****              (ADC_DelSig_1_CFG4_RESOLUTION == ADC_DelSig_1__BITS_18) )
1186:Generated_Source\PSoC5/ADC_DelSig_1.c ****             case (uint8)ADC_DelSig_1__BITS_18:
1187:Generated_Source\PSoC5/ADC_DelSig_1.c ****                 coefA = ADC_DelSig_1_1UV_COUNTS / ADC_DelSig_1_DIVISOR_125;
1188:Generated_Source\PSoC5/ADC_DelSig_1.c ****                 coefB = ADC_DelSig_1_DIVISOR_125;
1189:Generated_Source\PSoC5/ADC_DelSig_1.c ****                 break;
1190:Generated_Source\PSoC5/ADC_DelSig_1.c ****         #endif /* ADC_DelSig_1__BITS_18 */    
1191:Generated_Source\PSoC5/ADC_DelSig_1.c ****         #if( (ADC_DelSig_1_CFG1_RESOLUTION == ADC_DelSig_1__BITS_19) || \
ARM GAS  C:\Users\Joe\AppData\Local\Temp\ccwCXT19.s 			page 52


1192:Generated_Source\PSoC5/ADC_DelSig_1.c ****              (ADC_DelSig_1_CFG2_RESOLUTION == ADC_DelSig_1__BITS_19) || \
1193:Generated_Source\PSoC5/ADC_DelSig_1.c ****              (ADC_DelSig_1_CFG3_RESOLUTION == ADC_DelSig_1__BITS_19) || \
1194:Generated_Source\PSoC5/ADC_DelSig_1.c ****              (ADC_DelSig_1_CFG4_RESOLUTION == ADC_DelSig_1__BITS_19) )
1195:Generated_Source\PSoC5/ADC_DelSig_1.c ****             case (uint8)ADC_DelSig_1__BITS_19:
1196:Generated_Source\PSoC5/ADC_DelSig_1.c ****                 coefA = ADC_DelSig_1_1UV_COUNTS / ADC_DelSig_1_DIVISOR_250;
1197:Generated_Source\PSoC5/ADC_DelSig_1.c ****                 coefB = ADC_DelSig_1_DIVISOR_250;
1198:Generated_Source\PSoC5/ADC_DelSig_1.c ****                 break;
1199:Generated_Source\PSoC5/ADC_DelSig_1.c ****         #endif /* ADC_DelSig_1__BITS_19 */    
1200:Generated_Source\PSoC5/ADC_DelSig_1.c ****         #if( (ADC_DelSig_1_CFG1_RESOLUTION == ADC_DelSig_1__BITS_20) || \
1201:Generated_Source\PSoC5/ADC_DelSig_1.c ****              (ADC_DelSig_1_CFG2_RESOLUTION == ADC_DelSig_1__BITS_20) || \
1202:Generated_Source\PSoC5/ADC_DelSig_1.c ****              (ADC_DelSig_1_CFG3_RESOLUTION == ADC_DelSig_1__BITS_20) || \
1203:Generated_Source\PSoC5/ADC_DelSig_1.c ****              (ADC_DelSig_1_CFG4_RESOLUTION == ADC_DelSig_1__BITS_20) )
1204:Generated_Source\PSoC5/ADC_DelSig_1.c ****             case (uint8)ADC_DelSig_1__BITS_20:
1205:Generated_Source\PSoC5/ADC_DelSig_1.c ****                 coefA = ADC_DelSig_1_1UV_COUNTS / ADC_DelSig_1_DIVISOR_500;
1206:Generated_Source\PSoC5/ADC_DelSig_1.c ****                 coefB = ADC_DelSig_1_DIVISOR_500;
1207:Generated_Source\PSoC5/ADC_DelSig_1.c ****                 break;
1208:Generated_Source\PSoC5/ADC_DelSig_1.c ****         #endif /* ADC_DelSig_1__BITS_20 */    
1209:Generated_Source\PSoC5/ADC_DelSig_1.c ****         default:    /* resolution < 12 */
1210:Generated_Source\PSoC5/ADC_DelSig_1.c ****             /* 11 bits ADC + 2^20(1048576) = 31 bits */
1211:Generated_Source\PSoC5/ADC_DelSig_1.c ****             coefA = ADC_DelSig_1_1UV_COUNTS;
 1717              		.loc 1 1211 0
 1718 005a 124B     		ldr	r3, .L100+4
 1719 005c 7B61     		str	r3, [r7, #20]
1212:Generated_Source\PSoC5/ADC_DelSig_1.c ****             coefB = ADC_DelSig_1_DIVISOR_1;
 1720              		.loc 1 1212 0
 1721 005e 0123     		movs	r3, #1
 1722 0060 3B61     		str	r3, [r7, #16]
1213:Generated_Source\PSoC5/ADC_DelSig_1.c ****             break;
 1723              		.loc 1 1213 0
 1724 0062 00BF     		nop
 1725              	.L97:
1214:Generated_Source\PSoC5/ADC_DelSig_1.c ****     }
1215:Generated_Source\PSoC5/ADC_DelSig_1.c ****     coefB = ADC_DelSig_1_CountsPerVolt / coefB;
 1726              		.loc 1 1215 0
 1727 0064 104B     		ldr	r3, .L100+8
 1728 0066 1A68     		ldr	r2, [r3]
 1729 0068 3B69     		ldr	r3, [r7, #16]
 1730 006a 92FBF3F3 		sdiv	r3, r2, r3
 1731 006e 3B61     		str	r3, [r7, #16]
1216:Generated_Source\PSoC5/ADC_DelSig_1.c ****     uVolts = ((coefA * adcCounts) / coefB) - ((coefA * ADC_DelSig_1_Offset) / coefB);
 1732              		.loc 1 1216 0
 1733 0070 7B69     		ldr	r3, [r7, #20]
 1734 0072 7A68     		ldr	r2, [r7, #4]
 1735 0074 02FB03F2 		mul	r2, r2, r3
 1736 0078 3B69     		ldr	r3, [r7, #16]
 1737 007a 92FBF3F2 		sdiv	r2, r2, r3
 1738 007e 0B4B     		ldr	r3, .L100+12
 1739 0080 1B68     		ldr	r3, [r3]
 1740 0082 7969     		ldr	r1, [r7, #20]
 1741 0084 01FB03F1 		mul	r1, r1, r3
 1742 0088 3B69     		ldr	r3, [r7, #16]
 1743 008a 91FBF3F3 		sdiv	r3, r1, r3
 1744 008e D31A     		subs	r3, r2, r3
 1745 0090 BB60     		str	r3, [r7, #8]
1217:Generated_Source\PSoC5/ADC_DelSig_1.c **** 
1218:Generated_Source\PSoC5/ADC_DelSig_1.c ****     return( uVolts );
 1746              		.loc 1 1218 0
ARM GAS  C:\Users\Joe\AppData\Local\Temp\ccwCXT19.s 			page 53


 1747 0092 BB68     		ldr	r3, [r7, #8]
1219:Generated_Source\PSoC5/ADC_DelSig_1.c **** }
 1748              		.loc 1 1219 0
 1749 0094 1846     		mov	r0, r3
 1750 0096 1C37     		adds	r7, r7, #28
 1751              		.cfi_def_cfa_offset 4
 1752 0098 BD46     		mov	sp, r7
 1753              		.cfi_def_cfa_register 13
 1754              		@ sp needed
 1755 009a 80BC     		pop	{r7}
 1756              		.cfi_restore 7
 1757              		.cfi_def_cfa_offset 0
 1758 009c 7047     		bx	lr
 1759              	.L101:
 1760 009e 00BF     		.align	2
 1761              	.L100:
 1762 00a0 00000000 		.word	ADC_DelSig_1_Config
 1763 00a4 40420F00 		.word	1000000
 1764 00a8 00000000 		.word	ADC_DelSig_1_CountsPerVolt
 1765 00ac 00000000 		.word	ADC_DelSig_1_Offset
 1766              		.cfi_endproc
 1767              	.LFE18:
 1768              		.size	ADC_DelSig_1_CountsTo_uVolts, .-ADC_DelSig_1_CountsTo_uVolts
 1769              		.section	.text.ADC_DelSig_1_InitConfig,"ax",%progbits
 1770              		.align	2
 1771              		.thumb
 1772              		.thumb_func
 1773              		.type	ADC_DelSig_1_InitConfig, %function
 1774              	ADC_DelSig_1_InitConfig:
 1775              	.LFB19:
1220:Generated_Source\PSoC5/ADC_DelSig_1.c **** 
1221:Generated_Source\PSoC5/ADC_DelSig_1.c **** 
1222:Generated_Source\PSoC5/ADC_DelSig_1.c **** /*******************************************************************************
1223:Generated_Source\PSoC5/ADC_DelSig_1.c **** * Function Name: ADC_DelSig_1_InitConfig(uint8 config)
1224:Generated_Source\PSoC5/ADC_DelSig_1.c **** ********************************************************************************
1225:Generated_Source\PSoC5/ADC_DelSig_1.c **** *
1226:Generated_Source\PSoC5/ADC_DelSig_1.c **** * Summary:
1227:Generated_Source\PSoC5/ADC_DelSig_1.c **** *  Initializes all registers based on customizer settings
1228:Generated_Source\PSoC5/ADC_DelSig_1.c **** *
1229:Generated_Source\PSoC5/ADC_DelSig_1.c **** * Parameters:
1230:Generated_Source\PSoC5/ADC_DelSig_1.c **** *   void
1231:Generated_Source\PSoC5/ADC_DelSig_1.c **** *
1232:Generated_Source\PSoC5/ADC_DelSig_1.c **** * Return:
1233:Generated_Source\PSoC5/ADC_DelSig_1.c **** *  None
1234:Generated_Source\PSoC5/ADC_DelSig_1.c **** *
1235:Generated_Source\PSoC5/ADC_DelSig_1.c **** * Global variables:
1236:Generated_Source\PSoC5/ADC_DelSig_1.c **** *  ADC_DelSig_1_CountsPerVolt:  Used to set the default counts per volt.
1237:Generated_Source\PSoC5/ADC_DelSig_1.c **** *
1238:Generated_Source\PSoC5/ADC_DelSig_1.c **** * Side Effects: Rewrites the coherency set by ADC_DelSig_1_SetCoherency()
1239:Generated_Source\PSoC5/ADC_DelSig_1.c **** *   API to the default value.
1240:Generated_Source\PSoC5/ADC_DelSig_1.c **** *
1241:Generated_Source\PSoC5/ADC_DelSig_1.c **** *******************************************************************************/
1242:Generated_Source\PSoC5/ADC_DelSig_1.c **** static void ADC_DelSig_1_InitConfig(uint8 config) 
1243:Generated_Source\PSoC5/ADC_DelSig_1.c **** {
 1776              		.loc 1 1243 0
 1777              		.cfi_startproc
 1778              		@ args = 0, pretend = 0, frame = 8
ARM GAS  C:\Users\Joe\AppData\Local\Temp\ccwCXT19.s 			page 54


 1779              		@ frame_needed = 1, uses_anonymous_args = 0
 1780 0000 80B5     		push	{r7, lr}
 1781              		.cfi_def_cfa_offset 8
 1782              		.cfi_offset 7, -8
 1783              		.cfi_offset 14, -4
 1784 0002 82B0     		sub	sp, sp, #8
 1785              		.cfi_def_cfa_offset 16
 1786 0004 00AF     		add	r7, sp, #0
 1787              		.cfi_def_cfa_register 7
 1788 0006 0346     		mov	r3, r0
 1789 0008 FB71     		strb	r3, [r7, #7]
1244:Generated_Source\PSoC5/ADC_DelSig_1.c ****     ADC_DelSig_1_stopConversion = 0u;
 1790              		.loc 1 1244 0
 1791 000a 384B     		ldr	r3, .L105
 1792 000c 0022     		movs	r2, #0
 1793 000e 1A70     		strb	r2, [r3]
1245:Generated_Source\PSoC5/ADC_DelSig_1.c **** 
1246:Generated_Source\PSoC5/ADC_DelSig_1.c ****     if (config == 1u)
 1794              		.loc 1 1246 0
 1795 0010 FB79     		ldrb	r3, [r7, #7]	@ zero_extendqisi2
 1796 0012 012B     		cmp	r3, #1
 1797 0014 66D1     		bne	.L104
1247:Generated_Source\PSoC5/ADC_DelSig_1.c ****     {
1248:Generated_Source\PSoC5/ADC_DelSig_1.c ****         /* Default Config */
1249:Generated_Source\PSoC5/ADC_DelSig_1.c ****         ADC_DelSig_1_DEC_CR_REG      = ADC_DelSig_1_CFG1_DEC_CR;
 1798              		.loc 1 1249 0
 1799 0016 364B     		ldr	r3, .L105+4
 1800 0018 B022     		movs	r2, #176
 1801 001a 1A70     		strb	r2, [r3]
1250:Generated_Source\PSoC5/ADC_DelSig_1.c ****         ADC_DelSig_1_DEC_SHIFT1_REG  = ADC_DelSig_1_CFG1_DEC_SHIFT1;
 1802              		.loc 1 1250 0
 1803 001c 354B     		ldr	r3, .L105+8
 1804 001e 0522     		movs	r2, #5
 1805 0020 1A70     		strb	r2, [r3]
1251:Generated_Source\PSoC5/ADC_DelSig_1.c ****         ADC_DelSig_1_DEC_SHIFT2_REG  = ADC_DelSig_1_CFG1_DEC_SHIFT2;
 1806              		.loc 1 1251 0
 1807 0022 354B     		ldr	r3, .L105+12
 1808 0024 0022     		movs	r2, #0
 1809 0026 1A70     		strb	r2, [r3]
1252:Generated_Source\PSoC5/ADC_DelSig_1.c ****         ADC_DelSig_1_DEC_DR2_REG     = ADC_DelSig_1_CFG1_DEC_DR2;
 1810              		.loc 1 1252 0
 1811 0028 344B     		ldr	r3, .L105+16
 1812 002a 0022     		movs	r2, #0
 1813 002c 1A70     		strb	r2, [r3]
1253:Generated_Source\PSoC5/ADC_DelSig_1.c ****         ADC_DelSig_1_DEC_DR2H_REG    = ADC_DelSig_1_CFG1_DEC_DR2H;
 1814              		.loc 1 1253 0
 1815 002e 344B     		ldr	r3, .L105+20
 1816 0030 0022     		movs	r2, #0
 1817 0032 1A70     		strb	r2, [r3]
1254:Generated_Source\PSoC5/ADC_DelSig_1.c ****         ADC_DelSig_1_DEC_DR1_REG     = ADC_DelSig_1_CFG1_DEC_DR1;
 1818              		.loc 1 1254 0
 1819 0034 334B     		ldr	r3, .L105+24
 1820 0036 3F22     		movs	r2, #63
 1821 0038 1A70     		strb	r2, [r3]
1255:Generated_Source\PSoC5/ADC_DelSig_1.c ****         ADC_DelSig_1_DEC_OCOR_REG    = ADC_DelSig_1_CFG1_DEC_OCOR;
 1822              		.loc 1 1255 0
 1823 003a 334B     		ldr	r3, .L105+28
ARM GAS  C:\Users\Joe\AppData\Local\Temp\ccwCXT19.s 			page 55


 1824 003c 0022     		movs	r2, #0
 1825 003e 1A70     		strb	r2, [r3]
1256:Generated_Source\PSoC5/ADC_DelSig_1.c ****         ADC_DelSig_1_DEC_OCORM_REG   = ADC_DelSig_1_CFG1_DEC_OCORM;
 1826              		.loc 1 1256 0
 1827 0040 324B     		ldr	r3, .L105+32
 1828 0042 0022     		movs	r2, #0
 1829 0044 1A70     		strb	r2, [r3]
1257:Generated_Source\PSoC5/ADC_DelSig_1.c ****         ADC_DelSig_1_DEC_OCORH_REG   = ADC_DelSig_1_CFG1_DEC_OCORH;
 1830              		.loc 1 1257 0
 1831 0046 324B     		ldr	r3, .L105+36
 1832 0048 0022     		movs	r2, #0
 1833 004a 1A70     		strb	r2, [r3]
1258:Generated_Source\PSoC5/ADC_DelSig_1.c ****         ADC_DelSig_1_DEC_COHER_REG   = ADC_DelSig_1_CFG1_DEC_COHER;
 1834              		.loc 1 1258 0
 1835 004c 314B     		ldr	r3, .L105+40
 1836 004e 0322     		movs	r2, #3
 1837 0050 1A70     		strb	r2, [r3]
1259:Generated_Source\PSoC5/ADC_DelSig_1.c **** 
1260:Generated_Source\PSoC5/ADC_DelSig_1.c ****         ADC_DelSig_1_DSM_CR4_REG     = ADC_DelSig_1_CFG1_DSM_CR4;
 1838              		.loc 1 1260 0
 1839 0052 314B     		ldr	r3, .L105+44
 1840 0054 5022     		movs	r2, #80
 1841 0056 1A70     		strb	r2, [r3]
1261:Generated_Source\PSoC5/ADC_DelSig_1.c ****         ADC_DelSig_1_DSM_CR5_REG     = ADC_DelSig_1_CFG1_DSM_CR5;
 1842              		.loc 1 1261 0
 1843 0058 304B     		ldr	r3, .L105+48
 1844 005a 0A22     		movs	r2, #10
 1845 005c 1A70     		strb	r2, [r3]
1262:Generated_Source\PSoC5/ADC_DelSig_1.c ****         ADC_DelSig_1_DSM_CR6_REG     = ADC_DelSig_1_CFG1_DSM_CR6;
 1846              		.loc 1 1262 0
 1847 005e 304B     		ldr	r3, .L105+52
 1848 0060 2C22     		movs	r2, #44
 1849 0062 1A70     		strb	r2, [r3]
1263:Generated_Source\PSoC5/ADC_DelSig_1.c ****         ADC_DelSig_1_DSM_CR7_REG     = ADC_DelSig_1_CFG1_DSM_CR7;
 1850              		.loc 1 1263 0
 1851 0064 2F4B     		ldr	r3, .L105+56
 1852 0066 0022     		movs	r2, #0
 1853 0068 1A70     		strb	r2, [r3]
1264:Generated_Source\PSoC5/ADC_DelSig_1.c ****         ADC_DelSig_1_DSM_CR10_REG    = ADC_DelSig_1_CFG1_DSM_CR10;
 1854              		.loc 1 1264 0
 1855 006a 2F4B     		ldr	r3, .L105+60
 1856 006c 4422     		movs	r2, #68
 1857 006e 1A70     		strb	r2, [r3]
1265:Generated_Source\PSoC5/ADC_DelSig_1.c ****         ADC_DelSig_1_DSM_CR11_REG    = ADC_DelSig_1_CFG1_DSM_CR11;
 1858              		.loc 1 1265 0
 1859 0070 2E4B     		ldr	r3, .L105+64
 1860 0072 4822     		movs	r2, #72
 1861 0074 1A70     		strb	r2, [r3]
1266:Generated_Source\PSoC5/ADC_DelSig_1.c ****         ADC_DelSig_1_DSM_CR12_REG    = ADC_DelSig_1_CFG1_DSM_CR12;
 1862              		.loc 1 1266 0
 1863 0076 2E4B     		ldr	r3, .L105+68
 1864 0078 0122     		movs	r2, #1
 1865 007a 1A70     		strb	r2, [r3]
1267:Generated_Source\PSoC5/ADC_DelSig_1.c ****         ADC_DelSig_1_DSM_CR14_REG    = ADC_DelSig_1_CFG1_DSM_CR14;
 1866              		.loc 1 1267 0
 1867 007c 2D4B     		ldr	r3, .L105+72
 1868 007e 0222     		movs	r2, #2
ARM GAS  C:\Users\Joe\AppData\Local\Temp\ccwCXT19.s 			page 56


 1869 0080 1A70     		strb	r2, [r3]
1268:Generated_Source\PSoC5/ADC_DelSig_1.c ****         ADC_DelSig_1_DSM_CR15_REG    = ADC_DelSig_1_CFG1_DSM_CR15;
 1870              		.loc 1 1268 0
 1871 0082 2D4B     		ldr	r3, .L105+76
 1872 0084 1222     		movs	r2, #18
 1873 0086 1A70     		strb	r2, [r3]
1269:Generated_Source\PSoC5/ADC_DelSig_1.c ****         ADC_DelSig_1_DSM_CR16_REG    = ADC_DelSig_1_CFG1_DSM_CR16;
 1874              		.loc 1 1269 0
 1875 0088 2C4B     		ldr	r3, .L105+80
 1876 008a 2822     		movs	r2, #40
 1877 008c 1A70     		strb	r2, [r3]
1270:Generated_Source\PSoC5/ADC_DelSig_1.c ****         ADC_DelSig_1_DSM_CR17_REG    = ADC_DelSig_1_CFG1_DSM_CR17;
 1878              		.loc 1 1270 0
 1879 008e 2C4B     		ldr	r3, .L105+84
 1880 0090 EB22     		movs	r2, #235
 1881 0092 1A70     		strb	r2, [r3]
1271:Generated_Source\PSoC5/ADC_DelSig_1.c ****         /* Set DSM_REF0_REG by disabling and enabling the PRESS circuit */
1272:Generated_Source\PSoC5/ADC_DelSig_1.c ****         ADC_DelSig_1_SetDSMRef0Reg(ADC_DelSig_1_CFG1_DSM_REF0);
 1882              		.loc 1 1272 0
 1883 0094 5220     		movs	r0, #82
 1884 0096 FFF7FEFF 		bl	ADC_DelSig_1_SetDSMRef0Reg
1273:Generated_Source\PSoC5/ADC_DelSig_1.c ****         ADC_DelSig_1_DSM_REF2_REG    = ADC_DelSig_1_CFG1_DSM_REF2;
 1885              		.loc 1 1273 0
 1886 009a 2A4B     		ldr	r3, .L105+88
 1887 009c C022     		movs	r2, #192
 1888 009e 1A70     		strb	r2, [r3]
1274:Generated_Source\PSoC5/ADC_DelSig_1.c ****         ADC_DelSig_1_DSM_REF3_REG    = ADC_DelSig_1_CFG1_DSM_REF3;
 1889              		.loc 1 1274 0
 1890 00a0 294B     		ldr	r3, .L105+92
 1891 00a2 0322     		movs	r2, #3
 1892 00a4 1A70     		strb	r2, [r3]
1275:Generated_Source\PSoC5/ADC_DelSig_1.c **** 
1276:Generated_Source\PSoC5/ADC_DelSig_1.c ****         ADC_DelSig_1_DSM_BUF0_REG    = ADC_DelSig_1_CFG1_DSM_BUF0;
 1893              		.loc 1 1276 0
 1894 00a6 294B     		ldr	r3, .L105+96
 1895 00a8 0522     		movs	r2, #5
 1896 00aa 1A70     		strb	r2, [r3]
1277:Generated_Source\PSoC5/ADC_DelSig_1.c ****         ADC_DelSig_1_DSM_BUF1_REG    = ADC_DelSig_1_CFG1_DSM_BUF1;
 1897              		.loc 1 1277 0
 1898 00ac 284B     		ldr	r3, .L105+100
 1899 00ae 0222     		movs	r2, #2
 1900 00b0 1A70     		strb	r2, [r3]
1278:Generated_Source\PSoC5/ADC_DelSig_1.c ****         ADC_DelSig_1_DSM_BUF2_REG    = ADC_DelSig_1_CFG1_DSM_BUF2;
 1901              		.loc 1 1278 0
 1902 00b2 284B     		ldr	r3, .L105+104
 1903 00b4 0022     		movs	r2, #0
 1904 00b6 1A70     		strb	r2, [r3]
1279:Generated_Source\PSoC5/ADC_DelSig_1.c ****         ADC_DelSig_1_DSM_BUF3_REG    = ADC_DelSig_1_CFG1_DSM_BUF3;
 1905              		.loc 1 1279 0
 1906 00b8 274B     		ldr	r3, .L105+108
 1907 00ba 0022     		movs	r2, #0
 1908 00bc 1A70     		strb	r2, [r3]
1280:Generated_Source\PSoC5/ADC_DelSig_1.c **** 
1281:Generated_Source\PSoC5/ADC_DelSig_1.c ****         /* To select either Vssa or Vref to -ve input of DSM depending on
1282:Generated_Source\PSoC5/ADC_DelSig_1.c ****         *  the input  range selected.
1283:Generated_Source\PSoC5/ADC_DelSig_1.c ****         */
1284:Generated_Source\PSoC5/ADC_DelSig_1.c ****         #if(ADC_DelSig_1_DEFAULT_INPUT_MODE)
ARM GAS  C:\Users\Joe\AppData\Local\Temp\ccwCXT19.s 			page 57


1285:Generated_Source\PSoC5/ADC_DelSig_1.c ****             #if (ADC_DelSig_1_CFG1_INPUT_RANGE == ADC_DelSig_1_IR_VSSA_TO_2VREF)
1286:Generated_Source\PSoC5/ADC_DelSig_1.c ****                 ADC_DelSig_1_AMux_Select(1u);
1287:Generated_Source\PSoC5/ADC_DelSig_1.c ****             #else
1288:Generated_Source\PSoC5/ADC_DelSig_1.c ****                 ADC_DelSig_1_AMux_Select(0u);
 1909              		.loc 1 1288 0
 1910 00be 0020     		movs	r0, #0
 1911 00c0 FFF7FEFF 		bl	ADC_DelSig_1_AMux_Select
1289:Generated_Source\PSoC5/ADC_DelSig_1.c ****             #endif /* ADC_DelSig_1_IR_VSSA_TO_2VREF) */
1290:Generated_Source\PSoC5/ADC_DelSig_1.c ****         #endif /* ADC_DelSig_1_DEFAULT_INPUT_MODE */
1291:Generated_Source\PSoC5/ADC_DelSig_1.c **** 
1292:Generated_Source\PSoC5/ADC_DelSig_1.c ****         /* Set the Conversion stop if resolution is above 16 bit and conversion
1293:Generated_Source\PSoC5/ADC_DelSig_1.c ****         *   mode is Single sample
1294:Generated_Source\PSoC5/ADC_DelSig_1.c ****         */
1295:Generated_Source\PSoC5/ADC_DelSig_1.c ****         #if(ADC_DelSig_1_CFG1_RESOLUTION > 16 && \
1296:Generated_Source\PSoC5/ADC_DelSig_1.c ****             ADC_DelSig_1_CFG1_CONV_MODE == ADC_DelSig_1_MODE_SINGLE_SAMPLE)
1297:Generated_Source\PSoC5/ADC_DelSig_1.c ****             ADC_DelSig_1_stopConversion = 1u;
1298:Generated_Source\PSoC5/ADC_DelSig_1.c ****         #endif /* Single sample with resolution above 16 bits. */
1299:Generated_Source\PSoC5/ADC_DelSig_1.c **** 
1300:Generated_Source\PSoC5/ADC_DelSig_1.c ****         ADC_DelSig_1_CountsPerVolt = (int32)ADC_DelSig_1_CFG1_COUNTS_PER_VOLT;
 1912              		.loc 1 1300 0
 1913 00c4 254B     		ldr	r3, .L105+112
 1914 00c6 43F23332 		movw	r2, #13107
 1915 00ca 1A60     		str	r2, [r3]
1301:Generated_Source\PSoC5/ADC_DelSig_1.c **** 
1302:Generated_Source\PSoC5/ADC_DelSig_1.c ****         ADC_DelSig_1_Ext_CP_Clk_SetDividerRegister(ADC_DelSig_1_CFG1_CP_CLK_DIVIDER, 1u);
 1916              		.loc 1 1302 0
 1917 00cc 0121     		movs	r1, #1
 1918 00ce 0120     		movs	r0, #1
 1919 00d0 FFF7FEFF 		bl	ADC_DelSig_1_Ext_CP_Clk_SetDividerRegister
1303:Generated_Source\PSoC5/ADC_DelSig_1.c **** 
1304:Generated_Source\PSoC5/ADC_DelSig_1.c ****         /* This is only valid if there is an internal clock */
1305:Generated_Source\PSoC5/ADC_DelSig_1.c ****         #if(ADC_DelSig_1_DEFAULT_INTERNAL_CLK)
1306:Generated_Source\PSoC5/ADC_DelSig_1.c ****             ADC_DelSig_1_theACLK_SetDividerRegister(ADC_DelSig_1_CFG1_ADC_CLK_DIVIDER, 1u);
 1920              		.loc 1 1306 0
 1921 00d4 0121     		movs	r1, #1
 1922 00d6 0820     		movs	r0, #8
 1923 00d8 FFF7FEFF 		bl	ADC_DelSig_1_theACLK_SetDividerRegister
1307:Generated_Source\PSoC5/ADC_DelSig_1.c ****         #endif /* ADC_DelSig_1_DEFAULT_INTERNAL_CLK */
1308:Generated_Source\PSoC5/ADC_DelSig_1.c **** 
1309:Generated_Source\PSoC5/ADC_DelSig_1.c ****         #if(ADC_DelSig_1_IRQ_REMOVE == 0u)
1310:Generated_Source\PSoC5/ADC_DelSig_1.c ****             /* Set interrupt vector */
1311:Generated_Source\PSoC5/ADC_DelSig_1.c ****             (void)CyIntSetVector(ADC_DelSig_1_INTC_NUMBER, &ADC_DelSig_1_ISR1);
 1924              		.loc 1 1311 0
 1925 00dc 2049     		ldr	r1, .L105+116
 1926 00de 1D20     		movs	r0, #29
 1927 00e0 FFF7FEFF 		bl	CyIntSetVector
 1928              	.L104:
1312:Generated_Source\PSoC5/ADC_DelSig_1.c ****         #endif   /* End ADC_DelSig_1_IRQ_REMOVE */
1313:Generated_Source\PSoC5/ADC_DelSig_1.c ****     }
1314:Generated_Source\PSoC5/ADC_DelSig_1.c **** 
1315:Generated_Source\PSoC5/ADC_DelSig_1.c ****     #if(ADC_DelSig_1_DEFAULT_NUM_CONFIGS > 1)
1316:Generated_Source\PSoC5/ADC_DelSig_1.c ****         if(config == 2u)
1317:Generated_Source\PSoC5/ADC_DelSig_1.c ****         {
1318:Generated_Source\PSoC5/ADC_DelSig_1.c ****             /* Second Config */
1319:Generated_Source\PSoC5/ADC_DelSig_1.c ****             ADC_DelSig_1_DEC_CR_REG      = ADC_DelSig_1_CFG2_DEC_CR;
1320:Generated_Source\PSoC5/ADC_DelSig_1.c ****             ADC_DelSig_1_DEC_SHIFT1_REG  = ADC_DelSig_1_CFG2_DEC_SHIFT1;
1321:Generated_Source\PSoC5/ADC_DelSig_1.c ****             ADC_DelSig_1_DEC_SHIFT2_REG  = ADC_DelSig_1_CFG2_DEC_SHIFT2;
ARM GAS  C:\Users\Joe\AppData\Local\Temp\ccwCXT19.s 			page 58


1322:Generated_Source\PSoC5/ADC_DelSig_1.c ****             ADC_DelSig_1_DEC_DR2_REG     = ADC_DelSig_1_CFG2_DEC_DR2;
1323:Generated_Source\PSoC5/ADC_DelSig_1.c ****             ADC_DelSig_1_DEC_DR2H_REG    = ADC_DelSig_1_CFG2_DEC_DR2H;
1324:Generated_Source\PSoC5/ADC_DelSig_1.c ****             ADC_DelSig_1_DEC_DR1_REG     = ADC_DelSig_1_CFG2_DEC_DR1;
1325:Generated_Source\PSoC5/ADC_DelSig_1.c ****             ADC_DelSig_1_DEC_OCOR_REG    = ADC_DelSig_1_CFG2_DEC_OCOR;
1326:Generated_Source\PSoC5/ADC_DelSig_1.c ****             ADC_DelSig_1_DEC_OCORM_REG   = ADC_DelSig_1_CFG2_DEC_OCORM;
1327:Generated_Source\PSoC5/ADC_DelSig_1.c ****             ADC_DelSig_1_DEC_OCORH_REG   = ADC_DelSig_1_CFG2_DEC_OCORH;
1328:Generated_Source\PSoC5/ADC_DelSig_1.c ****             ADC_DelSig_1_DEC_COHER_REG   = ADC_DelSig_1_CFG2_DEC_COHER;
1329:Generated_Source\PSoC5/ADC_DelSig_1.c **** 
1330:Generated_Source\PSoC5/ADC_DelSig_1.c ****             ADC_DelSig_1_DSM_CR4_REG     = ADC_DelSig_1_CFG2_DSM_CR4;
1331:Generated_Source\PSoC5/ADC_DelSig_1.c ****             ADC_DelSig_1_DSM_CR5_REG     = ADC_DelSig_1_CFG2_DSM_CR5;
1332:Generated_Source\PSoC5/ADC_DelSig_1.c ****             ADC_DelSig_1_DSM_CR6_REG     = ADC_DelSig_1_CFG2_DSM_CR6;
1333:Generated_Source\PSoC5/ADC_DelSig_1.c ****             ADC_DelSig_1_DSM_CR7_REG     = ADC_DelSig_1_CFG2_DSM_CR7;
1334:Generated_Source\PSoC5/ADC_DelSig_1.c ****             ADC_DelSig_1_DSM_CR10_REG    = ADC_DelSig_1_CFG2_DSM_CR10;
1335:Generated_Source\PSoC5/ADC_DelSig_1.c ****             ADC_DelSig_1_DSM_CR11_REG    = ADC_DelSig_1_CFG2_DSM_CR11;
1336:Generated_Source\PSoC5/ADC_DelSig_1.c ****             ADC_DelSig_1_DSM_CR12_REG    = ADC_DelSig_1_CFG2_DSM_CR12;
1337:Generated_Source\PSoC5/ADC_DelSig_1.c ****             ADC_DelSig_1_DSM_CR14_REG    = ADC_DelSig_1_CFG2_DSM_CR14;
1338:Generated_Source\PSoC5/ADC_DelSig_1.c ****             ADC_DelSig_1_DSM_CR15_REG    = ADC_DelSig_1_CFG2_DSM_CR15;
1339:Generated_Source\PSoC5/ADC_DelSig_1.c ****             ADC_DelSig_1_DSM_CR16_REG    = ADC_DelSig_1_CFG2_DSM_CR16;
1340:Generated_Source\PSoC5/ADC_DelSig_1.c ****             ADC_DelSig_1_DSM_CR17_REG    = ADC_DelSig_1_CFG2_DSM_CR17;
1341:Generated_Source\PSoC5/ADC_DelSig_1.c ****             /* Set DSM_REF0_REG by disabling and enabling the PRESS cirucit */
1342:Generated_Source\PSoC5/ADC_DelSig_1.c ****             ADC_DelSig_1_SetDSMRef0Reg(ADC_DelSig_1_CFG2_DSM_REF0);
1343:Generated_Source\PSoC5/ADC_DelSig_1.c ****             ADC_DelSig_1_DSM_REF2_REG    = ADC_DelSig_1_CFG2_DSM_REF2;
1344:Generated_Source\PSoC5/ADC_DelSig_1.c ****             ADC_DelSig_1_DSM_REF3_REG    = ADC_DelSig_1_CFG2_DSM_REF3;
1345:Generated_Source\PSoC5/ADC_DelSig_1.c **** 
1346:Generated_Source\PSoC5/ADC_DelSig_1.c ****             ADC_DelSig_1_DSM_BUF0_REG    = ADC_DelSig_1_CFG2_DSM_BUF0;
1347:Generated_Source\PSoC5/ADC_DelSig_1.c ****             ADC_DelSig_1_DSM_BUF1_REG    = ADC_DelSig_1_CFG2_DSM_BUF1;
1348:Generated_Source\PSoC5/ADC_DelSig_1.c ****             ADC_DelSig_1_DSM_BUF2_REG    = ADC_DelSig_1_CFG2_DSM_BUF2;
1349:Generated_Source\PSoC5/ADC_DelSig_1.c ****             ADC_DelSig_1_DSM_BUF3_REG    = ADC_DelSig_1_CFG2_DSM_BUF3;
1350:Generated_Source\PSoC5/ADC_DelSig_1.c **** 
1351:Generated_Source\PSoC5/ADC_DelSig_1.c ****             /* To select either Vssa or Vref to -ve input of DSM depending on
1352:Generated_Source\PSoC5/ADC_DelSig_1.c ****             *  the input range selected.
1353:Generated_Source\PSoC5/ADC_DelSig_1.c ****             */
1354:Generated_Source\PSoC5/ADC_DelSig_1.c **** 
1355:Generated_Source\PSoC5/ADC_DelSig_1.c ****             #if(ADC_DelSig_1_DEFAULT_INPUT_MODE)
1356:Generated_Source\PSoC5/ADC_DelSig_1.c ****                 #if (ADC_DelSig_1_CFG2_INPUT_RANGE == ADC_DelSig_1_IR_VSSA_TO_2VREF)
1357:Generated_Source\PSoC5/ADC_DelSig_1.c ****                     ADC_DelSig_1_AMux_Select(1u);
1358:Generated_Source\PSoC5/ADC_DelSig_1.c ****                 #else
1359:Generated_Source\PSoC5/ADC_DelSig_1.c ****                     ADC_DelSig_1_AMux_Select(0u);
1360:Generated_Source\PSoC5/ADC_DelSig_1.c ****                 #endif /* ADC_DelSig_1_IR_VSSA_TO_2VREF) */
1361:Generated_Source\PSoC5/ADC_DelSig_1.c ****             #endif /* ADC_DelSig_1_DEFAULT_INPUT_MODE */
1362:Generated_Source\PSoC5/ADC_DelSig_1.c **** 
1363:Generated_Source\PSoC5/ADC_DelSig_1.c ****             /* Set the Conversion stop if resolution is above 16 bit and
1364:Generated_Source\PSoC5/ADC_DelSig_1.c ****             *   conversion mode is Single sample
1365:Generated_Source\PSoC5/ADC_DelSig_1.c ****             */
1366:Generated_Source\PSoC5/ADC_DelSig_1.c ****             #if(ADC_DelSig_1_CFG2_RESOLUTION > 16 && \
1367:Generated_Source\PSoC5/ADC_DelSig_1.c ****                 ADC_DelSig_1_CFG2_CONV_MODE == ADC_DelSig_1_MODE_SINGLE_SAMPLE)
1368:Generated_Source\PSoC5/ADC_DelSig_1.c ****                 ADC_DelSig_1_stopConversion = 1u;
1369:Generated_Source\PSoC5/ADC_DelSig_1.c ****             #endif /* Single sample with resolution above 16 bits. */
1370:Generated_Source\PSoC5/ADC_DelSig_1.c **** 
1371:Generated_Source\PSoC5/ADC_DelSig_1.c ****             ADC_DelSig_1_CountsPerVolt = (int32)ADC_DelSig_1_CFG2_COUNTS_PER_VOLT;
1372:Generated_Source\PSoC5/ADC_DelSig_1.c **** 
1373:Generated_Source\PSoC5/ADC_DelSig_1.c ****             ADC_DelSig_1_Ext_CP_Clk_SetDividerRegister(ADC_DelSig_1_CFG2_CP_CLK_DIVIDER, 1u);
1374:Generated_Source\PSoC5/ADC_DelSig_1.c **** 
1375:Generated_Source\PSoC5/ADC_DelSig_1.c ****             /* This is only valid if there is an internal clock */
1376:Generated_Source\PSoC5/ADC_DelSig_1.c ****             #if(ADC_DelSig_1_DEFAULT_INTERNAL_CLK)
1377:Generated_Source\PSoC5/ADC_DelSig_1.c ****                 ADC_DelSig_1_theACLK_SetDividerRegister(ADC_DelSig_1_CFG2_ADC_CLK_DIVIDER, 1u);
1378:Generated_Source\PSoC5/ADC_DelSig_1.c ****             #endif /* ADC_DelSig_1_DEFAULT_INTERNAL_CLK */
ARM GAS  C:\Users\Joe\AppData\Local\Temp\ccwCXT19.s 			page 59


1379:Generated_Source\PSoC5/ADC_DelSig_1.c **** 
1380:Generated_Source\PSoC5/ADC_DelSig_1.c ****             #if(ADC_DelSig_1_IRQ_REMOVE == 0u)
1381:Generated_Source\PSoC5/ADC_DelSig_1.c ****                 /* Set interrupt vector */
1382:Generated_Source\PSoC5/ADC_DelSig_1.c ****                 (void)CyIntSetVector(ADC_DelSig_1_INTC_NUMBER, &ADC_DelSig_1_ISR2);
1383:Generated_Source\PSoC5/ADC_DelSig_1.c ****             #endif   /* End ADC_DelSig_1_IRQ_REMOVE */
1384:Generated_Source\PSoC5/ADC_DelSig_1.c ****         }
1385:Generated_Source\PSoC5/ADC_DelSig_1.c ****     #endif /* ADC_DelSig_1_DEFAULT_NUM_CONFIGS > 1 */
1386:Generated_Source\PSoC5/ADC_DelSig_1.c **** 
1387:Generated_Source\PSoC5/ADC_DelSig_1.c ****     #if(ADC_DelSig_1_DEFAULT_NUM_CONFIGS > 2)
1388:Generated_Source\PSoC5/ADC_DelSig_1.c ****         if(config == 3u)
1389:Generated_Source\PSoC5/ADC_DelSig_1.c ****         {
1390:Generated_Source\PSoC5/ADC_DelSig_1.c ****             /* Third Config */
1391:Generated_Source\PSoC5/ADC_DelSig_1.c ****             ADC_DelSig_1_DEC_CR_REG      = ADC_DelSig_1_CFG3_DEC_CR;
1392:Generated_Source\PSoC5/ADC_DelSig_1.c ****             ADC_DelSig_1_DEC_SHIFT1_REG  = ADC_DelSig_1_CFG3_DEC_SHIFT1;
1393:Generated_Source\PSoC5/ADC_DelSig_1.c ****             ADC_DelSig_1_DEC_SHIFT2_REG  = ADC_DelSig_1_CFG3_DEC_SHIFT2;
1394:Generated_Source\PSoC5/ADC_DelSig_1.c ****             ADC_DelSig_1_DEC_DR2_REG     = ADC_DelSig_1_CFG3_DEC_DR2;
1395:Generated_Source\PSoC5/ADC_DelSig_1.c ****             ADC_DelSig_1_DEC_DR2H_REG    = ADC_DelSig_1_CFG3_DEC_DR2H;
1396:Generated_Source\PSoC5/ADC_DelSig_1.c ****             ADC_DelSig_1_DEC_DR1_REG     = ADC_DelSig_1_CFG3_DEC_DR1;
1397:Generated_Source\PSoC5/ADC_DelSig_1.c ****             ADC_DelSig_1_DEC_OCOR_REG    = ADC_DelSig_1_CFG3_DEC_OCOR;
1398:Generated_Source\PSoC5/ADC_DelSig_1.c ****             ADC_DelSig_1_DEC_OCORM_REG   = ADC_DelSig_1_CFG3_DEC_OCORM;
1399:Generated_Source\PSoC5/ADC_DelSig_1.c ****             ADC_DelSig_1_DEC_OCORH_REG   = ADC_DelSig_1_CFG3_DEC_OCORH;
1400:Generated_Source\PSoC5/ADC_DelSig_1.c ****             ADC_DelSig_1_DEC_COHER_REG   = ADC_DelSig_1_CFG3_DEC_COHER;
1401:Generated_Source\PSoC5/ADC_DelSig_1.c **** 
1402:Generated_Source\PSoC5/ADC_DelSig_1.c ****             ADC_DelSig_1_DSM_CR4_REG     = ADC_DelSig_1_CFG3_DSM_CR4;
1403:Generated_Source\PSoC5/ADC_DelSig_1.c ****             ADC_DelSig_1_DSM_CR5_REG     = ADC_DelSig_1_CFG3_DSM_CR5;
1404:Generated_Source\PSoC5/ADC_DelSig_1.c ****             ADC_DelSig_1_DSM_CR6_REG     = ADC_DelSig_1_CFG3_DSM_CR6;
1405:Generated_Source\PSoC5/ADC_DelSig_1.c ****             ADC_DelSig_1_DSM_CR7_REG     = ADC_DelSig_1_CFG3_DSM_CR7;
1406:Generated_Source\PSoC5/ADC_DelSig_1.c ****             ADC_DelSig_1_DSM_CR10_REG    = ADC_DelSig_1_CFG3_DSM_CR10;
1407:Generated_Source\PSoC5/ADC_DelSig_1.c ****             ADC_DelSig_1_DSM_CR11_REG    = ADC_DelSig_1_CFG3_DSM_CR11;
1408:Generated_Source\PSoC5/ADC_DelSig_1.c ****             ADC_DelSig_1_DSM_CR12_REG    = ADC_DelSig_1_CFG3_DSM_CR12;
1409:Generated_Source\PSoC5/ADC_DelSig_1.c ****             ADC_DelSig_1_DSM_CR14_REG    = ADC_DelSig_1_CFG3_DSM_CR14;
1410:Generated_Source\PSoC5/ADC_DelSig_1.c ****             ADC_DelSig_1_DSM_CR15_REG    = ADC_DelSig_1_CFG3_DSM_CR15;
1411:Generated_Source\PSoC5/ADC_DelSig_1.c ****             ADC_DelSig_1_DSM_CR16_REG    = ADC_DelSig_1_CFG3_DSM_CR16;
1412:Generated_Source\PSoC5/ADC_DelSig_1.c ****             ADC_DelSig_1_DSM_CR17_REG    = ADC_DelSig_1_CFG3_DSM_CR17;
1413:Generated_Source\PSoC5/ADC_DelSig_1.c ****             /* Set DSM_REF0_REG by disabling and enabling the PRESS circuit */
1414:Generated_Source\PSoC5/ADC_DelSig_1.c ****             ADC_DelSig_1_SetDSMRef0Reg(ADC_DelSig_1_CFG3_DSM_REF0);
1415:Generated_Source\PSoC5/ADC_DelSig_1.c ****             ADC_DelSig_1_DSM_REF2_REG    = ADC_DelSig_1_CFG3_DSM_REF2;
1416:Generated_Source\PSoC5/ADC_DelSig_1.c ****             ADC_DelSig_1_DSM_REF3_REG    = ADC_DelSig_1_CFG3_DSM_REF3;
1417:Generated_Source\PSoC5/ADC_DelSig_1.c **** 
1418:Generated_Source\PSoC5/ADC_DelSig_1.c ****             ADC_DelSig_1_DSM_BUF0_REG    = ADC_DelSig_1_CFG3_DSM_BUF0;
1419:Generated_Source\PSoC5/ADC_DelSig_1.c ****             ADC_DelSig_1_DSM_BUF1_REG    = ADC_DelSig_1_CFG3_DSM_BUF1;
1420:Generated_Source\PSoC5/ADC_DelSig_1.c ****             ADC_DelSig_1_DSM_BUF2_REG    = ADC_DelSig_1_CFG3_DSM_BUF2;
1421:Generated_Source\PSoC5/ADC_DelSig_1.c ****             ADC_DelSig_1_DSM_BUF3_REG    = ADC_DelSig_1_CFG3_DSM_BUF3;
1422:Generated_Source\PSoC5/ADC_DelSig_1.c **** 
1423:Generated_Source\PSoC5/ADC_DelSig_1.c ****             /* To select either Vssa or Vref to -ve input of DSM depending on
1424:Generated_Source\PSoC5/ADC_DelSig_1.c ****             *  the input range selected.
1425:Generated_Source\PSoC5/ADC_DelSig_1.c ****             */
1426:Generated_Source\PSoC5/ADC_DelSig_1.c ****             #if(ADC_DelSig_1_DEFAULT_INPUT_MODE)
1427:Generated_Source\PSoC5/ADC_DelSig_1.c ****                 #if (ADC_DelSig_1_CFG3_INPUT_RANGE == ADC_DelSig_1_IR_VSSA_TO_2VREF)
1428:Generated_Source\PSoC5/ADC_DelSig_1.c ****                     ADC_DelSig_1_AMux_Select(1u);
1429:Generated_Source\PSoC5/ADC_DelSig_1.c ****                 #else
1430:Generated_Source\PSoC5/ADC_DelSig_1.c ****                     ADC_DelSig_1_AMux_Select(0u);
1431:Generated_Source\PSoC5/ADC_DelSig_1.c ****                 #endif /* ADC_DelSig_1_IR_VSSA_TO_2VREF) */
1432:Generated_Source\PSoC5/ADC_DelSig_1.c ****             #endif /* ADC_DelSig_1_DEFAULT_INPUT_MODE */
1433:Generated_Source\PSoC5/ADC_DelSig_1.c **** 
1434:Generated_Source\PSoC5/ADC_DelSig_1.c ****             /* Set the Conversion stop if resolution is above 16 bit and
1435:Generated_Source\PSoC5/ADC_DelSig_1.c ****                conversion  mode is Single sample */
ARM GAS  C:\Users\Joe\AppData\Local\Temp\ccwCXT19.s 			page 60


1436:Generated_Source\PSoC5/ADC_DelSig_1.c ****             #if(ADC_DelSig_1_CFG3_RESOLUTION > 16 && \
1437:Generated_Source\PSoC5/ADC_DelSig_1.c ****                 ADC_DelSig_1_CFG3_CONV_MODE == ADC_DelSig_1_MODE_SINGLE_SAMPLE)
1438:Generated_Source\PSoC5/ADC_DelSig_1.c ****                 ADC_DelSig_1_stopConversion = 1u;
1439:Generated_Source\PSoC5/ADC_DelSig_1.c ****             #endif /* Single sample with resolution above 16 bits */
1440:Generated_Source\PSoC5/ADC_DelSig_1.c **** 
1441:Generated_Source\PSoC5/ADC_DelSig_1.c ****             ADC_DelSig_1_CountsPerVolt = (int32)ADC_DelSig_1_CFG3_COUNTS_PER_VOLT;
1442:Generated_Source\PSoC5/ADC_DelSig_1.c **** 
1443:Generated_Source\PSoC5/ADC_DelSig_1.c ****             ADC_DelSig_1_Ext_CP_Clk_SetDividerRegister(ADC_DelSig_1_CFG3_CP_CLK_DIVIDER, 1u);
1444:Generated_Source\PSoC5/ADC_DelSig_1.c **** 
1445:Generated_Source\PSoC5/ADC_DelSig_1.c ****             /* This is only valid if there is an internal clock */
1446:Generated_Source\PSoC5/ADC_DelSig_1.c ****             #if(ADC_DelSig_1_DEFAULT_INTERNAL_CLK)
1447:Generated_Source\PSoC5/ADC_DelSig_1.c ****                 ADC_DelSig_1_theACLK_SetDividerRegister(ADC_DelSig_1_CFG3_ADC_CLK_DIVIDER, 1u);
1448:Generated_Source\PSoC5/ADC_DelSig_1.c ****             #endif /* ADC_DelSig_1_DEFAULT_INTERNAL_CLK */
1449:Generated_Source\PSoC5/ADC_DelSig_1.c **** 
1450:Generated_Source\PSoC5/ADC_DelSig_1.c ****             #if(ADC_DelSig_1_IRQ_REMOVE == 0u)
1451:Generated_Source\PSoC5/ADC_DelSig_1.c ****                 /* Set interrupt vector */
1452:Generated_Source\PSoC5/ADC_DelSig_1.c ****                 (void)CyIntSetVector(ADC_DelSig_1_INTC_NUMBER, &ADC_DelSig_1_ISR3);
1453:Generated_Source\PSoC5/ADC_DelSig_1.c ****             #endif   /* End ADC_DelSig_1_IRQ_REMOVE */
1454:Generated_Source\PSoC5/ADC_DelSig_1.c ****         }
1455:Generated_Source\PSoC5/ADC_DelSig_1.c ****     #endif /* ADC_DelSig_1_DEFAULT_NUM_CONFIGS > 2 */
1456:Generated_Source\PSoC5/ADC_DelSig_1.c **** 
1457:Generated_Source\PSoC5/ADC_DelSig_1.c ****     #if(ADC_DelSig_1_DEFAULT_NUM_CONFIGS > 3)
1458:Generated_Source\PSoC5/ADC_DelSig_1.c ****         if (config == 4u)
1459:Generated_Source\PSoC5/ADC_DelSig_1.c ****         {
1460:Generated_Source\PSoC5/ADC_DelSig_1.c ****             /* Fourth Config */
1461:Generated_Source\PSoC5/ADC_DelSig_1.c ****             ADC_DelSig_1_DEC_CR_REG      = ADC_DelSig_1_CFG4_DEC_CR;
1462:Generated_Source\PSoC5/ADC_DelSig_1.c ****             ADC_DelSig_1_DEC_SHIFT1_REG  = ADC_DelSig_1_CFG4_DEC_SHIFT1;
1463:Generated_Source\PSoC5/ADC_DelSig_1.c ****             ADC_DelSig_1_DEC_SHIFT2_REG  = ADC_DelSig_1_CFG4_DEC_SHIFT2;
1464:Generated_Source\PSoC5/ADC_DelSig_1.c ****             ADC_DelSig_1_DEC_DR2_REG     = ADC_DelSig_1_CFG4_DEC_DR2;
1465:Generated_Source\PSoC5/ADC_DelSig_1.c ****             ADC_DelSig_1_DEC_DR2H_REG    = ADC_DelSig_1_CFG4_DEC_DR2H;
1466:Generated_Source\PSoC5/ADC_DelSig_1.c ****             ADC_DelSig_1_DEC_DR1_REG     = ADC_DelSig_1_CFG4_DEC_DR1;
1467:Generated_Source\PSoC5/ADC_DelSig_1.c ****             ADC_DelSig_1_DEC_OCOR_REG    = ADC_DelSig_1_CFG4_DEC_OCOR;
1468:Generated_Source\PSoC5/ADC_DelSig_1.c ****             ADC_DelSig_1_DEC_OCORM_REG   = ADC_DelSig_1_CFG4_DEC_OCORM;
1469:Generated_Source\PSoC5/ADC_DelSig_1.c ****             ADC_DelSig_1_DEC_OCORH_REG   = ADC_DelSig_1_CFG4_DEC_OCORH;
1470:Generated_Source\PSoC5/ADC_DelSig_1.c ****             ADC_DelSig_1_DEC_COHER_REG   = ADC_DelSig_1_CFG4_DEC_COHER;
1471:Generated_Source\PSoC5/ADC_DelSig_1.c **** 
1472:Generated_Source\PSoC5/ADC_DelSig_1.c ****             ADC_DelSig_1_DSM_CR4_REG     = ADC_DelSig_1_CFG4_DSM_CR4;
1473:Generated_Source\PSoC5/ADC_DelSig_1.c ****             ADC_DelSig_1_DSM_CR5_REG     = ADC_DelSig_1_CFG4_DSM_CR5;
1474:Generated_Source\PSoC5/ADC_DelSig_1.c ****             ADC_DelSig_1_DSM_CR6_REG     = ADC_DelSig_1_CFG4_DSM_CR6;
1475:Generated_Source\PSoC5/ADC_DelSig_1.c ****             ADC_DelSig_1_DSM_CR7_REG     = ADC_DelSig_1_CFG4_DSM_CR7;
1476:Generated_Source\PSoC5/ADC_DelSig_1.c ****             ADC_DelSig_1_DSM_CR10_REG    = ADC_DelSig_1_CFG4_DSM_CR10;
1477:Generated_Source\PSoC5/ADC_DelSig_1.c ****             ADC_DelSig_1_DSM_CR11_REG    = ADC_DelSig_1_CFG4_DSM_CR11;
1478:Generated_Source\PSoC5/ADC_DelSig_1.c ****             ADC_DelSig_1_DSM_CR12_REG    = ADC_DelSig_1_CFG4_DSM_CR12;
1479:Generated_Source\PSoC5/ADC_DelSig_1.c ****             ADC_DelSig_1_DSM_CR14_REG    = ADC_DelSig_1_CFG4_DSM_CR14;
1480:Generated_Source\PSoC5/ADC_DelSig_1.c ****             ADC_DelSig_1_DSM_CR15_REG    = ADC_DelSig_1_CFG4_DSM_CR15;
1481:Generated_Source\PSoC5/ADC_DelSig_1.c ****             ADC_DelSig_1_DSM_CR16_REG    = ADC_DelSig_1_CFG4_DSM_CR16;
1482:Generated_Source\PSoC5/ADC_DelSig_1.c ****             ADC_DelSig_1_DSM_CR17_REG    = ADC_DelSig_1_CFG4_DSM_CR17;
1483:Generated_Source\PSoC5/ADC_DelSig_1.c ****             /* Set DSM_REF0_REG by disabling and enabling the PRESS circuit */
1484:Generated_Source\PSoC5/ADC_DelSig_1.c ****             ADC_DelSig_1_SetDSMRef0Reg(ADC_DelSig_1_CFG4_DSM_REF0);
1485:Generated_Source\PSoC5/ADC_DelSig_1.c ****             ADC_DelSig_1_DSM_REF2_REG    = ADC_DelSig_1_CFG4_DSM_REF2;
1486:Generated_Source\PSoC5/ADC_DelSig_1.c ****             ADC_DelSig_1_DSM_REF3_REG    = ADC_DelSig_1_CFG4_DSM_REF3;
1487:Generated_Source\PSoC5/ADC_DelSig_1.c **** 
1488:Generated_Source\PSoC5/ADC_DelSig_1.c ****             ADC_DelSig_1_DSM_BUF0_REG    = ADC_DelSig_1_CFG4_DSM_BUF0;
1489:Generated_Source\PSoC5/ADC_DelSig_1.c ****             ADC_DelSig_1_DSM_BUF1_REG    = ADC_DelSig_1_CFG4_DSM_BUF1;
1490:Generated_Source\PSoC5/ADC_DelSig_1.c ****             ADC_DelSig_1_DSM_BUF2_REG    = ADC_DelSig_1_CFG4_DSM_BUF2;
1491:Generated_Source\PSoC5/ADC_DelSig_1.c ****             ADC_DelSig_1_DSM_BUF3_REG    = ADC_DelSig_1_CFG4_DSM_BUF3;
1492:Generated_Source\PSoC5/ADC_DelSig_1.c **** 
ARM GAS  C:\Users\Joe\AppData\Local\Temp\ccwCXT19.s 			page 61


1493:Generated_Source\PSoC5/ADC_DelSig_1.c ****             /* To select either Vssa or Vref to -ve input of DSM depending on
1494:Generated_Source\PSoC5/ADC_DelSig_1.c ****             *  the input range selected.
1495:Generated_Source\PSoC5/ADC_DelSig_1.c ****             */
1496:Generated_Source\PSoC5/ADC_DelSig_1.c ****             #if(ADC_DelSig_1_DEFAULT_INPUT_MODE)
1497:Generated_Source\PSoC5/ADC_DelSig_1.c ****                 #if (ADC_DelSig_1_CFG4_INPUT_RANGE == ADC_DelSig_1_IR_VSSA_TO_2VREF)
1498:Generated_Source\PSoC5/ADC_DelSig_1.c ****                     ADC_DelSig_1_AMux_Select(1u);
1499:Generated_Source\PSoC5/ADC_DelSig_1.c ****                 #else
1500:Generated_Source\PSoC5/ADC_DelSig_1.c ****                     ADC_DelSig_1_AMux_Select(0u);
1501:Generated_Source\PSoC5/ADC_DelSig_1.c ****                 #endif /* ADC_DelSig_1_IR_VSSA_TO_2VREF) */
1502:Generated_Source\PSoC5/ADC_DelSig_1.c ****             #endif /* ADC_DelSig_1_DEFAULT_INPUT_MODE */
1503:Generated_Source\PSoC5/ADC_DelSig_1.c **** 
1504:Generated_Source\PSoC5/ADC_DelSig_1.c ****             /* Set the Conversion stop if resolution is above 16 bit and
1505:Generated_Source\PSoC5/ADC_DelSig_1.c ****                conversion mode is Single sample */
1506:Generated_Source\PSoC5/ADC_DelSig_1.c ****             #if(ADC_DelSig_1_CFG4_RESOLUTION > 16 && \
1507:Generated_Source\PSoC5/ADC_DelSig_1.c ****                 ADC_DelSig_1_CFG4_CONV_MODE == ADC_DelSig_1_MODE_SINGLE_SAMPLE)
1508:Generated_Source\PSoC5/ADC_DelSig_1.c ****                 ADC_DelSig_1_stopConversion = 1u;
1509:Generated_Source\PSoC5/ADC_DelSig_1.c ****             #endif /* Single sample with resolution above 16 bits */
1510:Generated_Source\PSoC5/ADC_DelSig_1.c **** 
1511:Generated_Source\PSoC5/ADC_DelSig_1.c ****             ADC_DelSig_1_CountsPerVolt = (int32)ADC_DelSig_1_CFG4_COUNTS_PER_VOLT;
1512:Generated_Source\PSoC5/ADC_DelSig_1.c **** 
1513:Generated_Source\PSoC5/ADC_DelSig_1.c ****             ADC_DelSig_1_Ext_CP_Clk_SetDividerRegister(ADC_DelSig_1_CFG4_CP_CLK_DIVIDER, 1u);
1514:Generated_Source\PSoC5/ADC_DelSig_1.c **** 
1515:Generated_Source\PSoC5/ADC_DelSig_1.c ****             /* This is only valid if there is an internal clock */
1516:Generated_Source\PSoC5/ADC_DelSig_1.c ****             #if(ADC_DelSig_1_DEFAULT_INTERNAL_CLK)
1517:Generated_Source\PSoC5/ADC_DelSig_1.c ****                 ADC_DelSig_1_theACLK_SetDividerRegister(ADC_DelSig_1_CFG4_ADC_CLK_DIVIDER, 1u);
1518:Generated_Source\PSoC5/ADC_DelSig_1.c ****             #endif /* ADC_DelSig_1_DEFAULT_INTERNAL_CLK */
1519:Generated_Source\PSoC5/ADC_DelSig_1.c **** 
1520:Generated_Source\PSoC5/ADC_DelSig_1.c ****             #if(ADC_DelSig_1_IRQ_REMOVE == 0u)
1521:Generated_Source\PSoC5/ADC_DelSig_1.c ****                 /* Set interrupt vector */
1522:Generated_Source\PSoC5/ADC_DelSig_1.c ****                 (void)CyIntSetVector(ADC_DelSig_1_INTC_NUMBER, &ADC_DelSig_1_ISR4);
1523:Generated_Source\PSoC5/ADC_DelSig_1.c ****             #endif   /* End ADC_DelSig_1_IRQ_REMOVE */
1524:Generated_Source\PSoC5/ADC_DelSig_1.c ****         }
1525:Generated_Source\PSoC5/ADC_DelSig_1.c ****     #endif /* ADC_DelSig_1_DEFAULT_NUM_CONFIGS > 3 */
1526:Generated_Source\PSoC5/ADC_DelSig_1.c **** }
 1929              		.loc 1 1526 0
 1930 00e4 00BF     		nop
 1931 00e6 0837     		adds	r7, r7, #8
 1932              		.cfi_def_cfa_offset 8
 1933 00e8 BD46     		mov	sp, r7
 1934              		.cfi_def_cfa_register 13
 1935              		@ sp needed
 1936 00ea 80BD     		pop	{r7, pc}
 1937              	.L106:
 1938              		.align	2
 1939              	.L105:
 1940 00ec 00000000 		.word	ADC_DelSig_1_stopConversion
 1941 00f0 004E0040 		.word	1073761792
 1942 00f4 024E0040 		.word	1073761794
 1943 00f8 034E0040 		.word	1073761795
 1944 00fc 044E0040 		.word	1073761796
 1945 0100 054E0040 		.word	1073761797
 1946 0104 064E0040 		.word	1073761798
 1947 0108 084E0040 		.word	1073761800
 1948 010c 094E0040 		.word	1073761801
 1949 0110 0A4E0040 		.word	1073761802
 1950 0114 144E0040 		.word	1073761812
 1951 0118 84580040 		.word	1073764484
ARM GAS  C:\Users\Joe\AppData\Local\Temp\ccwCXT19.s 			page 62


 1952 011c 85580040 		.word	1073764485
 1953 0120 86580040 		.word	1073764486
 1954 0124 87580040 		.word	1073764487
 1955 0128 8A580040 		.word	1073764490
 1956 012c 8B580040 		.word	1073764491
 1957 0130 8C580040 		.word	1073764492
 1958 0134 8E580040 		.word	1073764494
 1959 0138 8F580040 		.word	1073764495
 1960 013c 90580040 		.word	1073764496
 1961 0140 91580040 		.word	1073764497
 1962 0144 94580040 		.word	1073764500
 1963 0148 95580040 		.word	1073764501
 1964 014c 9A580040 		.word	1073764506
 1965 0150 9B580040 		.word	1073764507
 1966 0154 9C580040 		.word	1073764508
 1967 0158 9D580040 		.word	1073764509
 1968 015c 00000000 		.word	ADC_DelSig_1_CountsPerVolt
 1969 0160 00000000 		.word	ADC_DelSig_1_ISR1
 1970              		.cfi_endproc
 1971              	.LFE19:
 1972              		.size	ADC_DelSig_1_InitConfig, .-ADC_DelSig_1_InitConfig
 1973              		.section	.text.ADC_DelSig_1_SelectConfiguration,"ax",%progbits
 1974              		.align	2
 1975              		.global	ADC_DelSig_1_SelectConfiguration
 1976              		.thumb
 1977              		.thumb_func
 1978              		.type	ADC_DelSig_1_SelectConfiguration, %function
 1979              	ADC_DelSig_1_SelectConfiguration:
 1980              	.LFB20:
1527:Generated_Source\PSoC5/ADC_DelSig_1.c **** 
1528:Generated_Source\PSoC5/ADC_DelSig_1.c **** 
1529:Generated_Source\PSoC5/ADC_DelSig_1.c **** /*******************************************************************************
1530:Generated_Source\PSoC5/ADC_DelSig_1.c **** * Function Name: ADC_DelSig_1_SelectCofiguration
1531:Generated_Source\PSoC5/ADC_DelSig_1.c **** ********************************************************************************
1532:Generated_Source\PSoC5/ADC_DelSig_1.c **** *
1533:Generated_Source\PSoC5/ADC_DelSig_1.c **** * Summary:
1534:Generated_Source\PSoC5/ADC_DelSig_1.c **** *  Sets one of up to four ADC configurations. Before setting the new
1535:Generated_Source\PSoC5/ADC_DelSig_1.c **** *  configuration, the ADC is stopped and powered down. After setting
1536:Generated_Source\PSoC5/ADC_DelSig_1.c **** *  the new configuration, the ADC can be powered and conversion
1537:Generated_Source\PSoC5/ADC_DelSig_1.c **** *  can be restarted depending up on the value of second parameter
1538:Generated_Source\PSoC5/ADC_DelSig_1.c **** *  restart. If the value of this parameter is 1, then ADC will be
1539:Generated_Source\PSoC5/ADC_DelSig_1.c **** *  restarted. If this value is zero, then user must call ADC_DelSig_1_Start
1540:Generated_Source\PSoC5/ADC_DelSig_1.c **** *  and ADC_DelSig_1_StartConvert() to restart the conversion.
1541:Generated_Source\PSoC5/ADC_DelSig_1.c **** *
1542:Generated_Source\PSoC5/ADC_DelSig_1.c **** * Parameters:
1543:Generated_Source\PSoC5/ADC_DelSig_1.c **** *  config:  configuration user wants to select.
1544:Generated_Source\PSoC5/ADC_DelSig_1.c **** *           Valid range: 1..4
1545:Generated_Source\PSoC5/ADC_DelSig_1.c **** *  restart:  Restart option. 1 means start the ADC and restart the conversion.
1546:Generated_Source\PSoC5/ADC_DelSig_1.c **** *                            0 means do not start the ADC and conversion.
1547:Generated_Source\PSoC5/ADC_DelSig_1.c **** *
1548:Generated_Source\PSoC5/ADC_DelSig_1.c **** * Return:
1549:Generated_Source\PSoC5/ADC_DelSig_1.c **** *  None
1550:Generated_Source\PSoC5/ADC_DelSig_1.c **** *
1551:Generated_Source\PSoC5/ADC_DelSig_1.c **** *******************************************************************************/
1552:Generated_Source\PSoC5/ADC_DelSig_1.c **** void ADC_DelSig_1_SelectConfiguration(uint8 config, uint8 restart)
1553:Generated_Source\PSoC5/ADC_DelSig_1.c ****                                               
1554:Generated_Source\PSoC5/ADC_DelSig_1.c **** {
ARM GAS  C:\Users\Joe\AppData\Local\Temp\ccwCXT19.s 			page 63


 1981              		.loc 1 1554 0
 1982              		.cfi_startproc
 1983              		@ args = 0, pretend = 0, frame = 8
 1984              		@ frame_needed = 1, uses_anonymous_args = 0
 1985 0000 80B5     		push	{r7, lr}
 1986              		.cfi_def_cfa_offset 8
 1987              		.cfi_offset 7, -8
 1988              		.cfi_offset 14, -4
 1989 0002 82B0     		sub	sp, sp, #8
 1990              		.cfi_def_cfa_offset 16
 1991 0004 00AF     		add	r7, sp, #0
 1992              		.cfi_def_cfa_register 7
 1993 0006 0346     		mov	r3, r0
 1994 0008 0A46     		mov	r2, r1
 1995 000a FB71     		strb	r3, [r7, #7]
 1996 000c 1346     		mov	r3, r2
 1997 000e BB71     		strb	r3, [r7, #6]
1555:Generated_Source\PSoC5/ADC_DelSig_1.c ****     /* Check whether the configuration number is valid or not */
1556:Generated_Source\PSoC5/ADC_DelSig_1.c ****     if((config > 0u) && (config <= ADC_DelSig_1_DEFAULT_NUM_CONFIGS))
 1998              		.loc 1 1556 0
 1999 0010 FB79     		ldrb	r3, [r7, #7]	@ zero_extendqisi2
 2000 0012 002B     		cmp	r3, #0
 2001 0014 29D0     		beq	.L108
 2002              		.loc 1 1556 0 is_stmt 0 discriminator 1
 2003 0016 FB79     		ldrb	r3, [r7, #7]	@ zero_extendqisi2
 2004 0018 012B     		cmp	r3, #1
 2005 001a 26D8     		bhi	.L108
1557:Generated_Source\PSoC5/ADC_DelSig_1.c ****     {
1558:Generated_Source\PSoC5/ADC_DelSig_1.c ****         /* Set the flag to ensure Start() API doesn't override the 
1559:Generated_Source\PSoC5/ADC_DelSig_1.c **** 		*  selected configuration
1560:Generated_Source\PSoC5/ADC_DelSig_1.c **** 		*/
1561:Generated_Source\PSoC5/ADC_DelSig_1.c ****         if(ADC_DelSig_1_initVar == 0u)
 2006              		.loc 1 1561 0 is_stmt 1
 2007 001c 164B     		ldr	r3, .L112
 2008 001e 1B78     		ldrb	r3, [r3]	@ zero_extendqisi2
 2009 0020 002B     		cmp	r3, #0
 2010 0022 02D1     		bne	.L109
1562:Generated_Source\PSoC5/ADC_DelSig_1.c ****         {
1563:Generated_Source\PSoC5/ADC_DelSig_1.c ****             ADC_DelSig_1_started = 1u;
 2011              		.loc 1 1563 0
 2012 0024 154B     		ldr	r3, .L112+4
 2013 0026 0122     		movs	r2, #1
 2014 0028 1A70     		strb	r2, [r3]
 2015              	.L109:
1564:Generated_Source\PSoC5/ADC_DelSig_1.c ****         }
1565:Generated_Source\PSoC5/ADC_DelSig_1.c **** 
1566:Generated_Source\PSoC5/ADC_DelSig_1.c ****         /* Update the config flag */
1567:Generated_Source\PSoC5/ADC_DelSig_1.c ****         ADC_DelSig_1_Config = config;
 2016              		.loc 1 1567 0
 2017 002a 154A     		ldr	r2, .L112+8
 2018 002c FB79     		ldrb	r3, [r7, #7]
 2019 002e 1370     		strb	r3, [r2]
1568:Generated_Source\PSoC5/ADC_DelSig_1.c **** 
1569:Generated_Source\PSoC5/ADC_DelSig_1.c ****         /* Stop the ADC  */
1570:Generated_Source\PSoC5/ADC_DelSig_1.c ****         ADC_DelSig_1_Stop();
 2020              		.loc 1 1570 0
 2021 0030 FFF7FEFF 		bl	ADC_DelSig_1_Stop
ARM GAS  C:\Users\Joe\AppData\Local\Temp\ccwCXT19.s 			page 64


1571:Generated_Source\PSoC5/ADC_DelSig_1.c **** 
1572:Generated_Source\PSoC5/ADC_DelSig_1.c ****         /* Set the  ADC registers based on the configuration */
1573:Generated_Source\PSoC5/ADC_DelSig_1.c ****         ADC_DelSig_1_InitConfig(config);
 2022              		.loc 1 1573 0
 2023 0034 FB79     		ldrb	r3, [r7, #7]	@ zero_extendqisi2
 2024 0036 1846     		mov	r0, r3
 2025 0038 FFF7FEFF 		bl	ADC_DelSig_1_InitConfig
1574:Generated_Source\PSoC5/ADC_DelSig_1.c **** 
1575:Generated_Source\PSoC5/ADC_DelSig_1.c ****         /* Compensate the gain */
1576:Generated_Source\PSoC5/ADC_DelSig_1.c ****         ADC_DelSig_1_DEC_GVAL_REG = ADC_DelSig_1_gcor[config - 1u].gval;
 2026              		.loc 1 1576 0
 2027 003c 114A     		ldr	r2, .L112+12
 2028 003e FB79     		ldrb	r3, [r7, #7]	@ zero_extendqisi2
 2029 0040 013B     		subs	r3, r3, #1
 2030 0042 1149     		ldr	r1, .L112+16
 2031 0044 9B00     		lsls	r3, r3, #2
 2032 0046 0B44     		add	r3, r3, r1
 2033 0048 9B78     		ldrb	r3, [r3, #2]	@ zero_extendqisi2
 2034 004a 1370     		strb	r3, [r2]
1577:Generated_Source\PSoC5/ADC_DelSig_1.c ****         CY_SET_REG16(ADC_DelSig_1_DEC_GCOR_16B_PTR, ADC_DelSig_1_gcor[config - 1u].gcor);
 2035              		.loc 1 1577 0
 2036 004c 0F4A     		ldr	r2, .L112+20
 2037 004e FB79     		ldrb	r3, [r7, #7]	@ zero_extendqisi2
 2038 0050 013B     		subs	r3, r3, #1
 2039 0052 0D49     		ldr	r1, .L112+16
 2040 0054 31F82330 		ldrh	r3, [r1, r3, lsl #2]
 2041 0058 1380     		strh	r3, [r2]	@ movhi
1578:Generated_Source\PSoC5/ADC_DelSig_1.c **** 
1579:Generated_Source\PSoC5/ADC_DelSig_1.c ****         if(restart == 1u)
 2042              		.loc 1 1579 0
 2043 005a BB79     		ldrb	r3, [r7, #6]	@ zero_extendqisi2
 2044 005c 012B     		cmp	r3, #1
 2045 005e 07D1     		bne	.L111
1580:Generated_Source\PSoC5/ADC_DelSig_1.c ****         {
1581:Generated_Source\PSoC5/ADC_DelSig_1.c ****             /* Restart the ADC */
1582:Generated_Source\PSoC5/ADC_DelSig_1.c ****             ADC_DelSig_1_Start();
 2046              		.loc 1 1582 0
 2047 0060 FFF7FEFF 		bl	ADC_DelSig_1_Start
1583:Generated_Source\PSoC5/ADC_DelSig_1.c **** 
1584:Generated_Source\PSoC5/ADC_DelSig_1.c ****             /* Restart the ADC conversion */
1585:Generated_Source\PSoC5/ADC_DelSig_1.c ****             ADC_DelSig_1_StartConvert();
 2048              		.loc 1 1585 0
 2049 0064 FFF7FEFF 		bl	ADC_DelSig_1_StartConvert
1579:Generated_Source\PSoC5/ADC_DelSig_1.c ****         {
 2050              		.loc 1 1579 0
 2051 0068 02E0     		b	.L111
 2052              	.L108:
1586:Generated_Source\PSoC5/ADC_DelSig_1.c ****         }
1587:Generated_Source\PSoC5/ADC_DelSig_1.c ****     }
1588:Generated_Source\PSoC5/ADC_DelSig_1.c ****     else
1589:Generated_Source\PSoC5/ADC_DelSig_1.c ****     {
1590:Generated_Source\PSoC5/ADC_DelSig_1.c ****         /* Halt CPU in debug mode if config is out of valid range */
1591:Generated_Source\PSoC5/ADC_DelSig_1.c ****         CYASSERT(0u != 0u);
 2053              		.loc 1 1591 0 discriminator 1
 2054 006a 0020     		movs	r0, #0
 2055 006c FFF7FEFF 		bl	CyHalt
 2056              	.L111:
ARM GAS  C:\Users\Joe\AppData\Local\Temp\ccwCXT19.s 			page 65


1592:Generated_Source\PSoC5/ADC_DelSig_1.c ****     }
1593:Generated_Source\PSoC5/ADC_DelSig_1.c **** }
 2057              		.loc 1 1593 0
 2058 0070 00BF     		nop
 2059 0072 0837     		adds	r7, r7, #8
 2060              		.cfi_def_cfa_offset 8
 2061 0074 BD46     		mov	sp, r7
 2062              		.cfi_def_cfa_register 13
 2063              		@ sp needed
 2064 0076 80BD     		pop	{r7, pc}
 2065              	.L113:
 2066              		.align	2
 2067              	.L112:
 2068 0078 00000000 		.word	ADC_DelSig_1_initVar
 2069 007c 00000000 		.word	ADC_DelSig_1_started
 2070 0080 00000000 		.word	ADC_DelSig_1_Config
 2071 0084 0E4E0040 		.word	1073761806
 2072 0088 04000000 		.word	ADC_DelSig_1_gcor
 2073 008c 0C4E0040 		.word	1073761804
 2074              		.cfi_endproc
 2075              	.LFE20:
 2076              		.size	ADC_DelSig_1_SelectConfiguration, .-ADC_DelSig_1_SelectConfiguration
 2077              		.section	.text.ADC_DelSig_1_GainCompensation,"ax",%progbits
 2078              		.align	2
 2079              		.thumb
 2080              		.thumb_func
 2081              		.type	ADC_DelSig_1_GainCompensation, %function
 2082              	ADC_DelSig_1_GainCompensation:
 2083              	.LFB21:
1594:Generated_Source\PSoC5/ADC_DelSig_1.c **** 
1595:Generated_Source\PSoC5/ADC_DelSig_1.c **** 
1596:Generated_Source\PSoC5/ADC_DelSig_1.c **** /*******************************************************************************
1597:Generated_Source\PSoC5/ADC_DelSig_1.c **** * Function Name: ADC_DelSig_1_GainCompensation
1598:Generated_Source\PSoC5/ADC_DelSig_1.c **** ********************************************************************************
1599:Generated_Source\PSoC5/ADC_DelSig_1.c **** *
1600:Generated_Source\PSoC5/ADC_DelSig_1.c **** * Summary:
1601:Generated_Source\PSoC5/ADC_DelSig_1.c **** *  This API calculates the trim value and then store this to gcor structure.
1602:Generated_Source\PSoC5/ADC_DelSig_1.c **** *
1603:Generated_Source\PSoC5/ADC_DelSig_1.c **** * Parameters:
1604:Generated_Source\PSoC5/ADC_DelSig_1.c **** *  inputRange:  input range for which trim value is to be calculated.
1605:Generated_Source\PSoC5/ADC_DelSig_1.c **** *  IdealDecGain:  Ideal Decimator gain for the selected resolution and
1606:Generated_Source\PSoC5/ADC_DelSig_1.c **** *                 conversion  mode.
1607:Generated_Source\PSoC5/ADC_DelSig_1.c **** *  IdealOddDecGain:  Ideal odd decimation gain for the selected resolution and
1608:Generated_Source\PSoC5/ADC_DelSig_1.c ****                      conversion mode.
1609:Generated_Source\PSoC5/ADC_DelSig_1.c **** *  resolution:  Resolution to select the proper flash location for trim value.
1610:Generated_Source\PSoC5/ADC_DelSig_1.c **** *  config:      Specifies the configuration number
1611:Generated_Source\PSoC5/ADC_DelSig_1.c **** *               Valid range: 1..4
1612:Generated_Source\PSoC5/ADC_DelSig_1.c **** *
1613:Generated_Source\PSoC5/ADC_DelSig_1.c **** * Return:
1614:Generated_Source\PSoC5/ADC_DelSig_1.c **** *  None
1615:Generated_Source\PSoC5/ADC_DelSig_1.c **** *
1616:Generated_Source\PSoC5/ADC_DelSig_1.c **** *******************************************************************************/
1617:Generated_Source\PSoC5/ADC_DelSig_1.c **** static void ADC_DelSig_1_GainCompensation(uint8 inputRange, uint16 idealDecGain, uint16 idealOddDec
1618:Generated_Source\PSoC5/ADC_DelSig_1.c ****                               uint8 resolution, uint8 config) 
1619:Generated_Source\PSoC5/ADC_DelSig_1.c **** {
 2084              		.loc 1 1619 0
 2085              		.cfi_startproc
ARM GAS  C:\Users\Joe\AppData\Local\Temp\ccwCXT19.s 			page 66


 2086              		@ args = 4, pretend = 0, frame = 24
 2087              		@ frame_needed = 1, uses_anonymous_args = 0
 2088 0000 90B5     		push	{r4, r7, lr}
 2089              		.cfi_def_cfa_offset 12
 2090              		.cfi_offset 4, -12
 2091              		.cfi_offset 7, -8
 2092              		.cfi_offset 14, -4
 2093 0002 87B0     		sub	sp, sp, #28
 2094              		.cfi_def_cfa_offset 40
 2095 0004 00AF     		add	r7, sp, #0
 2096              		.cfi_def_cfa_register 7
 2097 0006 0446     		mov	r4, r0
 2098 0008 0846     		mov	r0, r1
 2099 000a 1146     		mov	r1, r2
 2100 000c 1A46     		mov	r2, r3
 2101 000e 2346     		mov	r3, r4
 2102 0010 FB71     		strb	r3, [r7, #7]
 2103 0012 0346     		mov	r3, r0	@ movhi
 2104 0014 BB80     		strh	r3, [r7, #4]	@ movhi
 2105 0016 0B46     		mov	r3, r1	@ movhi
 2106 0018 7B80     		strh	r3, [r7, #2]	@ movhi
 2107 001a 1346     		mov	r3, r2
 2108 001c BB71     		strb	r3, [r7, #6]
1620:Generated_Source\PSoC5/ADC_DelSig_1.c ****     int8 flash;
1621:Generated_Source\PSoC5/ADC_DelSig_1.c **** 	int32 normalised;
1622:Generated_Source\PSoC5/ADC_DelSig_1.c **** 	uint16 gcorValue;
1623:Generated_Source\PSoC5/ADC_DelSig_1.c ****     uint32 gcorTmp;
1624:Generated_Source\PSoC5/ADC_DelSig_1.c **** 
1625:Generated_Source\PSoC5/ADC_DelSig_1.c ****     if((config > 0u) && (config <= ADC_DelSig_1_DEFAULT_NUM_CONFIGS))
 2109              		.loc 1 1625 0
 2110 001e 97F82830 		ldrb	r3, [r7, #40]	@ zero_extendqisi2
 2111 0022 002B     		cmp	r3, #0
 2112 0024 00F08B80 		beq	.L115
 2113              		.loc 1 1625 0 is_stmt 0 discriminator 1
 2114 0028 97F82830 		ldrb	r3, [r7, #40]	@ zero_extendqisi2
 2115 002c 012B     		cmp	r3, #1
 2116 002e 00F28680 		bhi	.L115
1626:Generated_Source\PSoC5/ADC_DelSig_1.c ****     {
1627:Generated_Source\PSoC5/ADC_DelSig_1.c ****         switch(inputRange)
 2117              		.loc 1 1627 0 is_stmt 1
 2118 0032 FB79     		ldrb	r3, [r7, #7]	@ zero_extendqisi2
 2119 0034 013B     		subs	r3, r3, #1
 2120 0036 092B     		cmp	r3, #9
 2121 0038 4AD8     		bhi	.L116
 2122 003a 01A2     		adr	r2, .L118
 2123 003c 52F823F0 		ldr	pc, [r2, r3, lsl #2]
 2124              		.p2align 2
 2125              	.L118:
 2126 0040 69000000 		.word	.L117+1
 2127 0044 D1000000 		.word	.L116+1
 2128 0048 D1000000 		.word	.L116+1
 2129 004c 69000000 		.word	.L117+1
 2130 0050 D1000000 		.word	.L116+1
 2131 0054 D1000000 		.word	.L116+1
 2132 0058 83000000 		.word	.L119+1
 2133 005c 9D000000 		.word	.L120+1
 2134 0060 D1000000 		.word	.L116+1
ARM GAS  C:\Users\Joe\AppData\Local\Temp\ccwCXT19.s 			page 67


 2135 0064 B7000000 		.word	.L121+1
 2136              		.p2align 1
 2137              	.L117:
1628:Generated_Source\PSoC5/ADC_DelSig_1.c ****         {
1629:Generated_Source\PSoC5/ADC_DelSig_1.c ****             case ADC_DelSig_1_IR_VNEG_VREF_DIFF:
1630:Generated_Source\PSoC5/ADC_DelSig_1.c ****             case ADC_DelSig_1_IR_VSSA_TO_2VREF:
1631:Generated_Source\PSoC5/ADC_DelSig_1.c ****                 /* Normalize the flash Value */
1632:Generated_Source\PSoC5/ADC_DelSig_1.c ****                 if(resolution > 15u)
 2138              		.loc 1 1632 0
 2139 0068 BB79     		ldrb	r3, [r7, #6]	@ zero_extendqisi2
 2140 006a 0F2B     		cmp	r3, #15
 2141 006c 04D9     		bls	.L122
1633:Generated_Source\PSoC5/ADC_DelSig_1.c ****                 {
1634:Generated_Source\PSoC5/ADC_DelSig_1.c ****                     flash = ADC_DelSig_1_DEC_TRIM_VREF_DIFF_16_20;
 2142              		.loc 1 1634 0
 2143 006e 374B     		ldr	r3, .L134
 2144 0070 1B78     		ldrb	r3, [r3]
 2145 0072 DBB2     		uxtb	r3, r3
 2146 0074 FB75     		strb	r3, [r7, #23]
1635:Generated_Source\PSoC5/ADC_DelSig_1.c ****                 }
1636:Generated_Source\PSoC5/ADC_DelSig_1.c ****                 else
1637:Generated_Source\PSoC5/ADC_DelSig_1.c ****                 {
1638:Generated_Source\PSoC5/ADC_DelSig_1.c ****                     flash = ADC_DelSig_1_DEC_TRIM_VREF_DIFF_8_15;
1639:Generated_Source\PSoC5/ADC_DelSig_1.c ****                 }
1640:Generated_Source\PSoC5/ADC_DelSig_1.c ****                 break;
 2147              		.loc 1 1640 0
 2148 0076 2EE0     		b	.L124
 2149              	.L122:
1638:Generated_Source\PSoC5/ADC_DelSig_1.c ****                 }
 2150              		.loc 1 1638 0
 2151 0078 354B     		ldr	r3, .L134+4
 2152 007a 1B78     		ldrb	r3, [r3]
 2153 007c DBB2     		uxtb	r3, r3
 2154 007e FB75     		strb	r3, [r7, #23]
 2155              		.loc 1 1640 0
 2156 0080 29E0     		b	.L124
 2157              	.L119:
1641:Generated_Source\PSoC5/ADC_DelSig_1.c **** 
1642:Generated_Source\PSoC5/ADC_DelSig_1.c ****             case ADC_DelSig_1_IR_VNEG_VREF_2_DIFF:
1643:Generated_Source\PSoC5/ADC_DelSig_1.c ****                 /* Normalize the flash Value */
1644:Generated_Source\PSoC5/ADC_DelSig_1.c ****                 if(resolution > 15u)
 2158              		.loc 1 1644 0
 2159 0082 BB79     		ldrb	r3, [r7, #6]	@ zero_extendqisi2
 2160 0084 0F2B     		cmp	r3, #15
 2161 0086 04D9     		bls	.L125
1645:Generated_Source\PSoC5/ADC_DelSig_1.c ****                 {
1646:Generated_Source\PSoC5/ADC_DelSig_1.c ****                     flash = ADC_DelSig_1_DEC_TRIM_VREF_2_DIFF_16_20;
 2162              		.loc 1 1646 0
 2163 0088 324B     		ldr	r3, .L134+8
 2164 008a 1B78     		ldrb	r3, [r3]
 2165 008c DBB2     		uxtb	r3, r3
 2166 008e FB75     		strb	r3, [r7, #23]
1647:Generated_Source\PSoC5/ADC_DelSig_1.c ****                 }
1648:Generated_Source\PSoC5/ADC_DelSig_1.c ****                 else
1649:Generated_Source\PSoC5/ADC_DelSig_1.c ****                 {
1650:Generated_Source\PSoC5/ADC_DelSig_1.c ****                     flash = ADC_DelSig_1_DEC_TRIM_VREF_2_DIFF_8_15;
1651:Generated_Source\PSoC5/ADC_DelSig_1.c ****                 }
ARM GAS  C:\Users\Joe\AppData\Local\Temp\ccwCXT19.s 			page 68


1652:Generated_Source\PSoC5/ADC_DelSig_1.c ****                 break;
 2167              		.loc 1 1652 0
 2168 0090 21E0     		b	.L124
 2169              	.L125:
1650:Generated_Source\PSoC5/ADC_DelSig_1.c ****                 }
 2170              		.loc 1 1650 0
 2171 0092 314B     		ldr	r3, .L134+12
 2172 0094 1B78     		ldrb	r3, [r3]
 2173 0096 DBB2     		uxtb	r3, r3
 2174 0098 FB75     		strb	r3, [r7, #23]
 2175              		.loc 1 1652 0
 2176 009a 1CE0     		b	.L124
 2177              	.L120:
1653:Generated_Source\PSoC5/ADC_DelSig_1.c **** 
1654:Generated_Source\PSoC5/ADC_DelSig_1.c ****             case ADC_DelSig_1_IR_VNEG_VREF_4_DIFF:
1655:Generated_Source\PSoC5/ADC_DelSig_1.c ****                 /* Normalize the flash Value */
1656:Generated_Source\PSoC5/ADC_DelSig_1.c ****                 if(resolution > 15u)
 2178              		.loc 1 1656 0
 2179 009c BB79     		ldrb	r3, [r7, #6]	@ zero_extendqisi2
 2180 009e 0F2B     		cmp	r3, #15
 2181 00a0 04D9     		bls	.L127
1657:Generated_Source\PSoC5/ADC_DelSig_1.c ****                 {
1658:Generated_Source\PSoC5/ADC_DelSig_1.c ****                     flash = ADC_DelSig_1_DEC_TRIM_VREF_4_DIFF_16_20;
 2182              		.loc 1 1658 0
 2183 00a2 2E4B     		ldr	r3, .L134+16
 2184 00a4 1B78     		ldrb	r3, [r3]
 2185 00a6 DBB2     		uxtb	r3, r3
 2186 00a8 FB75     		strb	r3, [r7, #23]
1659:Generated_Source\PSoC5/ADC_DelSig_1.c ****                 }
1660:Generated_Source\PSoC5/ADC_DelSig_1.c ****                 else
1661:Generated_Source\PSoC5/ADC_DelSig_1.c ****                 {
1662:Generated_Source\PSoC5/ADC_DelSig_1.c ****                     flash = ADC_DelSig_1_DEC_TRIM_VREF_4_DIFF_8_15;
1663:Generated_Source\PSoC5/ADC_DelSig_1.c ****                 }
1664:Generated_Source\PSoC5/ADC_DelSig_1.c ****                 break;
 2187              		.loc 1 1664 0
 2188 00aa 14E0     		b	.L124
 2189              	.L127:
1662:Generated_Source\PSoC5/ADC_DelSig_1.c ****                 }
 2190              		.loc 1 1662 0
 2191 00ac 2C4B     		ldr	r3, .L134+20
 2192 00ae 1B78     		ldrb	r3, [r3]
 2193 00b0 DBB2     		uxtb	r3, r3
 2194 00b2 FB75     		strb	r3, [r7, #23]
 2195              		.loc 1 1664 0
 2196 00b4 0FE0     		b	.L124
 2197              	.L121:
1665:Generated_Source\PSoC5/ADC_DelSig_1.c **** 
1666:Generated_Source\PSoC5/ADC_DelSig_1.c ****             case ADC_DelSig_1_IR_VNEG_VREF_16_DIFF:
1667:Generated_Source\PSoC5/ADC_DelSig_1.c ****                 /* Normalize the flash Value */
1668:Generated_Source\PSoC5/ADC_DelSig_1.c ****                 if(resolution > 15u)
 2198              		.loc 1 1668 0
 2199 00b6 BB79     		ldrb	r3, [r7, #6]	@ zero_extendqisi2
 2200 00b8 0F2B     		cmp	r3, #15
 2201 00ba 04D9     		bls	.L129
1669:Generated_Source\PSoC5/ADC_DelSig_1.c ****                 {
1670:Generated_Source\PSoC5/ADC_DelSig_1.c ****                     flash = ADC_DelSig_1_DEC_TRIM_VREF_16_DIFF_16_20;
 2202              		.loc 1 1670 0
ARM GAS  C:\Users\Joe\AppData\Local\Temp\ccwCXT19.s 			page 69


 2203 00bc 294B     		ldr	r3, .L134+24
 2204 00be 1B78     		ldrb	r3, [r3]
 2205 00c0 DBB2     		uxtb	r3, r3
 2206 00c2 FB75     		strb	r3, [r7, #23]
1671:Generated_Source\PSoC5/ADC_DelSig_1.c ****                 }
1672:Generated_Source\PSoC5/ADC_DelSig_1.c ****                 else
1673:Generated_Source\PSoC5/ADC_DelSig_1.c ****                 {
1674:Generated_Source\PSoC5/ADC_DelSig_1.c ****                     flash = ADC_DelSig_1_DEC_TRIM_VREF_16_DIFF_8_15;
1675:Generated_Source\PSoC5/ADC_DelSig_1.c ****                 }
1676:Generated_Source\PSoC5/ADC_DelSig_1.c ****                 break;
 2207              		.loc 1 1676 0
 2208 00c4 07E0     		b	.L124
 2209              	.L129:
1674:Generated_Source\PSoC5/ADC_DelSig_1.c ****                 }
 2210              		.loc 1 1674 0
 2211 00c6 284B     		ldr	r3, .L134+28
 2212 00c8 1B78     		ldrb	r3, [r3]
 2213 00ca DBB2     		uxtb	r3, r3
 2214 00cc FB75     		strb	r3, [r7, #23]
 2215              		.loc 1 1676 0
 2216 00ce 02E0     		b	.L124
 2217              	.L116:
1677:Generated_Source\PSoC5/ADC_DelSig_1.c **** 
1678:Generated_Source\PSoC5/ADC_DelSig_1.c ****             default:
1679:Generated_Source\PSoC5/ADC_DelSig_1.c ****                 flash = 0;
 2218              		.loc 1 1679 0
 2219 00d0 0023     		movs	r3, #0
 2220 00d2 FB75     		strb	r3, [r7, #23]
1680:Generated_Source\PSoC5/ADC_DelSig_1.c ****                 break;
 2221              		.loc 1 1680 0
 2222 00d4 00BF     		nop
 2223              	.L124:
1681:Generated_Source\PSoC5/ADC_DelSig_1.c ****         }
1682:Generated_Source\PSoC5/ADC_DelSig_1.c **** 
1683:Generated_Source\PSoC5/ADC_DelSig_1.c ****         /* Add two values */
1684:Generated_Source\PSoC5/ADC_DelSig_1.c **** 		normalised = (int32)idealDecGain + ((int32)flash * 32);
 2224              		.loc 1 1684 0
 2225 00d6 BA88     		ldrh	r2, [r7, #4]
 2226 00d8 97F91730 		ldrsb	r3, [r7, #23]
 2227 00dc 5B01     		lsls	r3, r3, #5
 2228 00de 1344     		add	r3, r3, r2
 2229 00e0 3B61     		str	r3, [r7, #16]
1685:Generated_Source\PSoC5/ADC_DelSig_1.c ****         gcorTmp = (uint32)normalised * (uint32)idealOddDecGain;
 2230              		.loc 1 1685 0
 2231 00e2 7B88     		ldrh	r3, [r7, #2]
 2232 00e4 3A69     		ldr	r2, [r7, #16]
 2233 00e6 02FB03F3 		mul	r3, r2, r3
 2234 00ea FB60     		str	r3, [r7, #12]
1686:Generated_Source\PSoC5/ADC_DelSig_1.c ****         gcorValue = (uint16)(gcorTmp / ADC_DelSig_1_IDEAL_GAIN_CONST);
 2235              		.loc 1 1686 0
 2236 00ec FB68     		ldr	r3, [r7, #12]
 2237 00ee DB0B     		lsrs	r3, r3, #15
 2238 00f0 BB82     		strh	r3, [r7, #20]	@ movhi
1687:Generated_Source\PSoC5/ADC_DelSig_1.c **** 
1688:Generated_Source\PSoC5/ADC_DelSig_1.c ****         if (resolution < (ADC_DelSig_1_MAX_GVAL - 1u))
 2239              		.loc 1 1688 0
 2240 00f2 BB79     		ldrb	r3, [r7, #6]	@ zero_extendqisi2
ARM GAS  C:\Users\Joe\AppData\Local\Temp\ccwCXT19.s 			page 70


 2241 00f4 0D2B     		cmp	r3, #13
 2242 00f6 12D8     		bhi	.L131
1689:Generated_Source\PSoC5/ADC_DelSig_1.c ****         {
1690:Generated_Source\PSoC5/ADC_DelSig_1.c ****             gcorValue = (gcorValue >> (ADC_DelSig_1_MAX_GVAL - (resolution + 1u)));
 2243              		.loc 1 1690 0
 2244 00f8 BA8A     		ldrh	r2, [r7, #20]
 2245 00fa BB79     		ldrb	r3, [r7, #6]	@ zero_extendqisi2
 2246 00fc C3F10E03 		rsb	r3, r3, #14
 2247 0100 42FA03F3 		asr	r3, r2, r3
 2248 0104 BB82     		strh	r3, [r7, #20]	@ movhi
1691:Generated_Source\PSoC5/ADC_DelSig_1.c ****             ADC_DelSig_1_gcor[config - 1u].gval = (resolution + 1u);
 2249              		.loc 1 1691 0
 2250 0106 97F82830 		ldrb	r3, [r7, #40]	@ zero_extendqisi2
 2251 010a 013B     		subs	r3, r3, #1
 2252 010c BA79     		ldrb	r2, [r7, #6]
 2253 010e 0132     		adds	r2, r2, #1
 2254 0110 D1B2     		uxtb	r1, r2
 2255 0112 164A     		ldr	r2, .L134+32
 2256 0114 9B00     		lsls	r3, r3, #2
 2257 0116 1344     		add	r3, r3, r2
 2258 0118 0A46     		mov	r2, r1
 2259 011a 9A70     		strb	r2, [r3, #2]
 2260 011c 07E0     		b	.L132
 2261              	.L131:
1692:Generated_Source\PSoC5/ADC_DelSig_1.c ****         }
1693:Generated_Source\PSoC5/ADC_DelSig_1.c ****         else
1694:Generated_Source\PSoC5/ADC_DelSig_1.c ****         {
1695:Generated_Source\PSoC5/ADC_DelSig_1.c ****             /* Use all 16 bits */
1696:Generated_Source\PSoC5/ADC_DelSig_1.c ****             ADC_DelSig_1_gcor[config - 1u].gval = ADC_DelSig_1_MAX_GVAL;
 2262              		.loc 1 1696 0
 2263 011e 97F82830 		ldrb	r3, [r7, #40]	@ zero_extendqisi2
 2264 0122 013B     		subs	r3, r3, #1
 2265 0124 114A     		ldr	r2, .L134+32
 2266 0126 9B00     		lsls	r3, r3, #2
 2267 0128 1344     		add	r3, r3, r2
 2268 012a 0F22     		movs	r2, #15
 2269 012c 9A70     		strb	r2, [r3, #2]
 2270              	.L132:
1697:Generated_Source\PSoC5/ADC_DelSig_1.c ****         }
1698:Generated_Source\PSoC5/ADC_DelSig_1.c **** 
1699:Generated_Source\PSoC5/ADC_DelSig_1.c ****         /* Save the gain correction register value */
1700:Generated_Source\PSoC5/ADC_DelSig_1.c ****         ADC_DelSig_1_gcor[config - 1u].gcor = gcorValue;
 2271              		.loc 1 1700 0
 2272 012e 97F82830 		ldrb	r3, [r7, #40]	@ zero_extendqisi2
 2273 0132 013B     		subs	r3, r3, #1
 2274 0134 0D49     		ldr	r1, .L134+32
 2275 0136 BA8A     		ldrh	r2, [r7, #20]	@ movhi
 2276 0138 21F82320 		strh	r2, [r1, r3, lsl #2]	@ movhi
 2277 013c 02E0     		b	.L133
 2278              	.L115:
1701:Generated_Source\PSoC5/ADC_DelSig_1.c ****     }
1702:Generated_Source\PSoC5/ADC_DelSig_1.c ****     else
1703:Generated_Source\PSoC5/ADC_DelSig_1.c ****     {
1704:Generated_Source\PSoC5/ADC_DelSig_1.c ****         /* Halt CPU in debug mode if config is out of valid range */
1705:Generated_Source\PSoC5/ADC_DelSig_1.c ****         CYASSERT(0u != 0u);
 2279              		.loc 1 1705 0 discriminator 1
 2280 013e 0020     		movs	r0, #0
ARM GAS  C:\Users\Joe\AppData\Local\Temp\ccwCXT19.s 			page 71


 2281 0140 FFF7FEFF 		bl	CyHalt
 2282              	.L133:
1706:Generated_Source\PSoC5/ADC_DelSig_1.c ****     }
1707:Generated_Source\PSoC5/ADC_DelSig_1.c **** }
 2283              		.loc 1 1707 0
 2284 0144 00BF     		nop
 2285 0146 1C37     		adds	r7, r7, #28
 2286              		.cfi_def_cfa_offset 12
 2287 0148 BD46     		mov	sp, r7
 2288              		.cfi_def_cfa_register 13
 2289              		@ sp needed
 2290 014a 90BD     		pop	{r4, r7, pc}
 2291              	.L135:
 2292              		.align	2
 2293              	.L134:
 2294 014c 18010049 		.word	1224737048
 2295 0150 1C010049 		.word	1224737052
 2296 0154 19010049 		.word	1224737049
 2297 0158 1D010049 		.word	1224737053
 2298 015c 1A010049 		.word	1224737050
 2299 0160 1E010049 		.word	1224737054
 2300 0164 1B010049 		.word	1224737051
 2301 0168 1F010049 		.word	1224737055
 2302 016c 04000000 		.word	ADC_DelSig_1_gcor
 2303              		.cfi_endproc
 2304              	.LFE21:
 2305              		.size	ADC_DelSig_1_GainCompensation, .-ADC_DelSig_1_GainCompensation
 2306              		.section	.text.ADC_DelSig_1_SetDSMRef0Reg,"ax",%progbits
 2307              		.align	2
 2308              		.thumb
 2309              		.thumb_func
 2310              		.type	ADC_DelSig_1_SetDSMRef0Reg, %function
 2311              	ADC_DelSig_1_SetDSMRef0Reg:
 2312              	.LFB22:
1708:Generated_Source\PSoC5/ADC_DelSig_1.c **** 
1709:Generated_Source\PSoC5/ADC_DelSig_1.c **** 
1710:Generated_Source\PSoC5/ADC_DelSig_1.c **** /******************************************************************************
1711:Generated_Source\PSoC5/ADC_DelSig_1.c **** * Function Name: ADC_DelSig_1_SetDSMRef0Reg(uint8)
1712:Generated_Source\PSoC5/ADC_DelSig_1.c **** ******************************************************************************
1713:Generated_Source\PSoC5/ADC_DelSig_1.c **** *
1714:Generated_Source\PSoC5/ADC_DelSig_1.c **** * Summary:
1715:Generated_Source\PSoC5/ADC_DelSig_1.c **** *  This API sets the DSM_REF0 register. This is written for internal use.
1716:Generated_Source\PSoC5/ADC_DelSig_1.c **** *
1717:Generated_Source\PSoC5/ADC_DelSig_1.c **** * Parameters:
1718:Generated_Source\PSoC5/ADC_DelSig_1.c **** *  value:  Value to be written to DSM_REF0 register.
1719:Generated_Source\PSoC5/ADC_DelSig_1.c **** *
1720:Generated_Source\PSoC5/ADC_DelSig_1.c **** * Return:
1721:Generated_Source\PSoC5/ADC_DelSig_1.c **** *  None
1722:Generated_Source\PSoC5/ADC_DelSig_1.c **** *
1723:Generated_Source\PSoC5/ADC_DelSig_1.c **** ******************************************************************************/
1724:Generated_Source\PSoC5/ADC_DelSig_1.c **** static void ADC_DelSig_1_SetDSMRef0Reg(uint8 value) 
1725:Generated_Source\PSoC5/ADC_DelSig_1.c **** {
 2313              		.loc 1 1725 0
 2314              		.cfi_startproc
 2315              		@ args = 0, pretend = 0, frame = 16
 2316              		@ frame_needed = 1, uses_anonymous_args = 0
 2317 0000 80B5     		push	{r7, lr}
ARM GAS  C:\Users\Joe\AppData\Local\Temp\ccwCXT19.s 			page 72


 2318              		.cfi_def_cfa_offset 8
 2319              		.cfi_offset 7, -8
 2320              		.cfi_offset 14, -4
 2321 0002 84B0     		sub	sp, sp, #16
 2322              		.cfi_def_cfa_offset 24
 2323 0004 00AF     		add	r7, sp, #0
 2324              		.cfi_def_cfa_register 7
 2325 0006 0346     		mov	r3, r0
 2326 0008 FB71     		strb	r3, [r7, #7]
1726:Generated_Source\PSoC5/ADC_DelSig_1.c ****     uint8 enableInterrupts;
1727:Generated_Source\PSoC5/ADC_DelSig_1.c ****     enableInterrupts = CyEnterCriticalSection();
 2327              		.loc 1 1727 0
 2328 000a FFF7FEFF 		bl	CyEnterCriticalSection
 2329 000e 0346     		mov	r3, r0
 2330 0010 FB73     		strb	r3, [r7, #15]
1728:Generated_Source\PSoC5/ADC_DelSig_1.c **** 
1729:Generated_Source\PSoC5/ADC_DelSig_1.c ****     /* Disable PRES, Enable power to VCMBUF0, REFBUF0 and REFBUF1, enable PRES */
1730:Generated_Source\PSoC5/ADC_DelSig_1.c ****     ADC_DelSig_1_RESET_CR4_REG |= (ADC_DelSig_1_IGNORE_PRESA1 | ADC_DelSig_1_IGNORE_PRESD1);
 2331              		.loc 1 1730 0
 2332 0012 174A     		ldr	r2, .L137
 2333 0014 164B     		ldr	r3, .L137
 2334 0016 1B78     		ldrb	r3, [r3]
 2335 0018 DBB2     		uxtb	r3, r3
 2336 001a 43F00303 		orr	r3, r3, #3
 2337 001e DBB2     		uxtb	r3, r3
 2338 0020 1370     		strb	r3, [r2]
1731:Generated_Source\PSoC5/ADC_DelSig_1.c ****     ADC_DelSig_1_RESET_CR5_REG |= (ADC_DelSig_1_IGNORE_PRESA2 | ADC_DelSig_1_IGNORE_PRESD2);
 2339              		.loc 1 1731 0
 2340 0022 144A     		ldr	r2, .L137+4
 2341 0024 134B     		ldr	r3, .L137+4
 2342 0026 1B78     		ldrb	r3, [r3]
 2343 0028 DBB2     		uxtb	r3, r3
 2344 002a 43F00303 		orr	r3, r3, #3
 2345 002e DBB2     		uxtb	r3, r3
 2346 0030 1370     		strb	r3, [r2]
1732:Generated_Source\PSoC5/ADC_DelSig_1.c ****     ADC_DelSig_1_DSM_REF0_REG = value;
 2347              		.loc 1 1732 0
 2348 0032 114A     		ldr	r2, .L137+8
 2349 0034 FB79     		ldrb	r3, [r7, #7]
 2350 0036 1370     		strb	r3, [r2]
1733:Generated_Source\PSoC5/ADC_DelSig_1.c **** 
1734:Generated_Source\PSoC5/ADC_DelSig_1.c ****     /* Wait for 3 microseconds */
1735:Generated_Source\PSoC5/ADC_DelSig_1.c ****     CyDelayUs(ADC_DelSig_1_PRES_DELAY_TIME);
 2351              		.loc 1 1735 0
 2352 0038 0320     		movs	r0, #3
 2353 003a FFF7FEFF 		bl	CyDelayUs
1736:Generated_Source\PSoC5/ADC_DelSig_1.c ****     /* Enable the press circuit */
1737:Generated_Source\PSoC5/ADC_DelSig_1.c ****     ADC_DelSig_1_RESET_CR4_REG &= (uint8)~(ADC_DelSig_1_IGNORE_PRESA1 | ADC_DelSig_1_IGNORE_PRESD1)
 2354              		.loc 1 1737 0
 2355 003e 0C4A     		ldr	r2, .L137
 2356 0040 0B4B     		ldr	r3, .L137
 2357 0042 1B78     		ldrb	r3, [r3]
 2358 0044 DBB2     		uxtb	r3, r3
 2359 0046 23F00303 		bic	r3, r3, #3
 2360 004a DBB2     		uxtb	r3, r3
 2361 004c 1370     		strb	r3, [r2]
1738:Generated_Source\PSoC5/ADC_DelSig_1.c ****     ADC_DelSig_1_RESET_CR5_REG &= (uint8)~(ADC_DelSig_1_IGNORE_PRESA2 | ADC_DelSig_1_IGNORE_PRESD2)
ARM GAS  C:\Users\Joe\AppData\Local\Temp\ccwCXT19.s 			page 73


 2362              		.loc 1 1738 0
 2363 004e 094A     		ldr	r2, .L137+4
 2364 0050 084B     		ldr	r3, .L137+4
 2365 0052 1B78     		ldrb	r3, [r3]
 2366 0054 DBB2     		uxtb	r3, r3
 2367 0056 23F00303 		bic	r3, r3, #3
 2368 005a DBB2     		uxtb	r3, r3
 2369 005c 1370     		strb	r3, [r2]
1739:Generated_Source\PSoC5/ADC_DelSig_1.c **** 
1740:Generated_Source\PSoC5/ADC_DelSig_1.c ****     CyExitCriticalSection(enableInterrupts);
 2370              		.loc 1 1740 0
 2371 005e FB7B     		ldrb	r3, [r7, #15]	@ zero_extendqisi2
 2372 0060 1846     		mov	r0, r3
 2373 0062 FFF7FEFF 		bl	CyExitCriticalSection
1741:Generated_Source\PSoC5/ADC_DelSig_1.c **** }
 2374              		.loc 1 1741 0
 2375 0066 00BF     		nop
 2376 0068 1037     		adds	r7, r7, #16
 2377              		.cfi_def_cfa_offset 8
 2378 006a BD46     		mov	sp, r7
 2379              		.cfi_def_cfa_register 13
 2380              		@ sp needed
 2381 006c 80BD     		pop	{r7, pc}
 2382              	.L138:
 2383 006e 00BF     		.align	2
 2384              	.L137:
 2385 0070 F8460040 		.word	1073759992
 2386 0074 F9460040 		.word	1073759993
 2387 0078 92580040 		.word	1073764498
 2388              		.cfi_endproc
 2389              	.LFE22:
 2390              		.size	ADC_DelSig_1_SetDSMRef0Reg, .-ADC_DelSig_1_SetDSMRef0Reg
 2391              		.section	.text.ADC_DelSig_1_Read8,"ax",%progbits
 2392              		.align	2
 2393              		.global	ADC_DelSig_1_Read8
 2394              		.thumb
 2395              		.thumb_func
 2396              		.type	ADC_DelSig_1_Read8, %function
 2397              	ADC_DelSig_1_Read8:
 2398              	.LFB23:
1742:Generated_Source\PSoC5/ADC_DelSig_1.c **** 
1743:Generated_Source\PSoC5/ADC_DelSig_1.c **** 
1744:Generated_Source\PSoC5/ADC_DelSig_1.c **** /*******************************************************************************
1745:Generated_Source\PSoC5/ADC_DelSig_1.c **** * Function Name: ADC_DelSig_1_Read8
1746:Generated_Source\PSoC5/ADC_DelSig_1.c **** ********************************************************************************
1747:Generated_Source\PSoC5/ADC_DelSig_1.c **** *
1748:Generated_Source\PSoC5/ADC_DelSig_1.c **** * Summary:
1749:Generated_Source\PSoC5/ADC_DelSig_1.c **** *  This function simplifies getting results from the ADC when only a
1750:Generated_Source\PSoC5/ADC_DelSig_1.c **** *  single reading is required. When called, it will start ADC
1751:Generated_Source\PSoC5/ADC_DelSig_1.c **** *  conversions, wait for the conversion to be complete, stop ADC
1752:Generated_Source\PSoC5/ADC_DelSig_1.c **** *  conversion and return the result. This is a blocking function and will
1753:Generated_Source\PSoC5/ADC_DelSig_1.c **** *  not return until the result is ready.
1754:Generated_Source\PSoC5/ADC_DelSig_1.c **** *
1755:Generated_Source\PSoC5/ADC_DelSig_1.c **** * Parameters:
1756:Generated_Source\PSoC5/ADC_DelSig_1.c **** *  None
1757:Generated_Source\PSoC5/ADC_DelSig_1.c **** *
1758:Generated_Source\PSoC5/ADC_DelSig_1.c **** * Return:
ARM GAS  C:\Users\Joe\AppData\Local\Temp\ccwCXT19.s 			page 74


1759:Generated_Source\PSoC5/ADC_DelSig_1.c **** *  int8:  ADC result.
1760:Generated_Source\PSoC5/ADC_DelSig_1.c **** *
1761:Generated_Source\PSoC5/ADC_DelSig_1.c **** *******************************************************************************/
1762:Generated_Source\PSoC5/ADC_DelSig_1.c **** int8 ADC_DelSig_1_Read8(void) 
1763:Generated_Source\PSoC5/ADC_DelSig_1.c **** {
 2399              		.loc 1 1763 0
 2400              		.cfi_startproc
 2401              		@ args = 0, pretend = 0, frame = 8
 2402              		@ frame_needed = 1, uses_anonymous_args = 0
 2403 0000 80B5     		push	{r7, lr}
 2404              		.cfi_def_cfa_offset 8
 2405              		.cfi_offset 7, -8
 2406              		.cfi_offset 14, -4
 2407 0002 82B0     		sub	sp, sp, #8
 2408              		.cfi_def_cfa_offset 16
 2409 0004 00AF     		add	r7, sp, #0
 2410              		.cfi_def_cfa_register 7
1764:Generated_Source\PSoC5/ADC_DelSig_1.c ****     int8 result;
1765:Generated_Source\PSoC5/ADC_DelSig_1.c **** 
1766:Generated_Source\PSoC5/ADC_DelSig_1.c ****     /* Clear pending conversion done status */
1767:Generated_Source\PSoC5/ADC_DelSig_1.c ****     ADC_DelSig_1_DEC_SR_REG |= ADC_DelSig_1_DEC_INTR_CLEAR;
 2411              		.loc 1 1767 0
 2412 0006 0C4A     		ldr	r2, .L141
 2413 0008 0B4B     		ldr	r3, .L141
 2414 000a 1B78     		ldrb	r3, [r3]
 2415 000c DBB2     		uxtb	r3, r3
 2416 000e 43F00403 		orr	r3, r3, #4
 2417 0012 DBB2     		uxtb	r3, r3
 2418 0014 1370     		strb	r3, [r2]
1768:Generated_Source\PSoC5/ADC_DelSig_1.c ****     ADC_DelSig_1_StartConvert();
 2419              		.loc 1 1768 0
 2420 0016 FFF7FEFF 		bl	ADC_DelSig_1_StartConvert
1769:Generated_Source\PSoC5/ADC_DelSig_1.c ****     (void)ADC_DelSig_1_IsEndConversion(ADC_DelSig_1_WAIT_FOR_RESULT);
 2421              		.loc 1 1769 0
 2422 001a 0020     		movs	r0, #0
 2423 001c FFF7FEFF 		bl	ADC_DelSig_1_IsEndConversion
1770:Generated_Source\PSoC5/ADC_DelSig_1.c ****      result = ADC_DelSig_1_GetResult8();
 2424              		.loc 1 1770 0
 2425 0020 FFF7FEFF 		bl	ADC_DelSig_1_GetResult8
 2426 0024 0346     		mov	r3, r0
 2427 0026 FB71     		strb	r3, [r7, #7]
1771:Generated_Source\PSoC5/ADC_DelSig_1.c ****     ADC_DelSig_1_StopConvert();
 2428              		.loc 1 1771 0
 2429 0028 FFF7FEFF 		bl	ADC_DelSig_1_StopConvert
1772:Generated_Source\PSoC5/ADC_DelSig_1.c ****     
1773:Generated_Source\PSoC5/ADC_DelSig_1.c ****      return(result);
 2430              		.loc 1 1773 0
 2431 002c 97F90730 		ldrsb	r3, [r7, #7]
1774:Generated_Source\PSoC5/ADC_DelSig_1.c **** }
 2432              		.loc 1 1774 0
 2433 0030 1846     		mov	r0, r3
 2434 0032 0837     		adds	r7, r7, #8
 2435              		.cfi_def_cfa_offset 8
 2436 0034 BD46     		mov	sp, r7
 2437              		.cfi_def_cfa_register 13
 2438              		@ sp needed
 2439 0036 80BD     		pop	{r7, pc}
ARM GAS  C:\Users\Joe\AppData\Local\Temp\ccwCXT19.s 			page 75


 2440              	.L142:
 2441              		.align	2
 2442              	.L141:
 2443 0038 014E0040 		.word	1073761793
 2444              		.cfi_endproc
 2445              	.LFE23:
 2446              		.size	ADC_DelSig_1_Read8, .-ADC_DelSig_1_Read8
 2447              		.section	.text.ADC_DelSig_1_Read16,"ax",%progbits
 2448              		.align	2
 2449              		.global	ADC_DelSig_1_Read16
 2450              		.thumb
 2451              		.thumb_func
 2452              		.type	ADC_DelSig_1_Read16, %function
 2453              	ADC_DelSig_1_Read16:
 2454              	.LFB24:
1775:Generated_Source\PSoC5/ADC_DelSig_1.c **** 
1776:Generated_Source\PSoC5/ADC_DelSig_1.c **** 
1777:Generated_Source\PSoC5/ADC_DelSig_1.c **** /*******************************************************************************
1778:Generated_Source\PSoC5/ADC_DelSig_1.c **** * Function Name: ADC_DelSig_1_Read16
1779:Generated_Source\PSoC5/ADC_DelSig_1.c **** ********************************************************************************
1780:Generated_Source\PSoC5/ADC_DelSig_1.c **** *
1781:Generated_Source\PSoC5/ADC_DelSig_1.c **** * Summary:
1782:Generated_Source\PSoC5/ADC_DelSig_1.c **** *  This function simplifies getting results from the ADC when only a
1783:Generated_Source\PSoC5/ADC_DelSig_1.c **** *  single reading is required. When called, it will start ADC
1784:Generated_Source\PSoC5/ADC_DelSig_1.c **** *  conversions, wait for the conversion to be complete, stop ADC
1785:Generated_Source\PSoC5/ADC_DelSig_1.c **** *  conversion and return the result. This is a blocking function and will
1786:Generated_Source\PSoC5/ADC_DelSig_1.c **** *  not return until the result is ready.
1787:Generated_Source\PSoC5/ADC_DelSig_1.c **** *
1788:Generated_Source\PSoC5/ADC_DelSig_1.c **** * Parameters:
1789:Generated_Source\PSoC5/ADC_DelSig_1.c **** *   void
1790:Generated_Source\PSoC5/ADC_DelSig_1.c **** *
1791:Generated_Source\PSoC5/ADC_DelSig_1.c **** * Return:
1792:Generated_Source\PSoC5/ADC_DelSig_1.c **** *  int16:  ADC result.
1793:Generated_Source\PSoC5/ADC_DelSig_1.c **** *
1794:Generated_Source\PSoC5/ADC_DelSig_1.c **** *******************************************************************************/
1795:Generated_Source\PSoC5/ADC_DelSig_1.c **** int16 ADC_DelSig_1_Read16(void) 
1796:Generated_Source\PSoC5/ADC_DelSig_1.c **** {
 2455              		.loc 1 1796 0
 2456              		.cfi_startproc
 2457              		@ args = 0, pretend = 0, frame = 8
 2458              		@ frame_needed = 1, uses_anonymous_args = 0
 2459 0000 80B5     		push	{r7, lr}
 2460              		.cfi_def_cfa_offset 8
 2461              		.cfi_offset 7, -8
 2462              		.cfi_offset 14, -4
 2463 0002 82B0     		sub	sp, sp, #8
 2464              		.cfi_def_cfa_offset 16
 2465 0004 00AF     		add	r7, sp, #0
 2466              		.cfi_def_cfa_register 7
1797:Generated_Source\PSoC5/ADC_DelSig_1.c ****     int16 result;
1798:Generated_Source\PSoC5/ADC_DelSig_1.c **** 
1799:Generated_Source\PSoC5/ADC_DelSig_1.c ****     /* Clear pending conversion done status */
1800:Generated_Source\PSoC5/ADC_DelSig_1.c ****     ADC_DelSig_1_DEC_SR_REG |= ADC_DelSig_1_DEC_INTR_CLEAR;
 2467              		.loc 1 1800 0
 2468 0006 0C4A     		ldr	r2, .L145
 2469 0008 0B4B     		ldr	r3, .L145
 2470 000a 1B78     		ldrb	r3, [r3]
ARM GAS  C:\Users\Joe\AppData\Local\Temp\ccwCXT19.s 			page 76


 2471 000c DBB2     		uxtb	r3, r3
 2472 000e 43F00403 		orr	r3, r3, #4
 2473 0012 DBB2     		uxtb	r3, r3
 2474 0014 1370     		strb	r3, [r2]
1801:Generated_Source\PSoC5/ADC_DelSig_1.c ****     ADC_DelSig_1_StartConvert();
 2475              		.loc 1 1801 0
 2476 0016 FFF7FEFF 		bl	ADC_DelSig_1_StartConvert
1802:Generated_Source\PSoC5/ADC_DelSig_1.c ****     (void)ADC_DelSig_1_IsEndConversion(ADC_DelSig_1_WAIT_FOR_RESULT);
 2477              		.loc 1 1802 0
 2478 001a 0020     		movs	r0, #0
 2479 001c FFF7FEFF 		bl	ADC_DelSig_1_IsEndConversion
1803:Generated_Source\PSoC5/ADC_DelSig_1.c ****      result = ADC_DelSig_1_GetResult16();
 2480              		.loc 1 1803 0
 2481 0020 FFF7FEFF 		bl	ADC_DelSig_1_GetResult16
 2482 0024 0346     		mov	r3, r0
 2483 0026 FB80     		strh	r3, [r7, #6]	@ movhi
1804:Generated_Source\PSoC5/ADC_DelSig_1.c ****     ADC_DelSig_1_StopConvert();
 2484              		.loc 1 1804 0
 2485 0028 FFF7FEFF 		bl	ADC_DelSig_1_StopConvert
1805:Generated_Source\PSoC5/ADC_DelSig_1.c ****     
1806:Generated_Source\PSoC5/ADC_DelSig_1.c ****      return(result);
 2486              		.loc 1 1806 0
 2487 002c B7F90630 		ldrsh	r3, [r7, #6]
1807:Generated_Source\PSoC5/ADC_DelSig_1.c **** }
 2488              		.loc 1 1807 0
 2489 0030 1846     		mov	r0, r3
 2490 0032 0837     		adds	r7, r7, #8
 2491              		.cfi_def_cfa_offset 8
 2492 0034 BD46     		mov	sp, r7
 2493              		.cfi_def_cfa_register 13
 2494              		@ sp needed
 2495 0036 80BD     		pop	{r7, pc}
 2496              	.L146:
 2497              		.align	2
 2498              	.L145:
 2499 0038 014E0040 		.word	1073761793
 2500              		.cfi_endproc
 2501              	.LFE24:
 2502              		.size	ADC_DelSig_1_Read16, .-ADC_DelSig_1_Read16
 2503              		.section	.text.ADC_DelSig_1_Read32,"ax",%progbits
 2504              		.align	2
 2505              		.global	ADC_DelSig_1_Read32
 2506              		.thumb
 2507              		.thumb_func
 2508              		.type	ADC_DelSig_1_Read32, %function
 2509              	ADC_DelSig_1_Read32:
 2510              	.LFB25:
1808:Generated_Source\PSoC5/ADC_DelSig_1.c **** 
1809:Generated_Source\PSoC5/ADC_DelSig_1.c **** 
1810:Generated_Source\PSoC5/ADC_DelSig_1.c **** /*******************************************************************************
1811:Generated_Source\PSoC5/ADC_DelSig_1.c **** * Function Name: ADC_DelSig_1_Read32
1812:Generated_Source\PSoC5/ADC_DelSig_1.c **** ********************************************************************************
1813:Generated_Source\PSoC5/ADC_DelSig_1.c **** *
1814:Generated_Source\PSoC5/ADC_DelSig_1.c **** * Summary:
1815:Generated_Source\PSoC5/ADC_DelSig_1.c **** *  This function simplifies getting results from the ADC when only a
1816:Generated_Source\PSoC5/ADC_DelSig_1.c **** *  single reading is required. When called, it will start ADC
1817:Generated_Source\PSoC5/ADC_DelSig_1.c **** *  conversions, wait for the conversion to be complete, stop ADC
ARM GAS  C:\Users\Joe\AppData\Local\Temp\ccwCXT19.s 			page 77


1818:Generated_Source\PSoC5/ADC_DelSig_1.c **** *  conversion and return the result. This is a blocking function and will
1819:Generated_Source\PSoC5/ADC_DelSig_1.c **** *  not return until the result is ready.
1820:Generated_Source\PSoC5/ADC_DelSig_1.c **** *
1821:Generated_Source\PSoC5/ADC_DelSig_1.c **** * Parameters:
1822:Generated_Source\PSoC5/ADC_DelSig_1.c **** *  None
1823:Generated_Source\PSoC5/ADC_DelSig_1.c **** *
1824:Generated_Source\PSoC5/ADC_DelSig_1.c **** * Return:
1825:Generated_Source\PSoC5/ADC_DelSig_1.c **** *  int32: ADC result.
1826:Generated_Source\PSoC5/ADC_DelSig_1.c **** *
1827:Generated_Source\PSoC5/ADC_DelSig_1.c **** *******************************************************************************/
1828:Generated_Source\PSoC5/ADC_DelSig_1.c **** int32 ADC_DelSig_1_Read32(void) 
1829:Generated_Source\PSoC5/ADC_DelSig_1.c **** {
 2511              		.loc 1 1829 0
 2512              		.cfi_startproc
 2513              		@ args = 0, pretend = 0, frame = 8
 2514              		@ frame_needed = 1, uses_anonymous_args = 0
 2515 0000 80B5     		push	{r7, lr}
 2516              		.cfi_def_cfa_offset 8
 2517              		.cfi_offset 7, -8
 2518              		.cfi_offset 14, -4
 2519 0002 82B0     		sub	sp, sp, #8
 2520              		.cfi_def_cfa_offset 16
 2521 0004 00AF     		add	r7, sp, #0
 2522              		.cfi_def_cfa_register 7
1830:Generated_Source\PSoC5/ADC_DelSig_1.c ****     int32 result;
1831:Generated_Source\PSoC5/ADC_DelSig_1.c ****     
1832:Generated_Source\PSoC5/ADC_DelSig_1.c ****     /* Clear pending conversion done status */
1833:Generated_Source\PSoC5/ADC_DelSig_1.c ****     ADC_DelSig_1_DEC_SR_REG |= ADC_DelSig_1_DEC_INTR_CLEAR;
 2523              		.loc 1 1833 0
 2524 0006 0B4A     		ldr	r2, .L149
 2525 0008 0A4B     		ldr	r3, .L149
 2526 000a 1B78     		ldrb	r3, [r3]
 2527 000c DBB2     		uxtb	r3, r3
 2528 000e 43F00403 		orr	r3, r3, #4
 2529 0012 DBB2     		uxtb	r3, r3
 2530 0014 1370     		strb	r3, [r2]
1834:Generated_Source\PSoC5/ADC_DelSig_1.c ****     ADC_DelSig_1_StartConvert();
 2531              		.loc 1 1834 0
 2532 0016 FFF7FEFF 		bl	ADC_DelSig_1_StartConvert
1835:Generated_Source\PSoC5/ADC_DelSig_1.c ****     (void)ADC_DelSig_1_IsEndConversion(ADC_DelSig_1_WAIT_FOR_RESULT);
 2533              		.loc 1 1835 0
 2534 001a 0020     		movs	r0, #0
 2535 001c FFF7FEFF 		bl	ADC_DelSig_1_IsEndConversion
1836:Generated_Source\PSoC5/ADC_DelSig_1.c ****      result = ADC_DelSig_1_GetResult32();
 2536              		.loc 1 1836 0
 2537 0020 FFF7FEFF 		bl	ADC_DelSig_1_GetResult32
 2538 0024 7860     		str	r0, [r7, #4]
1837:Generated_Source\PSoC5/ADC_DelSig_1.c ****     ADC_DelSig_1_StopConvert();
 2539              		.loc 1 1837 0
 2540 0026 FFF7FEFF 		bl	ADC_DelSig_1_StopConvert
1838:Generated_Source\PSoC5/ADC_DelSig_1.c ****     
1839:Generated_Source\PSoC5/ADC_DelSig_1.c ****      return(result);
 2541              		.loc 1 1839 0
 2542 002a 7B68     		ldr	r3, [r7, #4]
1840:Generated_Source\PSoC5/ADC_DelSig_1.c **** }
 2543              		.loc 1 1840 0
 2544 002c 1846     		mov	r0, r3
ARM GAS  C:\Users\Joe\AppData\Local\Temp\ccwCXT19.s 			page 78


 2545 002e 0837     		adds	r7, r7, #8
 2546              		.cfi_def_cfa_offset 8
 2547 0030 BD46     		mov	sp, r7
 2548              		.cfi_def_cfa_register 13
 2549              		@ sp needed
 2550 0032 80BD     		pop	{r7, pc}
 2551              	.L150:
 2552              		.align	2
 2553              	.L149:
 2554 0034 014E0040 		.word	1073761793
 2555              		.cfi_endproc
 2556              	.LFE25:
 2557              		.size	ADC_DelSig_1_Read32, .-ADC_DelSig_1_Read32
 2558              		.text
 2559              	.Letext0:
 2560              		.file 2 "Generated_Source\\PSoC5\\cytypes.h"
 2561              		.file 3 "Generated_Source\\PSoC5\\ADC_DelSig_1.h"
 2562              		.section	.debug_info,"",%progbits
 2563              	.Ldebug_info0:
 2564 0000 28070000 		.4byte	0x728
 2565 0004 0400     		.2byte	0x4
 2566 0006 00000000 		.4byte	.Ldebug_abbrev0
 2567 000a 04       		.byte	0x4
 2568 000b 01       		.uleb128 0x1
 2569 000c 54000000 		.4byte	.LASF90
 2570 0010 0C       		.byte	0xc
 2571 0011 E1040000 		.4byte	.LASF91
 2572 0015 B6010000 		.4byte	.LASF92
 2573 0019 00000000 		.4byte	.Ldebug_ranges0+0
 2574 001d 00000000 		.4byte	0
 2575 0021 00000000 		.4byte	.Ldebug_line0
 2576 0025 02       		.uleb128 0x2
 2577 0026 01       		.byte	0x1
 2578 0027 06       		.byte	0x6
 2579 0028 59010000 		.4byte	.LASF0
 2580 002c 02       		.uleb128 0x2
 2581 002d 01       		.byte	0x1
 2582 002e 08       		.byte	0x8
 2583 002f 75030000 		.4byte	.LASF1
 2584 0033 02       		.uleb128 0x2
 2585 0034 02       		.byte	0x2
 2586 0035 05       		.byte	0x5
 2587 0036 9A030000 		.4byte	.LASF2
 2588 003a 02       		.uleb128 0x2
 2589 003b 02       		.byte	0x2
 2590 003c 07       		.byte	0x7
 2591 003d 36020000 		.4byte	.LASF3
 2592 0041 02       		.uleb128 0x2
 2593 0042 04       		.byte	0x4
 2594 0043 05       		.byte	0x5
 2595 0044 7F010000 		.4byte	.LASF4
 2596 0048 02       		.uleb128 0x2
 2597 0049 04       		.byte	0x4
 2598 004a 07       		.byte	0x7
 2599 004b 0F020000 		.4byte	.LASF5
 2600 004f 02       		.uleb128 0x2
 2601 0050 08       		.byte	0x8
ARM GAS  C:\Users\Joe\AppData\Local\Temp\ccwCXT19.s 			page 79


 2602 0051 05       		.byte	0x5
 2603 0052 4B010000 		.4byte	.LASF6
 2604 0056 02       		.uleb128 0x2
 2605 0057 08       		.byte	0x8
 2606 0058 07       		.byte	0x7
 2607 0059 E2000000 		.4byte	.LASF7
 2608 005d 03       		.uleb128 0x3
 2609 005e 04       		.byte	0x4
 2610 005f 05       		.byte	0x5
 2611 0060 696E7400 		.ascii	"int\000"
 2612 0064 02       		.uleb128 0x2
 2613 0065 04       		.byte	0x4
 2614 0066 07       		.byte	0x7
 2615 0067 E6010000 		.4byte	.LASF8
 2616 006b 04       		.uleb128 0x4
 2617 006c 8E010000 		.4byte	.LASF9
 2618 0070 02       		.byte	0x2
 2619 0071 9201     		.2byte	0x192
 2620 0073 2C000000 		.4byte	0x2c
 2621 0077 04       		.uleb128 0x4
 2622 0078 00000000 		.4byte	.LASF10
 2623 007c 02       		.byte	0x2
 2624 007d 9301     		.2byte	0x193
 2625 007f 3A000000 		.4byte	0x3a
 2626 0083 04       		.uleb128 0x4
 2627 0084 A1010000 		.4byte	.LASF11
 2628 0088 02       		.byte	0x2
 2629 0089 9401     		.2byte	0x194
 2630 008b 48000000 		.4byte	0x48
 2631 008f 04       		.uleb128 0x4
 2632 0090 49020000 		.4byte	.LASF12
 2633 0094 02       		.byte	0x2
 2634 0095 9501     		.2byte	0x195
 2635 0097 25000000 		.4byte	0x25
 2636 009b 04       		.uleb128 0x4
 2637 009c 2C050000 		.4byte	.LASF13
 2638 00a0 02       		.byte	0x2
 2639 00a1 9601     		.2byte	0x196
 2640 00a3 33000000 		.4byte	0x33
 2641 00a7 04       		.uleb128 0x4
 2642 00a8 65010000 		.4byte	.LASF14
 2643 00ac 02       		.byte	0x2
 2644 00ad 9701     		.2byte	0x197
 2645 00af 41000000 		.4byte	0x41
 2646 00b3 04       		.uleb128 0x4
 2647 00b4 87020000 		.4byte	.LASF15
 2648 00b8 02       		.byte	0x2
 2649 00b9 9801     		.2byte	0x198
 2650 00bb BF000000 		.4byte	0xbf
 2651 00bf 02       		.uleb128 0x2
 2652 00c0 04       		.byte	0x4
 2653 00c1 04       		.byte	0x4
 2654 00c2 3E030000 		.4byte	.LASF16
 2655 00c6 02       		.uleb128 0x2
 2656 00c7 08       		.byte	0x8
 2657 00c8 04       		.byte	0x4
 2658 00c9 94010000 		.4byte	.LASF17
ARM GAS  C:\Users\Joe\AppData\Local\Temp\ccwCXT19.s 			page 80


 2659 00cd 02       		.uleb128 0x2
 2660 00ce 01       		.byte	0x1
 2661 00cf 08       		.byte	0x8
 2662 00d0 F6030000 		.4byte	.LASF18
 2663 00d4 04       		.uleb128 0x4
 2664 00d5 58030000 		.4byte	.LASF19
 2665 00d9 02       		.byte	0x2
 2666 00da 3C02     		.2byte	0x23c
 2667 00dc E0000000 		.4byte	0xe0
 2668 00e0 05       		.uleb128 0x5
 2669 00e1 6B000000 		.4byte	0x6b
 2670 00e5 04       		.uleb128 0x4
 2671 00e6 88010000 		.4byte	.LASF20
 2672 00ea 02       		.byte	0x2
 2673 00eb 3D02     		.2byte	0x23d
 2674 00ed F1000000 		.4byte	0xf1
 2675 00f1 05       		.uleb128 0x5
 2676 00f2 77000000 		.4byte	0x77
 2677 00f6 04       		.uleb128 0x4
 2678 00f7 65020000 		.4byte	.LASF21
 2679 00fb 02       		.byte	0x2
 2680 00fc 3E02     		.2byte	0x23e
 2681 00fe 02010000 		.4byte	0x102
 2682 0102 05       		.uleb128 0x5
 2683 0103 83000000 		.4byte	0x83
 2684 0107 02       		.uleb128 0x2
 2685 0108 08       		.byte	0x8
 2686 0109 04       		.byte	0x4
 2687 010a C7020000 		.4byte	.LASF22
 2688 010e 02       		.uleb128 0x2
 2689 010f 04       		.byte	0x4
 2690 0110 07       		.byte	0x7
 2691 0111 A8020000 		.4byte	.LASF23
 2692 0115 06       		.uleb128 0x6
 2693 0116 04       		.byte	0x4
 2694 0117 03       		.byte	0x3
 2695 0118 2F       		.byte	0x2f
 2696 0119 36010000 		.4byte	0x136
 2697 011d 07       		.uleb128 0x7
 2698 011e 4F000000 		.4byte	.LASF24
 2699 0122 03       		.byte	0x3
 2700 0123 31       		.byte	0x31
 2701 0124 77000000 		.4byte	0x77
 2702 0128 00       		.byte	0
 2703 0129 07       		.uleb128 0x7
 2704 012a 37040000 		.4byte	.LASF25
 2705 012e 03       		.byte	0x3
 2706 012f 32       		.byte	0x32
 2707 0130 6B000000 		.4byte	0x6b
 2708 0134 02       		.byte	0x2
 2709 0135 00       		.byte	0
 2710 0136 08       		.uleb128 0x8
 2711 0137 25030000 		.4byte	.LASF26
 2712 013b 03       		.byte	0x3
 2713 013c 33       		.byte	0x33
 2714 013d 15010000 		.4byte	0x115
 2715 0141 09       		.uleb128 0x9
ARM GAS  C:\Users\Joe\AppData\Local\Temp\ccwCXT19.s 			page 81


 2716 0142 D3020000 		.4byte	.LASF29
 2717 0146 01       		.byte	0x1
 2718 0147 5B       		.byte	0x5b
 2719 0148 00000000 		.4byte	.LFB0
 2720 014c 1C010000 		.4byte	.LFE0-.LFB0
 2721 0150 01       		.uleb128 0x1
 2722 0151 9C       		.byte	0x9c
 2723 0152 0A       		.uleb128 0xa
 2724 0153 0F000000 		.4byte	.LASF31
 2725 0157 01       		.byte	0x1
 2726 0158 B8       		.byte	0xb8
 2727 0159 00000000 		.4byte	.LFB1
 2728 015d 58010000 		.4byte	.LFE1-.LFB1
 2729 0161 01       		.uleb128 0x1
 2730 0162 9C       		.byte	0x9c
 2731 0163 84010000 		.4byte	0x184
 2732 0167 0B       		.uleb128 0xb
 2733 0168 30040000 		.4byte	.LASF27
 2734 016c 01       		.byte	0x1
 2735 016d BA       		.byte	0xba
 2736 016e 6B000000 		.4byte	0x6b
 2737 0172 02       		.uleb128 0x2
 2738 0173 91       		.byte	0x91
 2739 0174 76       		.sleb128 -10
 2740 0175 0B       		.uleb128 0xb
 2741 0176 97040000 		.4byte	.LASF28
 2742 017a 01       		.byte	0x1
 2743 017b BB       		.byte	0xbb
 2744 017c 6B000000 		.4byte	0x6b
 2745 0180 02       		.uleb128 0x2
 2746 0181 91       		.byte	0x91
 2747 0182 77       		.sleb128 -9
 2748 0183 00       		.byte	0
 2749 0184 0C       		.uleb128 0xc
 2750 0185 19050000 		.4byte	.LASF30
 2751 0189 01       		.byte	0x1
 2752 018a 4901     		.2byte	0x149
 2753 018c 00000000 		.4byte	.LFB2
 2754 0190 30000000 		.4byte	.LFE2-.LFB2
 2755 0194 01       		.uleb128 0x1
 2756 0195 9C       		.byte	0x9c
 2757 0196 0D       		.uleb128 0xd
 2758 0197 F9000000 		.4byte	.LASF32
 2759 019b 01       		.byte	0x1
 2760 019c 6A01     		.2byte	0x16a
 2761 019e 00000000 		.4byte	.LFB3
 2762 01a2 7C010000 		.4byte	.LFE3-.LFB3
 2763 01a6 01       		.uleb128 0x1
 2764 01a7 9C       		.byte	0x9c
 2765 01a8 BC010000 		.4byte	0x1bc
 2766 01ac 0E       		.uleb128 0xe
 2767 01ad 97040000 		.4byte	.LASF28
 2768 01b1 01       		.byte	0x1
 2769 01b2 6C01     		.2byte	0x16c
 2770 01b4 6B000000 		.4byte	0x6b
 2771 01b8 02       		.uleb128 0x2
 2772 01b9 91       		.byte	0x91
ARM GAS  C:\Users\Joe\AppData\Local\Temp\ccwCXT19.s 			page 82


 2773 01ba 77       		.sleb128 -9
 2774 01bb 00       		.byte	0
 2775 01bc 0F       		.uleb128 0xf
 2776 01bd 91050000 		.4byte	.LASF33
 2777 01c1 01       		.byte	0x1
 2778 01c2 AD01     		.2byte	0x1ad
 2779 01c4 00000000 		.4byte	.LFB4
 2780 01c8 3C000000 		.4byte	.LFE4-.LFB4
 2781 01cc 01       		.uleb128 0x1
 2782 01cd 9C       		.byte	0x9c
 2783 01ce F1010000 		.4byte	0x1f1
 2784 01d2 10       		.uleb128 0x10
 2785 01d3 02030000 		.4byte	.LASF36
 2786 01d7 01       		.byte	0x1
 2787 01d8 AD01     		.2byte	0x1ad
 2788 01da 6B000000 		.4byte	0x6b
 2789 01de 02       		.uleb128 0x2
 2790 01df 91       		.byte	0x91
 2791 01e0 6F       		.sleb128 -17
 2792 01e1 0E       		.uleb128 0xe
 2793 01e2 AC050000 		.4byte	.LASF34
 2794 01e6 01       		.byte	0x1
 2795 01e7 AF01     		.2byte	0x1af
 2796 01e9 6B000000 		.4byte	0x6b
 2797 01ed 02       		.uleb128 0x2
 2798 01ee 91       		.byte	0x91
 2799 01ef 77       		.sleb128 -9
 2800 01f0 00       		.byte	0
 2801 01f1 0F       		.uleb128 0xf
 2802 01f2 FB030000 		.4byte	.LASF35
 2803 01f6 01       		.byte	0x1
 2804 01f7 D101     		.2byte	0x1d1
 2805 01f9 00000000 		.4byte	.LFB5
 2806 01fd 38000000 		.4byte	.LFE5-.LFB5
 2807 0201 01       		.uleb128 0x1
 2808 0202 9C       		.byte	0x9c
 2809 0203 26020000 		.4byte	0x226
 2810 0207 10       		.uleb128 0x10
 2811 0208 1B030000 		.4byte	.LASF37
 2812 020c 01       		.byte	0x1
 2813 020d D101     		.2byte	0x1d1
 2814 020f 6B000000 		.4byte	0x6b
 2815 0213 02       		.uleb128 0x2
 2816 0214 91       		.byte	0x91
 2817 0215 6F       		.sleb128 -17
 2818 0216 0E       		.uleb128 0xe
 2819 0217 AC050000 		.4byte	.LASF34
 2820 021b 01       		.byte	0x1
 2821 021c D301     		.2byte	0x1d3
 2822 021e 6B000000 		.4byte	0x6b
 2823 0222 02       		.uleb128 0x2
 2824 0223 91       		.byte	0x91
 2825 0224 77       		.sleb128 -9
 2826 0225 00       		.byte	0
 2827 0226 11       		.uleb128 0x11
 2828 0227 C5040000 		.4byte	.LASF41
 2829 022b 01       		.byte	0x1
ARM GAS  C:\Users\Joe\AppData\Local\Temp\ccwCXT19.s 			page 83


 2830 022c F901     		.2byte	0x1f9
 2831 022e 6B000000 		.4byte	0x6b
 2832 0232 00000000 		.4byte	.LFB6
 2833 0236 AC000000 		.4byte	.LFE6-.LFB6
 2834 023a 01       		.uleb128 0x1
 2835 023b 9C       		.byte	0x9c
 2836 023c 7D020000 		.4byte	0x27d
 2837 0240 10       		.uleb128 0x10
 2838 0241 0E050000 		.4byte	.LASF38
 2839 0245 01       		.byte	0x1
 2840 0246 F901     		.2byte	0x1f9
 2841 0248 B3000000 		.4byte	0xb3
 2842 024c 02       		.uleb128 0x2
 2843 024d 91       		.byte	0x91
 2844 024e 6C       		.sleb128 -20
 2845 024f 0E       		.uleb128 0xe
 2846 0250 AC050000 		.4byte	.LASF34
 2847 0254 01       		.byte	0x1
 2848 0255 FB01     		.2byte	0x1fb
 2849 0257 77000000 		.4byte	0x77
 2850 025b 02       		.uleb128 0x2
 2851 025c 91       		.byte	0x91
 2852 025d 74       		.sleb128 -12
 2853 025e 0E       		.uleb128 0xe
 2854 025f 07050000 		.4byte	.LASF39
 2855 0263 01       		.byte	0x1
 2856 0264 FC01     		.2byte	0x1fc
 2857 0266 6B000000 		.4byte	0x6b
 2858 026a 02       		.uleb128 0x2
 2859 026b 91       		.byte	0x91
 2860 026c 77       		.sleb128 -9
 2861 026d 0E       		.uleb128 0xe
 2862 026e 44040000 		.4byte	.LASF40
 2863 0272 01       		.byte	0x1
 2864 0273 FD01     		.2byte	0x1fd
 2865 0275 B3000000 		.4byte	0xb3
 2866 0279 02       		.uleb128 0x2
 2867 027a 91       		.byte	0x91
 2868 027b 70       		.sleb128 -16
 2869 027c 00       		.byte	0
 2870 027d 12       		.uleb128 0x12
 2871 027e E9050000 		.4byte	.LASF42
 2872 0282 01       		.byte	0x1
 2873 0283 2802     		.2byte	0x228
 2874 0285 77000000 		.4byte	0x77
 2875 0289 00000000 		.4byte	.LFB7
 2876 028d 3C000000 		.4byte	.LFE7-.LFB7
 2877 0291 01       		.uleb128 0x1
 2878 0292 9C       		.byte	0x9c
 2879 0293 B6020000 		.4byte	0x2b6
 2880 0297 0E       		.uleb128 0xe
 2881 0298 DA040000 		.4byte	.LASF43
 2882 029c 01       		.byte	0x1
 2883 029d 2A02     		.2byte	0x22a
 2884 029f 6B000000 		.4byte	0x6b
 2885 02a3 02       		.uleb128 0x2
 2886 02a4 91       		.byte	0x91
ARM GAS  C:\Users\Joe\AppData\Local\Temp\ccwCXT19.s 			page 84


 2887 02a5 75       		.sleb128 -11
 2888 02a6 0E       		.uleb128 0xe
 2889 02a7 4E020000 		.4byte	.LASF44
 2890 02ab 01       		.byte	0x1
 2891 02ac 2B02     		.2byte	0x22b
 2892 02ae 77000000 		.4byte	0x77
 2893 02b2 02       		.uleb128 0x2
 2894 02b3 91       		.byte	0x91
 2895 02b4 76       		.sleb128 -10
 2896 02b5 00       		.byte	0
 2897 02b6 13       		.uleb128 0x13
 2898 02b7 AC030000 		.4byte	.LASF45
 2899 02bb 01       		.byte	0x1
 2900 02bc 4A02     		.2byte	0x24a
 2901 02be 00000000 		.4byte	.LFB8
 2902 02c2 20000000 		.4byte	.LFE8-.LFB8
 2903 02c6 01       		.uleb128 0x1
 2904 02c7 9C       		.byte	0x9c
 2905 02c8 13       		.uleb128 0x13
 2906 02c9 32050000 		.4byte	.LASF46
 2907 02cd 01       		.byte	0x1
 2908 02ce 6102     		.2byte	0x261
 2909 02d0 00000000 		.4byte	.LFB9
 2910 02d4 20000000 		.4byte	.LFE9-.LFB9
 2911 02d8 01       		.uleb128 0x1
 2912 02d9 9C       		.byte	0x9c
 2913 02da 12       		.uleb128 0x12
 2914 02db A8040000 		.4byte	.LASF47
 2915 02df 01       		.byte	0x1
 2916 02e0 8402     		.2byte	0x284
 2917 02e2 6B000000 		.4byte	0x6b
 2918 02e6 00000000 		.4byte	.LFB10
 2919 02ea 4C000000 		.4byte	.LFE10-.LFB10
 2920 02ee 01       		.uleb128 0x1
 2921 02ef 9C       		.byte	0x9c
 2922 02f0 13030000 		.4byte	0x313
 2923 02f4 10       		.uleb128 0x10
 2924 02f5 AE010000 		.4byte	.LASF48
 2925 02f9 01       		.byte	0x1
 2926 02fa 8402     		.2byte	0x284
 2927 02fc 6B000000 		.4byte	0x6b
 2928 0300 02       		.uleb128 0x2
 2929 0301 91       		.byte	0x91
 2930 0302 6F       		.sleb128 -17
 2931 0303 0E       		.uleb128 0xe
 2932 0304 07050000 		.4byte	.LASF39
 2933 0308 01       		.byte	0x1
 2934 0309 8602     		.2byte	0x286
 2935 030b 6B000000 		.4byte	0x6b
 2936 030f 02       		.uleb128 0x2
 2937 0310 91       		.byte	0x91
 2938 0311 77       		.sleb128 -9
 2939 0312 00       		.byte	0
 2940 0313 12       		.uleb128 0x12
 2941 0314 33010000 		.4byte	.LASF49
 2942 0318 01       		.byte	0x1
 2943 0319 B302     		.2byte	0x2b3
ARM GAS  C:\Users\Joe\AppData\Local\Temp\ccwCXT19.s 			page 85


 2944 031b 8F000000 		.4byte	0x8f
 2945 031f 00000000 		.4byte	.LFB11
 2946 0323 68000000 		.4byte	.LFE11-.LFB11
 2947 0327 01       		.uleb128 0x1
 2948 0328 9C       		.byte	0x9c
 2949 0329 4C030000 		.4byte	0x34c
 2950 032d 0E       		.uleb128 0xe
 2951 032e C6050000 		.4byte	.LASF50
 2952 0332 01       		.byte	0x1
 2953 0333 B502     		.2byte	0x2b5
 2954 0335 8F000000 		.4byte	0x8f
 2955 0339 02       		.uleb128 0x2
 2956 033a 91       		.byte	0x91
 2957 033b 76       		.sleb128 -10
 2958 033c 0E       		.uleb128 0xe
 2959 033d 1B030000 		.4byte	.LASF37
 2960 0341 01       		.byte	0x1
 2961 0342 B602     		.2byte	0x2b6
 2962 0344 6B000000 		.4byte	0x6b
 2963 0348 02       		.uleb128 0x2
 2964 0349 91       		.byte	0x91
 2965 034a 77       		.sleb128 -9
 2966 034b 00       		.byte	0
 2967 034c 12       		.uleb128 0x12
 2968 034d 8F020000 		.4byte	.LASF51
 2969 0351 01       		.byte	0x1
 2970 0352 E902     		.2byte	0x2e9
 2971 0354 9B000000 		.4byte	0x9b
 2972 0358 00000000 		.4byte	.LFB12
 2973 035c 7C000000 		.4byte	.LFE12-.LFB12
 2974 0360 01       		.uleb128 0x1
 2975 0361 9C       		.byte	0x9c
 2976 0362 85030000 		.4byte	0x385
 2977 0366 0E       		.uleb128 0xe
 2978 0367 C6050000 		.4byte	.LASF50
 2979 036b 01       		.byte	0x1
 2980 036c EB02     		.2byte	0x2eb
 2981 036e 77000000 		.4byte	0x77
 2982 0372 02       		.uleb128 0x2
 2983 0373 91       		.byte	0x91
 2984 0374 76       		.sleb128 -10
 2985 0375 0E       		.uleb128 0xe
 2986 0376 1B030000 		.4byte	.LASF37
 2987 037a 01       		.byte	0x1
 2988 037b EC02     		.2byte	0x2ec
 2989 037d 6B000000 		.4byte	0x6b
 2990 0381 02       		.uleb128 0x2
 2991 0382 91       		.byte	0x91
 2992 0383 75       		.sleb128 -11
 2993 0384 00       		.byte	0
 2994 0385 12       		.uleb128 0x12
 2995 0386 DD030000 		.4byte	.LASF52
 2996 038a 01       		.byte	0x1
 2997 038b 2503     		.2byte	0x325
 2998 038d A7000000 		.4byte	0xa7
 2999 0391 00000000 		.4byte	.LFB13
 3000 0395 A8000000 		.4byte	.LFE13-.LFB13
ARM GAS  C:\Users\Joe\AppData\Local\Temp\ccwCXT19.s 			page 86


 3001 0399 01       		.uleb128 0x1
 3002 039a 9C       		.byte	0x9c
 3003 039b BE030000 		.4byte	0x3be
 3004 039f 0E       		.uleb128 0xe
 3005 03a0 C6050000 		.4byte	.LASF50
 3006 03a4 01       		.byte	0x1
 3007 03a5 2703     		.2byte	0x327
 3008 03a7 83000000 		.4byte	0x83
 3009 03ab 02       		.uleb128 0x2
 3010 03ac 91       		.byte	0x91
 3011 03ad 74       		.sleb128 -12
 3012 03ae 0E       		.uleb128 0xe
 3013 03af 1B030000 		.4byte	.LASF37
 3014 03b3 01       		.byte	0x1
 3015 03b4 2803     		.2byte	0x328
 3016 03b6 6B000000 		.4byte	0x6b
 3017 03ba 02       		.uleb128 0x2
 3018 03bb 91       		.byte	0x91
 3019 03bc 73       		.sleb128 -13
 3020 03bd 00       		.byte	0
 3021 03be 0F       		.uleb128 0xf
 3022 03bf 83030000 		.4byte	.LASF53
 3023 03c3 01       		.byte	0x1
 3024 03c4 8203     		.2byte	0x382
 3025 03c6 00000000 		.4byte	.LFB14
 3026 03ca 1C000000 		.4byte	.LFE14-.LFB14
 3027 03ce 01       		.uleb128 0x1
 3028 03cf 9C       		.byte	0x9c
 3029 03d0 E4030000 		.4byte	0x3e4
 3030 03d4 10       		.uleb128 0x10
 3031 03d5 68040000 		.4byte	.LASF54
 3032 03d9 01       		.byte	0x1
 3033 03da 8203     		.2byte	0x382
 3034 03dc A7000000 		.4byte	0xa7
 3035 03e0 02       		.uleb128 0x2
 3036 03e1 91       		.byte	0x91
 3037 03e2 74       		.sleb128 -12
 3038 03e3 00       		.byte	0
 3039 03e4 0F       		.uleb128 0xf
 3040 03e5 4B050000 		.4byte	.LASF55
 3041 03e9 01       		.byte	0x1
 3042 03ea A503     		.2byte	0x3a5
 3043 03ec 00000000 		.4byte	.LFB15
 3044 03f0 1C000000 		.4byte	.LFE15-.LFB15
 3045 03f4 01       		.uleb128 0x1
 3046 03f5 9C       		.byte	0x9c
 3047 03f6 0A040000 		.4byte	0x40a
 3048 03fa 10       		.uleb128 0x10
 3049 03fb 07000000 		.4byte	.LASF56
 3050 03ff 01       		.byte	0x1
 3051 0400 A503     		.2byte	0x3a5
 3052 0402 A7000000 		.4byte	0xa7
 3053 0406 02       		.uleb128 0x2
 3054 0407 91       		.byte	0x91
 3055 0408 74       		.sleb128 -12
 3056 0409 00       		.byte	0
 3057 040a 12       		.uleb128 0x12
ARM GAS  C:\Users\Joe\AppData\Local\Temp\ccwCXT19.s 			page 87


 3058 040b 74050000 		.4byte	.LASF57
 3059 040f 01       		.byte	0x1
 3060 0410 C003     		.2byte	0x3c0
 3061 0412 9B000000 		.4byte	0x9b
 3062 0416 00000000 		.4byte	.LFB16
 3063 041a 58000000 		.4byte	.LFE16-.LFB16
 3064 041e 01       		.uleb128 0x1
 3065 041f 9C       		.byte	0x9c
 3066 0420 43040000 		.4byte	0x443
 3067 0424 10       		.uleb128 0x10
 3068 0425 6F040000 		.4byte	.LASF58
 3069 0429 01       		.byte	0x1
 3070 042a C003     		.2byte	0x3c0
 3071 042c A7000000 		.4byte	0xa7
 3072 0430 02       		.uleb128 0x2
 3073 0431 91       		.byte	0x91
 3074 0432 6C       		.sleb128 -20
 3075 0433 0E       		.uleb128 0xe
 3076 0434 58020000 		.4byte	.LASF59
 3077 0438 01       		.byte	0x1
 3078 0439 C303     		.2byte	0x3c3
 3079 043b 9B000000 		.4byte	0x9b
 3080 043f 02       		.uleb128 0x2
 3081 0440 91       		.byte	0x91
 3082 0441 76       		.sleb128 -10
 3083 0442 00       		.byte	0
 3084 0443 11       		.uleb128 0x11
 3085 0444 6B020000 		.4byte	.LASF60
 3086 0448 01       		.byte	0x1
 3087 0449 FD03     		.2byte	0x3fd
 3088 044b B3000000 		.4byte	0xb3
 3089 044f 00000000 		.4byte	.LFB17
 3090 0453 60000000 		.4byte	.LFE17-.LFB17
 3091 0457 01       		.uleb128 0x1
 3092 0458 9C       		.byte	0x9c
 3093 0459 7C040000 		.4byte	0x47c
 3094 045d 10       		.uleb128 0x10
 3095 045e 6F040000 		.4byte	.LASF58
 3096 0462 01       		.byte	0x1
 3097 0463 FD03     		.2byte	0x3fd
 3098 0465 A7000000 		.4byte	0xa7
 3099 0469 02       		.uleb128 0x2
 3100 046a 91       		.byte	0x91
 3101 046b 64       		.sleb128 -28
 3102 046c 0E       		.uleb128 0xe
 3103 046d 9B010000 		.4byte	.LASF61
 3104 0471 01       		.byte	0x1
 3105 0472 0004     		.2byte	0x400
 3106 0474 B3000000 		.4byte	0xb3
 3107 0478 02       		.uleb128 0x2
 3108 0479 91       		.byte	0x91
 3109 047a 6C       		.sleb128 -20
 3110 047b 00       		.byte	0
 3111 047c 12       		.uleb128 0x12
 3112 047d E5020000 		.4byte	.LASF62
 3113 0481 01       		.byte	0x1
 3114 0482 3F04     		.2byte	0x43f
ARM GAS  C:\Users\Joe\AppData\Local\Temp\ccwCXT19.s 			page 88


 3115 0484 A7000000 		.4byte	0xa7
 3116 0488 00000000 		.4byte	.LFB18
 3117 048c B0000000 		.4byte	.LFE18-.LFB18
 3118 0490 01       		.uleb128 0x1
 3119 0491 9C       		.byte	0x9c
 3120 0492 E2040000 		.4byte	0x4e2
 3121 0496 10       		.uleb128 0x10
 3122 0497 6F040000 		.4byte	.LASF58
 3123 049b 01       		.byte	0x1
 3124 049c 3F04     		.2byte	0x43f
 3125 049e A7000000 		.4byte	0xa7
 3126 04a2 02       		.uleb128 0x2
 3127 04a3 91       		.byte	0x91
 3128 04a4 64       		.sleb128 -28
 3129 04a5 0E       		.uleb128 0xe
 3130 04a6 F3010000 		.4byte	.LASF63
 3131 04aa 01       		.byte	0x1
 3132 04ab 4204     		.2byte	0x442
 3133 04ad A7000000 		.4byte	0xa7
 3134 04b1 02       		.uleb128 0x2
 3135 04b2 91       		.byte	0x91
 3136 04b3 68       		.sleb128 -24
 3137 04b4 0E       		.uleb128 0xe
 3138 04b5 D1030000 		.4byte	.LASF64
 3139 04b9 01       		.byte	0x1
 3140 04ba 4304     		.2byte	0x443
 3141 04bc A7000000 		.4byte	0xa7
 3142 04c0 02       		.uleb128 0x2
 3143 04c1 91       		.byte	0x91
 3144 04c2 74       		.sleb128 -12
 3145 04c3 0E       		.uleb128 0xe
 3146 04c4 D7030000 		.4byte	.LASF65
 3147 04c8 01       		.byte	0x1
 3148 04c9 4404     		.2byte	0x444
 3149 04cb A7000000 		.4byte	0xa7
 3150 04cf 02       		.uleb128 0x2
 3151 04d0 91       		.byte	0x91
 3152 04d1 70       		.sleb128 -16
 3153 04d2 0E       		.uleb128 0xe
 3154 04d3 C6030000 		.4byte	.LASF66
 3155 04d7 01       		.byte	0x1
 3156 04d8 4504     		.2byte	0x445
 3157 04da 6B000000 		.4byte	0x6b
 3158 04de 02       		.uleb128 0x2
 3159 04df 91       		.byte	0x91
 3160 04e0 6F       		.sleb128 -17
 3161 04e1 00       		.byte	0
 3162 04e2 14       		.uleb128 0x14
 3163 04e3 1B010000 		.4byte	.LASF69
 3164 04e7 01       		.byte	0x1
 3165 04e8 DA04     		.2byte	0x4da
 3166 04ea 00000000 		.4byte	.LFB19
 3167 04ee 64010000 		.4byte	.LFE19-.LFB19
 3168 04f2 01       		.uleb128 0x1
 3169 04f3 9C       		.byte	0x9c
 3170 04f4 08050000 		.4byte	0x508
 3171 04f8 10       		.uleb128 0x10
ARM GAS  C:\Users\Joe\AppData\Local\Temp\ccwCXT19.s 			page 89


 3172 04f9 30040000 		.4byte	.LASF27
 3173 04fd 01       		.byte	0x1
 3174 04fe DA04     		.2byte	0x4da
 3175 0500 6B000000 		.4byte	0x6b
 3176 0504 02       		.uleb128 0x2
 3177 0505 91       		.byte	0x91
 3178 0506 77       		.sleb128 -9
 3179 0507 00       		.byte	0
 3180 0508 0D       		.uleb128 0xd
 3181 0509 2E000000 		.4byte	.LASF67
 3182 050d 01       		.byte	0x1
 3183 050e 1006     		.2byte	0x610
 3184 0510 00000000 		.4byte	.LFB20
 3185 0514 90000000 		.4byte	.LFE20-.LFB20
 3186 0518 01       		.uleb128 0x1
 3187 0519 9C       		.byte	0x9c
 3188 051a 3D050000 		.4byte	0x53d
 3189 051e 10       		.uleb128 0x10
 3190 051f 30040000 		.4byte	.LASF27
 3191 0523 01       		.byte	0x1
 3192 0524 1006     		.2byte	0x610
 3193 0526 6B000000 		.4byte	0x6b
 3194 052a 02       		.uleb128 0x2
 3195 052b 91       		.byte	0x91
 3196 052c 77       		.sleb128 -9
 3197 052d 10       		.uleb128 0x10
 3198 052e 3C040000 		.4byte	.LASF68
 3199 0532 01       		.byte	0x1
 3200 0533 1006     		.2byte	0x610
 3201 0535 6B000000 		.4byte	0x6b
 3202 0539 02       		.uleb128 0x2
 3203 053a 91       		.byte	0x91
 3204 053b 76       		.sleb128 -10
 3205 053c 00       		.byte	0
 3206 053d 14       		.uleb128 0x14
 3207 053e 79040000 		.4byte	.LASF70
 3208 0542 01       		.byte	0x1
 3209 0543 5106     		.2byte	0x651
 3210 0545 00000000 		.4byte	.LFB21
 3211 0549 70010000 		.4byte	.LFE21-.LFB21
 3212 054d 01       		.uleb128 0x1
 3213 054e 9C       		.byte	0x9c
 3214 054f DB050000 		.4byte	0x5db
 3215 0553 10       		.uleb128 0x10
 3216 0554 23000000 		.4byte	.LASF71
 3217 0558 01       		.byte	0x1
 3218 0559 5106     		.2byte	0x651
 3219 055b 6B000000 		.4byte	0x6b
 3220 055f 02       		.uleb128 0x2
 3221 0560 91       		.byte	0x91
 3222 0561 5F       		.sleb128 -33
 3223 0562 10       		.uleb128 0x10
 3224 0563 5D030000 		.4byte	.LASF72
 3225 0567 01       		.byte	0x1
 3226 0568 5106     		.2byte	0x651
 3227 056a 77000000 		.4byte	0x77
 3228 056e 02       		.uleb128 0x2
ARM GAS  C:\Users\Joe\AppData\Local\Temp\ccwCXT19.s 			page 90


 3229 056f 91       		.byte	0x91
 3230 0570 5C       		.sleb128 -36
 3231 0571 10       		.uleb128 0x10
 3232 0572 0B010000 		.4byte	.LASF73
 3233 0576 01       		.byte	0x1
 3234 0577 5106     		.2byte	0x651
 3235 0579 77000000 		.4byte	0x77
 3236 057d 02       		.uleb128 0x2
 3237 057e 91       		.byte	0x91
 3238 057f 5A       		.sleb128 -38
 3239 0580 10       		.uleb128 0x10
 3240 0581 C6030000 		.4byte	.LASF66
 3241 0585 01       		.byte	0x1
 3242 0586 5206     		.2byte	0x652
 3243 0588 6B000000 		.4byte	0x6b
 3244 058c 02       		.uleb128 0x2
 3245 058d 91       		.byte	0x91
 3246 058e 5E       		.sleb128 -34
 3247 058f 10       		.uleb128 0x10
 3248 0590 30040000 		.4byte	.LASF27
 3249 0594 01       		.byte	0x1
 3250 0595 5206     		.2byte	0x652
 3251 0597 6B000000 		.4byte	0x6b
 3252 059b 02       		.uleb128 0x2
 3253 059c 91       		.byte	0x91
 3254 059d 00       		.sleb128 0
 3255 059e 0E       		.uleb128 0xe
 3256 059f 5F020000 		.4byte	.LASF74
 3257 05a3 01       		.byte	0x1
 3258 05a4 5406     		.2byte	0x654
 3259 05a6 8F000000 		.4byte	0x8f
 3260 05aa 02       		.uleb128 0x2
 3261 05ab 91       		.byte	0x91
 3262 05ac 6F       		.sleb128 -17
 3263 05ad 0E       		.uleb128 0xe
 3264 05ae 6A030000 		.4byte	.LASF75
 3265 05b2 01       		.byte	0x1
 3266 05b3 5506     		.2byte	0x655
 3267 05b5 A7000000 		.4byte	0xa7
 3268 05b9 02       		.uleb128 0x2
 3269 05ba 91       		.byte	0x91
 3270 05bb 68       		.sleb128 -24
 3271 05bc 0E       		.uleb128 0xe
 3272 05bd 4E020000 		.4byte	.LASF44
 3273 05c1 01       		.byte	0x1
 3274 05c2 5606     		.2byte	0x656
 3275 05c4 77000000 		.4byte	0x77
 3276 05c8 02       		.uleb128 0x2
 3277 05c9 91       		.byte	0x91
 3278 05ca 6C       		.sleb128 -20
 3279 05cb 0E       		.uleb128 0xe
 3280 05cc A4030000 		.4byte	.LASF76
 3281 05d0 01       		.byte	0x1
 3282 05d1 5706     		.2byte	0x657
 3283 05d3 83000000 		.4byte	0x83
 3284 05d7 02       		.uleb128 0x2
 3285 05d8 91       		.byte	0x91
ARM GAS  C:\Users\Joe\AppData\Local\Temp\ccwCXT19.s 			page 91


 3286 05d9 64       		.sleb128 -28
 3287 05da 00       		.byte	0
 3288 05db 14       		.uleb128 0x14
 3289 05dc 4D040000 		.4byte	.LASF77
 3290 05e0 01       		.byte	0x1
 3291 05e1 BC06     		.2byte	0x6bc
 3292 05e3 00000000 		.4byte	.LFB22
 3293 05e7 7C000000 		.4byte	.LFE22-.LFB22
 3294 05eb 01       		.uleb128 0x1
 3295 05ec 9C       		.byte	0x9c
 3296 05ed 10060000 		.4byte	0x610
 3297 05f1 10       		.uleb128 0x10
 3298 05f2 A8010000 		.4byte	.LASF78
 3299 05f6 01       		.byte	0x1
 3300 05f7 BC06     		.2byte	0x6bc
 3301 05f9 6B000000 		.4byte	0x6b
 3302 05fd 02       		.uleb128 0x2
 3303 05fe 91       		.byte	0x91
 3304 05ff 6F       		.sleb128 -17
 3305 0600 0E       		.uleb128 0xe
 3306 0601 97040000 		.4byte	.LASF28
 3307 0605 01       		.byte	0x1
 3308 0606 BE06     		.2byte	0x6be
 3309 0608 6B000000 		.4byte	0x6b
 3310 060c 02       		.uleb128 0x2
 3311 060d 91       		.byte	0x91
 3312 060e 77       		.sleb128 -9
 3313 060f 00       		.byte	0
 3314 0610 11       		.uleb128 0x11
 3315 0611 B3050000 		.4byte	.LASF79
 3316 0615 01       		.byte	0x1
 3317 0616 E206     		.2byte	0x6e2
 3318 0618 8F000000 		.4byte	0x8f
 3319 061c 00000000 		.4byte	.LFB23
 3320 0620 3C000000 		.4byte	.LFE23-.LFB23
 3321 0624 01       		.uleb128 0x1
 3322 0625 9C       		.byte	0x9c
 3323 0626 3A060000 		.4byte	0x63a
 3324 062a 0E       		.uleb128 0xe
 3325 062b C6050000 		.4byte	.LASF50
 3326 062f 01       		.byte	0x1
 3327 0630 E406     		.2byte	0x6e4
 3328 0632 8F000000 		.4byte	0x8f
 3329 0636 02       		.uleb128 0x2
 3330 0637 91       		.byte	0x91
 3331 0638 77       		.sleb128 -9
 3332 0639 00       		.byte	0
 3333 063a 11       		.uleb128 0x11
 3334 063b 60050000 		.4byte	.LASF80
 3335 063f 01       		.byte	0x1
 3336 0640 0307     		.2byte	0x703
 3337 0642 9B000000 		.4byte	0x9b
 3338 0646 00000000 		.4byte	.LFB24
 3339 064a 3C000000 		.4byte	.LFE24-.LFB24
 3340 064e 01       		.uleb128 0x1
 3341 064f 9C       		.byte	0x9c
 3342 0650 64060000 		.4byte	0x664
ARM GAS  C:\Users\Joe\AppData\Local\Temp\ccwCXT19.s 			page 92


 3343 0654 0E       		.uleb128 0xe
 3344 0655 C6050000 		.4byte	.LASF50
 3345 0659 01       		.byte	0x1
 3346 065a 0507     		.2byte	0x705
 3347 065c 9B000000 		.4byte	0x9b
 3348 0660 02       		.uleb128 0x2
 3349 0661 91       		.byte	0x91
 3350 0662 76       		.sleb128 -10
 3351 0663 00       		.byte	0
 3352 0664 11       		.uleb128 0x11
 3353 0665 6B010000 		.4byte	.LASF81
 3354 0669 01       		.byte	0x1
 3355 066a 2407     		.2byte	0x724
 3356 066c A7000000 		.4byte	0xa7
 3357 0670 00000000 		.4byte	.LFB25
 3358 0674 38000000 		.4byte	.LFE25-.LFB25
 3359 0678 01       		.uleb128 0x1
 3360 0679 9C       		.byte	0x9c
 3361 067a 8E060000 		.4byte	0x68e
 3362 067e 0E       		.uleb128 0xe
 3363 067f C6050000 		.4byte	.LASF50
 3364 0683 01       		.byte	0x1
 3365 0684 2607     		.2byte	0x726
 3366 0686 A7000000 		.4byte	0xa7
 3367 068a 02       		.uleb128 0x2
 3368 068b 91       		.byte	0x91
 3369 068c 74       		.sleb128 -12
 3370 068d 00       		.byte	0
 3371 068e 15       		.uleb128 0x15
 3372 068f 36010000 		.4byte	0x136
 3373 0693 9E060000 		.4byte	0x69e
 3374 0697 16       		.uleb128 0x16
 3375 0698 0E010000 		.4byte	0x10e
 3376 069c 00       		.byte	0
 3377 069d 00       		.byte	0
 3378 069e 0B       		.uleb128 0xb
 3379 069f FF050000 		.4byte	.LASF82
 3380 06a3 01       		.byte	0x1
 3381 06a4 3D       		.byte	0x3d
 3382 06a5 8E060000 		.4byte	0x68e
 3383 06a9 05       		.uleb128 0x5
 3384 06aa 03       		.byte	0x3
 3385 06ab 04000000 		.4byte	ADC_DelSig_1_gcor
 3386 06af 17       		.uleb128 0x17
 3387 06b0 FA010000 		.4byte	.LASF83
 3388 06b4 01       		.byte	0x1
 3389 06b5 2C       		.byte	0x2c
 3390 06b6 6B000000 		.4byte	0x6b
 3391 06ba 05       		.uleb128 0x5
 3392 06bb 03       		.byte	0x3
 3393 06bc 00000000 		.4byte	ADC_DelSig_1_initVar
 3394 06c0 17       		.uleb128 0x17
 3395 06c1 B1020000 		.4byte	.LASF84
 3396 06c5 01       		.byte	0x1
 3397 06c6 24       		.byte	0x24
 3398 06c7 E0000000 		.4byte	0xe0
 3399 06cb 05       		.uleb128 0x5
ARM GAS  C:\Users\Joe\AppData\Local\Temp\ccwCXT19.s 			page 93


 3400 06cc 03       		.byte	0x3
 3401 06cd 00000000 		.4byte	ADC_DelSig_1_convDone
 3402 06d1 17       		.uleb128 0x17
 3403 06d2 CD050000 		.4byte	.LASF85
 3404 06d6 01       		.byte	0x1
 3405 06d7 29       		.byte	0x29
 3406 06d8 E0000000 		.4byte	0xe0
 3407 06dc 05       		.uleb128 0x5
 3408 06dd 03       		.byte	0x3
 3409 06de 00000000 		.4byte	ADC_DelSig_1_stopConversion
 3410 06e2 17       		.uleb128 0x17
 3411 06e3 21020000 		.4byte	.LASF86
 3412 06e7 01       		.byte	0x1
 3413 06e8 2F       		.byte	0x2f
 3414 06e9 E0000000 		.4byte	0xe0
 3415 06ed 05       		.uleb128 0x5
 3416 06ee 03       		.byte	0x3
 3417 06ef 00000000 		.4byte	ADC_DelSig_1_started
 3418 06f3 17       		.uleb128 0x17
 3419 06f4 07030000 		.4byte	.LASF87
 3420 06f8 01       		.byte	0x1
 3421 06f9 32       		.byte	0x32
 3422 06fa E0000000 		.4byte	0xe0
 3423 06fe 05       		.uleb128 0x5
 3424 06ff 03       		.byte	0x3
 3425 0700 00000000 		.4byte	ADC_DelSig_1_Config
 3426 0704 17       		.uleb128 0x17
 3427 0705 44030000 		.4byte	.LASF88
 3428 0709 01       		.byte	0x1
 3429 070a 34       		.byte	0x34
 3430 070b 15070000 		.4byte	0x715
 3431 070f 05       		.uleb128 0x5
 3432 0710 03       		.byte	0x3
 3433 0711 00000000 		.4byte	ADC_DelSig_1_Offset
 3434 0715 05       		.uleb128 0x5
 3435 0716 A7000000 		.4byte	0xa7
 3436 071a 17       		.uleb128 0x17
 3437 071b 15040000 		.4byte	.LASF89
 3438 071f 01       		.byte	0x1
 3439 0720 35       		.byte	0x35
 3440 0721 15070000 		.4byte	0x715
 3441 0725 05       		.uleb128 0x5
 3442 0726 03       		.byte	0x3
 3443 0727 00000000 		.4byte	ADC_DelSig_1_CountsPerVolt
 3444 072b 00       		.byte	0
 3445              		.section	.debug_abbrev,"",%progbits
 3446              	.Ldebug_abbrev0:
 3447 0000 01       		.uleb128 0x1
 3448 0001 11       		.uleb128 0x11
 3449 0002 01       		.byte	0x1
 3450 0003 25       		.uleb128 0x25
 3451 0004 0E       		.uleb128 0xe
 3452 0005 13       		.uleb128 0x13
 3453 0006 0B       		.uleb128 0xb
 3454 0007 03       		.uleb128 0x3
 3455 0008 0E       		.uleb128 0xe
 3456 0009 1B       		.uleb128 0x1b
ARM GAS  C:\Users\Joe\AppData\Local\Temp\ccwCXT19.s 			page 94


 3457 000a 0E       		.uleb128 0xe
 3458 000b 55       		.uleb128 0x55
 3459 000c 17       		.uleb128 0x17
 3460 000d 11       		.uleb128 0x11
 3461 000e 01       		.uleb128 0x1
 3462 000f 10       		.uleb128 0x10
 3463 0010 17       		.uleb128 0x17
 3464 0011 00       		.byte	0
 3465 0012 00       		.byte	0
 3466 0013 02       		.uleb128 0x2
 3467 0014 24       		.uleb128 0x24
 3468 0015 00       		.byte	0
 3469 0016 0B       		.uleb128 0xb
 3470 0017 0B       		.uleb128 0xb
 3471 0018 3E       		.uleb128 0x3e
 3472 0019 0B       		.uleb128 0xb
 3473 001a 03       		.uleb128 0x3
 3474 001b 0E       		.uleb128 0xe
 3475 001c 00       		.byte	0
 3476 001d 00       		.byte	0
 3477 001e 03       		.uleb128 0x3
 3478 001f 24       		.uleb128 0x24
 3479 0020 00       		.byte	0
 3480 0021 0B       		.uleb128 0xb
 3481 0022 0B       		.uleb128 0xb
 3482 0023 3E       		.uleb128 0x3e
 3483 0024 0B       		.uleb128 0xb
 3484 0025 03       		.uleb128 0x3
 3485 0026 08       		.uleb128 0x8
 3486 0027 00       		.byte	0
 3487 0028 00       		.byte	0
 3488 0029 04       		.uleb128 0x4
 3489 002a 16       		.uleb128 0x16
 3490 002b 00       		.byte	0
 3491 002c 03       		.uleb128 0x3
 3492 002d 0E       		.uleb128 0xe
 3493 002e 3A       		.uleb128 0x3a
 3494 002f 0B       		.uleb128 0xb
 3495 0030 3B       		.uleb128 0x3b
 3496 0031 05       		.uleb128 0x5
 3497 0032 49       		.uleb128 0x49
 3498 0033 13       		.uleb128 0x13
 3499 0034 00       		.byte	0
 3500 0035 00       		.byte	0
 3501 0036 05       		.uleb128 0x5
 3502 0037 35       		.uleb128 0x35
 3503 0038 00       		.byte	0
 3504 0039 49       		.uleb128 0x49
 3505 003a 13       		.uleb128 0x13
 3506 003b 00       		.byte	0
 3507 003c 00       		.byte	0
 3508 003d 06       		.uleb128 0x6
 3509 003e 13       		.uleb128 0x13
 3510 003f 01       		.byte	0x1
 3511 0040 0B       		.uleb128 0xb
 3512 0041 0B       		.uleb128 0xb
 3513 0042 3A       		.uleb128 0x3a
ARM GAS  C:\Users\Joe\AppData\Local\Temp\ccwCXT19.s 			page 95


 3514 0043 0B       		.uleb128 0xb
 3515 0044 3B       		.uleb128 0x3b
 3516 0045 0B       		.uleb128 0xb
 3517 0046 01       		.uleb128 0x1
 3518 0047 13       		.uleb128 0x13
 3519 0048 00       		.byte	0
 3520 0049 00       		.byte	0
 3521 004a 07       		.uleb128 0x7
 3522 004b 0D       		.uleb128 0xd
 3523 004c 00       		.byte	0
 3524 004d 03       		.uleb128 0x3
 3525 004e 0E       		.uleb128 0xe
 3526 004f 3A       		.uleb128 0x3a
 3527 0050 0B       		.uleb128 0xb
 3528 0051 3B       		.uleb128 0x3b
 3529 0052 0B       		.uleb128 0xb
 3530 0053 49       		.uleb128 0x49
 3531 0054 13       		.uleb128 0x13
 3532 0055 38       		.uleb128 0x38
 3533 0056 0B       		.uleb128 0xb
 3534 0057 00       		.byte	0
 3535 0058 00       		.byte	0
 3536 0059 08       		.uleb128 0x8
 3537 005a 16       		.uleb128 0x16
 3538 005b 00       		.byte	0
 3539 005c 03       		.uleb128 0x3
 3540 005d 0E       		.uleb128 0xe
 3541 005e 3A       		.uleb128 0x3a
 3542 005f 0B       		.uleb128 0xb
 3543 0060 3B       		.uleb128 0x3b
 3544 0061 0B       		.uleb128 0xb
 3545 0062 49       		.uleb128 0x49
 3546 0063 13       		.uleb128 0x13
 3547 0064 00       		.byte	0
 3548 0065 00       		.byte	0
 3549 0066 09       		.uleb128 0x9
 3550 0067 2E       		.uleb128 0x2e
 3551 0068 00       		.byte	0
 3552 0069 3F       		.uleb128 0x3f
 3553 006a 19       		.uleb128 0x19
 3554 006b 03       		.uleb128 0x3
 3555 006c 0E       		.uleb128 0xe
 3556 006d 3A       		.uleb128 0x3a
 3557 006e 0B       		.uleb128 0xb
 3558 006f 3B       		.uleb128 0x3b
 3559 0070 0B       		.uleb128 0xb
 3560 0071 27       		.uleb128 0x27
 3561 0072 19       		.uleb128 0x19
 3562 0073 11       		.uleb128 0x11
 3563 0074 01       		.uleb128 0x1
 3564 0075 12       		.uleb128 0x12
 3565 0076 06       		.uleb128 0x6
 3566 0077 40       		.uleb128 0x40
 3567 0078 18       		.uleb128 0x18
 3568 0079 9642     		.uleb128 0x2116
 3569 007b 19       		.uleb128 0x19
 3570 007c 00       		.byte	0
ARM GAS  C:\Users\Joe\AppData\Local\Temp\ccwCXT19.s 			page 96


 3571 007d 00       		.byte	0
 3572 007e 0A       		.uleb128 0xa
 3573 007f 2E       		.uleb128 0x2e
 3574 0080 01       		.byte	0x1
 3575 0081 3F       		.uleb128 0x3f
 3576 0082 19       		.uleb128 0x19
 3577 0083 03       		.uleb128 0x3
 3578 0084 0E       		.uleb128 0xe
 3579 0085 3A       		.uleb128 0x3a
 3580 0086 0B       		.uleb128 0xb
 3581 0087 3B       		.uleb128 0x3b
 3582 0088 0B       		.uleb128 0xb
 3583 0089 27       		.uleb128 0x27
 3584 008a 19       		.uleb128 0x19
 3585 008b 11       		.uleb128 0x11
 3586 008c 01       		.uleb128 0x1
 3587 008d 12       		.uleb128 0x12
 3588 008e 06       		.uleb128 0x6
 3589 008f 40       		.uleb128 0x40
 3590 0090 18       		.uleb128 0x18
 3591 0091 9642     		.uleb128 0x2116
 3592 0093 19       		.uleb128 0x19
 3593 0094 01       		.uleb128 0x1
 3594 0095 13       		.uleb128 0x13
 3595 0096 00       		.byte	0
 3596 0097 00       		.byte	0
 3597 0098 0B       		.uleb128 0xb
 3598 0099 34       		.uleb128 0x34
 3599 009a 00       		.byte	0
 3600 009b 03       		.uleb128 0x3
 3601 009c 0E       		.uleb128 0xe
 3602 009d 3A       		.uleb128 0x3a
 3603 009e 0B       		.uleb128 0xb
 3604 009f 3B       		.uleb128 0x3b
 3605 00a0 0B       		.uleb128 0xb
 3606 00a1 49       		.uleb128 0x49
 3607 00a2 13       		.uleb128 0x13
 3608 00a3 02       		.uleb128 0x2
 3609 00a4 18       		.uleb128 0x18
 3610 00a5 00       		.byte	0
 3611 00a6 00       		.byte	0
 3612 00a7 0C       		.uleb128 0xc
 3613 00a8 2E       		.uleb128 0x2e
 3614 00a9 00       		.byte	0
 3615 00aa 3F       		.uleb128 0x3f
 3616 00ab 19       		.uleb128 0x19
 3617 00ac 03       		.uleb128 0x3
 3618 00ad 0E       		.uleb128 0xe
 3619 00ae 3A       		.uleb128 0x3a
 3620 00af 0B       		.uleb128 0xb
 3621 00b0 3B       		.uleb128 0x3b
 3622 00b1 05       		.uleb128 0x5
 3623 00b2 27       		.uleb128 0x27
 3624 00b3 19       		.uleb128 0x19
 3625 00b4 11       		.uleb128 0x11
 3626 00b5 01       		.uleb128 0x1
 3627 00b6 12       		.uleb128 0x12
ARM GAS  C:\Users\Joe\AppData\Local\Temp\ccwCXT19.s 			page 97


 3628 00b7 06       		.uleb128 0x6
 3629 00b8 40       		.uleb128 0x40
 3630 00b9 18       		.uleb128 0x18
 3631 00ba 9642     		.uleb128 0x2116
 3632 00bc 19       		.uleb128 0x19
 3633 00bd 00       		.byte	0
 3634 00be 00       		.byte	0
 3635 00bf 0D       		.uleb128 0xd
 3636 00c0 2E       		.uleb128 0x2e
 3637 00c1 01       		.byte	0x1
 3638 00c2 3F       		.uleb128 0x3f
 3639 00c3 19       		.uleb128 0x19
 3640 00c4 03       		.uleb128 0x3
 3641 00c5 0E       		.uleb128 0xe
 3642 00c6 3A       		.uleb128 0x3a
 3643 00c7 0B       		.uleb128 0xb
 3644 00c8 3B       		.uleb128 0x3b
 3645 00c9 05       		.uleb128 0x5
 3646 00ca 27       		.uleb128 0x27
 3647 00cb 19       		.uleb128 0x19
 3648 00cc 11       		.uleb128 0x11
 3649 00cd 01       		.uleb128 0x1
 3650 00ce 12       		.uleb128 0x12
 3651 00cf 06       		.uleb128 0x6
 3652 00d0 40       		.uleb128 0x40
 3653 00d1 18       		.uleb128 0x18
 3654 00d2 9642     		.uleb128 0x2116
 3655 00d4 19       		.uleb128 0x19
 3656 00d5 01       		.uleb128 0x1
 3657 00d6 13       		.uleb128 0x13
 3658 00d7 00       		.byte	0
 3659 00d8 00       		.byte	0
 3660 00d9 0E       		.uleb128 0xe
 3661 00da 34       		.uleb128 0x34
 3662 00db 00       		.byte	0
 3663 00dc 03       		.uleb128 0x3
 3664 00dd 0E       		.uleb128 0xe
 3665 00de 3A       		.uleb128 0x3a
 3666 00df 0B       		.uleb128 0xb
 3667 00e0 3B       		.uleb128 0x3b
 3668 00e1 05       		.uleb128 0x5
 3669 00e2 49       		.uleb128 0x49
 3670 00e3 13       		.uleb128 0x13
 3671 00e4 02       		.uleb128 0x2
 3672 00e5 18       		.uleb128 0x18
 3673 00e6 00       		.byte	0
 3674 00e7 00       		.byte	0
 3675 00e8 0F       		.uleb128 0xf
 3676 00e9 2E       		.uleb128 0x2e
 3677 00ea 01       		.byte	0x1
 3678 00eb 3F       		.uleb128 0x3f
 3679 00ec 19       		.uleb128 0x19
 3680 00ed 03       		.uleb128 0x3
 3681 00ee 0E       		.uleb128 0xe
 3682 00ef 3A       		.uleb128 0x3a
 3683 00f0 0B       		.uleb128 0xb
 3684 00f1 3B       		.uleb128 0x3b
ARM GAS  C:\Users\Joe\AppData\Local\Temp\ccwCXT19.s 			page 98


 3685 00f2 05       		.uleb128 0x5
 3686 00f3 27       		.uleb128 0x27
 3687 00f4 19       		.uleb128 0x19
 3688 00f5 11       		.uleb128 0x11
 3689 00f6 01       		.uleb128 0x1
 3690 00f7 12       		.uleb128 0x12
 3691 00f8 06       		.uleb128 0x6
 3692 00f9 40       		.uleb128 0x40
 3693 00fa 18       		.uleb128 0x18
 3694 00fb 9742     		.uleb128 0x2117
 3695 00fd 19       		.uleb128 0x19
 3696 00fe 01       		.uleb128 0x1
 3697 00ff 13       		.uleb128 0x13
 3698 0100 00       		.byte	0
 3699 0101 00       		.byte	0
 3700 0102 10       		.uleb128 0x10
 3701 0103 05       		.uleb128 0x5
 3702 0104 00       		.byte	0
 3703 0105 03       		.uleb128 0x3
 3704 0106 0E       		.uleb128 0xe
 3705 0107 3A       		.uleb128 0x3a
 3706 0108 0B       		.uleb128 0xb
 3707 0109 3B       		.uleb128 0x3b
 3708 010a 05       		.uleb128 0x5
 3709 010b 49       		.uleb128 0x49
 3710 010c 13       		.uleb128 0x13
 3711 010d 02       		.uleb128 0x2
 3712 010e 18       		.uleb128 0x18
 3713 010f 00       		.byte	0
 3714 0110 00       		.byte	0
 3715 0111 11       		.uleb128 0x11
 3716 0112 2E       		.uleb128 0x2e
 3717 0113 01       		.byte	0x1
 3718 0114 3F       		.uleb128 0x3f
 3719 0115 19       		.uleb128 0x19
 3720 0116 03       		.uleb128 0x3
 3721 0117 0E       		.uleb128 0xe
 3722 0118 3A       		.uleb128 0x3a
 3723 0119 0B       		.uleb128 0xb
 3724 011a 3B       		.uleb128 0x3b
 3725 011b 05       		.uleb128 0x5
 3726 011c 27       		.uleb128 0x27
 3727 011d 19       		.uleb128 0x19
 3728 011e 49       		.uleb128 0x49
 3729 011f 13       		.uleb128 0x13
 3730 0120 11       		.uleb128 0x11
 3731 0121 01       		.uleb128 0x1
 3732 0122 12       		.uleb128 0x12
 3733 0123 06       		.uleb128 0x6
 3734 0124 40       		.uleb128 0x40
 3735 0125 18       		.uleb128 0x18
 3736 0126 9642     		.uleb128 0x2116
 3737 0128 19       		.uleb128 0x19
 3738 0129 01       		.uleb128 0x1
 3739 012a 13       		.uleb128 0x13
 3740 012b 00       		.byte	0
 3741 012c 00       		.byte	0
ARM GAS  C:\Users\Joe\AppData\Local\Temp\ccwCXT19.s 			page 99


 3742 012d 12       		.uleb128 0x12
 3743 012e 2E       		.uleb128 0x2e
 3744 012f 01       		.byte	0x1
 3745 0130 3F       		.uleb128 0x3f
 3746 0131 19       		.uleb128 0x19
 3747 0132 03       		.uleb128 0x3
 3748 0133 0E       		.uleb128 0xe
 3749 0134 3A       		.uleb128 0x3a
 3750 0135 0B       		.uleb128 0xb
 3751 0136 3B       		.uleb128 0x3b
 3752 0137 05       		.uleb128 0x5
 3753 0138 27       		.uleb128 0x27
 3754 0139 19       		.uleb128 0x19
 3755 013a 49       		.uleb128 0x49
 3756 013b 13       		.uleb128 0x13
 3757 013c 11       		.uleb128 0x11
 3758 013d 01       		.uleb128 0x1
 3759 013e 12       		.uleb128 0x12
 3760 013f 06       		.uleb128 0x6
 3761 0140 40       		.uleb128 0x40
 3762 0141 18       		.uleb128 0x18
 3763 0142 9742     		.uleb128 0x2117
 3764 0144 19       		.uleb128 0x19
 3765 0145 01       		.uleb128 0x1
 3766 0146 13       		.uleb128 0x13
 3767 0147 00       		.byte	0
 3768 0148 00       		.byte	0
 3769 0149 13       		.uleb128 0x13
 3770 014a 2E       		.uleb128 0x2e
 3771 014b 00       		.byte	0
 3772 014c 3F       		.uleb128 0x3f
 3773 014d 19       		.uleb128 0x19
 3774 014e 03       		.uleb128 0x3
 3775 014f 0E       		.uleb128 0xe
 3776 0150 3A       		.uleb128 0x3a
 3777 0151 0B       		.uleb128 0xb
 3778 0152 3B       		.uleb128 0x3b
 3779 0153 05       		.uleb128 0x5
 3780 0154 27       		.uleb128 0x27
 3781 0155 19       		.uleb128 0x19
 3782 0156 11       		.uleb128 0x11
 3783 0157 01       		.uleb128 0x1
 3784 0158 12       		.uleb128 0x12
 3785 0159 06       		.uleb128 0x6
 3786 015a 40       		.uleb128 0x40
 3787 015b 18       		.uleb128 0x18
 3788 015c 9742     		.uleb128 0x2117
 3789 015e 19       		.uleb128 0x19
 3790 015f 00       		.byte	0
 3791 0160 00       		.byte	0
 3792 0161 14       		.uleb128 0x14
 3793 0162 2E       		.uleb128 0x2e
 3794 0163 01       		.byte	0x1
 3795 0164 03       		.uleb128 0x3
 3796 0165 0E       		.uleb128 0xe
 3797 0166 3A       		.uleb128 0x3a
 3798 0167 0B       		.uleb128 0xb
ARM GAS  C:\Users\Joe\AppData\Local\Temp\ccwCXT19.s 			page 100


 3799 0168 3B       		.uleb128 0x3b
 3800 0169 05       		.uleb128 0x5
 3801 016a 27       		.uleb128 0x27
 3802 016b 19       		.uleb128 0x19
 3803 016c 11       		.uleb128 0x11
 3804 016d 01       		.uleb128 0x1
 3805 016e 12       		.uleb128 0x12
 3806 016f 06       		.uleb128 0x6
 3807 0170 40       		.uleb128 0x40
 3808 0171 18       		.uleb128 0x18
 3809 0172 9642     		.uleb128 0x2116
 3810 0174 19       		.uleb128 0x19
 3811 0175 01       		.uleb128 0x1
 3812 0176 13       		.uleb128 0x13
 3813 0177 00       		.byte	0
 3814 0178 00       		.byte	0
 3815 0179 15       		.uleb128 0x15
 3816 017a 01       		.uleb128 0x1
 3817 017b 01       		.byte	0x1
 3818 017c 49       		.uleb128 0x49
 3819 017d 13       		.uleb128 0x13
 3820 017e 01       		.uleb128 0x1
 3821 017f 13       		.uleb128 0x13
 3822 0180 00       		.byte	0
 3823 0181 00       		.byte	0
 3824 0182 16       		.uleb128 0x16
 3825 0183 21       		.uleb128 0x21
 3826 0184 00       		.byte	0
 3827 0185 49       		.uleb128 0x49
 3828 0186 13       		.uleb128 0x13
 3829 0187 2F       		.uleb128 0x2f
 3830 0188 0B       		.uleb128 0xb
 3831 0189 00       		.byte	0
 3832 018a 00       		.byte	0
 3833 018b 17       		.uleb128 0x17
 3834 018c 34       		.uleb128 0x34
 3835 018d 00       		.byte	0
 3836 018e 03       		.uleb128 0x3
 3837 018f 0E       		.uleb128 0xe
 3838 0190 3A       		.uleb128 0x3a
 3839 0191 0B       		.uleb128 0xb
 3840 0192 3B       		.uleb128 0x3b
 3841 0193 0B       		.uleb128 0xb
 3842 0194 49       		.uleb128 0x49
 3843 0195 13       		.uleb128 0x13
 3844 0196 3F       		.uleb128 0x3f
 3845 0197 19       		.uleb128 0x19
 3846 0198 02       		.uleb128 0x2
 3847 0199 18       		.uleb128 0x18
 3848 019a 00       		.byte	0
 3849 019b 00       		.byte	0
 3850 019c 00       		.byte	0
 3851              		.section	.debug_aranges,"",%progbits
 3852 0000 E4000000 		.4byte	0xe4
 3853 0004 0200     		.2byte	0x2
 3854 0006 00000000 		.4byte	.Ldebug_info0
 3855 000a 04       		.byte	0x4
ARM GAS  C:\Users\Joe\AppData\Local\Temp\ccwCXT19.s 			page 101


 3856 000b 00       		.byte	0
 3857 000c 0000     		.2byte	0
 3858 000e 0000     		.2byte	0
 3859 0010 00000000 		.4byte	.LFB0
 3860 0014 1C010000 		.4byte	.LFE0-.LFB0
 3861 0018 00000000 		.4byte	.LFB1
 3862 001c 58010000 		.4byte	.LFE1-.LFB1
 3863 0020 00000000 		.4byte	.LFB2
 3864 0024 30000000 		.4byte	.LFE2-.LFB2
 3865 0028 00000000 		.4byte	.LFB3
 3866 002c 7C010000 		.4byte	.LFE3-.LFB3
 3867 0030 00000000 		.4byte	.LFB4
 3868 0034 3C000000 		.4byte	.LFE4-.LFB4
 3869 0038 00000000 		.4byte	.LFB5
 3870 003c 38000000 		.4byte	.LFE5-.LFB5
 3871 0040 00000000 		.4byte	.LFB6
 3872 0044 AC000000 		.4byte	.LFE6-.LFB6
 3873 0048 00000000 		.4byte	.LFB7
 3874 004c 3C000000 		.4byte	.LFE7-.LFB7
 3875 0050 00000000 		.4byte	.LFB8
 3876 0054 20000000 		.4byte	.LFE8-.LFB8
 3877 0058 00000000 		.4byte	.LFB9
 3878 005c 20000000 		.4byte	.LFE9-.LFB9
 3879 0060 00000000 		.4byte	.LFB10
 3880 0064 4C000000 		.4byte	.LFE10-.LFB10
 3881 0068 00000000 		.4byte	.LFB11
 3882 006c 68000000 		.4byte	.LFE11-.LFB11
 3883 0070 00000000 		.4byte	.LFB12
 3884 0074 7C000000 		.4byte	.LFE12-.LFB12
 3885 0078 00000000 		.4byte	.LFB13
 3886 007c A8000000 		.4byte	.LFE13-.LFB13
 3887 0080 00000000 		.4byte	.LFB14
 3888 0084 1C000000 		.4byte	.LFE14-.LFB14
 3889 0088 00000000 		.4byte	.LFB15
 3890 008c 1C000000 		.4byte	.LFE15-.LFB15
 3891 0090 00000000 		.4byte	.LFB16
 3892 0094 58000000 		.4byte	.LFE16-.LFB16
 3893 0098 00000000 		.4byte	.LFB17
 3894 009c 60000000 		.4byte	.LFE17-.LFB17
 3895 00a0 00000000 		.4byte	.LFB18
 3896 00a4 B0000000 		.4byte	.LFE18-.LFB18
 3897 00a8 00000000 		.4byte	.LFB19
 3898 00ac 64010000 		.4byte	.LFE19-.LFB19
 3899 00b0 00000000 		.4byte	.LFB20
 3900 00b4 90000000 		.4byte	.LFE20-.LFB20
 3901 00b8 00000000 		.4byte	.LFB21
 3902 00bc 70010000 		.4byte	.LFE21-.LFB21
 3903 00c0 00000000 		.4byte	.LFB22
 3904 00c4 7C000000 		.4byte	.LFE22-.LFB22
 3905 00c8 00000000 		.4byte	.LFB23
 3906 00cc 3C000000 		.4byte	.LFE23-.LFB23
 3907 00d0 00000000 		.4byte	.LFB24
 3908 00d4 3C000000 		.4byte	.LFE24-.LFB24
 3909 00d8 00000000 		.4byte	.LFB25
 3910 00dc 38000000 		.4byte	.LFE25-.LFB25
 3911 00e0 00000000 		.4byte	0
 3912 00e4 00000000 		.4byte	0
ARM GAS  C:\Users\Joe\AppData\Local\Temp\ccwCXT19.s 			page 102


 3913              		.section	.debug_ranges,"",%progbits
 3914              	.Ldebug_ranges0:
 3915 0000 00000000 		.4byte	.LFB0
 3916 0004 1C010000 		.4byte	.LFE0
 3917 0008 00000000 		.4byte	.LFB1
 3918 000c 58010000 		.4byte	.LFE1
 3919 0010 00000000 		.4byte	.LFB2
 3920 0014 30000000 		.4byte	.LFE2
 3921 0018 00000000 		.4byte	.LFB3
 3922 001c 7C010000 		.4byte	.LFE3
 3923 0020 00000000 		.4byte	.LFB4
 3924 0024 3C000000 		.4byte	.LFE4
 3925 0028 00000000 		.4byte	.LFB5
 3926 002c 38000000 		.4byte	.LFE5
 3927 0030 00000000 		.4byte	.LFB6
 3928 0034 AC000000 		.4byte	.LFE6
 3929 0038 00000000 		.4byte	.LFB7
 3930 003c 3C000000 		.4byte	.LFE7
 3931 0040 00000000 		.4byte	.LFB8
 3932 0044 20000000 		.4byte	.LFE8
 3933 0048 00000000 		.4byte	.LFB9
 3934 004c 20000000 		.4byte	.LFE9
 3935 0050 00000000 		.4byte	.LFB10
 3936 0054 4C000000 		.4byte	.LFE10
 3937 0058 00000000 		.4byte	.LFB11
 3938 005c 68000000 		.4byte	.LFE11
 3939 0060 00000000 		.4byte	.LFB12
 3940 0064 7C000000 		.4byte	.LFE12
 3941 0068 00000000 		.4byte	.LFB13
 3942 006c A8000000 		.4byte	.LFE13
 3943 0070 00000000 		.4byte	.LFB14
 3944 0074 1C000000 		.4byte	.LFE14
 3945 0078 00000000 		.4byte	.LFB15
 3946 007c 1C000000 		.4byte	.LFE15
 3947 0080 00000000 		.4byte	.LFB16
 3948 0084 58000000 		.4byte	.LFE16
 3949 0088 00000000 		.4byte	.LFB17
 3950 008c 60000000 		.4byte	.LFE17
 3951 0090 00000000 		.4byte	.LFB18
 3952 0094 B0000000 		.4byte	.LFE18
 3953 0098 00000000 		.4byte	.LFB19
 3954 009c 64010000 		.4byte	.LFE19
 3955 00a0 00000000 		.4byte	.LFB20
 3956 00a4 90000000 		.4byte	.LFE20
 3957 00a8 00000000 		.4byte	.LFB21
 3958 00ac 70010000 		.4byte	.LFE21
 3959 00b0 00000000 		.4byte	.LFB22
 3960 00b4 7C000000 		.4byte	.LFE22
 3961 00b8 00000000 		.4byte	.LFB23
 3962 00bc 3C000000 		.4byte	.LFE23
 3963 00c0 00000000 		.4byte	.LFB24
 3964 00c4 3C000000 		.4byte	.LFE24
 3965 00c8 00000000 		.4byte	.LFB25
 3966 00cc 38000000 		.4byte	.LFE25
 3967 00d0 00000000 		.4byte	0
 3968 00d4 00000000 		.4byte	0
 3969              		.section	.debug_line,"",%progbits
ARM GAS  C:\Users\Joe\AppData\Local\Temp\ccwCXT19.s 			page 103


 3970              	.Ldebug_line0:
 3971 0000 66030000 		.section	.debug_str,"MS",%progbits,1
 3971      02005B00 
 3971      00000201 
 3971      FB0E0D00 
 3971      01010101 
 3972              	.LASF10:
 3973 0000 75696E74 		.ascii	"uint16\000"
 3973      313600
 3974              	.LASF56:
 3975 0007 61646347 		.ascii	"adcGain\000"
 3975      61696E00 
 3976              	.LASF31:
 3977 000f 4144435F 		.ascii	"ADC_DelSig_1_Enable\000"
 3977      44656C53 
 3977      69675F31 
 3977      5F456E61 
 3977      626C6500 
 3978              	.LASF71:
 3979 0023 696E7075 		.ascii	"inputRange\000"
 3979      7452616E 
 3979      676500
 3980              	.LASF67:
 3981 002e 4144435F 		.ascii	"ADC_DelSig_1_SelectConfiguration\000"
 3981      44656C53 
 3981      69675F31 
 3981      5F53656C 
 3981      65637443 
 3982              	.LASF24:
 3983 004f 67636F72 		.ascii	"gcor\000"
 3983      00
 3984              	.LASF90:
 3985 0054 474E5520 		.ascii	"GNU C11 5.4.1 20160609 (release) [ARM/embedded-5-br"
 3985      43313120 
 3985      352E342E 
 3985      31203230 
 3985      31363036 
 3986 0087 616E6368 		.ascii	"anch revision 237715] -mcpu=cortex-m3 -mthumb -g -O"
 3986      20726576 
 3986      6973696F 
 3986      6E203233 
 3986      37373135 
 3987 00ba 30202D66 		.ascii	"0 -ffunction-sections -ffat-lto-objects\000"
 3987      66756E63 
 3987      74696F6E 
 3987      2D736563 
 3987      74696F6E 
 3988              	.LASF7:
 3989 00e2 6C6F6E67 		.ascii	"long long unsigned int\000"
 3989      206C6F6E 
 3989      6720756E 
 3989      7369676E 
 3989      65642069 
 3990              	.LASF32:
 3991 00f9 4144435F 		.ascii	"ADC_DelSig_1_Stop\000"
 3991      44656C53 
 3991      69675F31 
ARM GAS  C:\Users\Joe\AppData\Local\Temp\ccwCXT19.s 			page 104


 3991      5F53746F 
 3991      7000
 3992              	.LASF73:
 3993 010b 69646561 		.ascii	"idealOddDecGain\000"
 3993      6C4F6464 
 3993      44656347 
 3993      61696E00 
 3994              	.LASF69:
 3995 011b 4144435F 		.ascii	"ADC_DelSig_1_InitConfig\000"
 3995      44656C53 
 3995      69675F31 
 3995      5F496E69 
 3995      74436F6E 
 3996              	.LASF49:
 3997 0133 4144435F 		.ascii	"ADC_DelSig_1_GetResult8\000"
 3997      44656C53 
 3997      69675F31 
 3997      5F476574 
 3997      52657375 
 3998              	.LASF6:
 3999 014b 6C6F6E67 		.ascii	"long long int\000"
 3999      206C6F6E 
 3999      6720696E 
 3999      7400
 4000              	.LASF0:
 4001 0159 7369676E 		.ascii	"signed char\000"
 4001      65642063 
 4001      68617200 
 4002              	.LASF14:
 4003 0165 696E7433 		.ascii	"int32\000"
 4003      3200
 4004              	.LASF81:
 4005 016b 4144435F 		.ascii	"ADC_DelSig_1_Read32\000"
 4005      44656C53 
 4005      69675F31 
 4005      5F526561 
 4005      64333200 
 4006              	.LASF4:
 4007 017f 6C6F6E67 		.ascii	"long int\000"
 4007      20696E74 
 4007      00
 4008              	.LASF20:
 4009 0188 72656731 		.ascii	"reg16\000"
 4009      3600
 4010              	.LASF9:
 4011 018e 75696E74 		.ascii	"uint8\000"
 4011      3800
 4012              	.LASF17:
 4013 0194 646F7562 		.ascii	"double\000"
 4013      6C6500
 4014              	.LASF61:
 4015 019b 566F6C74 		.ascii	"Volts\000"
 4015      7300
 4016              	.LASF11:
 4017 01a1 75696E74 		.ascii	"uint32\000"
 4017      333200
 4018              	.LASF78:
ARM GAS  C:\Users\Joe\AppData\Local\Temp\ccwCXT19.s 			page 105


 4019 01a8 76616C75 		.ascii	"value\000"
 4019      6500
 4020              	.LASF48:
 4021 01ae 7265744D 		.ascii	"retMode\000"
 4021      6F646500 
 4022              	.LASF92:
 4023 01b6 443A5C44 		.ascii	"D:\\Documents\\DPEA_Projects\\RpiMIB\\Number1.cydsn"
 4023      6F63756D 
 4023      656E7473 
 4023      5C445045 
 4023      415F5072 
 4024 01e5 00       		.ascii	"\000"
 4025              	.LASF8:
 4026 01e6 756E7369 		.ascii	"unsigned int\000"
 4026      676E6564 
 4026      20696E74 
 4026      00
 4027              	.LASF63:
 4028 01f3 75566F6C 		.ascii	"uVolts\000"
 4028      747300
 4029              	.LASF83:
 4030 01fa 4144435F 		.ascii	"ADC_DelSig_1_initVar\000"
 4030      44656C53 
 4030      69675F31 
 4030      5F696E69 
 4030      74566172 
 4031              	.LASF5:
 4032 020f 6C6F6E67 		.ascii	"long unsigned int\000"
 4032      20756E73 
 4032      69676E65 
 4032      6420696E 
 4032      7400
 4033              	.LASF86:
 4034 0221 4144435F 		.ascii	"ADC_DelSig_1_started\000"
 4034      44656C53 
 4034      69675F31 
 4034      5F737461 
 4034      72746564 
 4035              	.LASF3:
 4036 0236 73686F72 		.ascii	"short unsigned int\000"
 4036      7420756E 
 4036      7369676E 
 4036      65642069 
 4036      6E7400
 4037              	.LASF12:
 4038 0249 696E7438 		.ascii	"int8\000"
 4038      00
 4039              	.LASF44:
 4040 024e 67636F72 		.ascii	"gcorValue\000"
 4040      56616C75 
 4040      6500
 4041              	.LASF59:
 4042 0258 6D566F6C 		.ascii	"mVolts\000"
 4042      747300
 4043              	.LASF74:
 4044 025f 666C6173 		.ascii	"flash\000"
 4044      6800
ARM GAS  C:\Users\Joe\AppData\Local\Temp\ccwCXT19.s 			page 106


 4045              	.LASF21:
 4046 0265 72656733 		.ascii	"reg32\000"
 4046      3200
 4047              	.LASF60:
 4048 026b 4144435F 		.ascii	"ADC_DelSig_1_CountsTo_Volts\000"
 4048      44656C53 
 4048      69675F31 
 4048      5F436F75 
 4048      6E747354 
 4049              	.LASF15:
 4050 0287 666C6F61 		.ascii	"float32\000"
 4050      74333200 
 4051              	.LASF51:
 4052 028f 4144435F 		.ascii	"ADC_DelSig_1_GetResult16\000"
 4052      44656C53 
 4052      69675F31 
 4052      5F476574 
 4052      52657375 
 4053              	.LASF23:
 4054 02a8 73697A65 		.ascii	"sizetype\000"
 4054      74797065 
 4054      00
 4055              	.LASF84:
 4056 02b1 4144435F 		.ascii	"ADC_DelSig_1_convDone\000"
 4056      44656C53 
 4056      69675F31 
 4056      5F636F6E 
 4056      76446F6E 
 4057              	.LASF22:
 4058 02c7 6C6F6E67 		.ascii	"long double\000"
 4058      20646F75 
 4058      626C6500 
 4059              	.LASF29:
 4060 02d3 4144435F 		.ascii	"ADC_DelSig_1_Init\000"
 4060      44656C53 
 4060      69675F31 
 4060      5F496E69 
 4060      7400
 4061              	.LASF62:
 4062 02e5 4144435F 		.ascii	"ADC_DelSig_1_CountsTo_uVolts\000"
 4062      44656C53 
 4062      69675F31 
 4062      5F436F75 
 4062      6E747354 
 4063              	.LASF36:
 4064 0302 6761696E 		.ascii	"gain\000"
 4064      00
 4065              	.LASF87:
 4066 0307 4144435F 		.ascii	"ADC_DelSig_1_Config\000"
 4066      44656C53 
 4066      69675F31 
 4066      5F436F6E 
 4066      66696700 
 4067              	.LASF37:
 4068 031b 636F6865 		.ascii	"coherency\000"
 4068      72656E63 
 4068      7900
ARM GAS  C:\Users\Joe\AppData\Local\Temp\ccwCXT19.s 			page 107


 4069              	.LASF26:
 4070 0325 4144435F 		.ascii	"ADC_DelSig_1_GCOR_STRUCT\000"
 4070      44656C53 
 4070      69675F31 
 4070      5F47434F 
 4070      525F5354 
 4071              	.LASF16:
 4072 033e 666C6F61 		.ascii	"float\000"
 4072      7400
 4073              	.LASF88:
 4074 0344 4144435F 		.ascii	"ADC_DelSig_1_Offset\000"
 4074      44656C53 
 4074      69675F31 
 4074      5F4F6666 
 4074      73657400 
 4075              	.LASF19:
 4076 0358 72656738 		.ascii	"reg8\000"
 4076      00
 4077              	.LASF72:
 4078 035d 69646561 		.ascii	"idealDecGain\000"
 4078      6C446563 
 4078      4761696E 
 4078      00
 4079              	.LASF75:
 4080 036a 6E6F726D 		.ascii	"normalised\000"
 4080      616C6973 
 4080      656400
 4081              	.LASF1:
 4082 0375 756E7369 		.ascii	"unsigned char\000"
 4082      676E6564 
 4082      20636861 
 4082      7200
 4083              	.LASF53:
 4084 0383 4144435F 		.ascii	"ADC_DelSig_1_SetOffset\000"
 4084      44656C53 
 4084      69675F31 
 4084      5F536574 
 4084      4F666673 
 4085              	.LASF2:
 4086 039a 73686F72 		.ascii	"short int\000"
 4086      7420696E 
 4086      7400
 4087              	.LASF76:
 4088 03a4 67636F72 		.ascii	"gcorTmp\000"
 4088      546D7000 
 4089              	.LASF45:
 4090 03ac 4144435F 		.ascii	"ADC_DelSig_1_StartConvert\000"
 4090      44656C53 
 4090      69675F31 
 4090      5F537461 
 4090      7274436F 
 4091              	.LASF66:
 4092 03c6 7265736F 		.ascii	"resolution\000"
 4092      6C757469 
 4092      6F6E00
 4093              	.LASF64:
 4094 03d1 636F6566 		.ascii	"coefA\000"
ARM GAS  C:\Users\Joe\AppData\Local\Temp\ccwCXT19.s 			page 108


 4094      4100
 4095              	.LASF65:
 4096 03d7 636F6566 		.ascii	"coefB\000"
 4096      4200
 4097              	.LASF52:
 4098 03dd 4144435F 		.ascii	"ADC_DelSig_1_GetResult32\000"
 4098      44656C53 
 4098      69675F31 
 4098      5F476574 
 4098      52657375 
 4099              	.LASF18:
 4100 03f6 63686172 		.ascii	"char\000"
 4100      00
 4101              	.LASF35:
 4102 03fb 4144435F 		.ascii	"ADC_DelSig_1_SetCoherency\000"
 4102      44656C53 
 4102      69675F31 
 4102      5F536574 
 4102      436F6865 
 4103              	.LASF89:
 4104 0415 4144435F 		.ascii	"ADC_DelSig_1_CountsPerVolt\000"
 4104      44656C53 
 4104      69675F31 
 4104      5F436F75 
 4104      6E747350 
 4105              	.LASF27:
 4106 0430 636F6E66 		.ascii	"config\000"
 4106      696700
 4107              	.LASF25:
 4108 0437 6776616C 		.ascii	"gval\000"
 4108      00
 4109              	.LASF68:
 4110 043c 72657374 		.ascii	"restart\000"
 4110      61727400 
 4111              	.LASF40:
 4112 0444 746D7056 		.ascii	"tmpValue\000"
 4112      616C7565 
 4112      00
 4113              	.LASF77:
 4114 044d 4144435F 		.ascii	"ADC_DelSig_1_SetDSMRef0Reg\000"
 4114      44656C53 
 4114      69675F31 
 4114      5F536574 
 4114      44534D52 
 4115              	.LASF54:
 4116 0468 6F666673 		.ascii	"offset\000"
 4116      657400
 4117              	.LASF58:
 4118 046f 61646343 		.ascii	"adcCounts\000"
 4118      6F756E74 
 4118      7300
 4119              	.LASF70:
 4120 0479 4144435F 		.ascii	"ADC_DelSig_1_GainCompensation\000"
 4120      44656C53 
 4120      69675F31 
 4120      5F476169 
 4120      6E436F6D 
ARM GAS  C:\Users\Joe\AppData\Local\Temp\ccwCXT19.s 			page 109


 4121              	.LASF28:
 4122 0497 656E6162 		.ascii	"enableInterrupts\000"
 4122      6C65496E 
 4122      74657272 
 4122      75707473 
 4122      00
 4123              	.LASF47:
 4124 04a8 4144435F 		.ascii	"ADC_DelSig_1_IsEndConversion\000"
 4124      44656C53 
 4124      69675F31 
 4124      5F497345 
 4124      6E64436F 
 4125              	.LASF41:
 4126 04c5 4144435F 		.ascii	"ADC_DelSig_1_SetGCOR\000"
 4126      44656C53 
 4126      69675F31 
 4126      5F536574 
 4126      47434F52 
 4127              	.LASF43:
 4128 04da 6756616C 		.ascii	"gValue\000"
 4128      756500
 4129              	.LASF91:
 4130 04e1 47656E65 		.ascii	"Generated_Source\\PSoC5\\ADC_DelSig_1.c\000"
 4130      72617465 
 4130      645F536F 
 4130      75726365 
 4130      5C50536F 
 4131              	.LASF39:
 4132 0507 73746174 		.ascii	"status\000"
 4132      757300
 4133              	.LASF38:
 4134 050e 6761696E 		.ascii	"gainAdjust\000"
 4134      41646A75 
 4134      737400
 4135              	.LASF30:
 4136 0519 4144435F 		.ascii	"ADC_DelSig_1_Start\000"
 4136      44656C53 
 4136      69675F31 
 4136      5F537461 
 4136      727400
 4137              	.LASF13:
 4138 052c 696E7431 		.ascii	"int16\000"
 4138      3600
 4139              	.LASF46:
 4140 0532 4144435F 		.ascii	"ADC_DelSig_1_StopConvert\000"
 4140      44656C53 
 4140      69675F31 
 4140      5F53746F 
 4140      70436F6E 
 4141              	.LASF55:
 4142 054b 4144435F 		.ascii	"ADC_DelSig_1_SetGain\000"
 4142      44656C53 
 4142      69675F31 
 4142      5F536574 
 4142      4761696E 
 4143              	.LASF80:
 4144 0560 4144435F 		.ascii	"ADC_DelSig_1_Read16\000"
ARM GAS  C:\Users\Joe\AppData\Local\Temp\ccwCXT19.s 			page 110


 4144      44656C53 
 4144      69675F31 
 4144      5F526561 
 4144      64313600 
 4145              	.LASF57:
 4146 0574 4144435F 		.ascii	"ADC_DelSig_1_CountsTo_mVolts\000"
 4146      44656C53 
 4146      69675F31 
 4146      5F436F75 
 4146      6E747354 
 4147              	.LASF33:
 4148 0591 4144435F 		.ascii	"ADC_DelSig_1_SetBufferGain\000"
 4148      44656C53 
 4148      69675F31 
 4148      5F536574 
 4148      42756666 
 4149              	.LASF34:
 4150 05ac 746D7052 		.ascii	"tmpReg\000"
 4150      656700
 4151              	.LASF79:
 4152 05b3 4144435F 		.ascii	"ADC_DelSig_1_Read8\000"
 4152      44656C53 
 4152      69675F31 
 4152      5F526561 
 4152      643800
 4153              	.LASF50:
 4154 05c6 72657375 		.ascii	"result\000"
 4154      6C7400
 4155              	.LASF85:
 4156 05cd 4144435F 		.ascii	"ADC_DelSig_1_stopConversion\000"
 4156      44656C53 
 4156      69675F31 
 4156      5F73746F 
 4156      70436F6E 
 4157              	.LASF42:
 4158 05e9 4144435F 		.ascii	"ADC_DelSig_1_ReadGCOR\000"
 4158      44656C53 
 4158      69675F31 
 4158      5F526561 
 4158      6447434F 
 4159              	.LASF82:
 4160 05ff 4144435F 		.ascii	"ADC_DelSig_1_gcor\000"
 4160      44656C53 
 4160      69675F31 
 4160      5F67636F 
 4160      7200
 4161              		.ident	"GCC: (GNU Tools for ARM Embedded Processors) 5.4.1 20160609 (release) [ARM/embedded-5-bran
