ARM GAS  C:\Users\HARLOW~1\AppData\Local\Temp\cc1Mjvxb.s 			page 1


   1              		.syntax unified
   2              		.cpu cortex-m3
   3              		.fpu softvfp
   4              		.eabi_attribute 20, 1
   5              		.eabi_attribute 21, 1
   6              		.eabi_attribute 23, 3
   7              		.eabi_attribute 24, 1
   8              		.eabi_attribute 25, 1
   9              		.eabi_attribute 26, 1
  10              		.eabi_attribute 30, 4
  11              		.eabi_attribute 34, 1
  12              		.eabi_attribute 18, 4
  13              		.thumb
  14              		.syntax unified
  15              		.file	"main.c"
  16              		.text
  17              	.Ltext0:
  18              		.cfi_sections	.debug_frame
  19              		.section	.text.SS_Fall_Handler,"ax",%progbits
  20              		.align	1
  21              		.global	SS_Fall_Handler
  22              		.thumb
  23              		.thumb_func
  24              		.type	SS_Fall_Handler, %function
  25              	SS_Fall_Handler:
  26              	.LFB63:
  27              		.file 1 "main.c"
   1:main.c        **** /*******************************************************************************
   2:main.c        **** * File Name: main.c
   3:main.c        **** *
   4:main.c        **** * Version: 1.10
   5:main.c        **** *
   6:main.c        **** * Description:
   7:main.c        **** *  This is source code for example project of the SPI Master component.
   8:main.c        **** *  Parameters used:
   9:main.c        **** *   Mode                CPHA == 0, CPOL == 0                
  10:main.c        **** *   Data lines          MOSI+MISO
  11:main.c        **** *   Shift direction     MSB First
  12:main.c        **** *   DataBits:           8 
  13:main.c        **** *   Bit Rate            1 Mbps
  14:main.c        **** *   Clock source        External 
  15:main.c        **** *
  16:main.c        **** *  SPI communication test using DMA. 8 bytes are transmitted
  17:main.c        **** *  between SPI Master and SPI Slave.
  18:main.c        **** *  Received data are displayed on LCD. 
  19:main.c        **** *
  20:main.c        **** ********************************************************************************
  21:main.c        **** * Copyright 2012-2015, Cypress Semiconductor Corporation. All rights reserved.
  22:main.c        **** * This software is owned by Cypress Semiconductor Corporation and is protected
  23:main.c        **** * by and subject to worldwide patent and copyright laws and treaties.
  24:main.c        **** * Therefore, you may use this software only as provided in the license agreement
  25:main.c        **** * accompanying the software package from which you obtained this software.
  26:main.c        **** * CYPRESS AND ITS SUPPLIERS MAKE NO WARRANTY OF ANY KIND, EXPRESS OR IMPLIED,
  27:main.c        **** * WITH REGARD TO THIS SOFTWARE, INCLUDING, BUT NOT LIMITED TO, NONINFRINGEMENT,
  28:main.c        **** * IMPLIED WARRANTIES OF MERCHANTABILITY AND FITNESS FOR A PARTICULAR PURPOSE.
  29:main.c        **** *******************************************************************************/
  30:main.c        **** #include <project.h>
ARM GAS  C:\Users\HARLOW~1\AppData\Local\Temp\cc1Mjvxb.s 			page 2


  31:main.c        **** 
  32:main.c        **** 
  33:main.c        **** uint16 WriteSignalGen(uint8, uint16);
  34:main.c        **** uint16 ReadEncoderValue(uint8);
  35:main.c        **** uint16  RPi_Command;
  36:main.c        **** uint16  RPi_Data;
  37:main.c        **** uint16 enc_a_Position;
  38:main.c        **** uint16 enc_b_Position;
  39:main.c        **** uint16 enc_c_Position;
  40:main.c        **** uint16 pwm_a_command;
  41:main.c        **** uint16 pwm_b_command;
  42:main.c        **** uint16 pwm_a_new_command;
  43:main.c        **** uint16 pwm_b_new_command;
  44:main.c        **** 
  45:main.c        **** #define idle_state            ((uint8) (0x00u))
  46:main.c        **** #define read_encoder_state    ((uint8) (0x01u))
  47:main.c        **** #define write_funcGen1_state  ((uint8) (0x02u))
  48:main.c        **** #define write_funcGen2_state  ((uint8) (0x03u))
  49:main.c        **** #define write_Amp_state       ((uint8) (0x04u))
  50:main.c        **** #define write_pwm_a_state     ((uint8) (0x05u))
  51:main.c        **** #define write_pwm_b_state     ((uint8) (0x06u))
  52:main.c        **** 
  53:main.c        **** 
  54:main.c        **** uint8 read_counter;
  55:main.c        **** uint8  PSOC_state;
  56:main.c        **** uint8 i2cAddress;
  57:main.c        **** uint8 i2cData;
  58:main.c        **** 
  59:main.c        **** CY_ISR(SS_Fall_Handler)
  60:main.c        **** {
  28              		.loc 1 60 0
  29              		.cfi_startproc
  30              		@ args = 0, pretend = 0, frame = 0
  31              		@ frame_needed = 0, uses_anonymous_args = 0
  32 0000 08B5     		push	{r3, lr}
  33              		.cfi_def_cfa_offset 8
  34              		.cfi_offset 3, -8
  35              		.cfi_offset 14, -4
  61:main.c        ****     /*  load the encoder position data into the transmit data registers*/
  62:main.c        **** 
  63:main.c        ****     isr_SS_Fall_ClearPending();
  36              		.loc 1 63 0
  37 0002 FFF7FEFF 		bl	isr_SS_Fall_ClearPending
  38              	.LVL0:
  64:main.c        ****    if (PSOC_state == idle_state) {
  39              		.loc 1 64 0
  40 0006 0F4B     		ldr	r3, .L10
  41 0008 1B78     		ldrb	r3, [r3]	@ zero_extendqisi2
  42 000a 0BB9     		cbnz	r3, .L2
  65:main.c        ****        SPIS_WriteTxDataZero(0x0001);
  43              		.loc 1 65 0
  44 000c 0120     		movs	r0, #1
  45 000e 14E0     		b	.L8
  46              	.L2:
  66:main.c        ****    } else if (PSOC_state == write_funcGen1_state) {
  47              		.loc 1 66 0
  48 0010 022B     		cmp	r3, #2
ARM GAS  C:\Users\HARLOW~1\AppData\Local\Temp\cc1Mjvxb.s 			page 3


  49 0012 01D1     		bne	.L3
  67:main.c        ****        SPIS_WriteTxDataZero(0x0020 );
  50              		.loc 1 67 0
  51 0014 2020     		movs	r0, #32
  52 0016 10E0     		b	.L8
  53              	.L3:
  68:main.c        ****    } else if (PSOC_state == write_funcGen2_state) {
  54              		.loc 1 68 0
  55 0018 032B     		cmp	r3, #3
  56 001a 01D1     		bne	.L4
  69:main.c        ****        SPIS_WriteTxDataZero(0x0040 );
  57              		.loc 1 69 0
  58 001c 4020     		movs	r0, #64
  59 001e 0CE0     		b	.L8
  60              	.L4:
  70:main.c        ****    }  else if (PSOC_state == write_Amp_state) {
  61              		.loc 1 70 0
  62 0020 042B     		cmp	r3, #4
  63 0022 01D1     		bne	.L5
  71:main.c        ****        SPIS_WriteTxDataZero(0x0080 );
  64              		.loc 1 71 0
  65 0024 8020     		movs	r0, #128
  66 0026 08E0     		b	.L8
  67              	.L5:
  72:main.c        ****    }    else if (PSOC_state == write_pwm_a_state) {
  68              		.loc 1 72 0
  69 0028 052B     		cmp	r3, #5
  70 002a 02D1     		bne	.L6
  73:main.c        ****        SPIS_WriteTxDataZero(0x0100 );
  71              		.loc 1 73 0
  72 002c 4FF48070 		mov	r0, #256
  73 0030 03E0     		b	.L8
  74              	.L6:
  74:main.c        ****    } else if (PSOC_state == write_pwm_b_state) {
  75              		.loc 1 74 0
  76 0032 062B     		cmp	r3, #6
  77 0034 05D1     		bne	.L1
  75:main.c        ****        SPIS_WriteTxDataZero(0x0200 );
  78              		.loc 1 75 0
  79 0036 4FF40070 		mov	r0, #512
  80              	.L8:
  76:main.c        ****    }
  77:main.c        **** }
  81              		.loc 1 77 0
  82 003a BDE80840 		pop	{r3, lr}
  83              		.cfi_remember_state
  84              		.cfi_restore 14
  85              		.cfi_restore 3
  86              		.cfi_def_cfa_offset 0
  75:main.c        ****        SPIS_WriteTxDataZero(0x0200 );
  87              		.loc 1 75 0
  88 003e FFF7FEBF 		b	SPIS_WriteTxDataZero
  89              	.LVL1:
  90              	.L1:
  91              		.cfi_restore_state
  92 0042 08BD     		pop	{r3, pc}
  93              	.L11:
ARM GAS  C:\Users\HARLOW~1\AppData\Local\Temp\cc1Mjvxb.s 			page 4


  94              		.align	2
  95              	.L10:
  96 0044 00000000 		.word	PSOC_state
  97              		.cfi_endproc
  98              	.LFE63:
  99              		.size	SS_Fall_Handler, .-SS_Fall_Handler
 100              		.section	.text.WriteSignalGen,"ax",%progbits
 101              		.align	1
 102              		.global	WriteSignalGen
 103              		.thumb
 104              		.thumb_func
 105              		.type	WriteSignalGen, %function
 106              	WriteSignalGen:
 107              	.LFB66:
  78:main.c        **** 
  79:main.c        **** CY_ISR(SS_Rise_Handler)
  80:main.c        **** {
  81:main.c        ****     if (PSOC_state == idle_state)
  82:main.c        ****     {
  83:main.c        ****         RPi_Command = SPIS_ReadRxData();
  84:main.c        ****         read_counter = 0u;
  85:main.c        ****     } else {
  86:main.c        ****         RPi_Data = SPIS_ReadRxData();
  87:main.c        ****     }
  88:main.c        ****     
  89:main.c        **** /*    Routine to write to sig gen over SPI or Power Amp Gain over I2C */
  90:main.c        ****     
  91:main.c        ****     if (PSOC_state == idle_state)  {
  92:main.c        ****         if (RPi_Command == 0x0010)  {          
  93:main.c        ****            PSOC_state = read_encoder_state;
  94:main.c        ****            SPIS_WriteTxDataZero(enc_a_Position);
  95:main.c        ****            SPIS_WriteTxData(enc_b_Position);
  96:main.c        ****            SPIS_WriteTxData(enc_c_Position);
  97:main.c        ****            read_counter = 0u; 
  98:main.c        ****         } else if (RPi_Command == 0x0020)  {
  99:main.c        ****            PSOC_state = write_funcGen1_state;
 100:main.c        ****         } else if (RPi_Command == 0x0040)  {
 101:main.c        ****            PSOC_state = write_funcGen2_state;
 102:main.c        ****         }  else if (RPi_Command == 0x0080)  {
 103:main.c        ****            PSOC_state = write_Amp_state;
 104:main.c        ****         }  else if (RPi_Command == 0x0100)  {
 105:main.c        ****            PSOC_state = write_pwm_a_state;
 106:main.c        ****         }  else if (RPi_Command == 0x0200)  {
 107:main.c        ****            PSOC_state = write_pwm_b_state;
 108:main.c        ****         }
 109:main.c        ****     } else  if  ( PSOC_state == read_encoder_state) {      
 110:main.c        ****         if (read_counter < 2u) {
 111:main.c        ****             read_counter +=1;
 112:main.c        ****         } else  {
 113:main.c        ****             PSOC_state = idle_state;
 114:main.c        ****             read_counter = 0u;
 115:main.c        ****         }
 116:main.c        ****     } else if ( PSOC_state == write_funcGen1_state) {
 117:main.c        ****         WriteSignalGen(0u, RPi_Data); 
 118:main.c        ****         PSOC_state = idle_state;
 119:main.c        ****     } else if ( PSOC_state == write_funcGen2_state) {
 120:main.c        ****         WriteSignalGen(1u, RPi_Data); 
ARM GAS  C:\Users\HARLOW~1\AppData\Local\Temp\cc1Mjvxb.s 			page 5


 121:main.c        ****         PSOC_state = idle_state;
 122:main.c        ****     } else if ( PSOC_state == write_Amp_state) {
 123:main.c        ****         i2cAddress = ((uint8) (RPi_Data >>8));
 124:main.c        ****         i2cData = ((uint8) (RPi_Data & 0x00ff));
 125:main.c        ****         I2C_1_MasterSendStart(i2cAddress,0);
 126:main.c        ****         I2C_1_MasterWriteByte(i2cData);I2C_1_MasterSendStop();
 127:main.c        ****         PSOC_state = idle_state;       
 128:main.c        ****      } else if ( PSOC_state == write_pwm_a_state) {
 129:main.c        ****         pwm_a_new_command = RPi_Data;
 130:main.c        ****         if ( pwm_a_new_command < 1000u) {
 131:main.c        ****             pwm_a_new_command = 1000u;
 132:main.c        ****         } else if (pwm_a_new_command > 2000u)  {
 133:main.c        ****             pwm_a_new_command = 2000u;
 134:main.c        ****         }
 135:main.c        ****        /* PWM_1_WriteCompare(pwm_a_command);  */
 136:main.c        ****         PSOC_state = idle_state;  
 137:main.c        ****     } else if ( PSOC_state == write_pwm_b_state) {
 138:main.c        ****         pwm_b_new_command = RPi_Data;
 139:main.c        ****         if ( pwm_b_new_command < 1000u) {
 140:main.c        ****             pwm_b_new_command = 1000u;
 141:main.c        ****         } else if (pwm_b_new_command > 2000u)  {
 142:main.c        ****             pwm_b_new_command = 2000u;
 143:main.c        ****         }
 144:main.c        ****      /*   PWM_2_WriteCompare(pwm_b_command);   */
 145:main.c        ****         PSOC_state = idle_state;         
 146:main.c        ****      } else {
 147:main.c        ****          PSOC_state = idle_state;
 148:main.c        ****     }
 149:main.c        **** 
 150:main.c        ****     SPIS_ReadRxStatus();
 151:main.c        ****     SPIS_ClearRxBuffer();
 152:main.c        ****     isr_SS_Rise_ClearPending();
 153:main.c        ****    
 154:main.c        **** }
 155:main.c        **** 
 156:main.c        **** 
 157:main.c        **** /* The txBuffer size is equal (BUFFER_SIZE-1) because for SPI Mode where CPHA == 0 and
 158:main.c        **** * CPOL == 0 one byte writes directly in SPI TX FIFO using SPIS_WriteTxDataZero() API.
 159:main.c        **** */
 160:main.c        **** 
 161:main.c        **** uint16 rxBuffer [4];
 162:main.c        **** 
 163:main.c        ****  uint8 temp1;
 164:main.c        ****  uint8 temp2;
 165:main.c        **** 
 166:main.c        **** 
 167:main.c        **** uint8 i;
 168:main.c        **** uint16 shutdown_count;
 169:main.c        **** 
 170:main.c        **** /*******************************************************************************
 171:main.c        **** * Function Name: main
 172:main.c        **** ********************************************************************************
 173:main.c        **** *******************************************************************************/
 174:main.c        **** int main()
 175:main.c        **** {
 176:main.c        ****     Comp_1_Start();
 177:main.c        ****     CyDelay(2000u);
ARM GAS  C:\Users\HARLOW~1\AppData\Local\Temp\cc1Mjvxb.s 			page 6


 178:main.c        ****     /* Enable Battery Backup circuit and interface circuits between RPi and PSOC  */
 179:main.c        ****     EnableBattery_Write(1u);
 180:main.c        ****     Control_Reg_SS_Write(0u);
 181:main.c        ****     Control_Reg_LED_Write(0u);
 182:main.c        ****     RpiInterrupts_Write(3u);     
 183:main.c        ****     Clock_1_Start();
 184:main.c        ****  
 185:main.c        ****     SPIM_1_Start();
 186:main.c        ****     SPIM_1_ClearFIFO();
 187:main.c        ****     SPIM_1_ClearRxBuffer();
 188:main.c        ****     SPIM_1_ClearTxBuffer();   
 189:main.c        ****     
 190:main.c        ****     SPIM_SigGen_Start();
 191:main.c        ****     SPIM_SigGen_ClearFIFO();
 192:main.c        ****     SPIM_SigGen_ClearRxBuffer();
 193:main.c        ****     SPIM_SigGen_ClearTxBuffer();    
 194:main.c        **** 
 195:main.c        ****     SPIS_Start();
 196:main.c        ****     SPIS_WriteTxDataZero(0x00u);
 197:main.c        ****  
 198:main.c        ****     PWM_1_Start();
 199:main.c        ****     PWM_2_Start();
 200:main.c        ****     
 201:main.c        ****     I2C_1_Start();   
 202:main.c        ****     
 203:main.c        ****     PSOC_state = idle_state;
 204:main.c        ****      read_counter = 0u;
 205:main.c        ****       
 206:main.c        ****     CyGlobalIntEnable; 
 207:main.c        ****     isr_SS_Fall_StartEx(SS_Fall_Handler );
 208:main.c        ****     isr_SS_Rise_StartEx( SS_Rise_Handler );
 209:main.c        ****  
 210:main.c        ****     RPi_Command = 0x000f;
 211:main.c        ****   
 212:main.c        ****     shutdown_count = 0;
 213:main.c        **** 
 214:main.c        ****     while (1)  {
 215:main.c        ****         
 216:main.c        ****      /* read the encoder values  */     
 217:main.c        ****       enc_a_Position = ReadEncoderValue(0u);    
 218:main.c        ****       enc_b_Position = ReadEncoderValue(1u);        
 219:main.c        ****       enc_c_Position = ReadEncoderValue(2u);
 220:main.c        ****       
 221:main.c        ****     /* This code monitors the main power input.  A local backup batter supply prevents  */
 222:main.c        ****     /* power from being removed from the raspberry pi before it has been properly shutdown   */
 223:main.c        ****     /* Monitor the presence of the main power input */    
 224:main.c        ****     /*  If power has been removed for more than 5000 times through this loop -  -  about 20 seconds
 225:main.c        ****     /*  Interrupt the Raspberry Pi telling it to shut itself down  */
 226:main.c        ****     /*  allow 20 sec for the Pi to shut down then turn off back up power. */
 227:main.c        ****       CyDelayUs(1400u);
 228:main.c        **** 
 229:main.c        ****     
 230:main.c        ****     /* implenemt slew rate for changes in servo position*/
 231:main.c        ****     if (pwm_a_new_command > pwm_a_command ) {
 232:main.c        ****         if ((pwm_a_new_command - pwm_a_command) > 50) {
 233:main.c        ****             pwm_a_command +=50;
 234:main.c        ****         } else {
ARM GAS  C:\Users\HARLOW~1\AppData\Local\Temp\cc1Mjvxb.s 			page 7


 235:main.c        ****             pwm_a_command = pwm_a_new_command;
 236:main.c        ****         }
 237:main.c        ****     } else {
 238:main.c        ****         if ((pwm_a_command - pwm_a_new_command) > 50)  {
 239:main.c        ****             pwm_a_command -=50;
 240:main.c        ****         } else {
 241:main.c        ****              pwm_a_command = pwm_a_new_command;
 242:main.c        ****         }
 243:main.c        ****     }
 244:main.c        **** 
 245:main.c        ****     
 246:main.c        ****      if (pwm_b_new_command > pwm_b_command ) {
 247:main.c        ****         if ((pwm_b_new_command - pwm_b_command) > 50) {
 248:main.c        ****             pwm_b_command +=50;
 249:main.c        ****         } else {
 250:main.c        ****             pwm_b_command = pwm_b_new_command;
 251:main.c        ****         }
 252:main.c        ****     } else {
 253:main.c        ****         if ((pwm_b_command - pwm_b_new_command) > 50)  {
 254:main.c        ****             pwm_b_command -=50;
 255:main.c        ****         } else {
 256:main.c        ****              pwm_b_command = pwm_b_new_command;
 257:main.c        ****         }
 258:main.c        ****     }
 259:main.c        ****     
 260:main.c        ****     PWM_1_WriteCompare(pwm_a_command);
 261:main.c        ****     PWM_2_WriteCompare(pwm_b_command);
 262:main.c        ****     
 263:main.c        ****     
 264:main.c        ****       if (Status_Reg_1_Read() == 1u) {
 265:main.c        ****         shutdown_count +=1;
 266:main.c        ****         if (shutdown_count == 2000u) {      
 267:main.c        ****             CyGlobalIntDisable; 
 268:main.c        ****              Control_Reg_LED_Write(1u);
 269:main.c        ****             /* tell Pi to shut down */ 
 270:main.c        ****            RpiInterrupts_Write(0u);
 271:main.c        ****            CyDelay(20000u);
 272:main.c        ****         /* Wait 60 seconds then turn off back up power */
 273:main.c        ****            EnableBattery_Write(2u);
 274:main.c        ****            CyDelay(2000u);
 275:main.c        ****         }
 276:main.c        ****       } else {
 277:main.c        ****          shutdown_count =0u;
 278:main.c        ****       }
 279:main.c        ****     }
 280:main.c        **** }
 281:main.c        **** 
 282:main.c        **** uint16 WriteSignalGen(uint8 ChannelNumber, uint16 CommandWord)
 283:main.c        **** {
 108              		.loc 1 283 0
 109              		.cfi_startproc
 110              		@ args = 0, pretend = 0, frame = 0
 111              		@ frame_needed = 0, uses_anonymous_args = 0
 112              	.LVL2:
 113 0000 10B5     		push	{r4, lr}
 114              		.cfi_def_cfa_offset 8
 115              		.cfi_offset 4, -8
ARM GAS  C:\Users\HARLOW~1\AppData\Local\Temp\cc1Mjvxb.s 			page 8


 116              		.cfi_offset 14, -4
 117              		.loc 1 283 0
 118 0002 0C46     		mov	r4, r1
 284:main.c        ****     uint16 result;
 285:main.c        ****     Control_Reg_SS_SigGen_Write(ChannelNumber);
 119              		.loc 1 285 0
 120 0004 FFF7FEFF 		bl	Control_Reg_SS_SigGen_Write
 121              	.LVL3:
 286:main.c        ****     SPIM_SigGen_ClearFIFO();
 122              		.loc 1 286 0
 123 0008 FFF7FEFF 		bl	SPIM_SigGen_ClearFIFO
 124              	.LVL4:
 287:main.c        ****     SPIM_SigGen_WriteTxData(CommandWord);
 125              		.loc 1 287 0
 126 000c 2046     		mov	r0, r4
 127 000e FFF7FEFF 		bl	SPIM_SigGen_WriteTxData
 128              	.LVL5:
 288:main.c        ****     while (!(SPIM_SigGen_STS_SPI_DONE));
 289:main.c        ****     result = 0u;
 290:main.c        ****     return(result);
 291:main.c        ****    
 292:main.c        **** }
 129              		.loc 1 292 0
 130 0012 0020     		movs	r0, #0
 131 0014 10BD     		pop	{r4, pc}
 132              		.cfi_endproc
 133              	.LFE66:
 134              		.size	WriteSignalGen, .-WriteSignalGen
 135              		.section	.text.SS_Rise_Handler,"ax",%progbits
 136              		.align	1
 137              		.global	SS_Rise_Handler
 138              		.thumb
 139              		.thumb_func
 140              		.type	SS_Rise_Handler, %function
 141              	SS_Rise_Handler:
 142              	.LFB64:
  80:main.c        ****     if (PSOC_state == idle_state)
 143              		.loc 1 80 0
 144              		.cfi_startproc
 145              		@ args = 0, pretend = 0, frame = 0
 146              		@ frame_needed = 0, uses_anonymous_args = 0
 147 0000 70B5     		push	{r4, r5, r6, lr}
 148              		.cfi_def_cfa_offset 16
 149              		.cfi_offset 4, -16
 150              		.cfi_offset 5, -12
 151              		.cfi_offset 6, -8
 152              		.cfi_offset 14, -4
  81:main.c        ****     {
 153              		.loc 1 81 0
 154 0002 474E     		ldr	r6, .L44
 155 0004 3478     		ldrb	r4, [r6]	@ zero_extendqisi2
 156 0006 34B9     		cbnz	r4, .L14
  83:main.c        ****         read_counter = 0u;
 157              		.loc 1 83 0
 158 0008 FFF7FEFF 		bl	SPIS_ReadRxData
 159              	.LVL6:
 160 000c 454B     		ldr	r3, .L44+4
ARM GAS  C:\Users\HARLOW~1\AppData\Local\Temp\cc1Mjvxb.s 			page 9


 161 000e 1880     		strh	r0, [r3]	@ movhi
  84:main.c        ****     } else {
 162              		.loc 1 84 0
 163 0010 454B     		ldr	r3, .L44+8
 164 0012 1C70     		strb	r4, [r3]
 165 0014 03E0     		b	.L15
 166              	.L14:
  86:main.c        ****     }
 167              		.loc 1 86 0
 168 0016 FFF7FEFF 		bl	SPIS_ReadRxData
 169              	.LVL7:
 170 001a 444B     		ldr	r3, .L44+12
 171 001c 1880     		strh	r0, [r3]	@ movhi
 172              	.L15:
  91:main.c        ****         if (RPi_Command == 0x0010)  {          
 173              		.loc 1 91 0
 174 001e 3578     		ldrb	r5, [r6]	@ zero_extendqisi2
 175 0020 3F4C     		ldr	r4, .L44
 176 0022 55BB     		cbnz	r5, .L16
  92:main.c        ****            PSOC_state = read_encoder_state;
 177              		.loc 1 92 0
 178 0024 3F4B     		ldr	r3, .L44+4
 179 0026 1B88     		ldrh	r3, [r3]
 180 0028 102B     		cmp	r3, #16
 181 002a 10D1     		bne	.L17
  93:main.c        ****            SPIS_WriteTxDataZero(enc_a_Position);
 182              		.loc 1 93 0
 183 002c 0123     		movs	r3, #1
 184 002e 2370     		strb	r3, [r4]
  94:main.c        ****            SPIS_WriteTxData(enc_b_Position);
 185              		.loc 1 94 0
 186 0030 3F4B     		ldr	r3, .L44+16
 187 0032 1888     		ldrh	r0, [r3]
 188 0034 FFF7FEFF 		bl	SPIS_WriteTxDataZero
 189              	.LVL8:
  95:main.c        ****            SPIS_WriteTxData(enc_c_Position);
 190              		.loc 1 95 0
 191 0038 3E4B     		ldr	r3, .L44+20
 192 003a 1888     		ldrh	r0, [r3]
 193 003c FFF7FEFF 		bl	SPIS_WriteTxData
 194              	.LVL9:
  96:main.c        ****            read_counter = 0u; 
 195              		.loc 1 96 0
 196 0040 3D4B     		ldr	r3, .L44+24
 197 0042 1888     		ldrh	r0, [r3]
 198 0044 FFF7FEFF 		bl	SPIS_WriteTxData
 199              	.LVL10:
  97:main.c        ****         } else if (RPi_Command == 0x0020)  {
 200              		.loc 1 97 0
 201 0048 374B     		ldr	r3, .L44+8
 202 004a 1D70     		strb	r5, [r3]
 203 004c 5FE0     		b	.L18
 204              	.L17:
  98:main.c        ****            PSOC_state = write_funcGen1_state;
 205              		.loc 1 98 0
 206 004e 202B     		cmp	r3, #32
 207 0050 01D1     		bne	.L19
ARM GAS  C:\Users\HARLOW~1\AppData\Local\Temp\cc1Mjvxb.s 			page 10


  99:main.c        ****         } else if (RPi_Command == 0x0040)  {
 208              		.loc 1 99 0
 209 0052 0223     		movs	r3, #2
 210 0054 2AE0     		b	.L38
 211              	.L19:
 100:main.c        ****            PSOC_state = write_funcGen2_state;
 212              		.loc 1 100 0
 213 0056 402B     		cmp	r3, #64
 214 0058 01D1     		bne	.L20
 101:main.c        ****         }  else if (RPi_Command == 0x0080)  {
 215              		.loc 1 101 0
 216 005a 0323     		movs	r3, #3
 217 005c 26E0     		b	.L38
 218              	.L20:
 102:main.c        ****            PSOC_state = write_Amp_state;
 219              		.loc 1 102 0
 220 005e 802B     		cmp	r3, #128
 221 0060 01D1     		bne	.L21
 103:main.c        ****         }  else if (RPi_Command == 0x0100)  {
 222              		.loc 1 103 0
 223 0062 0423     		movs	r3, #4
 224 0064 22E0     		b	.L38
 225              	.L21:
 104:main.c        ****            PSOC_state = write_pwm_a_state;
 226              		.loc 1 104 0
 227 0066 B3F5807F 		cmp	r3, #256
 228 006a 01D1     		bne	.L22
 105:main.c        ****         }  else if (RPi_Command == 0x0200)  {
 229              		.loc 1 105 0
 230 006c 0523     		movs	r3, #5
 231 006e 1DE0     		b	.L38
 232              	.L22:
 106:main.c        ****            PSOC_state = write_pwm_b_state;
 233              		.loc 1 106 0
 234 0070 B3F5007F 		cmp	r3, #512
 235 0074 4BD1     		bne	.L18
 107:main.c        ****         }
 236              		.loc 1 107 0
 237 0076 0623     		movs	r3, #6
 238 0078 18E0     		b	.L38
 239              	.L16:
 109:main.c        ****         if (read_counter < 2u) {
 240              		.loc 1 109 0
 241 007a 012D     		cmp	r5, #1
 242 007c 08D1     		bne	.L23
 110:main.c        ****             read_counter +=1;
 243              		.loc 1 110 0
 244 007e 2A4A     		ldr	r2, .L44+8
 245 0080 1378     		ldrb	r3, [r2]	@ zero_extendqisi2
 246 0082 012B     		cmp	r3, #1
 113:main.c        ****             read_counter = 0u;
 247              		.loc 1 113 0
 248 0084 8ABF     		itet	hi
 249 0086 0023     		movhi	r3, #0
 111:main.c        ****         } else  {
 250              		.loc 1 111 0
 251 0088 0133     		addls	r3, r3, #1
ARM GAS  C:\Users\HARLOW~1\AppData\Local\Temp\cc1Mjvxb.s 			page 11


 113:main.c        ****             read_counter = 0u;
 252              		.loc 1 113 0
 253 008a 2370     		strbhi	r3, [r4]
 114:main.c        ****         }
 254              		.loc 1 114 0
 255 008c 1370     		strb	r3, [r2]
 256 008e 3EE0     		b	.L18
 257              	.L23:
 116:main.c        ****         WriteSignalGen(0u, RPi_Data); 
 258              		.loc 1 116 0
 259 0090 022D     		cmp	r5, #2
 260 0092 03D1     		bne	.L25
 117:main.c        ****         PSOC_state = idle_state;
 261              		.loc 1 117 0
 262 0094 254B     		ldr	r3, .L44+12
 263 0096 0020     		movs	r0, #0
 264 0098 1988     		ldrh	r1, [r3]
 265 009a 04E0     		b	.L37
 266              	.L25:
 119:main.c        ****         WriteSignalGen(1u, RPi_Data); 
 267              		.loc 1 119 0
 268 009c 032D     		cmp	r5, #3
 269 009e 07D1     		bne	.L26
 120:main.c        ****         PSOC_state = idle_state;
 270              		.loc 1 120 0
 271 00a0 224B     		ldr	r3, .L44+12
 272 00a2 0120     		movs	r0, #1
 273 00a4 1988     		ldrh	r1, [r3]
 274              	.L37:
 275 00a6 FFF7FEFF 		bl	WriteSignalGen
 276              	.LVL11:
 277              	.L39:
 121:main.c        ****     } else if ( PSOC_state == write_Amp_state) {
 278              		.loc 1 121 0
 279 00aa 0023     		movs	r3, #0
 280              	.L38:
 281 00ac 2370     		strb	r3, [r4]
 282 00ae 2EE0     		b	.L18
 283              	.L26:
 122:main.c        ****         i2cAddress = ((uint8) (RPi_Data >>8));
 284              		.loc 1 122 0
 285 00b0 042D     		cmp	r5, #4
 286 00b2 0FD1     		bne	.L27
 123:main.c        ****         i2cData = ((uint8) (RPi_Data & 0x00ff));
 287              		.loc 1 123 0
 288 00b4 1D4B     		ldr	r3, .L44+12
 289 00b6 214A     		ldr	r2, .L44+28
 290 00b8 1B88     		ldrh	r3, [r3]
 124:main.c        ****         I2C_1_MasterSendStart(i2cAddress,0);
 291              		.loc 1 124 0
 292 00ba 214D     		ldr	r5, .L44+32
 123:main.c        ****         i2cData = ((uint8) (RPi_Data & 0x00ff));
 293              		.loc 1 123 0
 294 00bc 180A     		lsrs	r0, r3, #8
 125:main.c        ****         I2C_1_MasterWriteByte(i2cData);I2C_1_MasterSendStop();
 295              		.loc 1 125 0
 296 00be 0021     		movs	r1, #0
ARM GAS  C:\Users\HARLOW~1\AppData\Local\Temp\cc1Mjvxb.s 			page 12


 123:main.c        ****         i2cData = ((uint8) (RPi_Data & 0x00ff));
 297              		.loc 1 123 0
 298 00c0 1070     		strb	r0, [r2]
 124:main.c        ****         I2C_1_MasterSendStart(i2cAddress,0);
 299              		.loc 1 124 0
 300 00c2 2B70     		strb	r3, [r5]
 125:main.c        ****         I2C_1_MasterWriteByte(i2cData);I2C_1_MasterSendStop();
 301              		.loc 1 125 0
 302 00c4 FFF7FEFF 		bl	I2C_1_MasterSendStart
 303              	.LVL12:
 126:main.c        ****         PSOC_state = idle_state;       
 304              		.loc 1 126 0
 305 00c8 2878     		ldrb	r0, [r5]	@ zero_extendqisi2
 306 00ca FFF7FEFF 		bl	I2C_1_MasterWriteByte
 307              	.LVL13:
 308 00ce FFF7FEFF 		bl	I2C_1_MasterSendStop
 309              	.LVL14:
 310 00d2 EAE7     		b	.L39
 311              	.L27:
 128:main.c        ****         pwm_a_new_command = RPi_Data;
 312              		.loc 1 128 0
 313 00d4 052D     		cmp	r5, #5
 314 00d6 05D1     		bne	.L28
 129:main.c        ****         if ( pwm_a_new_command < 1000u) {
 315              		.loc 1 129 0
 316 00d8 144B     		ldr	r3, .L44+12
 317 00da 1A88     		ldrh	r2, [r3]
 318 00dc 194B     		ldr	r3, .L44+36
 130:main.c        ****             pwm_a_new_command = 1000u;
 319              		.loc 1 130 0
 320 00de B2F57A7F 		cmp	r2, #1000
 321 00e2 09E0     		b	.L42
 322              	.L28:
 137:main.c        ****         pwm_b_new_command = RPi_Data;
 323              		.loc 1 137 0
 324 00e4 062D     		cmp	r5, #6
 325 00e6 02D0     		beq	.L43
 326              	.L30:
 136:main.c        ****     } else if ( PSOC_state == write_pwm_b_state) {
 327              		.loc 1 136 0
 328 00e8 0023     		movs	r3, #0
 329 00ea 3370     		strb	r3, [r6]
 330 00ec 0FE0     		b	.L18
 331              	.L43:
 138:main.c        ****         if ( pwm_b_new_command < 1000u) {
 332              		.loc 1 138 0
 333 00ee 0F4B     		ldr	r3, .L44+12
 334 00f0 1A88     		ldrh	r2, [r3]
 335 00f2 154B     		ldr	r3, .L44+40
 139:main.c        ****             pwm_b_new_command = 1000u;
 336              		.loc 1 139 0
 337 00f4 B2F57A7F 		cmp	r2, #1000
 338              	.L42:
 339 00f8 03D2     		bcs	.L32
 140:main.c        ****         } else if (pwm_b_new_command > 2000u)  {
 340              		.loc 1 140 0
 341 00fa 4FF47A72 		mov	r2, #1000
ARM GAS  C:\Users\HARLOW~1\AppData\Local\Temp\cc1Mjvxb.s 			page 13


 342              	.L35:
 133:main.c        ****         }
 343              		.loc 1 133 0
 344 00fe 1A80     		strh	r2, [r3]	@ movhi
 345 0100 F2E7     		b	.L30
 346              	.L32:
 141:main.c        ****             pwm_b_new_command = 2000u;
 347              		.loc 1 141 0
 348 0102 B2F5FA6F 		cmp	r2, #2000
 349 0106 FAD9     		bls	.L35
 133:main.c        ****         }
 350              		.loc 1 133 0
 351 0108 4FF4FA62 		mov	r2, #2000
 352 010c F7E7     		b	.L35
 353              	.L18:
 150:main.c        ****     SPIS_ClearRxBuffer();
 354              		.loc 1 150 0
 355 010e FFF7FEFF 		bl	SPIS_ReadRxStatus
 356              	.LVL15:
 151:main.c        ****     isr_SS_Rise_ClearPending();
 357              		.loc 1 151 0
 358 0112 FFF7FEFF 		bl	SPIS_ClearRxBuffer
 359              	.LVL16:
 154:main.c        **** 
 360              		.loc 1 154 0
 361 0116 BDE87040 		pop	{r4, r5, r6, lr}
 362              		.cfi_restore 14
 363              		.cfi_restore 6
 364              		.cfi_restore 5
 365              		.cfi_restore 4
 366              		.cfi_def_cfa_offset 0
 152:main.c        ****    
 367              		.loc 1 152 0
 368 011a FFF7FEBF 		b	isr_SS_Rise_ClearPending
 369              	.LVL17:
 370              	.L45:
 371 011e 00BF     		.align	2
 372              	.L44:
 373 0120 00000000 		.word	PSOC_state
 374 0124 00000000 		.word	RPi_Command
 375 0128 00000000 		.word	read_counter
 376 012c 00000000 		.word	RPi_Data
 377 0130 00000000 		.word	enc_a_Position
 378 0134 00000000 		.word	enc_b_Position
 379 0138 00000000 		.word	enc_c_Position
 380 013c 00000000 		.word	i2cAddress
 381 0140 00000000 		.word	i2cData
 382 0144 00000000 		.word	pwm_a_new_command
 383 0148 00000000 		.word	pwm_b_new_command
 384              		.cfi_endproc
 385              	.LFE64:
 386              		.size	SS_Rise_Handler, .-SS_Rise_Handler
 387              		.section	.text.ReadEncoderValue,"ax",%progbits
 388              		.align	1
 389              		.global	ReadEncoderValue
 390              		.thumb
 391              		.thumb_func
ARM GAS  C:\Users\HARLOW~1\AppData\Local\Temp\cc1Mjvxb.s 			page 14


 392              		.type	ReadEncoderValue, %function
 393              	ReadEncoderValue:
 394              	.LFB67:
 293:main.c        **** 
 294:main.c        **** 
 295:main.c        **** uint16 ReadEncoderValue(uint8 encoderNumber)
 296:main.c        **** {
 395              		.loc 1 296 0
 396              		.cfi_startproc
 397              		@ args = 0, pretend = 0, frame = 0
 398              		@ frame_needed = 0, uses_anonymous_args = 0
 399              	.LVL18:
 400 0000 38B5     		push	{r3, r4, r5, lr}
 401              		.cfi_def_cfa_offset 16
 402              		.cfi_offset 3, -16
 403              		.cfi_offset 4, -12
 404              		.cfi_offset 5, -8
 405              		.cfi_offset 14, -4
 297:main.c        ****     uint16 result;
 298:main.c        ****     uint8 ii;
 299:main.c        ****        
 300:main.c        ****       Control_Reg_SS_Write(encoderNumber);
 406              		.loc 1 300 0
 407 0002 FFF7FEFF 		bl	Control_Reg_SS_Write
 408              	.LVL19:
 301:main.c        ****       SPIM_1_ClearFIFO();
 409              		.loc 1 301 0
 410 0006 FFF7FEFF 		bl	SPIM_1_ClearFIFO
 411              	.LVL20:
 302:main.c        ****       SPIM_1_WriteTxData(0x10);       
 412              		.loc 1 302 0
 413 000a 1020     		movs	r0, #16
 414 000c FFF7FEFF 		bl	SPIM_1_WriteTxData
 415              	.LVL21:
 416              	.L47:
 303:main.c        ****       /*  wait for transmit of first data is finished  */
 304:main.c        ****       while(!(SPIM_1_ReadTxStatus() & SPIM_1_STS_SPI_DONE));   
 417              		.loc 1 304 0 discriminator 1
 418 0010 FFF7FEFF 		bl	SPIM_1_ReadTxStatus
 419              	.LVL22:
 420 0014 C007     		lsls	r0, r0, #31
 421 0016 FBD5     		bpl	.L47
 305:main.c        ****       CyDelayUs(20u);
 422              		.loc 1 305 0
 423 0018 1420     		movs	r0, #20
 424 001a FFF7FEFF 		bl	CyDelayUs
 425              	.LVL23:
 306:main.c        ****       ii=0;
 307:main.c        ****       while ((SPIM_1_ReadByte() != 0x10) & (ii<6)) {
 426              		.loc 1 307 0
 427 001e 0024     		movs	r4, #0
 428              	.LVL24:
 429              	.L48:
 430 0020 FFF7FEFF 		bl	SPIM_1_ReadRxData
 431              	.LVL25:
 432 0024 1028     		cmp	r0, #16
 433 0026 E5B2     		uxtb	r5, r4
ARM GAS  C:\Users\HARLOW~1\AppData\Local\Temp\cc1Mjvxb.s 			page 15


 434              	.LVL26:
 435 0028 0DD0     		beq	.L56
 436 002a 052D     		cmp	r5, #5
 437 002c 0BD8     		bhi	.L56
 308:main.c        ****           CyDelayUs(20u);
 438              		.loc 1 308 0
 439 002e 1420     		movs	r0, #20
 440 0030 FFF7FEFF 		bl	CyDelayUs
 441              	.LVL27:
 309:main.c        ****           SPIM_1_WriteTxData(0x00);  
 442              		.loc 1 309 0
 443 0034 0020     		movs	r0, #0
 444 0036 FFF7FEFF 		bl	SPIM_1_WriteTxData
 445              	.LVL28:
 446              	.L49:
 310:main.c        ****           while(!(SPIM_1_ReadTxStatus() & SPIM_1_STS_SPI_DONE));
 447              		.loc 1 310 0 discriminator 1
 448 003a FFF7FEFF 		bl	SPIM_1_ReadTxStatus
 449              	.LVL29:
 450 003e C107     		lsls	r1, r0, #31
 451 0040 FBD5     		bpl	.L49
 452              	.LVL30:
 453 0042 0134     		adds	r4, r4, #1
 454              	.LVL31:
 455 0044 ECE7     		b	.L48
 456              	.LVL32:
 457              	.L56:
 311:main.c        ****           ii+=1;
 312:main.c        ****       }  
 313:main.c        ****      /*  if ii > 6  means encoder did not respond -- possibly not hooked up*/
 314:main.c        ****       if (ii<6) {
 458              		.loc 1 314 0
 459 0046 052D     		cmp	r5, #5
 460 0048 1FD8     		bhi	.L52
 461              	.LVL33:
 462              	.LBB4:
 463              	.LBB5:
 315:main.c        ****          CyDelayUs(20u);
 464              		.loc 1 315 0
 465 004a 1420     		movs	r0, #20
 466 004c FFF7FEFF 		bl	CyDelayUs
 467              	.LVL34:
 316:main.c        ****          SPIM_1_WriteTxData(0x00);  
 468              		.loc 1 316 0
 469 0050 0020     		movs	r0, #0
 470 0052 FFF7FEFF 		bl	SPIM_1_WriteTxData
 471              	.LVL35:
 472              	.L53:
 317:main.c        ****          while(!(SPIM_1_ReadTxStatus() & SPIM_1_STS_SPI_DONE));
 473              		.loc 1 317 0
 474 0056 FFF7FEFF 		bl	SPIM_1_ReadTxStatus
 475              	.LVL36:
 476 005a C207     		lsls	r2, r0, #31
 477 005c FBD5     		bpl	.L53
 318:main.c        ****          result = SPIM_1_ReadByte()*256;    
 478              		.loc 1 318 0
 479 005e FFF7FEFF 		bl	SPIM_1_ReadRxData
ARM GAS  C:\Users\HARLOW~1\AppData\Local\Temp\cc1Mjvxb.s 			page 16


 480              	.LVL37:
 481 0062 0002     		lsls	r0, r0, #8
 482 0064 84B2     		uxth	r4, r0
 483              	.LVL38:
 319:main.c        ****          CyDelayUs(20u);
 484              		.loc 1 319 0
 485 0066 1420     		movs	r0, #20
 486 0068 FFF7FEFF 		bl	CyDelayUs
 487              	.LVL39:
 320:main.c        ****          SPIM_1_WriteTxData(0x00);  
 488              		.loc 1 320 0
 489 006c 0020     		movs	r0, #0
 490 006e FFF7FEFF 		bl	SPIM_1_WriteTxData
 491              	.LVL40:
 492              	.L54:
 321:main.c        ****          while(!(SPIM_1_ReadTxStatus() & SPIM_1_STS_SPI_DONE));
 493              		.loc 1 321 0
 494 0072 FFF7FEFF 		bl	SPIM_1_ReadTxStatus
 495              	.LVL41:
 496 0076 C307     		lsls	r3, r0, #31
 497 0078 FBD5     		bpl	.L54
 322:main.c        ****          result += SPIM_1_ReadByte();          
 498              		.loc 1 322 0
 499 007a FFF7FEFF 		bl	SPIM_1_ReadRxData
 500              	.LVL42:
 501 007e 2044     		add	r0, r0, r4
 502 0080 84B2     		uxth	r4, r0
 503              	.LVL43:
 323:main.c        ****          CyDelayUs(40u);
 504              		.loc 1 323 0
 505 0082 2820     		movs	r0, #40
 506 0084 FFF7FEFF 		bl	CyDelayUs
 507              	.LVL44:
 508 0088 04E0     		b	.L55
 509              	.L52:
 510              	.LVL45:
 511              	.LBE5:
 512              	.LBE4:
 324:main.c        ****       } else {
 325:main.c        ****          /*  note encoder word is 12 bits long.  0xF000 represents an invalid code  */
 326:main.c        ****          result = 0xF000;
 327:main.c        ****         CyDelayUs(40u);
 513              		.loc 1 327 0
 514 008a 2820     		movs	r0, #40
 515 008c FFF7FEFF 		bl	CyDelayUs
 516              	.LVL46:
 326:main.c        ****         CyDelayUs(40u);
 517              		.loc 1 326 0
 518 0090 4FF47044 		mov	r4, #61440
 519              	.LVL47:
 520              	.L55:
 328:main.c        ****       }    
 329:main.c        ****     return(result);
 330:main.c        **** }
 521              		.loc 1 330 0
 522 0094 2046     		mov	r0, r4
 523 0096 38BD     		pop	{r3, r4, r5, pc}
ARM GAS  C:\Users\HARLOW~1\AppData\Local\Temp\cc1Mjvxb.s 			page 17


 524              		.cfi_endproc
 525              	.LFE67:
 526              		.size	ReadEncoderValue, .-ReadEncoderValue
 527              		.section	.text.startup.main,"ax",%progbits
 528              		.align	1
 529              		.global	main
 530              		.thumb
 531              		.thumb_func
 532              		.type	main, %function
 533              	main:
 534              	.LFB65:
 175:main.c        ****     Comp_1_Start();
 535              		.loc 1 175 0
 536              		.cfi_startproc
 537              		@ Volatile: function does not return.
 538              		@ args = 0, pretend = 0, frame = 0
 539              		@ frame_needed = 0, uses_anonymous_args = 0
 540 0000 80B5     		push	{r7, lr}
 541              		.cfi_def_cfa_offset 8
 542              		.cfi_offset 7, -8
 543              		.cfi_offset 14, -4
 176:main.c        ****     CyDelay(2000u);
 544              		.loc 1 176 0
 545 0002 FFF7FEFF 		bl	Comp_1_Start
 546              	.LVL48:
 177:main.c        ****     /* Enable Battery Backup circuit and interface circuits between RPi and PSOC  */
 547              		.loc 1 177 0
 548 0006 4FF4FA60 		mov	r0, #2000
 549 000a FFF7FEFF 		bl	CyDelay
 550              	.LVL49:
 179:main.c        ****     Control_Reg_SS_Write(0u);
 551              		.loc 1 179 0
 552 000e 0120     		movs	r0, #1
 553 0010 FFF7FEFF 		bl	EnableBattery_Write
 554              	.LVL50:
 180:main.c        ****     Control_Reg_LED_Write(0u);
 555              		.loc 1 180 0
 556 0014 0020     		movs	r0, #0
 557 0016 FFF7FEFF 		bl	Control_Reg_SS_Write
 558              	.LVL51:
 181:main.c        ****     RpiInterrupts_Write(3u);     
 559              		.loc 1 181 0
 560 001a 0020     		movs	r0, #0
 561 001c FFF7FEFF 		bl	Control_Reg_LED_Write
 562              	.LVL52:
 182:main.c        ****     Clock_1_Start();
 563              		.loc 1 182 0
 564 0020 0320     		movs	r0, #3
 565 0022 FFF7FEFF 		bl	RpiInterrupts_Write
 566              	.LVL53:
 183:main.c        ****  
 567              		.loc 1 183 0
 568 0026 FFF7FEFF 		bl	Clock_1_Start
 569              	.LVL54:
 185:main.c        ****     SPIM_1_ClearFIFO();
 570              		.loc 1 185 0
 571 002a FFF7FEFF 		bl	SPIM_1_Start
ARM GAS  C:\Users\HARLOW~1\AppData\Local\Temp\cc1Mjvxb.s 			page 18


 572              	.LVL55:
 186:main.c        ****     SPIM_1_ClearRxBuffer();
 573              		.loc 1 186 0
 574 002e FFF7FEFF 		bl	SPIM_1_ClearFIFO
 575              	.LVL56:
 187:main.c        ****     SPIM_1_ClearTxBuffer();   
 576              		.loc 1 187 0
 577 0032 FFF7FEFF 		bl	SPIM_1_ClearRxBuffer
 578              	.LVL57:
 188:main.c        ****     
 579              		.loc 1 188 0
 580 0036 FFF7FEFF 		bl	SPIM_1_ClearTxBuffer
 581              	.LVL58:
 190:main.c        ****     SPIM_SigGen_ClearFIFO();
 582              		.loc 1 190 0
 583 003a FFF7FEFF 		bl	SPIM_SigGen_Start
 584              	.LVL59:
 191:main.c        ****     SPIM_SigGen_ClearRxBuffer();
 585              		.loc 1 191 0
 586 003e FFF7FEFF 		bl	SPIM_SigGen_ClearFIFO
 587              	.LVL60:
 192:main.c        ****     SPIM_SigGen_ClearTxBuffer();    
 588              		.loc 1 192 0
 589 0042 FFF7FEFF 		bl	SPIM_SigGen_ClearRxBuffer
 590              	.LVL61:
 193:main.c        **** 
 591              		.loc 1 193 0
 592 0046 FFF7FEFF 		bl	SPIM_SigGen_ClearTxBuffer
 593              	.LVL62:
 195:main.c        ****     SPIS_WriteTxDataZero(0x00u);
 594              		.loc 1 195 0
 595 004a FFF7FEFF 		bl	SPIS_Start
 596              	.LVL63:
 196:main.c        ****  
 597              		.loc 1 196 0
 598 004e 0020     		movs	r0, #0
 599 0050 FFF7FEFF 		bl	SPIS_WriteTxDataZero
 600              	.LVL64:
 198:main.c        ****     PWM_2_Start();
 601              		.loc 1 198 0
 602 0054 FFF7FEFF 		bl	PWM_1_Start
 603              	.LVL65:
 199:main.c        ****     
 604              		.loc 1 199 0
 605 0058 FFF7FEFF 		bl	PWM_2_Start
 606              	.LVL66:
 201:main.c        ****     
 607              		.loc 1 201 0
 608 005c FFF7FEFF 		bl	I2C_1_Start
 609              	.LVL67:
 203:main.c        ****      read_counter = 0u;
 610              		.loc 1 203 0
 611 0060 384B     		ldr	r3, .L82
 612 0062 0025     		movs	r5, #0
 613 0064 1D70     		strb	r5, [r3]
 204:main.c        ****       
 614              		.loc 1 204 0
ARM GAS  C:\Users\HARLOW~1\AppData\Local\Temp\cc1Mjvxb.s 			page 19


 615 0066 384B     		ldr	r3, .L82+4
 616 0068 1D70     		strb	r5, [r3]
 206:main.c        ****     isr_SS_Fall_StartEx(SS_Fall_Handler );
 617              		.loc 1 206 0
 618              		.syntax unified
 619              	@ 206 "main.c" 1
 620 006a 62B6     		CPSIE   i
 621              	@ 0 "" 2
 231:main.c        ****         if ((pwm_a_new_command - pwm_a_command) > 50) {
 622              		.loc 1 231 0
 623              		.thumb
 624              		.syntax unified
 625 006c DFF80481 		ldr	r8, .L82+48
 207:main.c        ****     isr_SS_Rise_StartEx( SS_Rise_Handler );
 626              		.loc 1 207 0
 627 0070 3648     		ldr	r0, .L82+8
 628 0072 4646     		mov	r6, r8
 629 0074 FFF7FEFF 		bl	isr_SS_Fall_StartEx
 630              	.LVL68:
 212:main.c        **** 
 631              		.loc 1 212 0
 632 0078 354C     		ldr	r4, .L82+12
 208:main.c        ****  
 633              		.loc 1 208 0
 634 007a 3648     		ldr	r0, .L82+16
 635 007c FFF7FEFF 		bl	isr_SS_Rise_StartEx
 636              	.LVL69:
 210:main.c        ****   
 637              		.loc 1 210 0
 638 0080 354B     		ldr	r3, .L82+20
 639 0082 0F22     		movs	r2, #15
 212:main.c        **** 
 640              		.loc 1 212 0
 641 0084 2580     		strh	r5, [r4]	@ movhi
 217:main.c        ****       enc_b_Position = ReadEncoderValue(1u);        
 642              		.loc 1 217 0
 643 0086 354D     		ldr	r5, .L82+24
 210:main.c        ****   
 644              		.loc 1 210 0
 645 0088 1A80     		strh	r2, [r3]	@ movhi
 646              	.L69:
 217:main.c        ****       enc_b_Position = ReadEncoderValue(1u);        
 647              		.loc 1 217 0
 648 008a 0020     		movs	r0, #0
 649 008c FFF7FEFF 		bl	ReadEncoderValue
 650              	.LVL70:
 651 0090 2880     		strh	r0, [r5]	@ movhi
 218:main.c        ****       enc_c_Position = ReadEncoderValue(2u);
 652              		.loc 1 218 0
 653 0092 0120     		movs	r0, #1
 654 0094 FFF7FEFF 		bl	ReadEncoderValue
 655              	.LVL71:
 656 0098 314B     		ldr	r3, .L82+28
 657 009a 1880     		strh	r0, [r3]	@ movhi
 219:main.c        ****       
 658              		.loc 1 219 0
 659 009c 0220     		movs	r0, #2
ARM GAS  C:\Users\HARLOW~1\AppData\Local\Temp\cc1Mjvxb.s 			page 20


 660 009e FFF7FEFF 		bl	ReadEncoderValue
 661              	.LVL72:
 662 00a2 304B     		ldr	r3, .L82+32
 663 00a4 1880     		strh	r0, [r3]	@ movhi
 227:main.c        **** 
 664              		.loc 1 227 0
 665 00a6 4FF4AF60 		mov	r0, #1400
 666 00aa FFF7FEFF 		bl	CyDelayUs
 667              	.LVL73:
 231:main.c        ****         if ((pwm_a_new_command - pwm_a_command) > 50) {
 668              		.loc 1 231 0
 669 00ae 2E4B     		ldr	r3, .L82+36
 670 00b0 1A88     		ldrh	r2, [r3]
 671 00b2 B8F80030 		ldrh	r3, [r8]
 672 00b6 9A42     		cmp	r2, r3
 673 00b8 04D9     		bls	.L70
 232:main.c        ****             pwm_a_command +=50;
 674              		.loc 1 232 0
 675 00ba D11A     		subs	r1, r2, r3
 676 00bc 3229     		cmp	r1, #50
 677 00be 08DD     		ble	.L73
 233:main.c        ****         } else {
 678              		.loc 1 233 0
 679 00c0 3233     		adds	r3, r3, #50
 680 00c2 03E0     		b	.L80
 681              	.L70:
 238:main.c        ****             pwm_a_command -=50;
 682              		.loc 1 238 0
 683 00c4 991A     		subs	r1, r3, r2
 684 00c6 3229     		cmp	r1, #50
 685 00c8 03DD     		ble	.L73
 239:main.c        ****         } else {
 686              		.loc 1 239 0
 687 00ca 323B     		subs	r3, r3, #50
 688              	.L80:
 689 00cc A8F80030 		strh	r3, [r8]	@ movhi
 690 00d0 01E0     		b	.L72
 691              	.L73:
 241:main.c        ****         }
 692              		.loc 1 241 0
 693 00d2 A8F80020 		strh	r2, [r8]	@ movhi
 694              	.L72:
 246:main.c        ****         if ((pwm_b_new_command - pwm_b_command) > 50) {
 695              		.loc 1 246 0
 696 00d6 254B     		ldr	r3, .L82+40
 697 00d8 254F     		ldr	r7, .L82+44
 698 00da 1A88     		ldrh	r2, [r3]
 699 00dc 3B88     		ldrh	r3, [r7]
 700 00de 9A42     		cmp	r2, r3
 701 00e0 04D9     		bls	.L74
 247:main.c        ****             pwm_b_command +=50;
 702              		.loc 1 247 0
 703 00e2 D11A     		subs	r1, r2, r3
 704 00e4 3229     		cmp	r1, #50
 705 00e6 07DD     		ble	.L77
 248:main.c        ****         } else {
 706              		.loc 1 248 0
ARM GAS  C:\Users\HARLOW~1\AppData\Local\Temp\cc1Mjvxb.s 			page 21


 707 00e8 3233     		adds	r3, r3, #50
 708 00ea 03E0     		b	.L81
 709              	.L74:
 253:main.c        ****             pwm_b_command -=50;
 710              		.loc 1 253 0
 711 00ec 991A     		subs	r1, r3, r2
 712 00ee 3229     		cmp	r1, #50
 713 00f0 02DD     		ble	.L77
 254:main.c        ****         } else {
 714              		.loc 1 254 0
 715 00f2 323B     		subs	r3, r3, #50
 716              	.L81:
 717 00f4 3B80     		strh	r3, [r7]	@ movhi
 718 00f6 00E0     		b	.L76
 719              	.L77:
 256:main.c        ****         }
 720              		.loc 1 256 0
 721 00f8 3A80     		strh	r2, [r7]	@ movhi
 722              	.L76:
 260:main.c        ****     PWM_2_WriteCompare(pwm_b_command);
 723              		.loc 1 260 0
 724 00fa 3088     		ldrh	r0, [r6]
 725 00fc FFF7FEFF 		bl	PWM_1_WriteCompare
 726              	.LVL74:
 261:main.c        ****     
 727              		.loc 1 261 0
 728 0100 3888     		ldrh	r0, [r7]
 729 0102 FFF7FEFF 		bl	PWM_2_WriteCompare
 730              	.LVL75:
 264:main.c        ****         shutdown_count +=1;
 731              		.loc 1 264 0
 732 0106 FFF7FEFF 		bl	Status_Reg_1_Read
 733              	.LVL76:
 734 010a 0128     		cmp	r0, #1
 735 010c 17D1     		bne	.L78
 265:main.c        ****         if (shutdown_count == 2000u) {      
 736              		.loc 1 265 0
 737 010e 2788     		ldrh	r7, [r4]
 738 0110 0137     		adds	r7, r7, #1
 739 0112 BFB2     		uxth	r7, r7
 266:main.c        ****             CyGlobalIntDisable; 
 740              		.loc 1 266 0
 741 0114 B7F5FA6F 		cmp	r7, #2000
 265:main.c        ****         if (shutdown_count == 2000u) {      
 742              		.loc 1 265 0
 743 0118 2780     		strh	r7, [r4]	@ movhi
 266:main.c        ****             CyGlobalIntDisable; 
 744              		.loc 1 266 0
 745 011a B6D1     		bne	.L69
 267:main.c        ****              Control_Reg_LED_Write(1u);
 746              		.loc 1 267 0
 747              		.syntax unified
 748              	@ 267 "main.c" 1
 749 011c 72B6     		CPSID   i
 750              	@ 0 "" 2
 268:main.c        ****             /* tell Pi to shut down */ 
 751              		.loc 1 268 0
ARM GAS  C:\Users\HARLOW~1\AppData\Local\Temp\cc1Mjvxb.s 			page 22


 752              		.thumb
 753              		.syntax unified
 754 011e FFF7FEFF 		bl	Control_Reg_LED_Write
 755              	.LVL77:
 270:main.c        ****            CyDelay(20000u);
 756              		.loc 1 270 0
 757 0122 0020     		movs	r0, #0
 758 0124 FFF7FEFF 		bl	RpiInterrupts_Write
 759              	.LVL78:
 271:main.c        ****         /* Wait 60 seconds then turn off back up power */
 760              		.loc 1 271 0
 761 0128 44F62060 		movw	r0, #20000
 762 012c FFF7FEFF 		bl	CyDelay
 763              	.LVL79:
 273:main.c        ****            CyDelay(2000u);
 764              		.loc 1 273 0
 765 0130 0220     		movs	r0, #2
 766 0132 FFF7FEFF 		bl	EnableBattery_Write
 767              	.LVL80:
 274:main.c        ****         }
 768              		.loc 1 274 0
 769 0136 3846     		mov	r0, r7
 770 0138 FFF7FEFF 		bl	CyDelay
 771              	.LVL81:
 772 013c A5E7     		b	.L69
 773              	.L78:
 277:main.c        ****       }
 774              		.loc 1 277 0
 775 013e 0023     		movs	r3, #0
 776 0140 2380     		strh	r3, [r4]	@ movhi
 777 0142 A2E7     		b	.L69
 778              	.L83:
 779              		.align	2
 780              	.L82:
 781 0144 00000000 		.word	PSOC_state
 782 0148 00000000 		.word	read_counter
 783 014c 00000000 		.word	SS_Fall_Handler
 784 0150 00000000 		.word	shutdown_count
 785 0154 00000000 		.word	SS_Rise_Handler
 786 0158 00000000 		.word	RPi_Command
 787 015c 00000000 		.word	enc_a_Position
 788 0160 00000000 		.word	enc_b_Position
 789 0164 00000000 		.word	enc_c_Position
 790 0168 00000000 		.word	pwm_a_new_command
 791 016c 00000000 		.word	pwm_b_new_command
 792 0170 00000000 		.word	pwm_b_command
 793 0174 00000000 		.word	pwm_a_command
 794              		.cfi_endproc
 795              	.LFE65:
 796              		.size	main, .-main
 797              		.comm	shutdown_count,2,2
 798              		.comm	i,1,1
 799              		.comm	temp2,1,1
 800              		.comm	temp1,1,1
 801              		.comm	rxBuffer,8,2
 802              		.comm	i2cData,1,1
 803              		.comm	i2cAddress,1,1
ARM GAS  C:\Users\HARLOW~1\AppData\Local\Temp\cc1Mjvxb.s 			page 23


 804              		.comm	PSOC_state,1,1
 805              		.comm	read_counter,1,1
 806              		.comm	pwm_b_new_command,2,2
 807              		.comm	pwm_a_new_command,2,2
 808              		.comm	pwm_b_command,2,2
 809              		.comm	pwm_a_command,2,2
 810              		.comm	enc_c_Position,2,2
 811              		.comm	enc_b_Position,2,2
 812              		.comm	enc_a_Position,2,2
 813              		.comm	RPi_Data,2,2
 814              		.comm	RPi_Command,2,2
 815              		.text
 816              	.Letext0:
 817              		.file 2 "c:\\program files (x86)\\cypress\\psoc creator\\4.2\\psoc creator\\import\\gnu\\arm\\5.4.
 818              		.file 3 "c:\\program files (x86)\\cypress\\psoc creator\\4.2\\psoc creator\\import\\gnu\\arm\\5.4.
 819              		.file 4 "Generated_Source\\PSoC5/cytypes.h"
 820              		.file 5 "Generated_Source\\PSoC5/core_cm3.h"
 821              		.file 6 "Generated_Source\\PSoC5/isr_SS_Fall.h"
 822              		.file 7 "Generated_Source\\PSoC5/SPIS.h"
 823              		.file 8 "Generated_Source\\PSoC5/Control_Reg_SS_SigGen.h"
 824              		.file 9 "Generated_Source\\PSoC5/SPIM_SigGen.h"
 825              		.file 10 "Generated_Source\\PSoC5/I2C_1.h"
 826              		.file 11 "Generated_Source\\PSoC5/isr_SS_Rise.h"
 827              		.file 12 "Generated_Source\\PSoC5/CyLib.h"
 828              		.file 13 "Generated_Source\\PSoC5/SPIM_1.h"
 829              		.file 14 "Generated_Source\\PSoC5/Control_Reg_SS.h"
 830              		.file 15 "Generated_Source\\PSoC5/Comp_1.h"
 831              		.file 16 "Generated_Source\\PSoC5/EnableBattery.h"
 832              		.file 17 "Generated_Source\\PSoC5/Control_Reg_LED.h"
 833              		.file 18 "Generated_Source\\PSoC5/RpiInterrupts.h"
 834              		.file 19 "Generated_Source\\PSoC5/Clock_1.h"
 835              		.file 20 "Generated_Source\\PSoC5/PWM_1.h"
 836              		.file 21 "Generated_Source\\PSoC5/PWM_2.h"
 837              		.file 22 "Generated_Source\\PSoC5/Status_Reg_1.h"