ARM GAS  C:\Users\HARLOW~1\AppData\Local\Temp\ccZhQViV.s 			page 1


   1              		.syntax unified
   2              		.cpu cortex-m3
   3              		.fpu softvfp
   4              		.eabi_attribute 20, 1
   5              		.eabi_attribute 21, 1
   6              		.eabi_attribute 23, 3
   7              		.eabi_attribute 24, 1
   8              		.eabi_attribute 25, 1
   9              		.eabi_attribute 26, 1
  10              		.eabi_attribute 30, 4
  11              		.eabi_attribute 34, 1
  12              		.eabi_attribute 18, 4
  13              		.thumb
  14              		.syntax unified
  15              		.file	"SPIM_SigGen.c"
  16              		.text
  17              	.Ltext0:
  18              		.cfi_sections	.debug_frame
  19              		.section	.text.SPIM_SigGen_Enable,"ax",%progbits
  20              		.align	1
  21              		.global	SPIM_SigGen_Enable
  22              		.thumb
  23              		.thumb_func
  24              		.type	SPIM_SigGen_Enable, %function
  25              	SPIM_SigGen_Enable:
  26              	.LFB1:
  27              		.file 1 "Generated_Source\\PSoC5\\SPIM_SigGen.c"
   1:Generated_Source\PSoC5/SPIM_SigGen.c **** /*******************************************************************************
   2:Generated_Source\PSoC5/SPIM_SigGen.c **** * File Name: SPIM_SigGen.c
   3:Generated_Source\PSoC5/SPIM_SigGen.c **** * Version 2.50
   4:Generated_Source\PSoC5/SPIM_SigGen.c **** *
   5:Generated_Source\PSoC5/SPIM_SigGen.c **** * Description:
   6:Generated_Source\PSoC5/SPIM_SigGen.c **** *  This file provides all API functionality of the SPI Master component.
   7:Generated_Source\PSoC5/SPIM_SigGen.c **** *
   8:Generated_Source\PSoC5/SPIM_SigGen.c **** * Note:
   9:Generated_Source\PSoC5/SPIM_SigGen.c **** *  None.
  10:Generated_Source\PSoC5/SPIM_SigGen.c **** *
  11:Generated_Source\PSoC5/SPIM_SigGen.c **** ********************************************************************************
  12:Generated_Source\PSoC5/SPIM_SigGen.c **** * Copyright 2008-2015, Cypress Semiconductor Corporation.  All rights reserved.
  13:Generated_Source\PSoC5/SPIM_SigGen.c **** * You may use this file only in accordance with the license, terms, conditions,
  14:Generated_Source\PSoC5/SPIM_SigGen.c **** * disclaimers, and limitations in the end user license agreement accompanying
  15:Generated_Source\PSoC5/SPIM_SigGen.c **** * the software package with which this file was provided.
  16:Generated_Source\PSoC5/SPIM_SigGen.c **** *******************************************************************************/
  17:Generated_Source\PSoC5/SPIM_SigGen.c **** 
  18:Generated_Source\PSoC5/SPIM_SigGen.c **** #include "SPIM_SigGen_PVT.h"
  19:Generated_Source\PSoC5/SPIM_SigGen.c **** 
  20:Generated_Source\PSoC5/SPIM_SigGen.c **** #if(SPIM_SigGen_TX_SOFTWARE_BUF_ENABLED)
  21:Generated_Source\PSoC5/SPIM_SigGen.c ****     volatile uint16 SPIM_SigGen_txBuffer[SPIM_SigGen_TX_BUFFER_SIZE];
  22:Generated_Source\PSoC5/SPIM_SigGen.c ****     volatile uint8 SPIM_SigGen_txBufferFull;
  23:Generated_Source\PSoC5/SPIM_SigGen.c ****     volatile uint8 SPIM_SigGen_txBufferRead;
  24:Generated_Source\PSoC5/SPIM_SigGen.c ****     volatile uint8 SPIM_SigGen_txBufferWrite;
  25:Generated_Source\PSoC5/SPIM_SigGen.c **** #endif /* (SPIM_SigGen_TX_SOFTWARE_BUF_ENABLED) */
  26:Generated_Source\PSoC5/SPIM_SigGen.c **** 
  27:Generated_Source\PSoC5/SPIM_SigGen.c **** #if(SPIM_SigGen_RX_SOFTWARE_BUF_ENABLED)
  28:Generated_Source\PSoC5/SPIM_SigGen.c ****     volatile uint16 SPIM_SigGen_rxBuffer[SPIM_SigGen_RX_BUFFER_SIZE];
  29:Generated_Source\PSoC5/SPIM_SigGen.c ****     volatile uint8 SPIM_SigGen_rxBufferFull;
  30:Generated_Source\PSoC5/SPIM_SigGen.c ****     volatile uint8 SPIM_SigGen_rxBufferRead;
ARM GAS  C:\Users\HARLOW~1\AppData\Local\Temp\ccZhQViV.s 			page 2


  31:Generated_Source\PSoC5/SPIM_SigGen.c ****     volatile uint8 SPIM_SigGen_rxBufferWrite;
  32:Generated_Source\PSoC5/SPIM_SigGen.c **** #endif /* (SPIM_SigGen_RX_SOFTWARE_BUF_ENABLED) */
  33:Generated_Source\PSoC5/SPIM_SigGen.c **** 
  34:Generated_Source\PSoC5/SPIM_SigGen.c **** uint8 SPIM_SigGen_initVar = 0u;
  35:Generated_Source\PSoC5/SPIM_SigGen.c **** 
  36:Generated_Source\PSoC5/SPIM_SigGen.c **** volatile uint8 SPIM_SigGen_swStatusTx;
  37:Generated_Source\PSoC5/SPIM_SigGen.c **** volatile uint8 SPIM_SigGen_swStatusRx;
  38:Generated_Source\PSoC5/SPIM_SigGen.c **** 
  39:Generated_Source\PSoC5/SPIM_SigGen.c **** 
  40:Generated_Source\PSoC5/SPIM_SigGen.c **** /*******************************************************************************
  41:Generated_Source\PSoC5/SPIM_SigGen.c **** * Function Name: SPIM_SigGen_Init
  42:Generated_Source\PSoC5/SPIM_SigGen.c **** ********************************************************************************
  43:Generated_Source\PSoC5/SPIM_SigGen.c **** *
  44:Generated_Source\PSoC5/SPIM_SigGen.c **** * Summary:
  45:Generated_Source\PSoC5/SPIM_SigGen.c **** *  Inits/Restores default SPIM configuration provided with customizer.
  46:Generated_Source\PSoC5/SPIM_SigGen.c **** *
  47:Generated_Source\PSoC5/SPIM_SigGen.c **** * Parameters:
  48:Generated_Source\PSoC5/SPIM_SigGen.c **** *  None.
  49:Generated_Source\PSoC5/SPIM_SigGen.c **** *
  50:Generated_Source\PSoC5/SPIM_SigGen.c **** * Return:
  51:Generated_Source\PSoC5/SPIM_SigGen.c **** *  None.
  52:Generated_Source\PSoC5/SPIM_SigGen.c **** *
  53:Generated_Source\PSoC5/SPIM_SigGen.c **** * Side Effects:
  54:Generated_Source\PSoC5/SPIM_SigGen.c **** *  When this function is called it initializes all of the necessary parameters
  55:Generated_Source\PSoC5/SPIM_SigGen.c **** *  for execution. i.e. setting the initial interrupt mask, configuring the
  56:Generated_Source\PSoC5/SPIM_SigGen.c **** *  interrupt service routine, configuring the bit-counter parameters and
  57:Generated_Source\PSoC5/SPIM_SigGen.c **** *  clearing the FIFO and Status Register.
  58:Generated_Source\PSoC5/SPIM_SigGen.c **** *
  59:Generated_Source\PSoC5/SPIM_SigGen.c **** * Reentrant:
  60:Generated_Source\PSoC5/SPIM_SigGen.c **** *  No.
  61:Generated_Source\PSoC5/SPIM_SigGen.c **** *
  62:Generated_Source\PSoC5/SPIM_SigGen.c **** *******************************************************************************/
  63:Generated_Source\PSoC5/SPIM_SigGen.c **** void SPIM_SigGen_Init(void) 
  64:Generated_Source\PSoC5/SPIM_SigGen.c **** {
  65:Generated_Source\PSoC5/SPIM_SigGen.c ****     /* Initialize the Bit counter */
  66:Generated_Source\PSoC5/SPIM_SigGen.c ****     SPIM_SigGen_COUNTER_PERIOD_REG = SPIM_SigGen_BITCTR_INIT;
  67:Generated_Source\PSoC5/SPIM_SigGen.c **** 
  68:Generated_Source\PSoC5/SPIM_SigGen.c ****     /* Init TX ISR  */
  69:Generated_Source\PSoC5/SPIM_SigGen.c ****     #if(0u != SPIM_SigGen_INTERNAL_TX_INT_ENABLED)
  70:Generated_Source\PSoC5/SPIM_SigGen.c ****         CyIntDisable         (SPIM_SigGen_TX_ISR_NUMBER);
  71:Generated_Source\PSoC5/SPIM_SigGen.c ****         CyIntSetPriority     (SPIM_SigGen_TX_ISR_NUMBER,  SPIM_SigGen_TX_ISR_PRIORITY);
  72:Generated_Source\PSoC5/SPIM_SigGen.c ****         (void) CyIntSetVector(SPIM_SigGen_TX_ISR_NUMBER, &SPIM_SigGen_TX_ISR);
  73:Generated_Source\PSoC5/SPIM_SigGen.c ****     #endif /* (0u != SPIM_SigGen_INTERNAL_TX_INT_ENABLED) */
  74:Generated_Source\PSoC5/SPIM_SigGen.c **** 
  75:Generated_Source\PSoC5/SPIM_SigGen.c ****     /* Init RX ISR  */
  76:Generated_Source\PSoC5/SPIM_SigGen.c ****     #if(0u != SPIM_SigGen_INTERNAL_RX_INT_ENABLED)
  77:Generated_Source\PSoC5/SPIM_SigGen.c ****         CyIntDisable         (SPIM_SigGen_RX_ISR_NUMBER);
  78:Generated_Source\PSoC5/SPIM_SigGen.c ****         CyIntSetPriority     (SPIM_SigGen_RX_ISR_NUMBER,  SPIM_SigGen_RX_ISR_PRIORITY);
  79:Generated_Source\PSoC5/SPIM_SigGen.c ****         (void) CyIntSetVector(SPIM_SigGen_RX_ISR_NUMBER, &SPIM_SigGen_RX_ISR);
  80:Generated_Source\PSoC5/SPIM_SigGen.c ****     #endif /* (0u != SPIM_SigGen_INTERNAL_RX_INT_ENABLED) */
  81:Generated_Source\PSoC5/SPIM_SigGen.c **** 
  82:Generated_Source\PSoC5/SPIM_SigGen.c ****     /* Clear any stray data from the RX and TX FIFO */
  83:Generated_Source\PSoC5/SPIM_SigGen.c ****     SPIM_SigGen_ClearFIFO();
  84:Generated_Source\PSoC5/SPIM_SigGen.c **** 
  85:Generated_Source\PSoC5/SPIM_SigGen.c ****     #if(SPIM_SigGen_RX_SOFTWARE_BUF_ENABLED)
  86:Generated_Source\PSoC5/SPIM_SigGen.c ****         SPIM_SigGen_rxBufferFull  = 0u;
  87:Generated_Source\PSoC5/SPIM_SigGen.c ****         SPIM_SigGen_rxBufferRead  = 0u;
ARM GAS  C:\Users\HARLOW~1\AppData\Local\Temp\ccZhQViV.s 			page 3


  88:Generated_Source\PSoC5/SPIM_SigGen.c ****         SPIM_SigGen_rxBufferWrite = 0u;
  89:Generated_Source\PSoC5/SPIM_SigGen.c ****     #endif /* (SPIM_SigGen_RX_SOFTWARE_BUF_ENABLED) */
  90:Generated_Source\PSoC5/SPIM_SigGen.c **** 
  91:Generated_Source\PSoC5/SPIM_SigGen.c ****     #if(SPIM_SigGen_TX_SOFTWARE_BUF_ENABLED)
  92:Generated_Source\PSoC5/SPIM_SigGen.c ****         SPIM_SigGen_txBufferFull  = 0u;
  93:Generated_Source\PSoC5/SPIM_SigGen.c ****         SPIM_SigGen_txBufferRead  = 0u;
  94:Generated_Source\PSoC5/SPIM_SigGen.c ****         SPIM_SigGen_txBufferWrite = 0u;
  95:Generated_Source\PSoC5/SPIM_SigGen.c ****     #endif /* (SPIM_SigGen_TX_SOFTWARE_BUF_ENABLED) */
  96:Generated_Source\PSoC5/SPIM_SigGen.c **** 
  97:Generated_Source\PSoC5/SPIM_SigGen.c ****     (void) SPIM_SigGen_ReadTxStatus(); /* Clear Tx status and swStatusTx */
  98:Generated_Source\PSoC5/SPIM_SigGen.c ****     (void) SPIM_SigGen_ReadRxStatus(); /* Clear Rx status and swStatusRx */
  99:Generated_Source\PSoC5/SPIM_SigGen.c **** 
 100:Generated_Source\PSoC5/SPIM_SigGen.c ****     /* Configure TX and RX interrupt mask */
 101:Generated_Source\PSoC5/SPIM_SigGen.c ****     SPIM_SigGen_TX_STATUS_MASK_REG = SPIM_SigGen_TX_INIT_INTERRUPTS_MASK;
 102:Generated_Source\PSoC5/SPIM_SigGen.c ****     SPIM_SigGen_RX_STATUS_MASK_REG = SPIM_SigGen_RX_INIT_INTERRUPTS_MASK;
 103:Generated_Source\PSoC5/SPIM_SigGen.c **** }
 104:Generated_Source\PSoC5/SPIM_SigGen.c **** 
 105:Generated_Source\PSoC5/SPIM_SigGen.c **** 
 106:Generated_Source\PSoC5/SPIM_SigGen.c **** /*******************************************************************************
 107:Generated_Source\PSoC5/SPIM_SigGen.c **** * Function Name: SPIM_SigGen_Enable
 108:Generated_Source\PSoC5/SPIM_SigGen.c **** ********************************************************************************
 109:Generated_Source\PSoC5/SPIM_SigGen.c **** *
 110:Generated_Source\PSoC5/SPIM_SigGen.c **** * Summary:
 111:Generated_Source\PSoC5/SPIM_SigGen.c **** *  Enable SPIM component.
 112:Generated_Source\PSoC5/SPIM_SigGen.c **** *
 113:Generated_Source\PSoC5/SPIM_SigGen.c **** * Parameters:
 114:Generated_Source\PSoC5/SPIM_SigGen.c **** *  None.
 115:Generated_Source\PSoC5/SPIM_SigGen.c **** *
 116:Generated_Source\PSoC5/SPIM_SigGen.c **** * Return:
 117:Generated_Source\PSoC5/SPIM_SigGen.c **** *  None.
 118:Generated_Source\PSoC5/SPIM_SigGen.c **** *
 119:Generated_Source\PSoC5/SPIM_SigGen.c **** *******************************************************************************/
 120:Generated_Source\PSoC5/SPIM_SigGen.c **** void SPIM_SigGen_Enable(void) 
 121:Generated_Source\PSoC5/SPIM_SigGen.c **** {
  28              		.loc 1 121 0
  29              		.cfi_startproc
  30              		@ args = 0, pretend = 0, frame = 0
  31              		@ frame_needed = 0, uses_anonymous_args = 0
  32 0000 08B5     		push	{r3, lr}
  33              		.cfi_def_cfa_offset 8
  34              		.cfi_offset 3, -8
  35              		.cfi_offset 14, -4
 122:Generated_Source\PSoC5/SPIM_SigGen.c ****     uint8 enableInterrupts;
 123:Generated_Source\PSoC5/SPIM_SigGen.c **** 
 124:Generated_Source\PSoC5/SPIM_SigGen.c ****     enableInterrupts = CyEnterCriticalSection();
  36              		.loc 1 124 0
  37 0002 FFF7FEFF 		bl	CyEnterCriticalSection
  38              	.LVL0:
 125:Generated_Source\PSoC5/SPIM_SigGen.c ****     SPIM_SigGen_COUNTER_CONTROL_REG |= SPIM_SigGen_CNTR_ENABLE;
  39              		.loc 1 125 0
  40 0006 094A     		ldr	r2, .L2
  41 0008 1378     		ldrb	r3, [r2]	@ zero_extendqisi2
  42 000a 43F02003 		orr	r3, r3, #32
  43 000e 1370     		strb	r3, [r2]
 126:Generated_Source\PSoC5/SPIM_SigGen.c ****     SPIM_SigGen_TX_STATUS_ACTL_REG  |= SPIM_SigGen_INT_ENABLE;
  44              		.loc 1 126 0
  45 0010 5378     		ldrb	r3, [r2, #1]	@ zero_extendqisi2
ARM GAS  C:\Users\HARLOW~1\AppData\Local\Temp\ccZhQViV.s 			page 4


  46 0012 43F01003 		orr	r3, r3, #16
  47 0016 5370     		strb	r3, [r2, #1]
 127:Generated_Source\PSoC5/SPIM_SigGen.c ****     SPIM_SigGen_RX_STATUS_ACTL_REG  |= SPIM_SigGen_INT_ENABLE;
  48              		.loc 1 127 0
  49 0018 D378     		ldrb	r3, [r2, #3]	@ zero_extendqisi2
  50 001a 43F01003 		orr	r3, r3, #16
  51 001e D370     		strb	r3, [r2, #3]
 128:Generated_Source\PSoC5/SPIM_SigGen.c ****     CyExitCriticalSection(enableInterrupts);
  52              		.loc 1 128 0
  53 0020 FFF7FEFF 		bl	CyExitCriticalSection
  54              	.LVL1:
 129:Generated_Source\PSoC5/SPIM_SigGen.c **** 
 130:Generated_Source\PSoC5/SPIM_SigGen.c ****     #if(0u != SPIM_SigGen_INTERNAL_CLOCK)
 131:Generated_Source\PSoC5/SPIM_SigGen.c ****         SPIM_SigGen_IntClock_Enable();
 132:Generated_Source\PSoC5/SPIM_SigGen.c ****     #endif /* (0u != SPIM_SigGen_INTERNAL_CLOCK) */
 133:Generated_Source\PSoC5/SPIM_SigGen.c **** 
 134:Generated_Source\PSoC5/SPIM_SigGen.c ****     SPIM_SigGen_EnableTxInt();
 135:Generated_Source\PSoC5/SPIM_SigGen.c ****     SPIM_SigGen_EnableRxInt();
 136:Generated_Source\PSoC5/SPIM_SigGen.c **** }
  55              		.loc 1 136 0
  56 0024 BDE80840 		pop	{r3, lr}
  57              		.cfi_restore 14
  58              		.cfi_restore 3
  59              		.cfi_def_cfa_offset 0
 131:Generated_Source\PSoC5/SPIM_SigGen.c ****     #endif /* (0u != SPIM_SigGen_INTERNAL_CLOCK) */
  60              		.loc 1 131 0
  61 0028 FFF7FEBF 		b	SPIM_SigGen_IntClock_Start
  62              	.LVL2:
  63              	.L3:
  64              		.align	2
  65              	.L2:
  66 002c 90640040 		.word	1073767568
  67              		.cfi_endproc
  68              	.LFE1:
  69              		.size	SPIM_SigGen_Enable, .-SPIM_SigGen_Enable
  70              		.section	.text.SPIM_SigGen_Stop,"ax",%progbits
  71              		.align	1
  72              		.global	SPIM_SigGen_Stop
  73              		.thumb
  74              		.thumb_func
  75              		.type	SPIM_SigGen_Stop, %function
  76              	SPIM_SigGen_Stop:
  77              	.LFB3:
 137:Generated_Source\PSoC5/SPIM_SigGen.c **** 
 138:Generated_Source\PSoC5/SPIM_SigGen.c **** 
 139:Generated_Source\PSoC5/SPIM_SigGen.c **** /*******************************************************************************
 140:Generated_Source\PSoC5/SPIM_SigGen.c **** * Function Name: SPIM_SigGen_Start
 141:Generated_Source\PSoC5/SPIM_SigGen.c **** ********************************************************************************
 142:Generated_Source\PSoC5/SPIM_SigGen.c **** *
 143:Generated_Source\PSoC5/SPIM_SigGen.c **** * Summary:
 144:Generated_Source\PSoC5/SPIM_SigGen.c **** *  Initialize and Enable the SPI Master component.
 145:Generated_Source\PSoC5/SPIM_SigGen.c **** *
 146:Generated_Source\PSoC5/SPIM_SigGen.c **** * Parameters:
 147:Generated_Source\PSoC5/SPIM_SigGen.c **** *  None.
 148:Generated_Source\PSoC5/SPIM_SigGen.c **** *
 149:Generated_Source\PSoC5/SPIM_SigGen.c **** * Return:
 150:Generated_Source\PSoC5/SPIM_SigGen.c **** *  None.
ARM GAS  C:\Users\HARLOW~1\AppData\Local\Temp\ccZhQViV.s 			page 5


 151:Generated_Source\PSoC5/SPIM_SigGen.c **** *
 152:Generated_Source\PSoC5/SPIM_SigGen.c **** * Global variables:
 153:Generated_Source\PSoC5/SPIM_SigGen.c **** *  SPIM_SigGen_initVar - used to check initial configuration, modified on
 154:Generated_Source\PSoC5/SPIM_SigGen.c **** *  first function call.
 155:Generated_Source\PSoC5/SPIM_SigGen.c **** *
 156:Generated_Source\PSoC5/SPIM_SigGen.c **** * Theory:
 157:Generated_Source\PSoC5/SPIM_SigGen.c **** *  Enable the clock input to enable operation.
 158:Generated_Source\PSoC5/SPIM_SigGen.c **** *
 159:Generated_Source\PSoC5/SPIM_SigGen.c **** * Reentrant:
 160:Generated_Source\PSoC5/SPIM_SigGen.c **** *  No.
 161:Generated_Source\PSoC5/SPIM_SigGen.c **** *
 162:Generated_Source\PSoC5/SPIM_SigGen.c **** *******************************************************************************/
 163:Generated_Source\PSoC5/SPIM_SigGen.c **** void SPIM_SigGen_Start(void) 
 164:Generated_Source\PSoC5/SPIM_SigGen.c **** {
 165:Generated_Source\PSoC5/SPIM_SigGen.c ****     if(0u == SPIM_SigGen_initVar)
 166:Generated_Source\PSoC5/SPIM_SigGen.c ****     {
 167:Generated_Source\PSoC5/SPIM_SigGen.c ****         SPIM_SigGen_Init();
 168:Generated_Source\PSoC5/SPIM_SigGen.c ****         SPIM_SigGen_initVar = 1u;
 169:Generated_Source\PSoC5/SPIM_SigGen.c ****     }
 170:Generated_Source\PSoC5/SPIM_SigGen.c **** 
 171:Generated_Source\PSoC5/SPIM_SigGen.c ****     SPIM_SigGen_Enable();
 172:Generated_Source\PSoC5/SPIM_SigGen.c **** }
 173:Generated_Source\PSoC5/SPIM_SigGen.c **** 
 174:Generated_Source\PSoC5/SPIM_SigGen.c **** 
 175:Generated_Source\PSoC5/SPIM_SigGen.c **** /*******************************************************************************
 176:Generated_Source\PSoC5/SPIM_SigGen.c **** * Function Name: SPIM_SigGen_Stop
 177:Generated_Source\PSoC5/SPIM_SigGen.c **** ********************************************************************************
 178:Generated_Source\PSoC5/SPIM_SigGen.c **** *
 179:Generated_Source\PSoC5/SPIM_SigGen.c **** * Summary:
 180:Generated_Source\PSoC5/SPIM_SigGen.c **** *  Disable the SPI Master component.
 181:Generated_Source\PSoC5/SPIM_SigGen.c **** *
 182:Generated_Source\PSoC5/SPIM_SigGen.c **** * Parameters:
 183:Generated_Source\PSoC5/SPIM_SigGen.c **** *  None.
 184:Generated_Source\PSoC5/SPIM_SigGen.c **** *
 185:Generated_Source\PSoC5/SPIM_SigGen.c **** * Return:
 186:Generated_Source\PSoC5/SPIM_SigGen.c **** *  None.
 187:Generated_Source\PSoC5/SPIM_SigGen.c **** *
 188:Generated_Source\PSoC5/SPIM_SigGen.c **** * Theory:
 189:Generated_Source\PSoC5/SPIM_SigGen.c **** *  Disable the clock input to enable operation.
 190:Generated_Source\PSoC5/SPIM_SigGen.c **** *
 191:Generated_Source\PSoC5/SPIM_SigGen.c **** *******************************************************************************/
 192:Generated_Source\PSoC5/SPIM_SigGen.c **** void SPIM_SigGen_Stop(void) 
 193:Generated_Source\PSoC5/SPIM_SigGen.c **** {
  78              		.loc 1 193 0
  79              		.cfi_startproc
  80              		@ args = 0, pretend = 0, frame = 0
  81              		@ frame_needed = 0, uses_anonymous_args = 0
  82 0000 08B5     		push	{r3, lr}
  83              		.cfi_def_cfa_offset 8
  84              		.cfi_offset 3, -8
  85              		.cfi_offset 14, -4
 194:Generated_Source\PSoC5/SPIM_SigGen.c ****     uint8 enableInterrupts;
 195:Generated_Source\PSoC5/SPIM_SigGen.c **** 
 196:Generated_Source\PSoC5/SPIM_SigGen.c ****     enableInterrupts = CyEnterCriticalSection();
  86              		.loc 1 196 0
  87 0002 FFF7FEFF 		bl	CyEnterCriticalSection
  88              	.LVL3:
ARM GAS  C:\Users\HARLOW~1\AppData\Local\Temp\ccZhQViV.s 			page 6


 197:Generated_Source\PSoC5/SPIM_SigGen.c ****     SPIM_SigGen_TX_STATUS_ACTL_REG &= ((uint8) ~SPIM_SigGen_INT_ENABLE);
  89              		.loc 1 197 0
  90 0006 074A     		ldr	r2, .L5
  91 0008 1378     		ldrb	r3, [r2]	@ zero_extendqisi2
  92 000a 03F0EF03 		and	r3, r3, #239
  93 000e 1370     		strb	r3, [r2]
 198:Generated_Source\PSoC5/SPIM_SigGen.c ****     SPIM_SigGen_RX_STATUS_ACTL_REG &= ((uint8) ~SPIM_SigGen_INT_ENABLE);
  94              		.loc 1 198 0
  95 0010 9378     		ldrb	r3, [r2, #2]	@ zero_extendqisi2
  96 0012 03F0EF03 		and	r3, r3, #239
  97 0016 9370     		strb	r3, [r2, #2]
 199:Generated_Source\PSoC5/SPIM_SigGen.c ****     CyExitCriticalSection(enableInterrupts);
  98              		.loc 1 199 0
  99 0018 FFF7FEFF 		bl	CyExitCriticalSection
 100              	.LVL4:
 200:Generated_Source\PSoC5/SPIM_SigGen.c **** 
 201:Generated_Source\PSoC5/SPIM_SigGen.c ****     #if(0u != SPIM_SigGen_INTERNAL_CLOCK)
 202:Generated_Source\PSoC5/SPIM_SigGen.c ****         SPIM_SigGen_IntClock_Disable();
 203:Generated_Source\PSoC5/SPIM_SigGen.c ****     #endif /* (0u != SPIM_SigGen_INTERNAL_CLOCK) */
 204:Generated_Source\PSoC5/SPIM_SigGen.c **** 
 205:Generated_Source\PSoC5/SPIM_SigGen.c ****     SPIM_SigGen_DisableTxInt();
 206:Generated_Source\PSoC5/SPIM_SigGen.c ****     SPIM_SigGen_DisableRxInt();
 207:Generated_Source\PSoC5/SPIM_SigGen.c **** }
 101              		.loc 1 207 0
 102 001c BDE80840 		pop	{r3, lr}
 103              		.cfi_restore 14
 104              		.cfi_restore 3
 105              		.cfi_def_cfa_offset 0
 202:Generated_Source\PSoC5/SPIM_SigGen.c ****     #endif /* (0u != SPIM_SigGen_INTERNAL_CLOCK) */
 106              		.loc 1 202 0
 107 0020 FFF7FEBF 		b	SPIM_SigGen_IntClock_Stop
 108              	.LVL5:
 109              	.L6:
 110              		.align	2
 111              	.L5:
 112 0024 91640040 		.word	1073767569
 113              		.cfi_endproc
 114              	.LFE3:
 115              		.size	SPIM_SigGen_Stop, .-SPIM_SigGen_Stop
 116              		.section	.text.SPIM_SigGen_EnableTxInt,"ax",%progbits
 117              		.align	1
 118              		.global	SPIM_SigGen_EnableTxInt
 119              		.thumb
 120              		.thumb_func
 121              		.type	SPIM_SigGen_EnableTxInt, %function
 122              	SPIM_SigGen_EnableTxInt:
 123              	.LFB33:
 124              		.cfi_startproc
 125              		@ args = 0, pretend = 0, frame = 0
 126              		@ frame_needed = 0, uses_anonymous_args = 0
 127              		@ link register save eliminated.
 128 0000 7047     		bx	lr
 129              		.cfi_endproc
 130              	.LFE33:
 131              		.size	SPIM_SigGen_EnableTxInt, .-SPIM_SigGen_EnableTxInt
 132              		.section	.text.SPIM_SigGen_EnableRxInt,"ax",%progbits
 133              		.align	1
ARM GAS  C:\Users\HARLOW~1\AppData\Local\Temp\ccZhQViV.s 			page 7


 134              		.global	SPIM_SigGen_EnableRxInt
 135              		.thumb
 136              		.thumb_func
 137              		.type	SPIM_SigGen_EnableRxInt, %function
 138              	SPIM_SigGen_EnableRxInt:
 139              	.LFB31:
 140              		.cfi_startproc
 141              		@ args = 0, pretend = 0, frame = 0
 142              		@ frame_needed = 0, uses_anonymous_args = 0
 143              		@ link register save eliminated.
 144 0000 7047     		bx	lr
 145              		.cfi_endproc
 146              	.LFE31:
 147              		.size	SPIM_SigGen_EnableRxInt, .-SPIM_SigGen_EnableRxInt
 148              		.section	.text.SPIM_SigGen_DisableTxInt,"ax",%progbits
 149              		.align	1
 150              		.global	SPIM_SigGen_DisableTxInt
 151              		.thumb
 152              		.thumb_func
 153              		.type	SPIM_SigGen_DisableTxInt, %function
 154              	SPIM_SigGen_DisableTxInt:
 155              	.LFB29:
 156              		.cfi_startproc
 157              		@ args = 0, pretend = 0, frame = 0
 158              		@ frame_needed = 0, uses_anonymous_args = 0
 159              		@ link register save eliminated.
 160 0000 7047     		bx	lr
 161              		.cfi_endproc
 162              	.LFE29:
 163              		.size	SPIM_SigGen_DisableTxInt, .-SPIM_SigGen_DisableTxInt
 164              		.section	.text.SPIM_SigGen_DisableRxInt,"ax",%progbits
 165              		.align	1
 166              		.global	SPIM_SigGen_DisableRxInt
 167              		.thumb
 168              		.thumb_func
 169              		.type	SPIM_SigGen_DisableRxInt, %function
 170              	SPIM_SigGen_DisableRxInt:
 171              	.LFB27:
 172              		.cfi_startproc
 173              		@ args = 0, pretend = 0, frame = 0
 174              		@ frame_needed = 0, uses_anonymous_args = 0
 175              		@ link register save eliminated.
 176 0000 7047     		bx	lr
 177              		.cfi_endproc
 178              	.LFE27:
 179              		.size	SPIM_SigGen_DisableRxInt, .-SPIM_SigGen_DisableRxInt
 180              		.section	.text.SPIM_SigGen_SetTxInterruptMode,"ax",%progbits
 181              		.align	1
 182              		.global	SPIM_SigGen_SetTxInterruptMode
 183              		.thumb
 184              		.thumb_func
 185              		.type	SPIM_SigGen_SetTxInterruptMode, %function
 186              	SPIM_SigGen_SetTxInterruptMode:
 187              	.LFB8:
 208:Generated_Source\PSoC5/SPIM_SigGen.c **** 
 209:Generated_Source\PSoC5/SPIM_SigGen.c **** 
 210:Generated_Source\PSoC5/SPIM_SigGen.c **** /*******************************************************************************
ARM GAS  C:\Users\HARLOW~1\AppData\Local\Temp\ccZhQViV.s 			page 8


 211:Generated_Source\PSoC5/SPIM_SigGen.c **** * Function Name: SPIM_SigGen_EnableTxInt
 212:Generated_Source\PSoC5/SPIM_SigGen.c **** ********************************************************************************
 213:Generated_Source\PSoC5/SPIM_SigGen.c **** *
 214:Generated_Source\PSoC5/SPIM_SigGen.c **** * Summary:
 215:Generated_Source\PSoC5/SPIM_SigGen.c **** *  Enable internal Tx interrupt generation.
 216:Generated_Source\PSoC5/SPIM_SigGen.c **** *
 217:Generated_Source\PSoC5/SPIM_SigGen.c **** * Parameters:
 218:Generated_Source\PSoC5/SPIM_SigGen.c **** *  None.
 219:Generated_Source\PSoC5/SPIM_SigGen.c **** *
 220:Generated_Source\PSoC5/SPIM_SigGen.c **** * Return:
 221:Generated_Source\PSoC5/SPIM_SigGen.c **** *  None.
 222:Generated_Source\PSoC5/SPIM_SigGen.c **** *
 223:Generated_Source\PSoC5/SPIM_SigGen.c **** * Theory:
 224:Generated_Source\PSoC5/SPIM_SigGen.c **** *  Enable the internal Tx interrupt output -or- the interrupt component itself.
 225:Generated_Source\PSoC5/SPIM_SigGen.c **** *
 226:Generated_Source\PSoC5/SPIM_SigGen.c **** *******************************************************************************/
 227:Generated_Source\PSoC5/SPIM_SigGen.c **** void SPIM_SigGen_EnableTxInt(void) 
 228:Generated_Source\PSoC5/SPIM_SigGen.c **** {
 229:Generated_Source\PSoC5/SPIM_SigGen.c ****     #if(0u != SPIM_SigGen_INTERNAL_TX_INT_ENABLED)
 230:Generated_Source\PSoC5/SPIM_SigGen.c ****         CyIntEnable(SPIM_SigGen_TX_ISR_NUMBER);
 231:Generated_Source\PSoC5/SPIM_SigGen.c ****     #endif /* (0u != SPIM_SigGen_INTERNAL_TX_INT_ENABLED) */
 232:Generated_Source\PSoC5/SPIM_SigGen.c **** }
 233:Generated_Source\PSoC5/SPIM_SigGen.c **** 
 234:Generated_Source\PSoC5/SPIM_SigGen.c **** 
 235:Generated_Source\PSoC5/SPIM_SigGen.c **** /*******************************************************************************
 236:Generated_Source\PSoC5/SPIM_SigGen.c **** * Function Name: SPIM_SigGen_EnableRxInt
 237:Generated_Source\PSoC5/SPIM_SigGen.c **** ********************************************************************************
 238:Generated_Source\PSoC5/SPIM_SigGen.c **** *
 239:Generated_Source\PSoC5/SPIM_SigGen.c **** * Summary:
 240:Generated_Source\PSoC5/SPIM_SigGen.c **** *  Enable internal Rx interrupt generation.
 241:Generated_Source\PSoC5/SPIM_SigGen.c **** *
 242:Generated_Source\PSoC5/SPIM_SigGen.c **** * Parameters:
 243:Generated_Source\PSoC5/SPIM_SigGen.c **** *  None.
 244:Generated_Source\PSoC5/SPIM_SigGen.c **** *
 245:Generated_Source\PSoC5/SPIM_SigGen.c **** * Return:
 246:Generated_Source\PSoC5/SPIM_SigGen.c **** *  None.
 247:Generated_Source\PSoC5/SPIM_SigGen.c **** *
 248:Generated_Source\PSoC5/SPIM_SigGen.c **** * Theory:
 249:Generated_Source\PSoC5/SPIM_SigGen.c **** *  Enable the internal Rx interrupt output -or- the interrupt component itself.
 250:Generated_Source\PSoC5/SPIM_SigGen.c **** *
 251:Generated_Source\PSoC5/SPIM_SigGen.c **** *******************************************************************************/
 252:Generated_Source\PSoC5/SPIM_SigGen.c **** void SPIM_SigGen_EnableRxInt(void) 
 253:Generated_Source\PSoC5/SPIM_SigGen.c **** {
 254:Generated_Source\PSoC5/SPIM_SigGen.c ****     #if(0u != SPIM_SigGen_INTERNAL_RX_INT_ENABLED)
 255:Generated_Source\PSoC5/SPIM_SigGen.c ****         CyIntEnable(SPIM_SigGen_RX_ISR_NUMBER);
 256:Generated_Source\PSoC5/SPIM_SigGen.c ****     #endif /* (0u != SPIM_SigGen_INTERNAL_RX_INT_ENABLED) */
 257:Generated_Source\PSoC5/SPIM_SigGen.c **** }
 258:Generated_Source\PSoC5/SPIM_SigGen.c **** 
 259:Generated_Source\PSoC5/SPIM_SigGen.c **** 
 260:Generated_Source\PSoC5/SPIM_SigGen.c **** /*******************************************************************************
 261:Generated_Source\PSoC5/SPIM_SigGen.c **** * Function Name: SPIM_SigGen_DisableTxInt
 262:Generated_Source\PSoC5/SPIM_SigGen.c **** ********************************************************************************
 263:Generated_Source\PSoC5/SPIM_SigGen.c **** *
 264:Generated_Source\PSoC5/SPIM_SigGen.c **** * Summary:
 265:Generated_Source\PSoC5/SPIM_SigGen.c **** *  Disable internal Tx interrupt generation.
 266:Generated_Source\PSoC5/SPIM_SigGen.c **** *
 267:Generated_Source\PSoC5/SPIM_SigGen.c **** * Parameters:
ARM GAS  C:\Users\HARLOW~1\AppData\Local\Temp\ccZhQViV.s 			page 9


 268:Generated_Source\PSoC5/SPIM_SigGen.c **** *  None.
 269:Generated_Source\PSoC5/SPIM_SigGen.c **** *
 270:Generated_Source\PSoC5/SPIM_SigGen.c **** * Return:
 271:Generated_Source\PSoC5/SPIM_SigGen.c **** *  None.
 272:Generated_Source\PSoC5/SPIM_SigGen.c **** *
 273:Generated_Source\PSoC5/SPIM_SigGen.c **** * Theory:
 274:Generated_Source\PSoC5/SPIM_SigGen.c **** *  Disable the internal Tx interrupt output -or- the interrupt component itself.
 275:Generated_Source\PSoC5/SPIM_SigGen.c **** *
 276:Generated_Source\PSoC5/SPIM_SigGen.c **** *******************************************************************************/
 277:Generated_Source\PSoC5/SPIM_SigGen.c **** void SPIM_SigGen_DisableTxInt(void) 
 278:Generated_Source\PSoC5/SPIM_SigGen.c **** {
 279:Generated_Source\PSoC5/SPIM_SigGen.c ****     #if(0u != SPIM_SigGen_INTERNAL_TX_INT_ENABLED)
 280:Generated_Source\PSoC5/SPIM_SigGen.c ****         CyIntDisable(SPIM_SigGen_TX_ISR_NUMBER);
 281:Generated_Source\PSoC5/SPIM_SigGen.c ****     #endif /* (0u != SPIM_SigGen_INTERNAL_TX_INT_ENABLED) */
 282:Generated_Source\PSoC5/SPIM_SigGen.c **** }
 283:Generated_Source\PSoC5/SPIM_SigGen.c **** 
 284:Generated_Source\PSoC5/SPIM_SigGen.c **** 
 285:Generated_Source\PSoC5/SPIM_SigGen.c **** /*******************************************************************************
 286:Generated_Source\PSoC5/SPIM_SigGen.c **** * Function Name: SPIM_SigGen_DisableRxInt
 287:Generated_Source\PSoC5/SPIM_SigGen.c **** ********************************************************************************
 288:Generated_Source\PSoC5/SPIM_SigGen.c **** *
 289:Generated_Source\PSoC5/SPIM_SigGen.c **** * Summary:
 290:Generated_Source\PSoC5/SPIM_SigGen.c **** *  Disable internal Rx interrupt generation.
 291:Generated_Source\PSoC5/SPIM_SigGen.c **** *
 292:Generated_Source\PSoC5/SPIM_SigGen.c **** * Parameters:
 293:Generated_Source\PSoC5/SPIM_SigGen.c **** *  None.
 294:Generated_Source\PSoC5/SPIM_SigGen.c **** *
 295:Generated_Source\PSoC5/SPIM_SigGen.c **** * Return:
 296:Generated_Source\PSoC5/SPIM_SigGen.c **** *  None.
 297:Generated_Source\PSoC5/SPIM_SigGen.c **** *
 298:Generated_Source\PSoC5/SPIM_SigGen.c **** * Theory:
 299:Generated_Source\PSoC5/SPIM_SigGen.c **** *  Disable the internal Rx interrupt output -or- the interrupt component itself.
 300:Generated_Source\PSoC5/SPIM_SigGen.c **** *
 301:Generated_Source\PSoC5/SPIM_SigGen.c **** *******************************************************************************/
 302:Generated_Source\PSoC5/SPIM_SigGen.c **** void SPIM_SigGen_DisableRxInt(void) 
 303:Generated_Source\PSoC5/SPIM_SigGen.c **** {
 304:Generated_Source\PSoC5/SPIM_SigGen.c ****     #if(0u != SPIM_SigGen_INTERNAL_RX_INT_ENABLED)
 305:Generated_Source\PSoC5/SPIM_SigGen.c ****         CyIntDisable(SPIM_SigGen_RX_ISR_NUMBER);
 306:Generated_Source\PSoC5/SPIM_SigGen.c ****     #endif /* (0u != SPIM_SigGen_INTERNAL_RX_INT_ENABLED) */
 307:Generated_Source\PSoC5/SPIM_SigGen.c **** }
 308:Generated_Source\PSoC5/SPIM_SigGen.c **** 
 309:Generated_Source\PSoC5/SPIM_SigGen.c **** 
 310:Generated_Source\PSoC5/SPIM_SigGen.c **** /*******************************************************************************
 311:Generated_Source\PSoC5/SPIM_SigGen.c **** * Function Name: SPIM_SigGen_SetTxInterruptMode
 312:Generated_Source\PSoC5/SPIM_SigGen.c **** ********************************************************************************
 313:Generated_Source\PSoC5/SPIM_SigGen.c **** *
 314:Generated_Source\PSoC5/SPIM_SigGen.c **** * Summary:
 315:Generated_Source\PSoC5/SPIM_SigGen.c **** *  Configure which status bits trigger an interrupt event.
 316:Generated_Source\PSoC5/SPIM_SigGen.c **** *
 317:Generated_Source\PSoC5/SPIM_SigGen.c **** * Parameters:
 318:Generated_Source\PSoC5/SPIM_SigGen.c **** *  intSrc: An or'd combination of the desired status bit masks (defined in the
 319:Generated_Source\PSoC5/SPIM_SigGen.c **** *  header file).
 320:Generated_Source\PSoC5/SPIM_SigGen.c **** *
 321:Generated_Source\PSoC5/SPIM_SigGen.c **** * Return:
 322:Generated_Source\PSoC5/SPIM_SigGen.c **** *  None.
 323:Generated_Source\PSoC5/SPIM_SigGen.c **** *
 324:Generated_Source\PSoC5/SPIM_SigGen.c **** * Theory:
ARM GAS  C:\Users\HARLOW~1\AppData\Local\Temp\ccZhQViV.s 			page 10


 325:Generated_Source\PSoC5/SPIM_SigGen.c **** *  Enables the output of specific status bits to the interrupt controller.
 326:Generated_Source\PSoC5/SPIM_SigGen.c **** *
 327:Generated_Source\PSoC5/SPIM_SigGen.c **** *******************************************************************************/
 328:Generated_Source\PSoC5/SPIM_SigGen.c **** void SPIM_SigGen_SetTxInterruptMode(uint8 intSrc) 
 329:Generated_Source\PSoC5/SPIM_SigGen.c **** {
 188              		.loc 1 329 0
 189              		.cfi_startproc
 190              		@ args = 0, pretend = 0, frame = 0
 191              		@ frame_needed = 0, uses_anonymous_args = 0
 192              		@ link register save eliminated.
 193              	.LVL6:
 330:Generated_Source\PSoC5/SPIM_SigGen.c ****     SPIM_SigGen_TX_STATUS_MASK_REG = intSrc;
 194              		.loc 1 330 0
 195 0000 014B     		ldr	r3, .L12
 196 0002 1870     		strb	r0, [r3]
 197 0004 7047     		bx	lr
 198              	.L13:
 199 0006 00BF     		.align	2
 200              	.L12:
 201 0008 81640040 		.word	1073767553
 202              		.cfi_endproc
 203              	.LFE8:
 204              		.size	SPIM_SigGen_SetTxInterruptMode, .-SPIM_SigGen_SetTxInterruptMode
 205              		.section	.text.SPIM_SigGen_SetRxInterruptMode,"ax",%progbits
 206              		.align	1
 207              		.global	SPIM_SigGen_SetRxInterruptMode
 208              		.thumb
 209              		.thumb_func
 210              		.type	SPIM_SigGen_SetRxInterruptMode, %function
 211              	SPIM_SigGen_SetRxInterruptMode:
 212              	.LFB9:
 331:Generated_Source\PSoC5/SPIM_SigGen.c **** }
 332:Generated_Source\PSoC5/SPIM_SigGen.c **** 
 333:Generated_Source\PSoC5/SPIM_SigGen.c **** 
 334:Generated_Source\PSoC5/SPIM_SigGen.c **** /*******************************************************************************
 335:Generated_Source\PSoC5/SPIM_SigGen.c **** * Function Name: SPIM_SigGen_SetRxInterruptMode
 336:Generated_Source\PSoC5/SPIM_SigGen.c **** ********************************************************************************
 337:Generated_Source\PSoC5/SPIM_SigGen.c **** *
 338:Generated_Source\PSoC5/SPIM_SigGen.c **** * Summary:
 339:Generated_Source\PSoC5/SPIM_SigGen.c **** *  Configure which status bits trigger an interrupt event.
 340:Generated_Source\PSoC5/SPIM_SigGen.c **** *
 341:Generated_Source\PSoC5/SPIM_SigGen.c **** * Parameters:
 342:Generated_Source\PSoC5/SPIM_SigGen.c **** *  intSrc: An or'd combination of the desired status bit masks (defined in the
 343:Generated_Source\PSoC5/SPIM_SigGen.c **** *  header file).
 344:Generated_Source\PSoC5/SPIM_SigGen.c **** *
 345:Generated_Source\PSoC5/SPIM_SigGen.c **** * Return:
 346:Generated_Source\PSoC5/SPIM_SigGen.c **** *  None.
 347:Generated_Source\PSoC5/SPIM_SigGen.c **** *
 348:Generated_Source\PSoC5/SPIM_SigGen.c **** * Theory:
 349:Generated_Source\PSoC5/SPIM_SigGen.c **** *  Enables the output of specific status bits to the interrupt controller.
 350:Generated_Source\PSoC5/SPIM_SigGen.c **** *
 351:Generated_Source\PSoC5/SPIM_SigGen.c **** *******************************************************************************/
 352:Generated_Source\PSoC5/SPIM_SigGen.c **** void SPIM_SigGen_SetRxInterruptMode(uint8 intSrc) 
 353:Generated_Source\PSoC5/SPIM_SigGen.c **** {
 213              		.loc 1 353 0
 214              		.cfi_startproc
 215              		@ args = 0, pretend = 0, frame = 0
ARM GAS  C:\Users\HARLOW~1\AppData\Local\Temp\ccZhQViV.s 			page 11


 216              		@ frame_needed = 0, uses_anonymous_args = 0
 217              		@ link register save eliminated.
 218              	.LVL7:
 354:Generated_Source\PSoC5/SPIM_SigGen.c ****     SPIM_SigGen_RX_STATUS_MASK_REG  = intSrc;
 219              		.loc 1 354 0
 220 0000 014B     		ldr	r3, .L15
 221 0002 1870     		strb	r0, [r3]
 222 0004 7047     		bx	lr
 223              	.L16:
 224 0006 00BF     		.align	2
 225              	.L15:
 226 0008 83640040 		.word	1073767555
 227              		.cfi_endproc
 228              	.LFE9:
 229              		.size	SPIM_SigGen_SetRxInterruptMode, .-SPIM_SigGen_SetRxInterruptMode
 230              		.section	.text.SPIM_SigGen_ReadTxStatus,"ax",%progbits
 231              		.align	1
 232              		.global	SPIM_SigGen_ReadTxStatus
 233              		.thumb
 234              		.thumb_func
 235              		.type	SPIM_SigGen_ReadTxStatus, %function
 236              	SPIM_SigGen_ReadTxStatus:
 237              	.LFB10:
 355:Generated_Source\PSoC5/SPIM_SigGen.c **** }
 356:Generated_Source\PSoC5/SPIM_SigGen.c **** 
 357:Generated_Source\PSoC5/SPIM_SigGen.c **** 
 358:Generated_Source\PSoC5/SPIM_SigGen.c **** /*******************************************************************************
 359:Generated_Source\PSoC5/SPIM_SigGen.c **** * Function Name: SPIM_SigGen_ReadTxStatus
 360:Generated_Source\PSoC5/SPIM_SigGen.c **** ********************************************************************************
 361:Generated_Source\PSoC5/SPIM_SigGen.c **** *
 362:Generated_Source\PSoC5/SPIM_SigGen.c **** * Summary:
 363:Generated_Source\PSoC5/SPIM_SigGen.c **** *  Read the Tx status register for the component.
 364:Generated_Source\PSoC5/SPIM_SigGen.c **** *
 365:Generated_Source\PSoC5/SPIM_SigGen.c **** * Parameters:
 366:Generated_Source\PSoC5/SPIM_SigGen.c **** *  None.
 367:Generated_Source\PSoC5/SPIM_SigGen.c **** *
 368:Generated_Source\PSoC5/SPIM_SigGen.c **** * Return:
 369:Generated_Source\PSoC5/SPIM_SigGen.c **** *  Contents of the Tx status register.
 370:Generated_Source\PSoC5/SPIM_SigGen.c **** *
 371:Generated_Source\PSoC5/SPIM_SigGen.c **** * Global variables:
 372:Generated_Source\PSoC5/SPIM_SigGen.c **** *  SPIM_SigGen_swStatusTx - used to store in software status register,
 373:Generated_Source\PSoC5/SPIM_SigGen.c **** *  modified every function call - resets to zero.
 374:Generated_Source\PSoC5/SPIM_SigGen.c **** *
 375:Generated_Source\PSoC5/SPIM_SigGen.c **** * Theory:
 376:Generated_Source\PSoC5/SPIM_SigGen.c **** *  Allows the user and the API to read the Tx status register for error
 377:Generated_Source\PSoC5/SPIM_SigGen.c **** *  detection and flow control.
 378:Generated_Source\PSoC5/SPIM_SigGen.c **** *
 379:Generated_Source\PSoC5/SPIM_SigGen.c **** * Side Effects:
 380:Generated_Source\PSoC5/SPIM_SigGen.c **** *  Clear Tx status register of the component.
 381:Generated_Source\PSoC5/SPIM_SigGen.c **** *
 382:Generated_Source\PSoC5/SPIM_SigGen.c **** * Reentrant:
 383:Generated_Source\PSoC5/SPIM_SigGen.c **** *  No.
 384:Generated_Source\PSoC5/SPIM_SigGen.c **** *
 385:Generated_Source\PSoC5/SPIM_SigGen.c **** *******************************************************************************/
 386:Generated_Source\PSoC5/SPIM_SigGen.c **** uint8 SPIM_SigGen_ReadTxStatus(void) 
 387:Generated_Source\PSoC5/SPIM_SigGen.c **** {
 238              		.loc 1 387 0
ARM GAS  C:\Users\HARLOW~1\AppData\Local\Temp\ccZhQViV.s 			page 12


 239              		.cfi_startproc
 240              		@ args = 0, pretend = 0, frame = 0
 241              		@ frame_needed = 0, uses_anonymous_args = 0
 242              		@ link register save eliminated.
 388:Generated_Source\PSoC5/SPIM_SigGen.c ****     uint8 tmpStatus;
 389:Generated_Source\PSoC5/SPIM_SigGen.c **** 
 390:Generated_Source\PSoC5/SPIM_SigGen.c ****     #if(SPIM_SigGen_TX_SOFTWARE_BUF_ENABLED)
 391:Generated_Source\PSoC5/SPIM_SigGen.c ****         /* Disable TX interrupt to protect global veriables */
 392:Generated_Source\PSoC5/SPIM_SigGen.c ****         SPIM_SigGen_DisableTxInt();
 393:Generated_Source\PSoC5/SPIM_SigGen.c **** 
 394:Generated_Source\PSoC5/SPIM_SigGen.c ****         tmpStatus = SPIM_SigGen_GET_STATUS_TX(SPIM_SigGen_swStatusTx);
 395:Generated_Source\PSoC5/SPIM_SigGen.c ****         SPIM_SigGen_swStatusTx = 0u;
 396:Generated_Source\PSoC5/SPIM_SigGen.c **** 
 397:Generated_Source\PSoC5/SPIM_SigGen.c ****         SPIM_SigGen_EnableTxInt();
 398:Generated_Source\PSoC5/SPIM_SigGen.c **** 
 399:Generated_Source\PSoC5/SPIM_SigGen.c ****     #else
 400:Generated_Source\PSoC5/SPIM_SigGen.c **** 
 401:Generated_Source\PSoC5/SPIM_SigGen.c ****         tmpStatus = SPIM_SigGen_TX_STATUS_REG;
 243              		.loc 1 401 0
 244 0000 014B     		ldr	r3, .L18
 245 0002 1878     		ldrb	r0, [r3]	@ zero_extendqisi2
 246              	.LVL8:
 402:Generated_Source\PSoC5/SPIM_SigGen.c **** 
 403:Generated_Source\PSoC5/SPIM_SigGen.c ****     #endif /* (SPIM_SigGen_TX_SOFTWARE_BUF_ENABLED) */
 404:Generated_Source\PSoC5/SPIM_SigGen.c **** 
 405:Generated_Source\PSoC5/SPIM_SigGen.c ****     return(tmpStatus);
 406:Generated_Source\PSoC5/SPIM_SigGen.c **** }
 247              		.loc 1 406 0
 248 0004 7047     		bx	lr
 249              	.L19:
 250 0006 00BF     		.align	2
 251              	.L18:
 252 0008 61640040 		.word	1073767521
 253              		.cfi_endproc
 254              	.LFE10:
 255              		.size	SPIM_SigGen_ReadTxStatus, .-SPIM_SigGen_ReadTxStatus
 256              		.section	.text.SPIM_SigGen_ReadRxStatus,"ax",%progbits
 257              		.align	1
 258              		.global	SPIM_SigGen_ReadRxStatus
 259              		.thumb
 260              		.thumb_func
 261              		.type	SPIM_SigGen_ReadRxStatus, %function
 262              	SPIM_SigGen_ReadRxStatus:
 263              	.LFB11:
 407:Generated_Source\PSoC5/SPIM_SigGen.c **** 
 408:Generated_Source\PSoC5/SPIM_SigGen.c **** 
 409:Generated_Source\PSoC5/SPIM_SigGen.c **** /*******************************************************************************
 410:Generated_Source\PSoC5/SPIM_SigGen.c **** * Function Name: SPIM_SigGen_ReadRxStatus
 411:Generated_Source\PSoC5/SPIM_SigGen.c **** ********************************************************************************
 412:Generated_Source\PSoC5/SPIM_SigGen.c **** *
 413:Generated_Source\PSoC5/SPIM_SigGen.c **** * Summary:
 414:Generated_Source\PSoC5/SPIM_SigGen.c **** *  Read the Rx status register for the component.
 415:Generated_Source\PSoC5/SPIM_SigGen.c **** *
 416:Generated_Source\PSoC5/SPIM_SigGen.c **** * Parameters:
 417:Generated_Source\PSoC5/SPIM_SigGen.c **** *  None.
 418:Generated_Source\PSoC5/SPIM_SigGen.c **** *
 419:Generated_Source\PSoC5/SPIM_SigGen.c **** * Return:
ARM GAS  C:\Users\HARLOW~1\AppData\Local\Temp\ccZhQViV.s 			page 13


 420:Generated_Source\PSoC5/SPIM_SigGen.c **** *  Contents of the Rx status register.
 421:Generated_Source\PSoC5/SPIM_SigGen.c **** *
 422:Generated_Source\PSoC5/SPIM_SigGen.c **** * Global variables:
 423:Generated_Source\PSoC5/SPIM_SigGen.c **** *  SPIM_SigGen_swStatusRx - used to store in software Rx status register,
 424:Generated_Source\PSoC5/SPIM_SigGen.c **** *  modified every function call - resets to zero.
 425:Generated_Source\PSoC5/SPIM_SigGen.c **** *
 426:Generated_Source\PSoC5/SPIM_SigGen.c **** * Theory:
 427:Generated_Source\PSoC5/SPIM_SigGen.c **** *  Allows the user and the API to read the Rx status register for error
 428:Generated_Source\PSoC5/SPIM_SigGen.c **** *  detection and flow control.
 429:Generated_Source\PSoC5/SPIM_SigGen.c **** *
 430:Generated_Source\PSoC5/SPIM_SigGen.c **** * Side Effects:
 431:Generated_Source\PSoC5/SPIM_SigGen.c **** *  Clear Rx status register of the component.
 432:Generated_Source\PSoC5/SPIM_SigGen.c **** *
 433:Generated_Source\PSoC5/SPIM_SigGen.c **** * Reentrant:
 434:Generated_Source\PSoC5/SPIM_SigGen.c **** *  No.
 435:Generated_Source\PSoC5/SPIM_SigGen.c **** *
 436:Generated_Source\PSoC5/SPIM_SigGen.c **** *******************************************************************************/
 437:Generated_Source\PSoC5/SPIM_SigGen.c **** uint8 SPIM_SigGen_ReadRxStatus(void) 
 438:Generated_Source\PSoC5/SPIM_SigGen.c **** {
 264              		.loc 1 438 0
 265              		.cfi_startproc
 266              		@ args = 0, pretend = 0, frame = 0
 267              		@ frame_needed = 0, uses_anonymous_args = 0
 268              		@ link register save eliminated.
 439:Generated_Source\PSoC5/SPIM_SigGen.c ****     uint8 tmpStatus;
 440:Generated_Source\PSoC5/SPIM_SigGen.c **** 
 441:Generated_Source\PSoC5/SPIM_SigGen.c ****     #if(SPIM_SigGen_RX_SOFTWARE_BUF_ENABLED)
 442:Generated_Source\PSoC5/SPIM_SigGen.c ****         /* Disable RX interrupt to protect global veriables */
 443:Generated_Source\PSoC5/SPIM_SigGen.c ****         SPIM_SigGen_DisableRxInt();
 444:Generated_Source\PSoC5/SPIM_SigGen.c **** 
 445:Generated_Source\PSoC5/SPIM_SigGen.c ****         tmpStatus = SPIM_SigGen_GET_STATUS_RX(SPIM_SigGen_swStatusRx);
 446:Generated_Source\PSoC5/SPIM_SigGen.c ****         SPIM_SigGen_swStatusRx = 0u;
 447:Generated_Source\PSoC5/SPIM_SigGen.c **** 
 448:Generated_Source\PSoC5/SPIM_SigGen.c ****         SPIM_SigGen_EnableRxInt();
 449:Generated_Source\PSoC5/SPIM_SigGen.c **** 
 450:Generated_Source\PSoC5/SPIM_SigGen.c ****     #else
 451:Generated_Source\PSoC5/SPIM_SigGen.c **** 
 452:Generated_Source\PSoC5/SPIM_SigGen.c ****         tmpStatus = SPIM_SigGen_RX_STATUS_REG;
 269              		.loc 1 452 0
 270 0000 014B     		ldr	r3, .L21
 271 0002 1878     		ldrb	r0, [r3]	@ zero_extendqisi2
 272              	.LVL9:
 453:Generated_Source\PSoC5/SPIM_SigGen.c **** 
 454:Generated_Source\PSoC5/SPIM_SigGen.c ****     #endif /* (SPIM_SigGen_RX_SOFTWARE_BUF_ENABLED) */
 455:Generated_Source\PSoC5/SPIM_SigGen.c **** 
 456:Generated_Source\PSoC5/SPIM_SigGen.c ****     return(tmpStatus);
 457:Generated_Source\PSoC5/SPIM_SigGen.c **** }
 273              		.loc 1 457 0
 274 0004 7047     		bx	lr
 275              	.L22:
 276 0006 00BF     		.align	2
 277              	.L21:
 278 0008 63640040 		.word	1073767523
 279              		.cfi_endproc
 280              	.LFE11:
 281              		.size	SPIM_SigGen_ReadRxStatus, .-SPIM_SigGen_ReadRxStatus
 282              		.section	.text.SPIM_SigGen_WriteTxData,"ax",%progbits
ARM GAS  C:\Users\HARLOW~1\AppData\Local\Temp\ccZhQViV.s 			page 14


 283              		.align	1
 284              		.global	SPIM_SigGen_WriteTxData
 285              		.thumb
 286              		.thumb_func
 287              		.type	SPIM_SigGen_WriteTxData, %function
 288              	SPIM_SigGen_WriteTxData:
 289              	.LFB12:
 458:Generated_Source\PSoC5/SPIM_SigGen.c **** 
 459:Generated_Source\PSoC5/SPIM_SigGen.c **** 
 460:Generated_Source\PSoC5/SPIM_SigGen.c **** /*******************************************************************************
 461:Generated_Source\PSoC5/SPIM_SigGen.c **** * Function Name: SPIM_SigGen_WriteTxData
 462:Generated_Source\PSoC5/SPIM_SigGen.c **** ********************************************************************************
 463:Generated_Source\PSoC5/SPIM_SigGen.c **** *
 464:Generated_Source\PSoC5/SPIM_SigGen.c **** * Summary:
 465:Generated_Source\PSoC5/SPIM_SigGen.c **** *  Write a byte of data to be sent across the SPI.
 466:Generated_Source\PSoC5/SPIM_SigGen.c **** *
 467:Generated_Source\PSoC5/SPIM_SigGen.c **** * Parameters:
 468:Generated_Source\PSoC5/SPIM_SigGen.c **** *  txDataByte: The data value to send across the SPI.
 469:Generated_Source\PSoC5/SPIM_SigGen.c **** *
 470:Generated_Source\PSoC5/SPIM_SigGen.c **** * Return:
 471:Generated_Source\PSoC5/SPIM_SigGen.c **** *  None.
 472:Generated_Source\PSoC5/SPIM_SigGen.c **** *
 473:Generated_Source\PSoC5/SPIM_SigGen.c **** * Global variables:
 474:Generated_Source\PSoC5/SPIM_SigGen.c **** *  SPIM_SigGen_txBufferWrite - used for the account of the bytes which
 475:Generated_Source\PSoC5/SPIM_SigGen.c **** *  have been written down in the TX software buffer, modified every function
 476:Generated_Source\PSoC5/SPIM_SigGen.c **** *  call if TX Software Buffer is used.
 477:Generated_Source\PSoC5/SPIM_SigGen.c **** *  SPIM_SigGen_txBufferRead - used for the account of the bytes which
 478:Generated_Source\PSoC5/SPIM_SigGen.c **** *  have been read from the TX software buffer.
 479:Generated_Source\PSoC5/SPIM_SigGen.c **** *  SPIM_SigGen_txBuffer[SPIM_SigGen_TX_BUFFER_SIZE] - used to store
 480:Generated_Source\PSoC5/SPIM_SigGen.c **** *  data to sending, modified every function call if TX Software Buffer is used.
 481:Generated_Source\PSoC5/SPIM_SigGen.c **** *
 482:Generated_Source\PSoC5/SPIM_SigGen.c **** * Theory:
 483:Generated_Source\PSoC5/SPIM_SigGen.c **** *  Allows the user to transmit any byte of data in a single transfer.
 484:Generated_Source\PSoC5/SPIM_SigGen.c **** *
 485:Generated_Source\PSoC5/SPIM_SigGen.c **** * Side Effects:
 486:Generated_Source\PSoC5/SPIM_SigGen.c **** *  If this function is called again before the previous byte is finished then
 487:Generated_Source\PSoC5/SPIM_SigGen.c **** *  the next byte will be appended to the transfer with no time between
 488:Generated_Source\PSoC5/SPIM_SigGen.c **** *  the byte transfers. Clear Tx status register of the component.
 489:Generated_Source\PSoC5/SPIM_SigGen.c **** *
 490:Generated_Source\PSoC5/SPIM_SigGen.c **** * Reentrant:
 491:Generated_Source\PSoC5/SPIM_SigGen.c **** *  No.
 492:Generated_Source\PSoC5/SPIM_SigGen.c **** *
 493:Generated_Source\PSoC5/SPIM_SigGen.c **** *******************************************************************************/
 494:Generated_Source\PSoC5/SPIM_SigGen.c **** void SPIM_SigGen_WriteTxData(uint16 txData) 
 495:Generated_Source\PSoC5/SPIM_SigGen.c **** {
 290              		.loc 1 495 0
 291              		.cfi_startproc
 292              		@ args = 0, pretend = 0, frame = 0
 293              		@ frame_needed = 0, uses_anonymous_args = 0
 294              		@ link register save eliminated.
 295              	.LVL10:
 496:Generated_Source\PSoC5/SPIM_SigGen.c ****     #if(SPIM_SigGen_TX_SOFTWARE_BUF_ENABLED)
 497:Generated_Source\PSoC5/SPIM_SigGen.c **** 
 498:Generated_Source\PSoC5/SPIM_SigGen.c ****         uint8 tempStatus;
 499:Generated_Source\PSoC5/SPIM_SigGen.c ****         uint8 tmpTxBufferRead;
 500:Generated_Source\PSoC5/SPIM_SigGen.c **** 
 501:Generated_Source\PSoC5/SPIM_SigGen.c ****         /* Block if TX buffer is FULL: don't overwrite */
ARM GAS  C:\Users\HARLOW~1\AppData\Local\Temp\ccZhQViV.s 			page 15


 502:Generated_Source\PSoC5/SPIM_SigGen.c ****         do
 503:Generated_Source\PSoC5/SPIM_SigGen.c ****         {
 504:Generated_Source\PSoC5/SPIM_SigGen.c ****             tmpTxBufferRead = SPIM_SigGen_txBufferRead;
 505:Generated_Source\PSoC5/SPIM_SigGen.c ****             if(0u == tmpTxBufferRead)
 506:Generated_Source\PSoC5/SPIM_SigGen.c ****             {
 507:Generated_Source\PSoC5/SPIM_SigGen.c ****                 tmpTxBufferRead = (SPIM_SigGen_TX_BUFFER_SIZE - 1u);
 508:Generated_Source\PSoC5/SPIM_SigGen.c ****             }
 509:Generated_Source\PSoC5/SPIM_SigGen.c ****             else
 510:Generated_Source\PSoC5/SPIM_SigGen.c ****             {
 511:Generated_Source\PSoC5/SPIM_SigGen.c ****                 tmpTxBufferRead--;
 512:Generated_Source\PSoC5/SPIM_SigGen.c ****             }
 513:Generated_Source\PSoC5/SPIM_SigGen.c **** 
 514:Generated_Source\PSoC5/SPIM_SigGen.c ****         }while(tmpTxBufferRead == SPIM_SigGen_txBufferWrite);
 515:Generated_Source\PSoC5/SPIM_SigGen.c **** 
 516:Generated_Source\PSoC5/SPIM_SigGen.c ****         /* Disable TX interrupt to protect global veriables */
 517:Generated_Source\PSoC5/SPIM_SigGen.c ****         SPIM_SigGen_DisableTxInt();
 518:Generated_Source\PSoC5/SPIM_SigGen.c **** 
 519:Generated_Source\PSoC5/SPIM_SigGen.c ****         tempStatus = SPIM_SigGen_GET_STATUS_TX(SPIM_SigGen_swStatusTx);
 520:Generated_Source\PSoC5/SPIM_SigGen.c ****         SPIM_SigGen_swStatusTx = tempStatus;
 521:Generated_Source\PSoC5/SPIM_SigGen.c **** 
 522:Generated_Source\PSoC5/SPIM_SigGen.c **** 
 523:Generated_Source\PSoC5/SPIM_SigGen.c ****         if((SPIM_SigGen_txBufferRead == SPIM_SigGen_txBufferWrite) &&
 524:Generated_Source\PSoC5/SPIM_SigGen.c ****            (0u != (SPIM_SigGen_swStatusTx & SPIM_SigGen_STS_TX_FIFO_NOT_FULL)))
 525:Generated_Source\PSoC5/SPIM_SigGen.c ****         {
 526:Generated_Source\PSoC5/SPIM_SigGen.c ****             /* Put data element into the TX FIFO */
 527:Generated_Source\PSoC5/SPIM_SigGen.c ****             CY_SET_REG16(SPIM_SigGen_TXDATA_PTR, txData);
 528:Generated_Source\PSoC5/SPIM_SigGen.c ****         }
 529:Generated_Source\PSoC5/SPIM_SigGen.c ****         else
 530:Generated_Source\PSoC5/SPIM_SigGen.c ****         {
 531:Generated_Source\PSoC5/SPIM_SigGen.c ****             /* Add to the TX software buffer */
 532:Generated_Source\PSoC5/SPIM_SigGen.c ****             SPIM_SigGen_txBufferWrite++;
 533:Generated_Source\PSoC5/SPIM_SigGen.c ****             if(SPIM_SigGen_txBufferWrite >= SPIM_SigGen_TX_BUFFER_SIZE)
 534:Generated_Source\PSoC5/SPIM_SigGen.c ****             {
 535:Generated_Source\PSoC5/SPIM_SigGen.c ****                 SPIM_SigGen_txBufferWrite = 0u;
 536:Generated_Source\PSoC5/SPIM_SigGen.c ****             }
 537:Generated_Source\PSoC5/SPIM_SigGen.c **** 
 538:Generated_Source\PSoC5/SPIM_SigGen.c ****             if(SPIM_SigGen_txBufferWrite == SPIM_SigGen_txBufferRead)
 539:Generated_Source\PSoC5/SPIM_SigGen.c ****             {
 540:Generated_Source\PSoC5/SPIM_SigGen.c ****                 SPIM_SigGen_txBufferRead++;
 541:Generated_Source\PSoC5/SPIM_SigGen.c ****                 if(SPIM_SigGen_txBufferRead >= SPIM_SigGen_TX_BUFFER_SIZE)
 542:Generated_Source\PSoC5/SPIM_SigGen.c ****                 {
 543:Generated_Source\PSoC5/SPIM_SigGen.c ****                     SPIM_SigGen_txBufferRead = 0u;
 544:Generated_Source\PSoC5/SPIM_SigGen.c ****                 }
 545:Generated_Source\PSoC5/SPIM_SigGen.c ****                 SPIM_SigGen_txBufferFull = 1u;
 546:Generated_Source\PSoC5/SPIM_SigGen.c ****             }
 547:Generated_Source\PSoC5/SPIM_SigGen.c **** 
 548:Generated_Source\PSoC5/SPIM_SigGen.c ****             SPIM_SigGen_txBuffer[SPIM_SigGen_txBufferWrite] = txData;
 549:Generated_Source\PSoC5/SPIM_SigGen.c **** 
 550:Generated_Source\PSoC5/SPIM_SigGen.c ****             SPIM_SigGen_TX_STATUS_MASK_REG |= SPIM_SigGen_STS_TX_FIFO_NOT_FULL;
 551:Generated_Source\PSoC5/SPIM_SigGen.c ****         }
 552:Generated_Source\PSoC5/SPIM_SigGen.c **** 
 553:Generated_Source\PSoC5/SPIM_SigGen.c ****         SPIM_SigGen_EnableTxInt();
 554:Generated_Source\PSoC5/SPIM_SigGen.c **** 
 555:Generated_Source\PSoC5/SPIM_SigGen.c ****     #else
 556:Generated_Source\PSoC5/SPIM_SigGen.c ****         /* Wait until TX FIFO has a place */
 557:Generated_Source\PSoC5/SPIM_SigGen.c ****         while(0u == (SPIM_SigGen_TX_STATUS_REG & SPIM_SigGen_STS_TX_FIFO_NOT_FULL))
 296              		.loc 1 557 0
ARM GAS  C:\Users\HARLOW~1\AppData\Local\Temp\ccZhQViV.s 			page 16


 297 0000 034A     		ldr	r2, .L28
 298              	.L24:
 299              		.loc 1 557 0 is_stmt 0 discriminator 1
 300 0002 1378     		ldrb	r3, [r2]	@ zero_extendqisi2
 301 0004 5B07     		lsls	r3, r3, #29
 302 0006 FCD5     		bpl	.L24
 558:Generated_Source\PSoC5/SPIM_SigGen.c ****         {
 559:Generated_Source\PSoC5/SPIM_SigGen.c ****         }
 560:Generated_Source\PSoC5/SPIM_SigGen.c **** 
 561:Generated_Source\PSoC5/SPIM_SigGen.c ****         /* Put data element into the TX FIFO */
 562:Generated_Source\PSoC5/SPIM_SigGen.c ****         CY_SET_REG16(SPIM_SigGen_TXDATA_PTR, txData);
 303              		.loc 1 562 0 is_stmt 1
 304 0008 024B     		ldr	r3, .L28+4
 305 000a 1880     		strh	r0, [r3]	@ movhi
 306 000c 7047     		bx	lr
 307              	.L29:
 308 000e 00BF     		.align	2
 309              	.L28:
 310 0010 61640040 		.word	1073767521
 311 0014 42640040 		.word	1073767490
 312              		.cfi_endproc
 313              	.LFE12:
 314              		.size	SPIM_SigGen_WriteTxData, .-SPIM_SigGen_WriteTxData
 315              		.section	.text.SPIM_SigGen_ReadRxData,"ax",%progbits
 316              		.align	1
 317              		.global	SPIM_SigGen_ReadRxData
 318              		.thumb
 319              		.thumb_func
 320              		.type	SPIM_SigGen_ReadRxData, %function
 321              	SPIM_SigGen_ReadRxData:
 322              	.LFB13:
 563:Generated_Source\PSoC5/SPIM_SigGen.c **** 
 564:Generated_Source\PSoC5/SPIM_SigGen.c ****     #endif /* (SPIM_SigGen_TX_SOFTWARE_BUF_ENABLED) */
 565:Generated_Source\PSoC5/SPIM_SigGen.c **** }
 566:Generated_Source\PSoC5/SPIM_SigGen.c **** 
 567:Generated_Source\PSoC5/SPIM_SigGen.c **** 
 568:Generated_Source\PSoC5/SPIM_SigGen.c **** /*******************************************************************************
 569:Generated_Source\PSoC5/SPIM_SigGen.c **** * Function Name: SPIM_SigGen_ReadRxData
 570:Generated_Source\PSoC5/SPIM_SigGen.c **** ********************************************************************************
 571:Generated_Source\PSoC5/SPIM_SigGen.c **** *
 572:Generated_Source\PSoC5/SPIM_SigGen.c **** * Summary:
 573:Generated_Source\PSoC5/SPIM_SigGen.c **** *  Read the next byte of data received across the SPI.
 574:Generated_Source\PSoC5/SPIM_SigGen.c **** *
 575:Generated_Source\PSoC5/SPIM_SigGen.c **** * Parameters:
 576:Generated_Source\PSoC5/SPIM_SigGen.c **** *  None.
 577:Generated_Source\PSoC5/SPIM_SigGen.c **** *
 578:Generated_Source\PSoC5/SPIM_SigGen.c **** * Return:
 579:Generated_Source\PSoC5/SPIM_SigGen.c **** *  The next byte of data read from the FIFO.
 580:Generated_Source\PSoC5/SPIM_SigGen.c **** *
 581:Generated_Source\PSoC5/SPIM_SigGen.c **** * Global variables:
 582:Generated_Source\PSoC5/SPIM_SigGen.c **** *  SPIM_SigGen_rxBufferWrite - used for the account of the bytes which
 583:Generated_Source\PSoC5/SPIM_SigGen.c **** *  have been written down in the RX software buffer.
 584:Generated_Source\PSoC5/SPIM_SigGen.c **** *  SPIM_SigGen_rxBufferRead - used for the account of the bytes which
 585:Generated_Source\PSoC5/SPIM_SigGen.c **** *  have been read from the RX software buffer, modified every function
 586:Generated_Source\PSoC5/SPIM_SigGen.c **** *  call if RX Software Buffer is used.
 587:Generated_Source\PSoC5/SPIM_SigGen.c **** *  SPIM_SigGen_rxBuffer[SPIM_SigGen_RX_BUFFER_SIZE] - used to store
 588:Generated_Source\PSoC5/SPIM_SigGen.c **** *  received data.
ARM GAS  C:\Users\HARLOW~1\AppData\Local\Temp\ccZhQViV.s 			page 17


 589:Generated_Source\PSoC5/SPIM_SigGen.c **** *
 590:Generated_Source\PSoC5/SPIM_SigGen.c **** * Theory:
 591:Generated_Source\PSoC5/SPIM_SigGen.c **** *  Allows the user to read a byte of data received.
 592:Generated_Source\PSoC5/SPIM_SigGen.c **** *
 593:Generated_Source\PSoC5/SPIM_SigGen.c **** * Side Effects:
 594:Generated_Source\PSoC5/SPIM_SigGen.c **** *  Will return invalid data if the FIFO is empty. The user should Call
 595:Generated_Source\PSoC5/SPIM_SigGen.c **** *  GetRxBufferSize() and if it returns a non-zero value then it is safe to call
 596:Generated_Source\PSoC5/SPIM_SigGen.c **** *  ReadByte() function.
 597:Generated_Source\PSoC5/SPIM_SigGen.c **** *
 598:Generated_Source\PSoC5/SPIM_SigGen.c **** * Reentrant:
 599:Generated_Source\PSoC5/SPIM_SigGen.c **** *  No.
 600:Generated_Source\PSoC5/SPIM_SigGen.c **** *
 601:Generated_Source\PSoC5/SPIM_SigGen.c **** *******************************************************************************/
 602:Generated_Source\PSoC5/SPIM_SigGen.c **** uint16 SPIM_SigGen_ReadRxData(void) 
 603:Generated_Source\PSoC5/SPIM_SigGen.c **** {
 323              		.loc 1 603 0
 324              		.cfi_startproc
 325              		@ args = 0, pretend = 0, frame = 0
 326              		@ frame_needed = 0, uses_anonymous_args = 0
 327              		@ link register save eliminated.
 604:Generated_Source\PSoC5/SPIM_SigGen.c ****     uint16 rxData;
 605:Generated_Source\PSoC5/SPIM_SigGen.c **** 
 606:Generated_Source\PSoC5/SPIM_SigGen.c ****     #if(SPIM_SigGen_RX_SOFTWARE_BUF_ENABLED)
 607:Generated_Source\PSoC5/SPIM_SigGen.c **** 
 608:Generated_Source\PSoC5/SPIM_SigGen.c ****         /* Disable RX interrupt to protect global veriables */
 609:Generated_Source\PSoC5/SPIM_SigGen.c ****         SPIM_SigGen_DisableRxInt();
 610:Generated_Source\PSoC5/SPIM_SigGen.c **** 
 611:Generated_Source\PSoC5/SPIM_SigGen.c ****         if(SPIM_SigGen_rxBufferRead != SPIM_SigGen_rxBufferWrite)
 612:Generated_Source\PSoC5/SPIM_SigGen.c ****         {
 613:Generated_Source\PSoC5/SPIM_SigGen.c ****             if(0u == SPIM_SigGen_rxBufferFull)
 614:Generated_Source\PSoC5/SPIM_SigGen.c ****             {
 615:Generated_Source\PSoC5/SPIM_SigGen.c ****                 SPIM_SigGen_rxBufferRead++;
 616:Generated_Source\PSoC5/SPIM_SigGen.c ****                 if(SPIM_SigGen_rxBufferRead >= SPIM_SigGen_RX_BUFFER_SIZE)
 617:Generated_Source\PSoC5/SPIM_SigGen.c ****                 {
 618:Generated_Source\PSoC5/SPIM_SigGen.c ****                     SPIM_SigGen_rxBufferRead = 0u;
 619:Generated_Source\PSoC5/SPIM_SigGen.c ****                 }
 620:Generated_Source\PSoC5/SPIM_SigGen.c ****             }
 621:Generated_Source\PSoC5/SPIM_SigGen.c ****             else
 622:Generated_Source\PSoC5/SPIM_SigGen.c ****             {
 623:Generated_Source\PSoC5/SPIM_SigGen.c ****                 SPIM_SigGen_rxBufferFull = 0u;
 624:Generated_Source\PSoC5/SPIM_SigGen.c ****             }
 625:Generated_Source\PSoC5/SPIM_SigGen.c ****         }
 626:Generated_Source\PSoC5/SPIM_SigGen.c **** 
 627:Generated_Source\PSoC5/SPIM_SigGen.c ****         rxData = SPIM_SigGen_rxBuffer[SPIM_SigGen_rxBufferRead];
 628:Generated_Source\PSoC5/SPIM_SigGen.c **** 
 629:Generated_Source\PSoC5/SPIM_SigGen.c ****         SPIM_SigGen_EnableRxInt();
 630:Generated_Source\PSoC5/SPIM_SigGen.c **** 
 631:Generated_Source\PSoC5/SPIM_SigGen.c ****     #else
 632:Generated_Source\PSoC5/SPIM_SigGen.c **** 
 633:Generated_Source\PSoC5/SPIM_SigGen.c ****         rxData = CY_GET_REG16(SPIM_SigGen_RXDATA_PTR);
 328              		.loc 1 633 0
 329 0000 014B     		ldr	r3, .L31
 330 0002 1888     		ldrh	r0, [r3]
 331              	.LVL11:
 634:Generated_Source\PSoC5/SPIM_SigGen.c **** 
 635:Generated_Source\PSoC5/SPIM_SigGen.c ****     #endif /* (SPIM_SigGen_RX_SOFTWARE_BUF_ENABLED) */
 636:Generated_Source\PSoC5/SPIM_SigGen.c **** 
ARM GAS  C:\Users\HARLOW~1\AppData\Local\Temp\ccZhQViV.s 			page 18


 637:Generated_Source\PSoC5/SPIM_SigGen.c ****     return(rxData);
 638:Generated_Source\PSoC5/SPIM_SigGen.c **** }
 332              		.loc 1 638 0
 333 0004 80B2     		uxth	r0, r0
 334 0006 7047     		bx	lr
 335              	.L32:
 336              		.align	2
 337              	.L31:
 338 0008 52640040 		.word	1073767506
 339              		.cfi_endproc
 340              	.LFE13:
 341              		.size	SPIM_SigGen_ReadRxData, .-SPIM_SigGen_ReadRxData
 342              		.section	.text.SPIM_SigGen_GetRxBufferSize,"ax",%progbits
 343              		.align	1
 344              		.global	SPIM_SigGen_GetRxBufferSize
 345              		.thumb
 346              		.thumb_func
 347              		.type	SPIM_SigGen_GetRxBufferSize, %function
 348              	SPIM_SigGen_GetRxBufferSize:
 349              	.LFB14:
 639:Generated_Source\PSoC5/SPIM_SigGen.c **** 
 640:Generated_Source\PSoC5/SPIM_SigGen.c **** 
 641:Generated_Source\PSoC5/SPIM_SigGen.c **** /*******************************************************************************
 642:Generated_Source\PSoC5/SPIM_SigGen.c **** * Function Name: SPIM_SigGen_GetRxBufferSize
 643:Generated_Source\PSoC5/SPIM_SigGen.c **** ********************************************************************************
 644:Generated_Source\PSoC5/SPIM_SigGen.c **** *
 645:Generated_Source\PSoC5/SPIM_SigGen.c **** * Summary:
 646:Generated_Source\PSoC5/SPIM_SigGen.c **** *  Returns the number of bytes/words of data currently held in the RX buffer.
 647:Generated_Source\PSoC5/SPIM_SigGen.c **** *  If RX Software Buffer not used then function return 0 if FIFO empty or 1 if
 648:Generated_Source\PSoC5/SPIM_SigGen.c **** *  FIFO not empty. In another case function return size of RX Software Buffer.
 649:Generated_Source\PSoC5/SPIM_SigGen.c **** *
 650:Generated_Source\PSoC5/SPIM_SigGen.c **** * Parameters:
 651:Generated_Source\PSoC5/SPIM_SigGen.c **** *  None.
 652:Generated_Source\PSoC5/SPIM_SigGen.c **** *
 653:Generated_Source\PSoC5/SPIM_SigGen.c **** * Return:
 654:Generated_Source\PSoC5/SPIM_SigGen.c **** *  Integer count of the number of bytes/words in the RX buffer.
 655:Generated_Source\PSoC5/SPIM_SigGen.c **** *
 656:Generated_Source\PSoC5/SPIM_SigGen.c **** * Global variables:
 657:Generated_Source\PSoC5/SPIM_SigGen.c **** *  SPIM_SigGen_rxBufferWrite - used for the account of the bytes which
 658:Generated_Source\PSoC5/SPIM_SigGen.c **** *  have been written down in the RX software buffer.
 659:Generated_Source\PSoC5/SPIM_SigGen.c **** *  SPIM_SigGen_rxBufferRead - used for the account of the bytes which
 660:Generated_Source\PSoC5/SPIM_SigGen.c **** *  have been read from the RX software buffer.
 661:Generated_Source\PSoC5/SPIM_SigGen.c **** *
 662:Generated_Source\PSoC5/SPIM_SigGen.c **** * Side Effects:
 663:Generated_Source\PSoC5/SPIM_SigGen.c **** *  Clear status register of the component.
 664:Generated_Source\PSoC5/SPIM_SigGen.c **** *
 665:Generated_Source\PSoC5/SPIM_SigGen.c **** *******************************************************************************/
 666:Generated_Source\PSoC5/SPIM_SigGen.c **** uint8 SPIM_SigGen_GetRxBufferSize(void) 
 667:Generated_Source\PSoC5/SPIM_SigGen.c **** {
 350              		.loc 1 667 0
 351              		.cfi_startproc
 352              		@ args = 0, pretend = 0, frame = 0
 353              		@ frame_needed = 0, uses_anonymous_args = 0
 354              		@ link register save eliminated.
 668:Generated_Source\PSoC5/SPIM_SigGen.c ****     uint8 size;
 669:Generated_Source\PSoC5/SPIM_SigGen.c **** 
 670:Generated_Source\PSoC5/SPIM_SigGen.c ****     #if(SPIM_SigGen_RX_SOFTWARE_BUF_ENABLED)
ARM GAS  C:\Users\HARLOW~1\AppData\Local\Temp\ccZhQViV.s 			page 19


 671:Generated_Source\PSoC5/SPIM_SigGen.c **** 
 672:Generated_Source\PSoC5/SPIM_SigGen.c ****         /* Disable RX interrupt to protect global veriables */
 673:Generated_Source\PSoC5/SPIM_SigGen.c ****         SPIM_SigGen_DisableRxInt();
 674:Generated_Source\PSoC5/SPIM_SigGen.c **** 
 675:Generated_Source\PSoC5/SPIM_SigGen.c ****         if(SPIM_SigGen_rxBufferRead == SPIM_SigGen_rxBufferWrite)
 676:Generated_Source\PSoC5/SPIM_SigGen.c ****         {
 677:Generated_Source\PSoC5/SPIM_SigGen.c ****             size = 0u;
 678:Generated_Source\PSoC5/SPIM_SigGen.c ****         }
 679:Generated_Source\PSoC5/SPIM_SigGen.c ****         else if(SPIM_SigGen_rxBufferRead < SPIM_SigGen_rxBufferWrite)
 680:Generated_Source\PSoC5/SPIM_SigGen.c ****         {
 681:Generated_Source\PSoC5/SPIM_SigGen.c ****             size = (SPIM_SigGen_rxBufferWrite - SPIM_SigGen_rxBufferRead);
 682:Generated_Source\PSoC5/SPIM_SigGen.c ****         }
 683:Generated_Source\PSoC5/SPIM_SigGen.c ****         else
 684:Generated_Source\PSoC5/SPIM_SigGen.c ****         {
 685:Generated_Source\PSoC5/SPIM_SigGen.c ****             size = (SPIM_SigGen_RX_BUFFER_SIZE - SPIM_SigGen_rxBufferRead) + SPIM_SigGen_rxBufferWr
 686:Generated_Source\PSoC5/SPIM_SigGen.c ****         }
 687:Generated_Source\PSoC5/SPIM_SigGen.c **** 
 688:Generated_Source\PSoC5/SPIM_SigGen.c ****         SPIM_SigGen_EnableRxInt();
 689:Generated_Source\PSoC5/SPIM_SigGen.c **** 
 690:Generated_Source\PSoC5/SPIM_SigGen.c ****     #else
 691:Generated_Source\PSoC5/SPIM_SigGen.c **** 
 692:Generated_Source\PSoC5/SPIM_SigGen.c ****         /* We can only know if there is data in the RX FIFO */
 693:Generated_Source\PSoC5/SPIM_SigGen.c ****         size = (0u != (SPIM_SigGen_RX_STATUS_REG & SPIM_SigGen_STS_RX_FIFO_NOT_EMPTY)) ? 1u : 0u;
 355              		.loc 1 693 0
 356 0000 024B     		ldr	r3, .L34
 357 0002 1878     		ldrb	r0, [r3]	@ zero_extendqisi2
 358              	.LVL12:
 694:Generated_Source\PSoC5/SPIM_SigGen.c **** 
 695:Generated_Source\PSoC5/SPIM_SigGen.c ****     #endif /* (SPIM_SigGen_TX_SOFTWARE_BUF_ENABLED) */
 696:Generated_Source\PSoC5/SPIM_SigGen.c **** 
 697:Generated_Source\PSoC5/SPIM_SigGen.c ****     return(size);
 698:Generated_Source\PSoC5/SPIM_SigGen.c **** }
 359              		.loc 1 698 0
 360 0004 C0F34010 		ubfx	r0, r0, #5, #1
 361              	.LVL13:
 362 0008 7047     		bx	lr
 363              	.L35:
 364 000a 00BF     		.align	2
 365              	.L34:
 366 000c 63640040 		.word	1073767523
 367              		.cfi_endproc
 368              	.LFE14:
 369              		.size	SPIM_SigGen_GetRxBufferSize, .-SPIM_SigGen_GetRxBufferSize
 370              		.section	.text.SPIM_SigGen_GetTxBufferSize,"ax",%progbits
 371              		.align	1
 372              		.global	SPIM_SigGen_GetTxBufferSize
 373              		.thumb
 374              		.thumb_func
 375              		.type	SPIM_SigGen_GetTxBufferSize, %function
 376              	SPIM_SigGen_GetTxBufferSize:
 377              	.LFB15:
 699:Generated_Source\PSoC5/SPIM_SigGen.c **** 
 700:Generated_Source\PSoC5/SPIM_SigGen.c **** 
 701:Generated_Source\PSoC5/SPIM_SigGen.c **** /*******************************************************************************
 702:Generated_Source\PSoC5/SPIM_SigGen.c **** * Function Name: SPIM_SigGen_GetTxBufferSize
 703:Generated_Source\PSoC5/SPIM_SigGen.c **** ********************************************************************************
 704:Generated_Source\PSoC5/SPIM_SigGen.c **** *
ARM GAS  C:\Users\HARLOW~1\AppData\Local\Temp\ccZhQViV.s 			page 20


 705:Generated_Source\PSoC5/SPIM_SigGen.c **** * Summary:
 706:Generated_Source\PSoC5/SPIM_SigGen.c **** *  Returns the number of bytes/words of data currently held in the TX buffer.
 707:Generated_Source\PSoC5/SPIM_SigGen.c **** *  If TX Software Buffer not used then function return 0 - if FIFO empty, 1 - if
 708:Generated_Source\PSoC5/SPIM_SigGen.c **** *  FIFO not full, 4 - if FIFO full. In another case function return size of TX
 709:Generated_Source\PSoC5/SPIM_SigGen.c **** *  Software Buffer.
 710:Generated_Source\PSoC5/SPIM_SigGen.c **** *
 711:Generated_Source\PSoC5/SPIM_SigGen.c **** * Parameters:
 712:Generated_Source\PSoC5/SPIM_SigGen.c **** *  None.
 713:Generated_Source\PSoC5/SPIM_SigGen.c **** *
 714:Generated_Source\PSoC5/SPIM_SigGen.c **** * Return:
 715:Generated_Source\PSoC5/SPIM_SigGen.c **** *  Integer count of the number of bytes/words in the TX buffer.
 716:Generated_Source\PSoC5/SPIM_SigGen.c **** *
 717:Generated_Source\PSoC5/SPIM_SigGen.c **** * Global variables:
 718:Generated_Source\PSoC5/SPIM_SigGen.c **** *  SPIM_SigGen_txBufferWrite - used for the account of the bytes which
 719:Generated_Source\PSoC5/SPIM_SigGen.c **** *  have been written down in the TX software buffer.
 720:Generated_Source\PSoC5/SPIM_SigGen.c **** *  SPIM_SigGen_txBufferRead - used for the account of the bytes which
 721:Generated_Source\PSoC5/SPIM_SigGen.c **** *  have been read from the TX software buffer.
 722:Generated_Source\PSoC5/SPIM_SigGen.c **** *
 723:Generated_Source\PSoC5/SPIM_SigGen.c **** * Side Effects:
 724:Generated_Source\PSoC5/SPIM_SigGen.c **** *  Clear status register of the component.
 725:Generated_Source\PSoC5/SPIM_SigGen.c **** *
 726:Generated_Source\PSoC5/SPIM_SigGen.c **** *******************************************************************************/
 727:Generated_Source\PSoC5/SPIM_SigGen.c **** uint8  SPIM_SigGen_GetTxBufferSize(void) 
 728:Generated_Source\PSoC5/SPIM_SigGen.c **** {
 378              		.loc 1 728 0
 379              		.cfi_startproc
 380              		@ args = 0, pretend = 0, frame = 0
 381              		@ frame_needed = 0, uses_anonymous_args = 0
 382              		@ link register save eliminated.
 729:Generated_Source\PSoC5/SPIM_SigGen.c ****     uint8 size;
 730:Generated_Source\PSoC5/SPIM_SigGen.c **** 
 731:Generated_Source\PSoC5/SPIM_SigGen.c ****     #if(SPIM_SigGen_TX_SOFTWARE_BUF_ENABLED)
 732:Generated_Source\PSoC5/SPIM_SigGen.c ****         /* Disable TX interrupt to protect global veriables */
 733:Generated_Source\PSoC5/SPIM_SigGen.c ****         SPIM_SigGen_DisableTxInt();
 734:Generated_Source\PSoC5/SPIM_SigGen.c **** 
 735:Generated_Source\PSoC5/SPIM_SigGen.c ****         if(SPIM_SigGen_txBufferRead == SPIM_SigGen_txBufferWrite)
 736:Generated_Source\PSoC5/SPIM_SigGen.c ****         {
 737:Generated_Source\PSoC5/SPIM_SigGen.c ****             size = 0u;
 738:Generated_Source\PSoC5/SPIM_SigGen.c ****         }
 739:Generated_Source\PSoC5/SPIM_SigGen.c ****         else if(SPIM_SigGen_txBufferRead < SPIM_SigGen_txBufferWrite)
 740:Generated_Source\PSoC5/SPIM_SigGen.c ****         {
 741:Generated_Source\PSoC5/SPIM_SigGen.c ****             size = (SPIM_SigGen_txBufferWrite - SPIM_SigGen_txBufferRead);
 742:Generated_Source\PSoC5/SPIM_SigGen.c ****         }
 743:Generated_Source\PSoC5/SPIM_SigGen.c ****         else
 744:Generated_Source\PSoC5/SPIM_SigGen.c ****         {
 745:Generated_Source\PSoC5/SPIM_SigGen.c ****             size = (SPIM_SigGen_TX_BUFFER_SIZE - SPIM_SigGen_txBufferRead) + SPIM_SigGen_txBufferWr
 746:Generated_Source\PSoC5/SPIM_SigGen.c ****         }
 747:Generated_Source\PSoC5/SPIM_SigGen.c **** 
 748:Generated_Source\PSoC5/SPIM_SigGen.c ****         SPIM_SigGen_EnableTxInt();
 749:Generated_Source\PSoC5/SPIM_SigGen.c **** 
 750:Generated_Source\PSoC5/SPIM_SigGen.c ****     #else
 751:Generated_Source\PSoC5/SPIM_SigGen.c **** 
 752:Generated_Source\PSoC5/SPIM_SigGen.c ****         size = SPIM_SigGen_TX_STATUS_REG;
 383              		.loc 1 752 0
 384 0000 064B     		ldr	r3, .L40
 385 0002 1B78     		ldrb	r3, [r3]	@ zero_extendqisi2
 386 0004 DBB2     		uxtb	r3, r3
ARM GAS  C:\Users\HARLOW~1\AppData\Local\Temp\ccZhQViV.s 			page 21


 387              	.LVL14:
 753:Generated_Source\PSoC5/SPIM_SigGen.c **** 
 754:Generated_Source\PSoC5/SPIM_SigGen.c ****         if(0u != (size & SPIM_SigGen_STS_TX_FIFO_EMPTY))
 388              		.loc 1 754 0
 389 0006 9A07     		lsls	r2, r3, #30
 390 0008 05D4     		bmi	.L38
 755:Generated_Source\PSoC5/SPIM_SigGen.c ****         {
 756:Generated_Source\PSoC5/SPIM_SigGen.c ****             size = 0u;
 757:Generated_Source\PSoC5/SPIM_SigGen.c ****         }
 758:Generated_Source\PSoC5/SPIM_SigGen.c ****         else if(0u != (size & SPIM_SigGen_STS_TX_FIFO_NOT_FULL))
 391              		.loc 1 758 0
 392 000a 13F0040F 		tst	r3, #4
 759:Generated_Source\PSoC5/SPIM_SigGen.c ****         {
 760:Generated_Source\PSoC5/SPIM_SigGen.c ****             size = 1u;
 761:Generated_Source\PSoC5/SPIM_SigGen.c ****         }
 762:Generated_Source\PSoC5/SPIM_SigGen.c ****         else
 763:Generated_Source\PSoC5/SPIM_SigGen.c ****         {
 764:Generated_Source\PSoC5/SPIM_SigGen.c ****             size = SPIM_SigGen_FIFO_SIZE;
 393              		.loc 1 764 0
 394 000e 14BF     		ite	ne
 395 0010 0120     		movne	r0, #1
 396 0012 0420     		moveq	r0, #4
 397 0014 7047     		bx	lr
 398              	.L38:
 756:Generated_Source\PSoC5/SPIM_SigGen.c ****         }
 399              		.loc 1 756 0
 400 0016 0020     		movs	r0, #0
 401              	.LVL15:
 765:Generated_Source\PSoC5/SPIM_SigGen.c ****         }
 766:Generated_Source\PSoC5/SPIM_SigGen.c **** 
 767:Generated_Source\PSoC5/SPIM_SigGen.c ****     #endif /* (SPIM_SigGen_TX_SOFTWARE_BUF_ENABLED) */
 768:Generated_Source\PSoC5/SPIM_SigGen.c **** 
 769:Generated_Source\PSoC5/SPIM_SigGen.c ****     return(size);
 770:Generated_Source\PSoC5/SPIM_SigGen.c **** }
 402              		.loc 1 770 0
 403 0018 7047     		bx	lr
 404              	.L41:
 405 001a 00BF     		.align	2
 406              	.L40:
 407 001c 61640040 		.word	1073767521
 408              		.cfi_endproc
 409              	.LFE15:
 410              		.size	SPIM_SigGen_GetTxBufferSize, .-SPIM_SigGen_GetTxBufferSize
 411              		.section	.text.SPIM_SigGen_ClearRxBuffer,"ax",%progbits
 412              		.align	1
 413              		.global	SPIM_SigGen_ClearRxBuffer
 414              		.thumb
 415              		.thumb_func
 416              		.type	SPIM_SigGen_ClearRxBuffer, %function
 417              	SPIM_SigGen_ClearRxBuffer:
 418              	.LFB16:
 771:Generated_Source\PSoC5/SPIM_SigGen.c **** 
 772:Generated_Source\PSoC5/SPIM_SigGen.c **** 
 773:Generated_Source\PSoC5/SPIM_SigGen.c **** /*******************************************************************************
 774:Generated_Source\PSoC5/SPIM_SigGen.c **** * Function Name: SPIM_SigGen_ClearRxBuffer
 775:Generated_Source\PSoC5/SPIM_SigGen.c **** ********************************************************************************
 776:Generated_Source\PSoC5/SPIM_SigGen.c **** *
ARM GAS  C:\Users\HARLOW~1\AppData\Local\Temp\ccZhQViV.s 			page 22


 777:Generated_Source\PSoC5/SPIM_SigGen.c **** * Summary:
 778:Generated_Source\PSoC5/SPIM_SigGen.c **** *  Clear the RX RAM buffer by setting the read and write pointers both to zero.
 779:Generated_Source\PSoC5/SPIM_SigGen.c **** *
 780:Generated_Source\PSoC5/SPIM_SigGen.c **** * Parameters:
 781:Generated_Source\PSoC5/SPIM_SigGen.c **** *  None.
 782:Generated_Source\PSoC5/SPIM_SigGen.c **** *
 783:Generated_Source\PSoC5/SPIM_SigGen.c **** * Return:
 784:Generated_Source\PSoC5/SPIM_SigGen.c **** *  None.
 785:Generated_Source\PSoC5/SPIM_SigGen.c **** *
 786:Generated_Source\PSoC5/SPIM_SigGen.c **** * Global variables:
 787:Generated_Source\PSoC5/SPIM_SigGen.c **** *  SPIM_SigGen_rxBufferWrite - used for the account of the bytes which
 788:Generated_Source\PSoC5/SPIM_SigGen.c **** *  have been written down in the RX software buffer, modified every function
 789:Generated_Source\PSoC5/SPIM_SigGen.c **** *  call - resets to zero.
 790:Generated_Source\PSoC5/SPIM_SigGen.c **** *  SPIM_SigGen_rxBufferRead - used for the account of the bytes which
 791:Generated_Source\PSoC5/SPIM_SigGen.c **** *  have been read from the RX software buffer, modified every function call -
 792:Generated_Source\PSoC5/SPIM_SigGen.c **** *  resets to zero.
 793:Generated_Source\PSoC5/SPIM_SigGen.c **** *
 794:Generated_Source\PSoC5/SPIM_SigGen.c **** * Theory:
 795:Generated_Source\PSoC5/SPIM_SigGen.c **** *  Setting the pointers to zero makes the system believe there is no data to
 796:Generated_Source\PSoC5/SPIM_SigGen.c **** *  read and writing will resume at address 0 overwriting any data that may have
 797:Generated_Source\PSoC5/SPIM_SigGen.c **** *  remained in the RAM.
 798:Generated_Source\PSoC5/SPIM_SigGen.c **** *
 799:Generated_Source\PSoC5/SPIM_SigGen.c **** * Side Effects:
 800:Generated_Source\PSoC5/SPIM_SigGen.c **** *  Any received data not read from the RAM buffer will be lost when overwritten.
 801:Generated_Source\PSoC5/SPIM_SigGen.c **** *
 802:Generated_Source\PSoC5/SPIM_SigGen.c **** * Reentrant:
 803:Generated_Source\PSoC5/SPIM_SigGen.c **** *  No.
 804:Generated_Source\PSoC5/SPIM_SigGen.c **** *
 805:Generated_Source\PSoC5/SPIM_SigGen.c **** *******************************************************************************/
 806:Generated_Source\PSoC5/SPIM_SigGen.c **** void SPIM_SigGen_ClearRxBuffer(void) 
 807:Generated_Source\PSoC5/SPIM_SigGen.c **** {
 419              		.loc 1 807 0
 420              		.cfi_startproc
 421              		@ args = 0, pretend = 0, frame = 0
 422              		@ frame_needed = 0, uses_anonymous_args = 0
 423              		@ link register save eliminated.
 808:Generated_Source\PSoC5/SPIM_SigGen.c ****     /* Clear Hardware RX FIFO */
 809:Generated_Source\PSoC5/SPIM_SigGen.c ****     while(0u !=(SPIM_SigGen_RX_STATUS_REG & SPIM_SigGen_STS_RX_FIFO_NOT_EMPTY))
 424              		.loc 1 809 0
 425 0000 034A     		ldr	r2, .L46
 810:Generated_Source\PSoC5/SPIM_SigGen.c ****     {
 811:Generated_Source\PSoC5/SPIM_SigGen.c ****         (void) CY_GET_REG16(SPIM_SigGen_RXDATA_PTR);
 426              		.loc 1 811 0
 427 0002 0449     		ldr	r1, .L46+4
 428              	.L43:
 809:Generated_Source\PSoC5/SPIM_SigGen.c ****     {
 429              		.loc 1 809 0
 430 0004 1378     		ldrb	r3, [r2]	@ zero_extendqisi2
 431 0006 9B06     		lsls	r3, r3, #26
 432 0008 01D5     		bpl	.L45
 433              		.loc 1 811 0
 434 000a 0B88     		ldrh	r3, [r1]
 435 000c FAE7     		b	.L43
 436              	.L45:
 812:Generated_Source\PSoC5/SPIM_SigGen.c ****     }
 813:Generated_Source\PSoC5/SPIM_SigGen.c **** 
 814:Generated_Source\PSoC5/SPIM_SigGen.c ****     #if(SPIM_SigGen_RX_SOFTWARE_BUF_ENABLED)
ARM GAS  C:\Users\HARLOW~1\AppData\Local\Temp\ccZhQViV.s 			page 23


 815:Generated_Source\PSoC5/SPIM_SigGen.c ****         /* Disable RX interrupt to protect global veriables */
 816:Generated_Source\PSoC5/SPIM_SigGen.c ****         SPIM_SigGen_DisableRxInt();
 817:Generated_Source\PSoC5/SPIM_SigGen.c **** 
 818:Generated_Source\PSoC5/SPIM_SigGen.c ****         SPIM_SigGen_rxBufferFull  = 0u;
 819:Generated_Source\PSoC5/SPIM_SigGen.c ****         SPIM_SigGen_rxBufferRead  = 0u;
 820:Generated_Source\PSoC5/SPIM_SigGen.c ****         SPIM_SigGen_rxBufferWrite = 0u;
 821:Generated_Source\PSoC5/SPIM_SigGen.c **** 
 822:Generated_Source\PSoC5/SPIM_SigGen.c ****         SPIM_SigGen_EnableRxInt();
 823:Generated_Source\PSoC5/SPIM_SigGen.c ****     #endif /* (SPIM_SigGen_RX_SOFTWARE_BUF_ENABLED) */
 824:Generated_Source\PSoC5/SPIM_SigGen.c **** }
 437              		.loc 1 824 0
 438 000e 7047     		bx	lr
 439              	.L47:
 440              		.align	2
 441              	.L46:
 442 0010 63640040 		.word	1073767523
 443 0014 52640040 		.word	1073767506
 444              		.cfi_endproc
 445              	.LFE16:
 446              		.size	SPIM_SigGen_ClearRxBuffer, .-SPIM_SigGen_ClearRxBuffer
 447              		.section	.text.SPIM_SigGen_ClearTxBuffer,"ax",%progbits
 448              		.align	1
 449              		.global	SPIM_SigGen_ClearTxBuffer
 450              		.thumb
 451              		.thumb_func
 452              		.type	SPIM_SigGen_ClearTxBuffer, %function
 453              	SPIM_SigGen_ClearTxBuffer:
 454              	.LFB17:
 825:Generated_Source\PSoC5/SPIM_SigGen.c **** 
 826:Generated_Source\PSoC5/SPIM_SigGen.c **** 
 827:Generated_Source\PSoC5/SPIM_SigGen.c **** /*******************************************************************************
 828:Generated_Source\PSoC5/SPIM_SigGen.c **** * Function Name: SPIM_SigGen_ClearTxBuffer
 829:Generated_Source\PSoC5/SPIM_SigGen.c **** ********************************************************************************
 830:Generated_Source\PSoC5/SPIM_SigGen.c **** *
 831:Generated_Source\PSoC5/SPIM_SigGen.c **** * Summary:
 832:Generated_Source\PSoC5/SPIM_SigGen.c **** *  Clear the TX RAM buffer by setting the read and write pointers both to zero.
 833:Generated_Source\PSoC5/SPIM_SigGen.c **** *
 834:Generated_Source\PSoC5/SPIM_SigGen.c **** * Parameters:
 835:Generated_Source\PSoC5/SPIM_SigGen.c **** *  None.
 836:Generated_Source\PSoC5/SPIM_SigGen.c **** *
 837:Generated_Source\PSoC5/SPIM_SigGen.c **** * Return:
 838:Generated_Source\PSoC5/SPIM_SigGen.c **** *  None.
 839:Generated_Source\PSoC5/SPIM_SigGen.c **** *
 840:Generated_Source\PSoC5/SPIM_SigGen.c **** * Global variables:
 841:Generated_Source\PSoC5/SPIM_SigGen.c **** *  SPIM_SigGen_txBufferWrite - used for the account of the bytes which
 842:Generated_Source\PSoC5/SPIM_SigGen.c **** *  have been written down in the TX software buffer, modified every function
 843:Generated_Source\PSoC5/SPIM_SigGen.c **** *  call - resets to zero.
 844:Generated_Source\PSoC5/SPIM_SigGen.c **** *  SPIM_SigGen_txBufferRead - used for the account of the bytes which
 845:Generated_Source\PSoC5/SPIM_SigGen.c **** *  have been read from the TX software buffer, modified every function call -
 846:Generated_Source\PSoC5/SPIM_SigGen.c **** *  resets to zero.
 847:Generated_Source\PSoC5/SPIM_SigGen.c **** *
 848:Generated_Source\PSoC5/SPIM_SigGen.c **** * Theory:
 849:Generated_Source\PSoC5/SPIM_SigGen.c **** *  Setting the pointers to zero makes the system believe there is no data to
 850:Generated_Source\PSoC5/SPIM_SigGen.c **** *  read and writing will resume at address 0 overwriting any data that may have
 851:Generated_Source\PSoC5/SPIM_SigGen.c **** *  remained in the RAM.
 852:Generated_Source\PSoC5/SPIM_SigGen.c **** *
 853:Generated_Source\PSoC5/SPIM_SigGen.c **** * Side Effects:
ARM GAS  C:\Users\HARLOW~1\AppData\Local\Temp\ccZhQViV.s 			page 24


 854:Generated_Source\PSoC5/SPIM_SigGen.c **** *  Any data not yet transmitted from the RAM buffer will be lost when
 855:Generated_Source\PSoC5/SPIM_SigGen.c **** *  overwritten.
 856:Generated_Source\PSoC5/SPIM_SigGen.c **** *
 857:Generated_Source\PSoC5/SPIM_SigGen.c **** * Reentrant:
 858:Generated_Source\PSoC5/SPIM_SigGen.c **** *  No.
 859:Generated_Source\PSoC5/SPIM_SigGen.c **** *
 860:Generated_Source\PSoC5/SPIM_SigGen.c **** *******************************************************************************/
 861:Generated_Source\PSoC5/SPIM_SigGen.c **** void SPIM_SigGen_ClearTxBuffer(void) 
 862:Generated_Source\PSoC5/SPIM_SigGen.c **** {
 455              		.loc 1 862 0
 456              		.cfi_startproc
 457              		@ args = 0, pretend = 0, frame = 0
 458              		@ frame_needed = 0, uses_anonymous_args = 0
 459 0000 08B5     		push	{r3, lr}
 460              		.cfi_def_cfa_offset 8
 461              		.cfi_offset 3, -8
 462              		.cfi_offset 14, -4
 863:Generated_Source\PSoC5/SPIM_SigGen.c ****     uint8 enableInterrupts;
 864:Generated_Source\PSoC5/SPIM_SigGen.c **** 
 865:Generated_Source\PSoC5/SPIM_SigGen.c ****     enableInterrupts = CyEnterCriticalSection();
 463              		.loc 1 865 0
 464 0002 FFF7FEFF 		bl	CyEnterCriticalSection
 465              	.LVL16:
 866:Generated_Source\PSoC5/SPIM_SigGen.c ****     /* Clear TX FIFO */
 867:Generated_Source\PSoC5/SPIM_SigGen.c ****     SPIM_SigGen_AUX_CONTROL_DP0_REG |= ((uint8)  SPIM_SigGen_TX_FIFO_CLR);
 466              		.loc 1 867 0
 467 0006 0A4B     		ldr	r3, .L49
 468 0008 1A78     		ldrb	r2, [r3]	@ zero_extendqisi2
 469 000a 42F00102 		orr	r2, r2, #1
 470 000e 1A70     		strb	r2, [r3]
 868:Generated_Source\PSoC5/SPIM_SigGen.c ****     SPIM_SigGen_AUX_CONTROL_DP0_REG &= ((uint8) ~SPIM_SigGen_TX_FIFO_CLR);
 471              		.loc 1 868 0
 472 0010 1A78     		ldrb	r2, [r3]	@ zero_extendqisi2
 473 0012 02F0FE02 		and	r2, r2, #254
 474 0016 1A70     		strb	r2, [r3]
 869:Generated_Source\PSoC5/SPIM_SigGen.c **** 
 870:Generated_Source\PSoC5/SPIM_SigGen.c ****     #if(SPIM_SigGen_USE_SECOND_DATAPATH)
 871:Generated_Source\PSoC5/SPIM_SigGen.c ****         /* Clear TX FIFO for 2nd Datapath */
 872:Generated_Source\PSoC5/SPIM_SigGen.c ****         SPIM_SigGen_AUX_CONTROL_DP1_REG |= ((uint8)  SPIM_SigGen_TX_FIFO_CLR);
 475              		.loc 1 872 0
 476 0018 5A78     		ldrb	r2, [r3, #1]	@ zero_extendqisi2
 477 001a 42F00102 		orr	r2, r2, #1
 478 001e 5A70     		strb	r2, [r3, #1]
 873:Generated_Source\PSoC5/SPIM_SigGen.c ****         SPIM_SigGen_AUX_CONTROL_DP1_REG &= ((uint8) ~SPIM_SigGen_TX_FIFO_CLR);
 479              		.loc 1 873 0
 480 0020 5A78     		ldrb	r2, [r3, #1]	@ zero_extendqisi2
 481 0022 02F0FE02 		and	r2, r2, #254
 482 0026 5A70     		strb	r2, [r3, #1]
 874:Generated_Source\PSoC5/SPIM_SigGen.c ****     #endif /* (SPIM_SigGen_USE_SECOND_DATAPATH) */
 875:Generated_Source\PSoC5/SPIM_SigGen.c ****     CyExitCriticalSection(enableInterrupts);
 876:Generated_Source\PSoC5/SPIM_SigGen.c **** 
 877:Generated_Source\PSoC5/SPIM_SigGen.c ****     #if(SPIM_SigGen_TX_SOFTWARE_BUF_ENABLED)
 878:Generated_Source\PSoC5/SPIM_SigGen.c ****         /* Disable TX interrupt to protect global veriables */
 879:Generated_Source\PSoC5/SPIM_SigGen.c ****         SPIM_SigGen_DisableTxInt();
 880:Generated_Source\PSoC5/SPIM_SigGen.c **** 
 881:Generated_Source\PSoC5/SPIM_SigGen.c ****         SPIM_SigGen_txBufferFull  = 0u;
 882:Generated_Source\PSoC5/SPIM_SigGen.c ****         SPIM_SigGen_txBufferRead  = 0u;
ARM GAS  C:\Users\HARLOW~1\AppData\Local\Temp\ccZhQViV.s 			page 25


 883:Generated_Source\PSoC5/SPIM_SigGen.c ****         SPIM_SigGen_txBufferWrite = 0u;
 884:Generated_Source\PSoC5/SPIM_SigGen.c **** 
 885:Generated_Source\PSoC5/SPIM_SigGen.c ****         /* Buffer is EMPTY: disable TX FIFO NOT FULL interrupt */
 886:Generated_Source\PSoC5/SPIM_SigGen.c ****         SPIM_SigGen_TX_STATUS_MASK_REG &= ((uint8) ~SPIM_SigGen_STS_TX_FIFO_NOT_FULL);
 887:Generated_Source\PSoC5/SPIM_SigGen.c **** 
 888:Generated_Source\PSoC5/SPIM_SigGen.c ****         SPIM_SigGen_EnableTxInt();
 889:Generated_Source\PSoC5/SPIM_SigGen.c ****     #endif /* (SPIM_SigGen_TX_SOFTWARE_BUF_ENABLED) */
 890:Generated_Source\PSoC5/SPIM_SigGen.c **** }
 483              		.loc 1 890 0
 484 0028 BDE80840 		pop	{r3, lr}
 485              		.cfi_restore 14
 486              		.cfi_restore 3
 487              		.cfi_def_cfa_offset 0
 875:Generated_Source\PSoC5/SPIM_SigGen.c **** 
 488              		.loc 1 875 0
 489 002c FFF7FEBF 		b	CyExitCriticalSection
 490              	.LVL17:
 491              	.L50:
 492              		.align	2
 493              	.L49:
 494 0030 92640040 		.word	1073767570
 495              		.cfi_endproc
 496              	.LFE17:
 497              		.size	SPIM_SigGen_ClearTxBuffer, .-SPIM_SigGen_ClearTxBuffer
 498              		.section	.text.SPIM_SigGen_PutArray,"ax",%progbits
 499              		.align	1
 500              		.global	SPIM_SigGen_PutArray
 501              		.thumb
 502              		.thumb_func
 503              		.type	SPIM_SigGen_PutArray, %function
 504              	SPIM_SigGen_PutArray:
 505              	.LFB18:
 891:Generated_Source\PSoC5/SPIM_SigGen.c **** 
 892:Generated_Source\PSoC5/SPIM_SigGen.c **** 
 893:Generated_Source\PSoC5/SPIM_SigGen.c **** #if(0u != SPIM_SigGen_BIDIRECTIONAL_MODE)
 894:Generated_Source\PSoC5/SPIM_SigGen.c ****     /*******************************************************************************
 895:Generated_Source\PSoC5/SPIM_SigGen.c ****     * Function Name: SPIM_SigGen_TxEnable
 896:Generated_Source\PSoC5/SPIM_SigGen.c ****     ********************************************************************************
 897:Generated_Source\PSoC5/SPIM_SigGen.c ****     *
 898:Generated_Source\PSoC5/SPIM_SigGen.c ****     * Summary:
 899:Generated_Source\PSoC5/SPIM_SigGen.c ****     *  If the SPI master is configured to use a single bi-directional pin then this
 900:Generated_Source\PSoC5/SPIM_SigGen.c ****     *  will set the bi-directional pin to transmit.
 901:Generated_Source\PSoC5/SPIM_SigGen.c ****     *
 902:Generated_Source\PSoC5/SPIM_SigGen.c ****     * Parameters:
 903:Generated_Source\PSoC5/SPIM_SigGen.c ****     *  None.
 904:Generated_Source\PSoC5/SPIM_SigGen.c ****     *
 905:Generated_Source\PSoC5/SPIM_SigGen.c ****     * Return:
 906:Generated_Source\PSoC5/SPIM_SigGen.c ****     *  None.
 907:Generated_Source\PSoC5/SPIM_SigGen.c ****     *
 908:Generated_Source\PSoC5/SPIM_SigGen.c ****     *******************************************************************************/
 909:Generated_Source\PSoC5/SPIM_SigGen.c ****     void SPIM_SigGen_TxEnable(void) 
 910:Generated_Source\PSoC5/SPIM_SigGen.c ****     {
 911:Generated_Source\PSoC5/SPIM_SigGen.c ****         SPIM_SigGen_CONTROL_REG |= SPIM_SigGen_CTRL_TX_SIGNAL_EN;
 912:Generated_Source\PSoC5/SPIM_SigGen.c ****     }
 913:Generated_Source\PSoC5/SPIM_SigGen.c **** 
 914:Generated_Source\PSoC5/SPIM_SigGen.c **** 
 915:Generated_Source\PSoC5/SPIM_SigGen.c ****     /*******************************************************************************
ARM GAS  C:\Users\HARLOW~1\AppData\Local\Temp\ccZhQViV.s 			page 26


 916:Generated_Source\PSoC5/SPIM_SigGen.c ****     * Function Name: SPIM_SigGen_TxDisable
 917:Generated_Source\PSoC5/SPIM_SigGen.c ****     ********************************************************************************
 918:Generated_Source\PSoC5/SPIM_SigGen.c ****     *
 919:Generated_Source\PSoC5/SPIM_SigGen.c ****     * Summary:
 920:Generated_Source\PSoC5/SPIM_SigGen.c ****     *  If the SPI master is configured to use a single bi-directional pin then this
 921:Generated_Source\PSoC5/SPIM_SigGen.c ****     *  will set the bi-directional pin to receive.
 922:Generated_Source\PSoC5/SPIM_SigGen.c ****     *
 923:Generated_Source\PSoC5/SPIM_SigGen.c ****     * Parameters:
 924:Generated_Source\PSoC5/SPIM_SigGen.c ****     *  None.
 925:Generated_Source\PSoC5/SPIM_SigGen.c ****     *
 926:Generated_Source\PSoC5/SPIM_SigGen.c ****     * Return:
 927:Generated_Source\PSoC5/SPIM_SigGen.c ****     *  None.
 928:Generated_Source\PSoC5/SPIM_SigGen.c ****     *
 929:Generated_Source\PSoC5/SPIM_SigGen.c ****     *******************************************************************************/
 930:Generated_Source\PSoC5/SPIM_SigGen.c ****     void SPIM_SigGen_TxDisable(void) 
 931:Generated_Source\PSoC5/SPIM_SigGen.c ****     {
 932:Generated_Source\PSoC5/SPIM_SigGen.c ****         SPIM_SigGen_CONTROL_REG &= ((uint8) ~SPIM_SigGen_CTRL_TX_SIGNAL_EN);
 933:Generated_Source\PSoC5/SPIM_SigGen.c ****     }
 934:Generated_Source\PSoC5/SPIM_SigGen.c **** 
 935:Generated_Source\PSoC5/SPIM_SigGen.c **** #endif /* (0u != SPIM_SigGen_BIDIRECTIONAL_MODE) */
 936:Generated_Source\PSoC5/SPIM_SigGen.c **** 
 937:Generated_Source\PSoC5/SPIM_SigGen.c **** 
 938:Generated_Source\PSoC5/SPIM_SigGen.c **** /*******************************************************************************
 939:Generated_Source\PSoC5/SPIM_SigGen.c **** * Function Name: SPIM_SigGen_PutArray
 940:Generated_Source\PSoC5/SPIM_SigGen.c **** ********************************************************************************
 941:Generated_Source\PSoC5/SPIM_SigGen.c **** *
 942:Generated_Source\PSoC5/SPIM_SigGen.c **** * Summary:
 943:Generated_Source\PSoC5/SPIM_SigGen.c **** *  Write available data from ROM/RAM to the TX buffer while space is available
 944:Generated_Source\PSoC5/SPIM_SigGen.c **** *  in the TX buffer. Keep trying until all data is passed to the TX buffer.
 945:Generated_Source\PSoC5/SPIM_SigGen.c **** *
 946:Generated_Source\PSoC5/SPIM_SigGen.c **** * Parameters:
 947:Generated_Source\PSoC5/SPIM_SigGen.c **** *  *buffer: Pointer to the location in RAM containing the data to send
 948:Generated_Source\PSoC5/SPIM_SigGen.c **** *  byteCount: The number of bytes to move to the transmit buffer.
 949:Generated_Source\PSoC5/SPIM_SigGen.c **** *
 950:Generated_Source\PSoC5/SPIM_SigGen.c **** * Return:
 951:Generated_Source\PSoC5/SPIM_SigGen.c **** *  None.
 952:Generated_Source\PSoC5/SPIM_SigGen.c **** *
 953:Generated_Source\PSoC5/SPIM_SigGen.c **** * Side Effects:
 954:Generated_Source\PSoC5/SPIM_SigGen.c **** *  Will stay in this routine until all data has been sent.  May get locked in
 955:Generated_Source\PSoC5/SPIM_SigGen.c **** *  this loop if data is not being initiated by the master if there is not
 956:Generated_Source\PSoC5/SPIM_SigGen.c **** *  enough room in the TX FIFO.
 957:Generated_Source\PSoC5/SPIM_SigGen.c **** *
 958:Generated_Source\PSoC5/SPIM_SigGen.c **** * Reentrant:
 959:Generated_Source\PSoC5/SPIM_SigGen.c **** *  No.
 960:Generated_Source\PSoC5/SPIM_SigGen.c **** *
 961:Generated_Source\PSoC5/SPIM_SigGen.c **** *******************************************************************************/
 962:Generated_Source\PSoC5/SPIM_SigGen.c **** void SPIM_SigGen_PutArray(const uint16 buffer[], uint8 byteCount)
 963:Generated_Source\PSoC5/SPIM_SigGen.c ****                                                                           
 964:Generated_Source\PSoC5/SPIM_SigGen.c **** {
 506              		.loc 1 964 0
 507              		.cfi_startproc
 508              		@ args = 0, pretend = 0, frame = 0
 509              		@ frame_needed = 0, uses_anonymous_args = 0
 510              	.LVL18:
 511 0000 10B5     		push	{r4, lr}
 512              		.cfi_def_cfa_offset 8
 513              		.cfi_offset 4, -8
ARM GAS  C:\Users\HARLOW~1\AppData\Local\Temp\ccZhQViV.s 			page 27


 514              		.cfi_offset 14, -4
 515 0002 841E     		subs	r4, r0, #2
 516              	.LVL19:
 517              	.L52:
 965:Generated_Source\PSoC5/SPIM_SigGen.c ****     uint8 bufIndex;
 966:Generated_Source\PSoC5/SPIM_SigGen.c **** 
 967:Generated_Source\PSoC5/SPIM_SigGen.c ****     bufIndex = 0u;
 968:Generated_Source\PSoC5/SPIM_SigGen.c **** 
 969:Generated_Source\PSoC5/SPIM_SigGen.c ****     while(byteCount > 0u)
 518              		.loc 1 969 0
 519 0004 31B1     		cbz	r1, .L54
 970:Generated_Source\PSoC5/SPIM_SigGen.c ****     {
 971:Generated_Source\PSoC5/SPIM_SigGen.c ****         SPIM_SigGen_WriteTxData(buffer[bufIndex]);
 520              		.loc 1 971 0
 521 0006 34F8020F 		ldrh	r0, [r4, #2]!
 522 000a FFF7FEFF 		bl	SPIM_SigGen_WriteTxData
 523              	.LVL20:
 972:Generated_Source\PSoC5/SPIM_SigGen.c ****         bufIndex++;
 973:Generated_Source\PSoC5/SPIM_SigGen.c ****         byteCount--;
 524              		.loc 1 973 0
 525 000e 0139     		subs	r1, r1, #1
 526 0010 C9B2     		uxtb	r1, r1
 527              	.LVL21:
 528 0012 F7E7     		b	.L52
 529              	.LVL22:
 530              	.L54:
 974:Generated_Source\PSoC5/SPIM_SigGen.c ****     }
 975:Generated_Source\PSoC5/SPIM_SigGen.c **** }
 531              		.loc 1 975 0
 532 0014 10BD     		pop	{r4, pc}
 533              		.cfi_endproc
 534              	.LFE18:
 535              		.size	SPIM_SigGen_PutArray, .-SPIM_SigGen_PutArray
 536              		.section	.text.SPIM_SigGen_ClearFIFO,"ax",%progbits
 537              		.align	1
 538              		.global	SPIM_SigGen_ClearFIFO
 539              		.thumb
 540              		.thumb_func
 541              		.type	SPIM_SigGen_ClearFIFO, %function
 542              	SPIM_SigGen_ClearFIFO:
 543              	.LFB19:
 976:Generated_Source\PSoC5/SPIM_SigGen.c **** 
 977:Generated_Source\PSoC5/SPIM_SigGen.c **** 
 978:Generated_Source\PSoC5/SPIM_SigGen.c **** /*******************************************************************************
 979:Generated_Source\PSoC5/SPIM_SigGen.c **** * Function Name: SPIM_SigGen_ClearFIFO
 980:Generated_Source\PSoC5/SPIM_SigGen.c **** ********************************************************************************
 981:Generated_Source\PSoC5/SPIM_SigGen.c **** *
 982:Generated_Source\PSoC5/SPIM_SigGen.c **** * Summary:
 983:Generated_Source\PSoC5/SPIM_SigGen.c **** *  Clear the RX and TX FIFO's of all data for a fresh start.
 984:Generated_Source\PSoC5/SPIM_SigGen.c **** *
 985:Generated_Source\PSoC5/SPIM_SigGen.c **** * Parameters:
 986:Generated_Source\PSoC5/SPIM_SigGen.c **** *  None.
 987:Generated_Source\PSoC5/SPIM_SigGen.c **** *
 988:Generated_Source\PSoC5/SPIM_SigGen.c **** * Return:
 989:Generated_Source\PSoC5/SPIM_SigGen.c **** *  None.
 990:Generated_Source\PSoC5/SPIM_SigGen.c **** *
 991:Generated_Source\PSoC5/SPIM_SigGen.c **** * Side Effects:
ARM GAS  C:\Users\HARLOW~1\AppData\Local\Temp\ccZhQViV.s 			page 28


 992:Generated_Source\PSoC5/SPIM_SigGen.c **** *  Clear status register of the component.
 993:Generated_Source\PSoC5/SPIM_SigGen.c **** *
 994:Generated_Source\PSoC5/SPIM_SigGen.c **** *******************************************************************************/
 995:Generated_Source\PSoC5/SPIM_SigGen.c **** void SPIM_SigGen_ClearFIFO(void) 
 996:Generated_Source\PSoC5/SPIM_SigGen.c **** {
 544              		.loc 1 996 0
 545              		.cfi_startproc
 546              		@ args = 0, pretend = 0, frame = 0
 547              		@ frame_needed = 0, uses_anonymous_args = 0
 548 0000 08B5     		push	{r3, lr}
 549              		.cfi_def_cfa_offset 8
 550              		.cfi_offset 3, -8
 551              		.cfi_offset 14, -4
 997:Generated_Source\PSoC5/SPIM_SigGen.c ****     uint8 enableInterrupts;
 998:Generated_Source\PSoC5/SPIM_SigGen.c **** 
 999:Generated_Source\PSoC5/SPIM_SigGen.c ****     /* Clear Hardware RX FIFO */
1000:Generated_Source\PSoC5/SPIM_SigGen.c ****     while(0u !=(SPIM_SigGen_RX_STATUS_REG & SPIM_SigGen_STS_RX_FIFO_NOT_EMPTY))
 552              		.loc 1 1000 0
 553 0002 0F4A     		ldr	r2, .L59
1001:Generated_Source\PSoC5/SPIM_SigGen.c ****     {
1002:Generated_Source\PSoC5/SPIM_SigGen.c ****         (void) CY_GET_REG16(SPIM_SigGen_RXDATA_PTR);
 554              		.loc 1 1002 0
 555 0004 0F49     		ldr	r1, .L59+4
 556              	.L56:
1000:Generated_Source\PSoC5/SPIM_SigGen.c ****     {
 557              		.loc 1 1000 0
 558 0006 1378     		ldrb	r3, [r2]	@ zero_extendqisi2
 559 0008 9B06     		lsls	r3, r3, #26
 560 000a 01D5     		bpl	.L58
 561              		.loc 1 1002 0
 562 000c 0B88     		ldrh	r3, [r1]
 563 000e FAE7     		b	.L56
 564              	.L58:
1003:Generated_Source\PSoC5/SPIM_SigGen.c ****     }
1004:Generated_Source\PSoC5/SPIM_SigGen.c **** 
1005:Generated_Source\PSoC5/SPIM_SigGen.c ****     enableInterrupts = CyEnterCriticalSection();
 565              		.loc 1 1005 0
 566 0010 FFF7FEFF 		bl	CyEnterCriticalSection
 567              	.LVL23:
1006:Generated_Source\PSoC5/SPIM_SigGen.c ****     /* Clear TX FIFO */
1007:Generated_Source\PSoC5/SPIM_SigGen.c ****     SPIM_SigGen_AUX_CONTROL_DP0_REG |= ((uint8)  SPIM_SigGen_TX_FIFO_CLR);
 568              		.loc 1 1007 0
 569 0014 0C4B     		ldr	r3, .L59+8
 570 0016 1A78     		ldrb	r2, [r3]	@ zero_extendqisi2
 571 0018 42F00102 		orr	r2, r2, #1
 572 001c 1A70     		strb	r2, [r3]
1008:Generated_Source\PSoC5/SPIM_SigGen.c ****     SPIM_SigGen_AUX_CONTROL_DP0_REG &= ((uint8) ~SPIM_SigGen_TX_FIFO_CLR);
 573              		.loc 1 1008 0
 574 001e 1A78     		ldrb	r2, [r3]	@ zero_extendqisi2
 575 0020 02F0FE02 		and	r2, r2, #254
 576 0024 1A70     		strb	r2, [r3]
1009:Generated_Source\PSoC5/SPIM_SigGen.c **** 
1010:Generated_Source\PSoC5/SPIM_SigGen.c ****     #if(SPIM_SigGen_USE_SECOND_DATAPATH)
1011:Generated_Source\PSoC5/SPIM_SigGen.c ****         /* Clear TX FIFO for 2nd Datapath */
1012:Generated_Source\PSoC5/SPIM_SigGen.c ****         SPIM_SigGen_AUX_CONTROL_DP1_REG |= ((uint8)  SPIM_SigGen_TX_FIFO_CLR);
 577              		.loc 1 1012 0
 578 0026 5A78     		ldrb	r2, [r3, #1]	@ zero_extendqisi2
ARM GAS  C:\Users\HARLOW~1\AppData\Local\Temp\ccZhQViV.s 			page 29


 579 0028 42F00102 		orr	r2, r2, #1
 580 002c 5A70     		strb	r2, [r3, #1]
1013:Generated_Source\PSoC5/SPIM_SigGen.c ****         SPIM_SigGen_AUX_CONTROL_DP1_REG &= ((uint8) ~SPIM_SigGen_TX_FIFO_CLR);
 581              		.loc 1 1013 0
 582 002e 5A78     		ldrb	r2, [r3, #1]	@ zero_extendqisi2
 583 0030 02F0FE02 		and	r2, r2, #254
 584 0034 5A70     		strb	r2, [r3, #1]
1014:Generated_Source\PSoC5/SPIM_SigGen.c ****     #endif /* (SPIM_SigGen_USE_SECOND_DATAPATH) */
1015:Generated_Source\PSoC5/SPIM_SigGen.c ****     CyExitCriticalSection(enableInterrupts);
1016:Generated_Source\PSoC5/SPIM_SigGen.c **** }
 585              		.loc 1 1016 0
 586 0036 BDE80840 		pop	{r3, lr}
 587              		.cfi_restore 14
 588              		.cfi_restore 3
 589              		.cfi_def_cfa_offset 0
1015:Generated_Source\PSoC5/SPIM_SigGen.c **** }
 590              		.loc 1 1015 0
 591 003a FFF7FEBF 		b	CyExitCriticalSection
 592              	.LVL24:
 593              	.L60:
 594 003e 00BF     		.align	2
 595              	.L59:
 596 0040 63640040 		.word	1073767523
 597 0044 52640040 		.word	1073767506
 598 0048 92640040 		.word	1073767570
 599              		.cfi_endproc
 600              	.LFE19:
 601              		.size	SPIM_SigGen_ClearFIFO, .-SPIM_SigGen_ClearFIFO
 602              		.section	.text.SPIM_SigGen_Init,"ax",%progbits
 603              		.align	1
 604              		.global	SPIM_SigGen_Init
 605              		.thumb
 606              		.thumb_func
 607              		.type	SPIM_SigGen_Init, %function
 608              	SPIM_SigGen_Init:
 609              	.LFB0:
  64:Generated_Source\PSoC5/SPIM_SigGen.c ****     /* Initialize the Bit counter */
 610              		.loc 1 64 0
 611              		.cfi_startproc
 612              		@ args = 0, pretend = 0, frame = 0
 613              		@ frame_needed = 0, uses_anonymous_args = 0
 614 0000 08B5     		push	{r3, lr}
 615              		.cfi_def_cfa_offset 8
 616              		.cfi_offset 3, -8
 617              		.cfi_offset 14, -4
  66:Generated_Source\PSoC5/SPIM_SigGen.c **** 
 618              		.loc 1 66 0
 619 0002 074B     		ldr	r3, .L62
 620 0004 1F22     		movs	r2, #31
 621 0006 1A70     		strb	r2, [r3]
  83:Generated_Source\PSoC5/SPIM_SigGen.c **** 
 622              		.loc 1 83 0
 623 0008 FFF7FEFF 		bl	SPIM_SigGen_ClearFIFO
 624              	.LVL25:
 625              	.LBB22:
 626              	.LBB23:
 401:Generated_Source\PSoC5/SPIM_SigGen.c **** 
ARM GAS  C:\Users\HARLOW~1\AppData\Local\Temp\ccZhQViV.s 			page 30


 627              		.loc 1 401 0
 628 000c 054B     		ldr	r3, .L62+4
 629              	.LBE23:
 630              	.LBE22:
 101:Generated_Source\PSoC5/SPIM_SigGen.c ****     SPIM_SigGen_RX_STATUS_MASK_REG = SPIM_SigGen_RX_INIT_INTERRUPTS_MASK;
 631              		.loc 1 101 0
 632 000e 064A     		ldr	r2, .L62+8
 633              	.LBB25:
 634              	.LBB24:
 401:Generated_Source\PSoC5/SPIM_SigGen.c **** 
 635              		.loc 1 401 0
 636 0010 1B78     		ldrb	r3, [r3]	@ zero_extendqisi2
 637              	.LBE24:
 638              	.LBE25:
 639              	.LBB26:
 640              	.LBB27:
 452:Generated_Source\PSoC5/SPIM_SigGen.c **** 
 641              		.loc 1 452 0
 642 0012 064B     		ldr	r3, .L62+12
 643 0014 1B78     		ldrb	r3, [r3]	@ zero_extendqisi2
 644              	.LBE27:
 645              	.LBE26:
 101:Generated_Source\PSoC5/SPIM_SigGen.c ****     SPIM_SigGen_RX_STATUS_MASK_REG = SPIM_SigGen_RX_INIT_INTERRUPTS_MASK;
 646              		.loc 1 101 0
 647 0016 0023     		movs	r3, #0
 648 0018 1370     		strb	r3, [r2]
 102:Generated_Source\PSoC5/SPIM_SigGen.c **** }
 649              		.loc 1 102 0
 650 001a 9370     		strb	r3, [r2, #2]
 651 001c 08BD     		pop	{r3, pc}
 652              	.L63:
 653 001e 00BF     		.align	2
 654              	.L62:
 655 0020 80640040 		.word	1073767552
 656 0024 61640040 		.word	1073767521
 657 0028 81640040 		.word	1073767553
 658 002c 63640040 		.word	1073767523
 659              		.cfi_endproc
 660              	.LFE0:
 661              		.size	SPIM_SigGen_Init, .-SPIM_SigGen_Init
 662              		.section	.text.SPIM_SigGen_Start,"ax",%progbits
 663              		.align	1
 664              		.global	SPIM_SigGen_Start
 665              		.thumb
 666              		.thumb_func
 667              		.type	SPIM_SigGen_Start, %function
 668              	SPIM_SigGen_Start:
 669              	.LFB2:
 164:Generated_Source\PSoC5/SPIM_SigGen.c ****     if(0u == SPIM_SigGen_initVar)
 670              		.loc 1 164 0
 671              		.cfi_startproc
 672              		@ args = 0, pretend = 0, frame = 0
 673              		@ frame_needed = 0, uses_anonymous_args = 0
 674 0000 10B5     		push	{r4, lr}
 675              		.cfi_def_cfa_offset 8
 676              		.cfi_offset 4, -8
 677              		.cfi_offset 14, -4
ARM GAS  C:\Users\HARLOW~1\AppData\Local\Temp\ccZhQViV.s 			page 31


 165:Generated_Source\PSoC5/SPIM_SigGen.c ****     {
 678              		.loc 1 165 0
 679 0002 054C     		ldr	r4, .L66
 680 0004 2378     		ldrb	r3, [r4]	@ zero_extendqisi2
 681 0006 1BB9     		cbnz	r3, .L65
 167:Generated_Source\PSoC5/SPIM_SigGen.c ****         SPIM_SigGen_initVar = 1u;
 682              		.loc 1 167 0
 683 0008 FFF7FEFF 		bl	SPIM_SigGen_Init
 684              	.LVL26:
 168:Generated_Source\PSoC5/SPIM_SigGen.c ****     }
 685              		.loc 1 168 0
 686 000c 0123     		movs	r3, #1
 687 000e 2370     		strb	r3, [r4]
 688              	.L65:
 172:Generated_Source\PSoC5/SPIM_SigGen.c **** 
 689              		.loc 1 172 0
 690 0010 BDE81040 		pop	{r4, lr}
 691              		.cfi_restore 14
 692              		.cfi_restore 4
 693              		.cfi_def_cfa_offset 0
 171:Generated_Source\PSoC5/SPIM_SigGen.c **** }
 694              		.loc 1 171 0
 695 0014 FFF7FEBF 		b	SPIM_SigGen_Enable
 696              	.LVL27:
 697              	.L67:
 698              		.align	2
 699              	.L66:
 700 0018 00000000 		.word	.LANCHOR0
 701              		.cfi_endproc
 702              	.LFE2:
 703              		.size	SPIM_SigGen_Start, .-SPIM_SigGen_Start
 704              		.section	.text.SPIM_SigGen_EnableInt,"ax",%progbits
 705              		.align	1
 706              		.global	SPIM_SigGen_EnableInt
 707              		.thumb
 708              		.thumb_func
 709              		.type	SPIM_SigGen_EnableInt, %function
 710              	SPIM_SigGen_EnableInt:
 711              	.LFB25:
 712              		.cfi_startproc
 713              		@ args = 0, pretend = 0, frame = 0
 714              		@ frame_needed = 0, uses_anonymous_args = 0
 715              		@ link register save eliminated.
 716 0000 7047     		bx	lr
 717              		.cfi_endproc
 718              	.LFE25:
 719              		.size	SPIM_SigGen_EnableInt, .-SPIM_SigGen_EnableInt
 720              		.section	.text.SPIM_SigGen_DisableInt,"ax",%progbits
 721              		.align	1
 722              		.global	SPIM_SigGen_DisableInt
 723              		.thumb
 724              		.thumb_func
 725              		.type	SPIM_SigGen_DisableInt, %function
 726              	SPIM_SigGen_DisableInt:
 727              	.LFB21:
1017:Generated_Source\PSoC5/SPIM_SigGen.c **** 
1018:Generated_Source\PSoC5/SPIM_SigGen.c **** 
ARM GAS  C:\Users\HARLOW~1\AppData\Local\Temp\ccZhQViV.s 			page 32


1019:Generated_Source\PSoC5/SPIM_SigGen.c **** /* Following functions are for version Compatibility, they are obsolete.
1020:Generated_Source\PSoC5/SPIM_SigGen.c **** *  Please do not use it in new projects.
1021:Generated_Source\PSoC5/SPIM_SigGen.c **** */
1022:Generated_Source\PSoC5/SPIM_SigGen.c **** 
1023:Generated_Source\PSoC5/SPIM_SigGen.c **** 
1024:Generated_Source\PSoC5/SPIM_SigGen.c **** /*******************************************************************************
1025:Generated_Source\PSoC5/SPIM_SigGen.c **** * Function Name: SPIM_SigGen_EnableInt
1026:Generated_Source\PSoC5/SPIM_SigGen.c **** ********************************************************************************
1027:Generated_Source\PSoC5/SPIM_SigGen.c **** *
1028:Generated_Source\PSoC5/SPIM_SigGen.c **** * Summary:
1029:Generated_Source\PSoC5/SPIM_SigGen.c **** *  Enable internal interrupt generation.
1030:Generated_Source\PSoC5/SPIM_SigGen.c **** *
1031:Generated_Source\PSoC5/SPIM_SigGen.c **** * Parameters:
1032:Generated_Source\PSoC5/SPIM_SigGen.c **** *  None.
1033:Generated_Source\PSoC5/SPIM_SigGen.c **** *
1034:Generated_Source\PSoC5/SPIM_SigGen.c **** * Return:
1035:Generated_Source\PSoC5/SPIM_SigGen.c **** *  None.
1036:Generated_Source\PSoC5/SPIM_SigGen.c **** *
1037:Generated_Source\PSoC5/SPIM_SigGen.c **** * Theory:
1038:Generated_Source\PSoC5/SPIM_SigGen.c **** *  Enable the internal interrupt output -or- the interrupt component itself.
1039:Generated_Source\PSoC5/SPIM_SigGen.c **** *
1040:Generated_Source\PSoC5/SPIM_SigGen.c **** *******************************************************************************/
1041:Generated_Source\PSoC5/SPIM_SigGen.c **** void SPIM_SigGen_EnableInt(void) 
1042:Generated_Source\PSoC5/SPIM_SigGen.c **** {
1043:Generated_Source\PSoC5/SPIM_SigGen.c ****     SPIM_SigGen_EnableRxInt();
1044:Generated_Source\PSoC5/SPIM_SigGen.c ****     SPIM_SigGen_EnableTxInt();
1045:Generated_Source\PSoC5/SPIM_SigGen.c **** }
1046:Generated_Source\PSoC5/SPIM_SigGen.c **** 
1047:Generated_Source\PSoC5/SPIM_SigGen.c **** 
1048:Generated_Source\PSoC5/SPIM_SigGen.c **** /*******************************************************************************
1049:Generated_Source\PSoC5/SPIM_SigGen.c **** * Function Name: SPIM_SigGen_DisableInt
1050:Generated_Source\PSoC5/SPIM_SigGen.c **** ********************************************************************************
1051:Generated_Source\PSoC5/SPIM_SigGen.c **** *
1052:Generated_Source\PSoC5/SPIM_SigGen.c **** * Summary:
1053:Generated_Source\PSoC5/SPIM_SigGen.c **** *  Disable internal interrupt generation.
1054:Generated_Source\PSoC5/SPIM_SigGen.c **** *
1055:Generated_Source\PSoC5/SPIM_SigGen.c **** * Parameters:
1056:Generated_Source\PSoC5/SPIM_SigGen.c **** *  None.
1057:Generated_Source\PSoC5/SPIM_SigGen.c **** *
1058:Generated_Source\PSoC5/SPIM_SigGen.c **** * Return:
1059:Generated_Source\PSoC5/SPIM_SigGen.c **** *  None.
1060:Generated_Source\PSoC5/SPIM_SigGen.c **** *
1061:Generated_Source\PSoC5/SPIM_SigGen.c **** * Theory:
1062:Generated_Source\PSoC5/SPIM_SigGen.c **** *  Disable the internal interrupt output -or- the interrupt component itself.
1063:Generated_Source\PSoC5/SPIM_SigGen.c **** *
1064:Generated_Source\PSoC5/SPIM_SigGen.c **** *******************************************************************************/
1065:Generated_Source\PSoC5/SPIM_SigGen.c **** void SPIM_SigGen_DisableInt(void) 
1066:Generated_Source\PSoC5/SPIM_SigGen.c **** {
 728              		.loc 1 1066 0
 729              		.cfi_startproc
 730              		@ args = 0, pretend = 0, frame = 0
 731              		@ frame_needed = 0, uses_anonymous_args = 0
 732              		@ link register save eliminated.
 733 0000 7047     		bx	lr
 734              		.cfi_endproc
 735              	.LFE21:
 736              		.size	SPIM_SigGen_DisableInt, .-SPIM_SigGen_DisableInt
ARM GAS  C:\Users\HARLOW~1\AppData\Local\Temp\ccZhQViV.s 			page 33


 737              		.section	.text.SPIM_SigGen_SetInterruptMode,"ax",%progbits
 738              		.align	1
 739              		.global	SPIM_SigGen_SetInterruptMode
 740              		.thumb
 741              		.thumb_func
 742              		.type	SPIM_SigGen_SetInterruptMode, %function
 743              	SPIM_SigGen_SetInterruptMode:
 744              	.LFB22:
1067:Generated_Source\PSoC5/SPIM_SigGen.c ****     SPIM_SigGen_DisableTxInt();
1068:Generated_Source\PSoC5/SPIM_SigGen.c ****     SPIM_SigGen_DisableRxInt();
1069:Generated_Source\PSoC5/SPIM_SigGen.c **** }
1070:Generated_Source\PSoC5/SPIM_SigGen.c **** 
1071:Generated_Source\PSoC5/SPIM_SigGen.c **** 
1072:Generated_Source\PSoC5/SPIM_SigGen.c **** /*******************************************************************************
1073:Generated_Source\PSoC5/SPIM_SigGen.c **** * Function Name: SPIM_SigGen_SetInterruptMode
1074:Generated_Source\PSoC5/SPIM_SigGen.c **** ********************************************************************************
1075:Generated_Source\PSoC5/SPIM_SigGen.c **** *
1076:Generated_Source\PSoC5/SPIM_SigGen.c **** * Summary:
1077:Generated_Source\PSoC5/SPIM_SigGen.c **** *  Configure which status bits trigger an interrupt event.
1078:Generated_Source\PSoC5/SPIM_SigGen.c **** *
1079:Generated_Source\PSoC5/SPIM_SigGen.c **** * Parameters:
1080:Generated_Source\PSoC5/SPIM_SigGen.c **** *  intSrc: An or'd combination of the desired status bit masks (defined in the
1081:Generated_Source\PSoC5/SPIM_SigGen.c **** *  header file).
1082:Generated_Source\PSoC5/SPIM_SigGen.c **** *
1083:Generated_Source\PSoC5/SPIM_SigGen.c **** * Return:
1084:Generated_Source\PSoC5/SPIM_SigGen.c **** *  None.
1085:Generated_Source\PSoC5/SPIM_SigGen.c **** *
1086:Generated_Source\PSoC5/SPIM_SigGen.c **** * Theory:
1087:Generated_Source\PSoC5/SPIM_SigGen.c **** *  Enables the output of specific status bits to the interrupt controller.
1088:Generated_Source\PSoC5/SPIM_SigGen.c **** *
1089:Generated_Source\PSoC5/SPIM_SigGen.c **** *******************************************************************************/
1090:Generated_Source\PSoC5/SPIM_SigGen.c **** void SPIM_SigGen_SetInterruptMode(uint8 intSrc) 
1091:Generated_Source\PSoC5/SPIM_SigGen.c **** {
 745              		.loc 1 1091 0
 746              		.cfi_startproc
 747              		@ args = 0, pretend = 0, frame = 0
 748              		@ frame_needed = 0, uses_anonymous_args = 0
 749              		@ link register save eliminated.
 750              	.LVL28:
1092:Generated_Source\PSoC5/SPIM_SigGen.c ****     SPIM_SigGen_TX_STATUS_MASK_REG  = (intSrc & ((uint8) ~SPIM_SigGen_STS_SPI_IDLE));
 751              		.loc 1 1092 0
 752 0000 024B     		ldr	r3, .L71
 753 0002 00F0EF02 		and	r2, r0, #239
 754 0006 1A70     		strb	r2, [r3]
1093:Generated_Source\PSoC5/SPIM_SigGen.c ****     SPIM_SigGen_RX_STATUS_MASK_REG  =  intSrc;
 755              		.loc 1 1093 0
 756 0008 9870     		strb	r0, [r3, #2]
 757 000a 7047     		bx	lr
 758              	.L72:
 759              		.align	2
 760              	.L71:
 761 000c 81640040 		.word	1073767553
 762              		.cfi_endproc
 763              	.LFE22:
 764              		.size	SPIM_SigGen_SetInterruptMode, .-SPIM_SigGen_SetInterruptMode
 765              		.section	.text.SPIM_SigGen_ReadStatus,"ax",%progbits
 766              		.align	1
ARM GAS  C:\Users\HARLOW~1\AppData\Local\Temp\ccZhQViV.s 			page 34


 767              		.global	SPIM_SigGen_ReadStatus
 768              		.thumb
 769              		.thumb_func
 770              		.type	SPIM_SigGen_ReadStatus, %function
 771              	SPIM_SigGen_ReadStatus:
 772              	.LFB23:
1094:Generated_Source\PSoC5/SPIM_SigGen.c **** }
1095:Generated_Source\PSoC5/SPIM_SigGen.c **** 
1096:Generated_Source\PSoC5/SPIM_SigGen.c **** 
1097:Generated_Source\PSoC5/SPIM_SigGen.c **** /*******************************************************************************
1098:Generated_Source\PSoC5/SPIM_SigGen.c **** * Function Name: SPIM_SigGen_ReadStatus
1099:Generated_Source\PSoC5/SPIM_SigGen.c **** ********************************************************************************
1100:Generated_Source\PSoC5/SPIM_SigGen.c **** *
1101:Generated_Source\PSoC5/SPIM_SigGen.c **** * Summary:
1102:Generated_Source\PSoC5/SPIM_SigGen.c **** *  Read the status register for the component.
1103:Generated_Source\PSoC5/SPIM_SigGen.c **** *
1104:Generated_Source\PSoC5/SPIM_SigGen.c **** * Parameters:
1105:Generated_Source\PSoC5/SPIM_SigGen.c **** *  None.
1106:Generated_Source\PSoC5/SPIM_SigGen.c **** *
1107:Generated_Source\PSoC5/SPIM_SigGen.c **** * Return:
1108:Generated_Source\PSoC5/SPIM_SigGen.c **** *  Contents of the status register.
1109:Generated_Source\PSoC5/SPIM_SigGen.c **** *
1110:Generated_Source\PSoC5/SPIM_SigGen.c **** * Global variables:
1111:Generated_Source\PSoC5/SPIM_SigGen.c **** *  SPIM_SigGen_swStatus - used to store in software status register,
1112:Generated_Source\PSoC5/SPIM_SigGen.c **** *  modified every function call - resets to zero.
1113:Generated_Source\PSoC5/SPIM_SigGen.c **** *
1114:Generated_Source\PSoC5/SPIM_SigGen.c **** * Theory:
1115:Generated_Source\PSoC5/SPIM_SigGen.c **** *  Allows the user and the API to read the status register for error detection
1116:Generated_Source\PSoC5/SPIM_SigGen.c **** *  and flow control.
1117:Generated_Source\PSoC5/SPIM_SigGen.c **** *
1118:Generated_Source\PSoC5/SPIM_SigGen.c **** * Side Effects:
1119:Generated_Source\PSoC5/SPIM_SigGen.c **** *  Clear status register of the component.
1120:Generated_Source\PSoC5/SPIM_SigGen.c **** *
1121:Generated_Source\PSoC5/SPIM_SigGen.c **** * Reentrant:
1122:Generated_Source\PSoC5/SPIM_SigGen.c **** *  No.
1123:Generated_Source\PSoC5/SPIM_SigGen.c **** *
1124:Generated_Source\PSoC5/SPIM_SigGen.c **** *******************************************************************************/
1125:Generated_Source\PSoC5/SPIM_SigGen.c **** uint8 SPIM_SigGen_ReadStatus(void) 
1126:Generated_Source\PSoC5/SPIM_SigGen.c **** {
 773              		.loc 1 1126 0
 774              		.cfi_startproc
 775              		@ args = 0, pretend = 0, frame = 0
 776              		@ frame_needed = 0, uses_anonymous_args = 0
 777              		@ link register save eliminated.
1127:Generated_Source\PSoC5/SPIM_SigGen.c ****     uint8 tmpStatus;
1128:Generated_Source\PSoC5/SPIM_SigGen.c **** 
1129:Generated_Source\PSoC5/SPIM_SigGen.c ****     #if(SPIM_SigGen_TX_SOFTWARE_BUF_ENABLED || SPIM_SigGen_RX_SOFTWARE_BUF_ENABLED)
1130:Generated_Source\PSoC5/SPIM_SigGen.c **** 
1131:Generated_Source\PSoC5/SPIM_SigGen.c ****         SPIM_SigGen_DisableInt();
1132:Generated_Source\PSoC5/SPIM_SigGen.c **** 
1133:Generated_Source\PSoC5/SPIM_SigGen.c ****         tmpStatus  = SPIM_SigGen_GET_STATUS_RX(SPIM_SigGen_swStatusRx);
1134:Generated_Source\PSoC5/SPIM_SigGen.c ****         tmpStatus |= SPIM_SigGen_GET_STATUS_TX(SPIM_SigGen_swStatusTx);
1135:Generated_Source\PSoC5/SPIM_SigGen.c ****         tmpStatus &= ((uint8) ~SPIM_SigGen_STS_SPI_IDLE);
1136:Generated_Source\PSoC5/SPIM_SigGen.c **** 
1137:Generated_Source\PSoC5/SPIM_SigGen.c ****         SPIM_SigGen_swStatusTx = 0u;
1138:Generated_Source\PSoC5/SPIM_SigGen.c ****         SPIM_SigGen_swStatusRx = 0u;
1139:Generated_Source\PSoC5/SPIM_SigGen.c **** 
ARM GAS  C:\Users\HARLOW~1\AppData\Local\Temp\ccZhQViV.s 			page 35


1140:Generated_Source\PSoC5/SPIM_SigGen.c ****         SPIM_SigGen_EnableInt();
1141:Generated_Source\PSoC5/SPIM_SigGen.c **** 
1142:Generated_Source\PSoC5/SPIM_SigGen.c ****     #else
1143:Generated_Source\PSoC5/SPIM_SigGen.c **** 
1144:Generated_Source\PSoC5/SPIM_SigGen.c ****         tmpStatus  = SPIM_SigGen_RX_STATUS_REG;
 778              		.loc 1 1144 0
 779 0000 034B     		ldr	r3, .L74
 780 0002 1878     		ldrb	r0, [r3]	@ zero_extendqisi2
 781              	.LVL29:
1145:Generated_Source\PSoC5/SPIM_SigGen.c ****         tmpStatus |= SPIM_SigGen_TX_STATUS_REG;
 782              		.loc 1 1145 0
 783 0004 023B     		subs	r3, r3, #2
 784 0006 1B78     		ldrb	r3, [r3]	@ zero_extendqisi2
 785 0008 1843     		orrs	r0, r0, r3
 786              	.LVL30:
1146:Generated_Source\PSoC5/SPIM_SigGen.c ****         tmpStatus &= ((uint8) ~SPIM_SigGen_STS_SPI_IDLE);
1147:Generated_Source\PSoC5/SPIM_SigGen.c **** 
1148:Generated_Source\PSoC5/SPIM_SigGen.c ****     #endif /* (SPIM_SigGen_TX_SOFTWARE_BUF_ENABLED || SPIM_SigGen_RX_SOFTWARE_BUF_ENABLED) */
1149:Generated_Source\PSoC5/SPIM_SigGen.c **** 
1150:Generated_Source\PSoC5/SPIM_SigGen.c ****     return(tmpStatus);
1151:Generated_Source\PSoC5/SPIM_SigGen.c **** }
 787              		.loc 1 1151 0
 788 000a 00F0EF00 		and	r0, r0, #239
 789              	.LVL31:
 790 000e 7047     		bx	lr
 791              	.L75:
 792              		.align	2
 793              	.L74:
 794 0010 63640040 		.word	1073767523
 795              		.cfi_endproc
 796              	.LFE23:
 797              		.size	SPIM_SigGen_ReadStatus, .-SPIM_SigGen_ReadStatus
 798              		.comm	SPIM_SigGen_swStatusRx,1,1
 799              		.comm	SPIM_SigGen_swStatusTx,1,1
 800              		.global	SPIM_SigGen_initVar
 801              		.bss
 802              		.set	.LANCHOR0,. + 0
 803              		.type	SPIM_SigGen_initVar, %object
 804              		.size	SPIM_SigGen_initVar, 1
 805              	SPIM_SigGen_initVar:
 806 0000 00       		.space	1
 807              		.text
 808              	.Letext0:
 809              		.file 2 "Generated_Source\\PSoC5\\cytypes.h"
 810              		.file 3 "Generated_Source\\PSoC5\\CyLib.h"
 811              		.file 4 "Generated_Source\\PSoC5\\SPIM_SigGen_IntClock.h"