ARM GAS  C:\Users\HARLOW~1\AppData\Local\Temp\cccXBsIm.s 			page 1


   1              		.syntax unified
   2              		.cpu cortex-m3
   3              		.fpu softvfp
   4              		.eabi_attribute 20, 1
   5              		.eabi_attribute 21, 1
   6              		.eabi_attribute 23, 3
   7              		.eabi_attribute 24, 1
   8              		.eabi_attribute 25, 1
   9              		.eabi_attribute 26, 1
  10              		.eabi_attribute 30, 4
  11              		.eabi_attribute 34, 1
  12              		.eabi_attribute 18, 4
  13              		.thumb
  14              		.syntax unified
  15              		.file	"SPIS.c"
  16              		.text
  17              	.Ltext0:
  18              		.cfi_sections	.debug_frame
  19              		.section	.text.SPIS_Enable,"ax",%progbits
  20              		.align	1
  21              		.global	SPIS_Enable
  22              		.thumb
  23              		.thumb_func
  24              		.type	SPIS_Enable, %function
  25              	SPIS_Enable:
  26              	.LFB1:
  27              		.file 1 "Generated_Source\\PSoC5\\SPIS.c"
   1:Generated_Source\PSoC5/SPIS.c **** /*******************************************************************************
   2:Generated_Source\PSoC5/SPIS.c **** * File Name: SPIS.c
   3:Generated_Source\PSoC5/SPIS.c **** * Version 2.70
   4:Generated_Source\PSoC5/SPIS.c **** *
   5:Generated_Source\PSoC5/SPIS.c **** * Description:
   6:Generated_Source\PSoC5/SPIS.c **** *  This file provides all API functionality of the SPI Slave component.
   7:Generated_Source\PSoC5/SPIS.c **** *
   8:Generated_Source\PSoC5/SPIS.c **** * Note:
   9:Generated_Source\PSoC5/SPIS.c **** *  None.
  10:Generated_Source\PSoC5/SPIS.c **** *
  11:Generated_Source\PSoC5/SPIS.c **** ********************************************************************************
  12:Generated_Source\PSoC5/SPIS.c **** * Copyright 2008-2015, Cypress Semiconductor Corporation.  All rights reserved.
  13:Generated_Source\PSoC5/SPIS.c **** * You may use this file only in accordance with the license, terms, conditions,
  14:Generated_Source\PSoC5/SPIS.c **** * disclaimers, and limitations in the end user license agreement accompanying
  15:Generated_Source\PSoC5/SPIS.c **** * the software package with which this file was provided.
  16:Generated_Source\PSoC5/SPIS.c **** *******************************************************************************/
  17:Generated_Source\PSoC5/SPIS.c **** 
  18:Generated_Source\PSoC5/SPIS.c **** #include "SPIS_PVT.h"
  19:Generated_Source\PSoC5/SPIS.c **** 
  20:Generated_Source\PSoC5/SPIS.c **** #if (SPIS_TX_SOFTWARE_BUF_ENABLED)
  21:Generated_Source\PSoC5/SPIS.c **** 
  22:Generated_Source\PSoC5/SPIS.c ****     volatile uint16 SPIS_txBuffer[SPIS_TX_BUFFER_SIZE];
  23:Generated_Source\PSoC5/SPIS.c ****     volatile uint8 SPIS_txBufferRead;
  24:Generated_Source\PSoC5/SPIS.c ****     volatile uint8 SPIS_txBufferWrite;
  25:Generated_Source\PSoC5/SPIS.c ****     volatile uint8 SPIS_txBufferFull;
  26:Generated_Source\PSoC5/SPIS.c **** 
  27:Generated_Source\PSoC5/SPIS.c **** #endif /* SPIS_TX_SOFTWARE_BUF_ENABLED*/
  28:Generated_Source\PSoC5/SPIS.c **** 
  29:Generated_Source\PSoC5/SPIS.c **** #if (SPIS_RX_SOFTWARE_BUF_ENABLED)
  30:Generated_Source\PSoC5/SPIS.c **** 
ARM GAS  C:\Users\HARLOW~1\AppData\Local\Temp\cccXBsIm.s 			page 2


  31:Generated_Source\PSoC5/SPIS.c ****     volatile uint16 SPIS_rxBuffer[SPIS_RX_BUFFER_SIZE];
  32:Generated_Source\PSoC5/SPIS.c ****     volatile uint8 SPIS_rxBufferRead;
  33:Generated_Source\PSoC5/SPIS.c ****     volatile uint8 SPIS_rxBufferWrite;
  34:Generated_Source\PSoC5/SPIS.c ****     volatile uint8 SPIS_rxBufferFull;
  35:Generated_Source\PSoC5/SPIS.c **** 
  36:Generated_Source\PSoC5/SPIS.c **** #endif /* SPIS_RX_SOFTWARE_BUF_ENABLED */
  37:Generated_Source\PSoC5/SPIS.c **** 
  38:Generated_Source\PSoC5/SPIS.c **** uint8 SPIS_initVar = 0u;
  39:Generated_Source\PSoC5/SPIS.c **** 
  40:Generated_Source\PSoC5/SPIS.c **** volatile uint8 SPIS_swStatusTx;
  41:Generated_Source\PSoC5/SPIS.c **** volatile uint8 SPIS_swStatusRx;
  42:Generated_Source\PSoC5/SPIS.c **** 
  43:Generated_Source\PSoC5/SPIS.c **** 
  44:Generated_Source\PSoC5/SPIS.c **** /*******************************************************************************
  45:Generated_Source\PSoC5/SPIS.c **** * Function Name: SPIS_Init
  46:Generated_Source\PSoC5/SPIS.c **** ********************************************************************************
  47:Generated_Source\PSoC5/SPIS.c **** *
  48:Generated_Source\PSoC5/SPIS.c **** * Summary:
  49:Generated_Source\PSoC5/SPIS.c **** *  Inits/Restores default SPIS configuration provided with customizer.
  50:Generated_Source\PSoC5/SPIS.c **** *
  51:Generated_Source\PSoC5/SPIS.c **** * Parameters:
  52:Generated_Source\PSoC5/SPIS.c **** *  None.
  53:Generated_Source\PSoC5/SPIS.c **** *
  54:Generated_Source\PSoC5/SPIS.c **** * Return:
  55:Generated_Source\PSoC5/SPIS.c **** *  None.
  56:Generated_Source\PSoC5/SPIS.c **** *
  57:Generated_Source\PSoC5/SPIS.c **** * Side Effects:
  58:Generated_Source\PSoC5/SPIS.c **** *  When this function is called it initializes all of the necessary parameters
  59:Generated_Source\PSoC5/SPIS.c **** *  for execution. i.e. setting the initial interrupt mask, configuring the
  60:Generated_Source\PSoC5/SPIS.c **** *  interrupt service routine, configuring the bit-counter parameters and
  61:Generated_Source\PSoC5/SPIS.c **** *  clearing the FIFO and Status Register.
  62:Generated_Source\PSoC5/SPIS.c **** *
  63:Generated_Source\PSoC5/SPIS.c **** * Reentrant:
  64:Generated_Source\PSoC5/SPIS.c **** *  No.
  65:Generated_Source\PSoC5/SPIS.c **** *
  66:Generated_Source\PSoC5/SPIS.c **** *******************************************************************************/
  67:Generated_Source\PSoC5/SPIS.c **** void SPIS_Init(void) 
  68:Generated_Source\PSoC5/SPIS.c **** {
  69:Generated_Source\PSoC5/SPIS.c ****     /*Initialize the Bit counter */
  70:Generated_Source\PSoC5/SPIS.c ****     SPIS_COUNTER_PERIOD_REG = SPIS_BITCTR_INIT;
  71:Generated_Source\PSoC5/SPIS.c **** 
  72:Generated_Source\PSoC5/SPIS.c ****     /* ISR initialization */
  73:Generated_Source\PSoC5/SPIS.c ****     #if(SPIS_INTERNAL_TX_INT_ENABLED)
  74:Generated_Source\PSoC5/SPIS.c **** 
  75:Generated_Source\PSoC5/SPIS.c ****         CyIntDisable(SPIS_TX_ISR_NUMBER);
  76:Generated_Source\PSoC5/SPIS.c **** 
  77:Generated_Source\PSoC5/SPIS.c ****         /* Set the ISR to point to the SPIS_isr Interrupt. */
  78:Generated_Source\PSoC5/SPIS.c ****         (void)CyIntSetVector(SPIS_TX_ISR_NUMBER, &SPIS_TX_ISR);
  79:Generated_Source\PSoC5/SPIS.c **** 
  80:Generated_Source\PSoC5/SPIS.c ****         /* Set the priority. */
  81:Generated_Source\PSoC5/SPIS.c ****         CyIntSetPriority(SPIS_TX_ISR_NUMBER, SPIS_TX_ISR_PRIORITY);
  82:Generated_Source\PSoC5/SPIS.c **** 
  83:Generated_Source\PSoC5/SPIS.c ****     #endif /* SPIS_INTERNAL_TX_INT_ENABLED */
  84:Generated_Source\PSoC5/SPIS.c **** 
  85:Generated_Source\PSoC5/SPIS.c ****     #if(SPIS_INTERNAL_RX_INT_ENABLED)
  86:Generated_Source\PSoC5/SPIS.c **** 
  87:Generated_Source\PSoC5/SPIS.c ****         CyIntDisable(SPIS_RX_ISR_NUMBER);
ARM GAS  C:\Users\HARLOW~1\AppData\Local\Temp\cccXBsIm.s 			page 3


  88:Generated_Source\PSoC5/SPIS.c **** 
  89:Generated_Source\PSoC5/SPIS.c ****         /* Set the ISR to point to the SPIS_isr Interrupt. */
  90:Generated_Source\PSoC5/SPIS.c ****         (void)CyIntSetVector(SPIS_RX_ISR_NUMBER, &SPIS_RX_ISR);
  91:Generated_Source\PSoC5/SPIS.c **** 
  92:Generated_Source\PSoC5/SPIS.c ****         /* Set the priority. */
  93:Generated_Source\PSoC5/SPIS.c ****         CyIntSetPriority(SPIS_RX_ISR_NUMBER, SPIS_RX_ISR_PRIORITY);
  94:Generated_Source\PSoC5/SPIS.c **** 
  95:Generated_Source\PSoC5/SPIS.c ****     #endif /* SPIS_INTERNAL_RX_INT_ENABLED */
  96:Generated_Source\PSoC5/SPIS.c **** 
  97:Generated_Source\PSoC5/SPIS.c ****     /* Clear any stray data from the RX and TX FIFO */
  98:Generated_Source\PSoC5/SPIS.c ****     SPIS_ClearFIFO();
  99:Generated_Source\PSoC5/SPIS.c **** 
 100:Generated_Source\PSoC5/SPIS.c ****     #if(SPIS_RX_SOFTWARE_BUF_ENABLED)
 101:Generated_Source\PSoC5/SPIS.c ****         SPIS_rxBufferFull = 0u;
 102:Generated_Source\PSoC5/SPIS.c ****         SPIS_rxBufferRead = 0u;
 103:Generated_Source\PSoC5/SPIS.c ****         SPIS_rxBufferWrite = 0u;
 104:Generated_Source\PSoC5/SPIS.c ****     #endif /* SPIS_RX_SOFTWARE_BUF_ENABLED */
 105:Generated_Source\PSoC5/SPIS.c **** 
 106:Generated_Source\PSoC5/SPIS.c ****     #if(SPIS_TX_SOFTWARE_BUF_ENABLED)
 107:Generated_Source\PSoC5/SPIS.c ****         SPIS_txBufferFull = 0u;
 108:Generated_Source\PSoC5/SPIS.c ****         SPIS_txBufferRead = 0u;
 109:Generated_Source\PSoC5/SPIS.c ****         SPIS_txBufferWrite = 0u;
 110:Generated_Source\PSoC5/SPIS.c ****     #endif /* SPIS_TX_SOFTWARE_BUF_ENABLED */
 111:Generated_Source\PSoC5/SPIS.c **** 
 112:Generated_Source\PSoC5/SPIS.c ****     (void) SPIS_ReadTxStatus(); /* Clear any pending status bits */
 113:Generated_Source\PSoC5/SPIS.c ****     (void) SPIS_ReadRxStatus(); /* Clear any pending status bits */
 114:Generated_Source\PSoC5/SPIS.c **** 
 115:Generated_Source\PSoC5/SPIS.c **** 
 116:Generated_Source\PSoC5/SPIS.c ****     /* Configure the Initial interrupt mask */
 117:Generated_Source\PSoC5/SPIS.c ****     #if (SPIS_TX_SOFTWARE_BUF_ENABLED)
 118:Generated_Source\PSoC5/SPIS.c ****         SPIS_TX_STATUS_MASK_REG  = (SPIS_TX_INIT_INTERRUPTS_MASK &
 119:Generated_Source\PSoC5/SPIS.c ****                                                 (uint8)~SPIS_STS_TX_FIFO_NOT_FULL);
 120:Generated_Source\PSoC5/SPIS.c ****     #else /* SPIS_TX_SOFTWARE_BUF_ENABLED */
 121:Generated_Source\PSoC5/SPIS.c ****         SPIS_TX_STATUS_MASK_REG  = SPIS_TX_INIT_INTERRUPTS_MASK;
 122:Generated_Source\PSoC5/SPIS.c ****     #endif /* SPIS_TX_SOFTWARE_BUF_ENABLED */
 123:Generated_Source\PSoC5/SPIS.c **** 
 124:Generated_Source\PSoC5/SPIS.c ****     SPIS_RX_STATUS_MASK_REG  = SPIS_RX_INIT_INTERRUPTS_MASK;
 125:Generated_Source\PSoC5/SPIS.c **** }
 126:Generated_Source\PSoC5/SPIS.c **** 
 127:Generated_Source\PSoC5/SPIS.c **** 
 128:Generated_Source\PSoC5/SPIS.c **** /*******************************************************************************
 129:Generated_Source\PSoC5/SPIS.c **** * Function Name: SPIS_Enable
 130:Generated_Source\PSoC5/SPIS.c **** ********************************************************************************
 131:Generated_Source\PSoC5/SPIS.c **** *
 132:Generated_Source\PSoC5/SPIS.c **** * Summary:
 133:Generated_Source\PSoC5/SPIS.c **** *  Enable SPIS component.
 134:Generated_Source\PSoC5/SPIS.c **** *
 135:Generated_Source\PSoC5/SPIS.c **** * Parameters:
 136:Generated_Source\PSoC5/SPIS.c **** *  None.
 137:Generated_Source\PSoC5/SPIS.c **** *
 138:Generated_Source\PSoC5/SPIS.c **** * Return:
 139:Generated_Source\PSoC5/SPIS.c **** *  None.
 140:Generated_Source\PSoC5/SPIS.c **** *
 141:Generated_Source\PSoC5/SPIS.c **** *******************************************************************************/
 142:Generated_Source\PSoC5/SPIS.c **** void SPIS_Enable(void) 
 143:Generated_Source\PSoC5/SPIS.c **** {
  28              		.loc 1 143 0
ARM GAS  C:\Users\HARLOW~1\AppData\Local\Temp\cccXBsIm.s 			page 4


  29              		.cfi_startproc
  30              		@ args = 0, pretend = 0, frame = 0
  31              		@ frame_needed = 0, uses_anonymous_args = 0
  32 0000 08B5     		push	{r3, lr}
  33              		.cfi_def_cfa_offset 8
  34              		.cfi_offset 3, -8
  35              		.cfi_offset 14, -4
 144:Generated_Source\PSoC5/SPIS.c ****     uint8 enableInterrupts;
 145:Generated_Source\PSoC5/SPIS.c ****     enableInterrupts = CyEnterCriticalSection();
  36              		.loc 1 145 0
  37 0002 FFF7FEFF 		bl	CyEnterCriticalSection
  38              	.LVL0:
 146:Generated_Source\PSoC5/SPIS.c **** 
 147:Generated_Source\PSoC5/SPIS.c ****     SPIS_COUNTER_CONTROL_REG |= SPIS_CNTR_ENABLE;
  39              		.loc 1 147 0
  40 0006 0A4A     		ldr	r2, .L2
  41 0008 1378     		ldrb	r3, [r2]	@ zero_extendqisi2
  42 000a 43F02003 		orr	r3, r3, #32
  43 000e 1370     		strb	r3, [r2]
 148:Generated_Source\PSoC5/SPIS.c ****     SPIS_TX_STATUS_ACTL_REG |= SPIS_INT_ENABLE;
  44              		.loc 1 148 0
  45 0010 12F8043C 		ldrb	r3, [r2, #-4]	@ zero_extendqisi2
  46 0014 43F01003 		orr	r3, r3, #16
  47 0018 02F8043C 		strb	r3, [r2, #-4]
 149:Generated_Source\PSoC5/SPIS.c ****     SPIS_RX_STATUS_ACTL_REG |= SPIS_INT_ENABLE;
  48              		.loc 1 149 0
  49 001c 92F8FF30 		ldrb	r3, [r2, #255]	@ zero_extendqisi2
  50 0020 43F01003 		orr	r3, r3, #16
  51 0024 82F8FF30 		strb	r3, [r2, #255]
 150:Generated_Source\PSoC5/SPIS.c **** 
 151:Generated_Source\PSoC5/SPIS.c ****     CyExitCriticalSection(enableInterrupts);
 152:Generated_Source\PSoC5/SPIS.c **** 
 153:Generated_Source\PSoC5/SPIS.c ****     #if(SPIS_INTERNAL_TX_INT_ENABLED)
 154:Generated_Source\PSoC5/SPIS.c ****         CyIntEnable(SPIS_TX_ISR_NUMBER);
 155:Generated_Source\PSoC5/SPIS.c ****     #endif /* SPIS_INTERNAL_TX_INT_ENABLED */
 156:Generated_Source\PSoC5/SPIS.c **** 
 157:Generated_Source\PSoC5/SPIS.c ****     #if(SPIS_INTERNAL_RX_INT_ENABLED)
 158:Generated_Source\PSoC5/SPIS.c ****         CyIntEnable(SPIS_RX_ISR_NUMBER);
 159:Generated_Source\PSoC5/SPIS.c ****     #endif /* SPIS_INTERNAL_RX_INT_ENABLED */
 160:Generated_Source\PSoC5/SPIS.c **** }
  52              		.loc 1 160 0
  53 0028 BDE80840 		pop	{r3, lr}
  54              		.cfi_restore 14
  55              		.cfi_restore 3
  56              		.cfi_def_cfa_offset 0
 151:Generated_Source\PSoC5/SPIS.c **** 
  57              		.loc 1 151 0
  58 002c FFF7FEBF 		b	CyExitCriticalSection
  59              	.LVL1:
  60              	.L3:
  61              		.align	2
  62              	.L2:
  63 0030 9A640040 		.word	1073767578
  64              		.cfi_endproc
  65              	.LFE1:
  66              		.size	SPIS_Enable, .-SPIS_Enable
  67              		.section	.text.SPIS_Stop,"ax",%progbits
ARM GAS  C:\Users\HARLOW~1\AppData\Local\Temp\cccXBsIm.s 			page 5


  68              		.align	1
  69              		.global	SPIS_Stop
  70              		.thumb
  71              		.thumb_func
  72              		.type	SPIS_Stop, %function
  73              	SPIS_Stop:
  74              	.LFB3:
 161:Generated_Source\PSoC5/SPIS.c **** 
 162:Generated_Source\PSoC5/SPIS.c **** 
 163:Generated_Source\PSoC5/SPIS.c **** /*******************************************************************************
 164:Generated_Source\PSoC5/SPIS.c **** * Function Name: SPIS_Start
 165:Generated_Source\PSoC5/SPIS.c **** ********************************************************************************
 166:Generated_Source\PSoC5/SPIS.c **** *
 167:Generated_Source\PSoC5/SPIS.c **** * Summary:
 168:Generated_Source\PSoC5/SPIS.c **** *  Initialize and Enable the SPI Slave component.
 169:Generated_Source\PSoC5/SPIS.c **** *
 170:Generated_Source\PSoC5/SPIS.c **** * Parameters:
 171:Generated_Source\PSoC5/SPIS.c **** *  None.
 172:Generated_Source\PSoC5/SPIS.c **** *
 173:Generated_Source\PSoC5/SPIS.c **** * Return:
 174:Generated_Source\PSoC5/SPIS.c **** *  None.
 175:Generated_Source\PSoC5/SPIS.c **** *
 176:Generated_Source\PSoC5/SPIS.c **** * Global variables:
 177:Generated_Source\PSoC5/SPIS.c **** *  SPIS_initVar - used to check initial configuration, modified on
 178:Generated_Source\PSoC5/SPIS.c **** *  first function call.
 179:Generated_Source\PSoC5/SPIS.c **** *
 180:Generated_Source\PSoC5/SPIS.c **** * Theory:
 181:Generated_Source\PSoC5/SPIS.c **** *  Enable the clock input to enable operation.
 182:Generated_Source\PSoC5/SPIS.c **** *
 183:Generated_Source\PSoC5/SPIS.c **** * Reentrant:
 184:Generated_Source\PSoC5/SPIS.c **** *  No.
 185:Generated_Source\PSoC5/SPIS.c **** *
 186:Generated_Source\PSoC5/SPIS.c **** *******************************************************************************/
 187:Generated_Source\PSoC5/SPIS.c **** void SPIS_Start(void) 
 188:Generated_Source\PSoC5/SPIS.c **** {
 189:Generated_Source\PSoC5/SPIS.c ****     if(SPIS_initVar == 0u)
 190:Generated_Source\PSoC5/SPIS.c ****     {
 191:Generated_Source\PSoC5/SPIS.c ****         SPIS_Init();
 192:Generated_Source\PSoC5/SPIS.c ****         SPIS_initVar = 1u;
 193:Generated_Source\PSoC5/SPIS.c ****     }
 194:Generated_Source\PSoC5/SPIS.c **** 
 195:Generated_Source\PSoC5/SPIS.c ****     SPIS_Enable();
 196:Generated_Source\PSoC5/SPIS.c **** }
 197:Generated_Source\PSoC5/SPIS.c **** 
 198:Generated_Source\PSoC5/SPIS.c **** 
 199:Generated_Source\PSoC5/SPIS.c **** /*******************************************************************************
 200:Generated_Source\PSoC5/SPIS.c **** * Function Name: SPIS_Stop
 201:Generated_Source\PSoC5/SPIS.c **** ********************************************************************************
 202:Generated_Source\PSoC5/SPIS.c **** *
 203:Generated_Source\PSoC5/SPIS.c **** * Summary:
 204:Generated_Source\PSoC5/SPIS.c **** *  Disable the SPI Slave component.
 205:Generated_Source\PSoC5/SPIS.c **** *
 206:Generated_Source\PSoC5/SPIS.c **** * Parameters:
 207:Generated_Source\PSoC5/SPIS.c **** *  None.
 208:Generated_Source\PSoC5/SPIS.c **** *
 209:Generated_Source\PSoC5/SPIS.c **** * Return:
 210:Generated_Source\PSoC5/SPIS.c **** *  None.
ARM GAS  C:\Users\HARLOW~1\AppData\Local\Temp\cccXBsIm.s 			page 6


 211:Generated_Source\PSoC5/SPIS.c **** *
 212:Generated_Source\PSoC5/SPIS.c **** * Theory:
 213:Generated_Source\PSoC5/SPIS.c **** *  Disable the internal interrupt if one is used.
 214:Generated_Source\PSoC5/SPIS.c **** *
 215:Generated_Source\PSoC5/SPIS.c **** *******************************************************************************/
 216:Generated_Source\PSoC5/SPIS.c **** void SPIS_Stop(void) 
 217:Generated_Source\PSoC5/SPIS.c **** {
  75              		.loc 1 217 0
  76              		.cfi_startproc
  77              		@ args = 0, pretend = 0, frame = 0
  78              		@ frame_needed = 0, uses_anonymous_args = 0
  79 0000 08B5     		push	{r3, lr}
  80              		.cfi_def_cfa_offset 8
  81              		.cfi_offset 3, -8
  82              		.cfi_offset 14, -4
 218:Generated_Source\PSoC5/SPIS.c ****     uint8 enableInterrupts;
 219:Generated_Source\PSoC5/SPIS.c ****     enableInterrupts = CyEnterCriticalSection();
  83              		.loc 1 219 0
  84 0002 FFF7FEFF 		bl	CyEnterCriticalSection
  85              	.LVL2:
 220:Generated_Source\PSoC5/SPIS.c **** 
 221:Generated_Source\PSoC5/SPIS.c ****     SPIS_TX_STATUS_ACTL_REG &= (uint8)~SPIS_INT_ENABLE;
  86              		.loc 1 221 0
  87 0006 074A     		ldr	r2, .L5
  88 0008 1378     		ldrb	r3, [r2]	@ zero_extendqisi2
  89 000a 03F0EF03 		and	r3, r3, #239
  90 000e 1370     		strb	r3, [r2]
 222:Generated_Source\PSoC5/SPIS.c ****     SPIS_RX_STATUS_ACTL_REG &= (uint8)~SPIS_INT_ENABLE;
  91              		.loc 1 222 0
  92 0010 92F80331 		ldrb	r3, [r2, #259]	@ zero_extendqisi2
  93 0014 03F0EF03 		and	r3, r3, #239
  94 0018 82F80331 		strb	r3, [r2, #259]
 223:Generated_Source\PSoC5/SPIS.c **** 
 224:Generated_Source\PSoC5/SPIS.c ****     CyExitCriticalSection(enableInterrupts);
 225:Generated_Source\PSoC5/SPIS.c **** 
 226:Generated_Source\PSoC5/SPIS.c ****     #if(SPIS_INTERNAL_TX_INT_ENABLED)
 227:Generated_Source\PSoC5/SPIS.c ****         CyIntDisable(SPIS_TX_ISR_NUMBER);
 228:Generated_Source\PSoC5/SPIS.c ****     #endif /* SPIS_INTERNAL_TX_INT_ENABLED */
 229:Generated_Source\PSoC5/SPIS.c **** 
 230:Generated_Source\PSoC5/SPIS.c ****     #if(SPIS_INTERNAL_RX_INT_ENABLED)
 231:Generated_Source\PSoC5/SPIS.c ****         CyIntDisable(SPIS_RX_ISR_NUMBER);
 232:Generated_Source\PSoC5/SPIS.c ****     #endif /* SPIS_INTERNAL_RX_INT_ENABLED */
 233:Generated_Source\PSoC5/SPIS.c **** }
  95              		.loc 1 233 0
  96 001c BDE80840 		pop	{r3, lr}
  97              		.cfi_restore 14
  98              		.cfi_restore 3
  99              		.cfi_def_cfa_offset 0
 224:Generated_Source\PSoC5/SPIS.c **** 
 100              		.loc 1 224 0
 101 0020 FFF7FEBF 		b	CyExitCriticalSection
 102              	.LVL3:
 103              	.L6:
 104              		.align	2
 105              	.L5:
 106 0024 96640040 		.word	1073767574
 107              		.cfi_endproc
ARM GAS  C:\Users\HARLOW~1\AppData\Local\Temp\cccXBsIm.s 			page 7


 108              	.LFE3:
 109              		.size	SPIS_Stop, .-SPIS_Stop
 110              		.section	.text.SPIS_EnableTxInt,"ax",%progbits
 111              		.align	1
 112              		.global	SPIS_EnableTxInt
 113              		.thumb
 114              		.thumb_func
 115              		.type	SPIS_EnableTxInt, %function
 116              	SPIS_EnableTxInt:
 117              	.LFB34:
 118              		.cfi_startproc
 119              		@ args = 0, pretend = 0, frame = 0
 120              		@ frame_needed = 0, uses_anonymous_args = 0
 121              		@ link register save eliminated.
 122 0000 7047     		bx	lr
 123              		.cfi_endproc
 124              	.LFE34:
 125              		.size	SPIS_EnableTxInt, .-SPIS_EnableTxInt
 126              		.section	.text.SPIS_EnableRxInt,"ax",%progbits
 127              		.align	1
 128              		.global	SPIS_EnableRxInt
 129              		.thumb
 130              		.thumb_func
 131              		.type	SPIS_EnableRxInt, %function
 132              	SPIS_EnableRxInt:
 133              	.LFB32:
 134              		.cfi_startproc
 135              		@ args = 0, pretend = 0, frame = 0
 136              		@ frame_needed = 0, uses_anonymous_args = 0
 137              		@ link register save eliminated.
 138 0000 7047     		bx	lr
 139              		.cfi_endproc
 140              	.LFE32:
 141              		.size	SPIS_EnableRxInt, .-SPIS_EnableRxInt
 142              		.section	.text.SPIS_DisableTxInt,"ax",%progbits
 143              		.align	1
 144              		.global	SPIS_DisableTxInt
 145              		.thumb
 146              		.thumb_func
 147              		.type	SPIS_DisableTxInt, %function
 148              	SPIS_DisableTxInt:
 149              	.LFB30:
 150              		.cfi_startproc
 151              		@ args = 0, pretend = 0, frame = 0
 152              		@ frame_needed = 0, uses_anonymous_args = 0
 153              		@ link register save eliminated.
 154 0000 7047     		bx	lr
 155              		.cfi_endproc
 156              	.LFE30:
 157              		.size	SPIS_DisableTxInt, .-SPIS_DisableTxInt
 158              		.section	.text.SPIS_DisableRxInt,"ax",%progbits
 159              		.align	1
 160              		.global	SPIS_DisableRxInt
 161              		.thumb
 162              		.thumb_func
 163              		.type	SPIS_DisableRxInt, %function
 164              	SPIS_DisableRxInt:
ARM GAS  C:\Users\HARLOW~1\AppData\Local\Temp\cccXBsIm.s 			page 8


 165              	.LFB28:
 166              		.cfi_startproc
 167              		@ args = 0, pretend = 0, frame = 0
 168              		@ frame_needed = 0, uses_anonymous_args = 0
 169              		@ link register save eliminated.
 170 0000 7047     		bx	lr
 171              		.cfi_endproc
 172              	.LFE28:
 173              		.size	SPIS_DisableRxInt, .-SPIS_DisableRxInt
 174              		.section	.text.SPIS_SetTxInterruptMode,"ax",%progbits
 175              		.align	1
 176              		.global	SPIS_SetTxInterruptMode
 177              		.thumb
 178              		.thumb_func
 179              		.type	SPIS_SetTxInterruptMode, %function
 180              	SPIS_SetTxInterruptMode:
 181              	.LFB8:
 234:Generated_Source\PSoC5/SPIS.c **** 
 235:Generated_Source\PSoC5/SPIS.c **** 
 236:Generated_Source\PSoC5/SPIS.c **** /*******************************************************************************
 237:Generated_Source\PSoC5/SPIS.c **** * Function Name: SPIS_EnableTxInt
 238:Generated_Source\PSoC5/SPIS.c **** ********************************************************************************
 239:Generated_Source\PSoC5/SPIS.c **** *
 240:Generated_Source\PSoC5/SPIS.c **** * Summary:
 241:Generated_Source\PSoC5/SPIS.c **** *  Enable internal Tx interrupt generation.
 242:Generated_Source\PSoC5/SPIS.c **** *
 243:Generated_Source\PSoC5/SPIS.c **** * Parameters:
 244:Generated_Source\PSoC5/SPIS.c **** *  None.
 245:Generated_Source\PSoC5/SPIS.c **** *
 246:Generated_Source\PSoC5/SPIS.c **** * Return:
 247:Generated_Source\PSoC5/SPIS.c **** *  None.
 248:Generated_Source\PSoC5/SPIS.c **** *
 249:Generated_Source\PSoC5/SPIS.c **** * Theory:
 250:Generated_Source\PSoC5/SPIS.c **** *  Enable the internal Tx interrupt output -or- the interrupt component itself.
 251:Generated_Source\PSoC5/SPIS.c **** *
 252:Generated_Source\PSoC5/SPIS.c **** *******************************************************************************/
 253:Generated_Source\PSoC5/SPIS.c **** void SPIS_EnableTxInt(void) 
 254:Generated_Source\PSoC5/SPIS.c **** {
 255:Generated_Source\PSoC5/SPIS.c ****     #if(SPIS_INTERNAL_TX_INT_ENABLED)
 256:Generated_Source\PSoC5/SPIS.c ****         CyIntEnable(SPIS_TX_ISR_NUMBER);
 257:Generated_Source\PSoC5/SPIS.c ****     #endif /* SPIS_INTERNAL_TX_INT_ENABLED */
 258:Generated_Source\PSoC5/SPIS.c **** }
 259:Generated_Source\PSoC5/SPIS.c **** 
 260:Generated_Source\PSoC5/SPIS.c **** 
 261:Generated_Source\PSoC5/SPIS.c **** /*******************************************************************************
 262:Generated_Source\PSoC5/SPIS.c **** * Function Name: SPIS_EnableRxInt
 263:Generated_Source\PSoC5/SPIS.c **** ********************************************************************************
 264:Generated_Source\PSoC5/SPIS.c **** *
 265:Generated_Source\PSoC5/SPIS.c **** * Summary:
 266:Generated_Source\PSoC5/SPIS.c **** *  Enable internal Rx interrupt generation.
 267:Generated_Source\PSoC5/SPIS.c **** *
 268:Generated_Source\PSoC5/SPIS.c **** * Parameters:
 269:Generated_Source\PSoC5/SPIS.c **** *  None.
 270:Generated_Source\PSoC5/SPIS.c **** *
 271:Generated_Source\PSoC5/SPIS.c **** * Return:
 272:Generated_Source\PSoC5/SPIS.c **** *  None.
 273:Generated_Source\PSoC5/SPIS.c **** *
ARM GAS  C:\Users\HARLOW~1\AppData\Local\Temp\cccXBsIm.s 			page 9


 274:Generated_Source\PSoC5/SPIS.c **** * Theory:
 275:Generated_Source\PSoC5/SPIS.c **** *  Enable the internal Rx interrupt output -or- the interrupt component itself.
 276:Generated_Source\PSoC5/SPIS.c **** *
 277:Generated_Source\PSoC5/SPIS.c **** *******************************************************************************/
 278:Generated_Source\PSoC5/SPIS.c **** void SPIS_EnableRxInt(void) 
 279:Generated_Source\PSoC5/SPIS.c **** {
 280:Generated_Source\PSoC5/SPIS.c ****     #if(SPIS_INTERNAL_RX_INT_ENABLED)
 281:Generated_Source\PSoC5/SPIS.c ****         CyIntEnable(SPIS_RX_ISR_NUMBER);
 282:Generated_Source\PSoC5/SPIS.c ****     #endif /* SPIS_INTERNAL_RX_INT_ENABLED */
 283:Generated_Source\PSoC5/SPIS.c **** }
 284:Generated_Source\PSoC5/SPIS.c **** 
 285:Generated_Source\PSoC5/SPIS.c **** 
 286:Generated_Source\PSoC5/SPIS.c **** /*******************************************************************************
 287:Generated_Source\PSoC5/SPIS.c **** * Function Name: SPIS_DisableTxInt
 288:Generated_Source\PSoC5/SPIS.c **** ********************************************************************************
 289:Generated_Source\PSoC5/SPIS.c **** *
 290:Generated_Source\PSoC5/SPIS.c **** * Summary:
 291:Generated_Source\PSoC5/SPIS.c **** *  Disable internal Tx interrupt generation.
 292:Generated_Source\PSoC5/SPIS.c **** *
 293:Generated_Source\PSoC5/SPIS.c **** * Parameters:
 294:Generated_Source\PSoC5/SPIS.c **** *  None.
 295:Generated_Source\PSoC5/SPIS.c **** *
 296:Generated_Source\PSoC5/SPIS.c **** * Return:
 297:Generated_Source\PSoC5/SPIS.c **** *  None.
 298:Generated_Source\PSoC5/SPIS.c **** *
 299:Generated_Source\PSoC5/SPIS.c **** * Theory:
 300:Generated_Source\PSoC5/SPIS.c **** *  Disable the internal Tx interrupt output -or- the interrupt component itself.
 301:Generated_Source\PSoC5/SPIS.c **** *
 302:Generated_Source\PSoC5/SPIS.c **** *******************************************************************************/
 303:Generated_Source\PSoC5/SPIS.c **** void SPIS_DisableTxInt(void) 
 304:Generated_Source\PSoC5/SPIS.c **** {
 305:Generated_Source\PSoC5/SPIS.c ****     #if(SPIS_INTERNAL_TX_INT_ENABLED)
 306:Generated_Source\PSoC5/SPIS.c ****         CyIntDisable(SPIS_TX_ISR_NUMBER);
 307:Generated_Source\PSoC5/SPIS.c ****     #endif /* SPIS_INTERNAL_TX_INT_ENABLED */
 308:Generated_Source\PSoC5/SPIS.c **** }
 309:Generated_Source\PSoC5/SPIS.c **** 
 310:Generated_Source\PSoC5/SPIS.c **** 
 311:Generated_Source\PSoC5/SPIS.c **** /*******************************************************************************
 312:Generated_Source\PSoC5/SPIS.c **** * Function Name: SPIS_DisableRxInt
 313:Generated_Source\PSoC5/SPIS.c **** ********************************************************************************
 314:Generated_Source\PSoC5/SPIS.c **** *
 315:Generated_Source\PSoC5/SPIS.c **** * Summary:
 316:Generated_Source\PSoC5/SPIS.c **** *  Disable internal Rx interrupt generation.
 317:Generated_Source\PSoC5/SPIS.c **** *
 318:Generated_Source\PSoC5/SPIS.c **** * Parameters:
 319:Generated_Source\PSoC5/SPIS.c **** *  None.
 320:Generated_Source\PSoC5/SPIS.c **** *
 321:Generated_Source\PSoC5/SPIS.c **** * Return:
 322:Generated_Source\PSoC5/SPIS.c **** *  None.
 323:Generated_Source\PSoC5/SPIS.c **** *
 324:Generated_Source\PSoC5/SPIS.c **** * Theory:
 325:Generated_Source\PSoC5/SPIS.c **** *  Disable the internal Rx interrupt output -or- the interrupt component itself.
 326:Generated_Source\PSoC5/SPIS.c **** *
 327:Generated_Source\PSoC5/SPIS.c **** *******************************************************************************/
 328:Generated_Source\PSoC5/SPIS.c **** void SPIS_DisableRxInt(void) 
 329:Generated_Source\PSoC5/SPIS.c **** {
 330:Generated_Source\PSoC5/SPIS.c ****     #if(SPIS_INTERNAL_RX_INT_ENABLED)
ARM GAS  C:\Users\HARLOW~1\AppData\Local\Temp\cccXBsIm.s 			page 10


 331:Generated_Source\PSoC5/SPIS.c ****         CyIntDisable(SPIS_RX_ISR_NUMBER);
 332:Generated_Source\PSoC5/SPIS.c ****     #endif /* SPIS_INTERNAL_RX_INT_ENABLED */
 333:Generated_Source\PSoC5/SPIS.c **** }
 334:Generated_Source\PSoC5/SPIS.c **** 
 335:Generated_Source\PSoC5/SPIS.c **** 
 336:Generated_Source\PSoC5/SPIS.c **** /*******************************************************************************
 337:Generated_Source\PSoC5/SPIS.c **** * Function Name: SPIS_SetTxInterruptMode
 338:Generated_Source\PSoC5/SPIS.c **** ********************************************************************************
 339:Generated_Source\PSoC5/SPIS.c **** *
 340:Generated_Source\PSoC5/SPIS.c **** * Summary:
 341:Generated_Source\PSoC5/SPIS.c **** *  Configure which status bits trigger an interrupt event.
 342:Generated_Source\PSoC5/SPIS.c **** *
 343:Generated_Source\PSoC5/SPIS.c **** * Parameters:
 344:Generated_Source\PSoC5/SPIS.c **** *  intSrc: An or'd combination of the desired status bit masks (defined in the
 345:Generated_Source\PSoC5/SPIS.c **** *  header file).
 346:Generated_Source\PSoC5/SPIS.c **** *
 347:Generated_Source\PSoC5/SPIS.c **** * Return:
 348:Generated_Source\PSoC5/SPIS.c **** *  None.
 349:Generated_Source\PSoC5/SPIS.c **** *
 350:Generated_Source\PSoC5/SPIS.c **** * Theory:
 351:Generated_Source\PSoC5/SPIS.c **** *  Enables the output of specific status bits to the interrupt controller.
 352:Generated_Source\PSoC5/SPIS.c **** *
 353:Generated_Source\PSoC5/SPIS.c **** *******************************************************************************/
 354:Generated_Source\PSoC5/SPIS.c **** void SPIS_SetTxInterruptMode(uint8 intSrc) 
 355:Generated_Source\PSoC5/SPIS.c **** {
 182              		.loc 1 355 0
 183              		.cfi_startproc
 184              		@ args = 0, pretend = 0, frame = 0
 185              		@ frame_needed = 0, uses_anonymous_args = 0
 186              		@ link register save eliminated.
 187              	.LVL4:
 356:Generated_Source\PSoC5/SPIS.c ****     SPIS_TX_STATUS_MASK_REG  = intSrc;
 188              		.loc 1 356 0
 189 0000 014B     		ldr	r3, .L12
 190 0002 1870     		strb	r0, [r3]
 191 0004 7047     		bx	lr
 192              	.L13:
 193 0006 00BF     		.align	2
 194              	.L12:
 195 0008 86640040 		.word	1073767558
 196              		.cfi_endproc
 197              	.LFE8:
 198              		.size	SPIS_SetTxInterruptMode, .-SPIS_SetTxInterruptMode
 199              		.section	.text.SPIS_SetRxInterruptMode,"ax",%progbits
 200              		.align	1
 201              		.global	SPIS_SetRxInterruptMode
 202              		.thumb
 203              		.thumb_func
 204              		.type	SPIS_SetRxInterruptMode, %function
 205              	SPIS_SetRxInterruptMode:
 206              	.LFB9:
 357:Generated_Source\PSoC5/SPIS.c **** }
 358:Generated_Source\PSoC5/SPIS.c **** 
 359:Generated_Source\PSoC5/SPIS.c **** 
 360:Generated_Source\PSoC5/SPIS.c **** /*******************************************************************************
 361:Generated_Source\PSoC5/SPIS.c **** * Function Name: SPIS_SetRxInterruptMode
 362:Generated_Source\PSoC5/SPIS.c **** ********************************************************************************
ARM GAS  C:\Users\HARLOW~1\AppData\Local\Temp\cccXBsIm.s 			page 11


 363:Generated_Source\PSoC5/SPIS.c **** *
 364:Generated_Source\PSoC5/SPIS.c **** * Summary:
 365:Generated_Source\PSoC5/SPIS.c **** *  Configure which status bits trigger an interrupt event.
 366:Generated_Source\PSoC5/SPIS.c **** *
 367:Generated_Source\PSoC5/SPIS.c **** * Parameters:
 368:Generated_Source\PSoC5/SPIS.c **** *  intSrc: An or'd combination of the desired status bit masks (defined in the
 369:Generated_Source\PSoC5/SPIS.c **** *  header file).
 370:Generated_Source\PSoC5/SPIS.c **** *
 371:Generated_Source\PSoC5/SPIS.c **** * Return:
 372:Generated_Source\PSoC5/SPIS.c **** *  None.
 373:Generated_Source\PSoC5/SPIS.c **** *
 374:Generated_Source\PSoC5/SPIS.c **** * Theory:
 375:Generated_Source\PSoC5/SPIS.c **** *  Enables the output of specific status bits to the interrupt controller.
 376:Generated_Source\PSoC5/SPIS.c **** *
 377:Generated_Source\PSoC5/SPIS.c **** *******************************************************************************/
 378:Generated_Source\PSoC5/SPIS.c **** void SPIS_SetRxInterruptMode(uint8 intSrc) 
 379:Generated_Source\PSoC5/SPIS.c **** {
 207              		.loc 1 379 0
 208              		.cfi_startproc
 209              		@ args = 0, pretend = 0, frame = 0
 210              		@ frame_needed = 0, uses_anonymous_args = 0
 211              		@ link register save eliminated.
 212              	.LVL5:
 380:Generated_Source\PSoC5/SPIS.c ****     SPIS_RX_STATUS_MASK_REG  = intSrc;
 213              		.loc 1 380 0
 214 0000 014B     		ldr	r3, .L15
 215 0002 1870     		strb	r0, [r3]
 216 0004 7047     		bx	lr
 217              	.L16:
 218 0006 00BF     		.align	2
 219              	.L15:
 220 0008 89650040 		.word	1073767817
 221              		.cfi_endproc
 222              	.LFE9:
 223              		.size	SPIS_SetRxInterruptMode, .-SPIS_SetRxInterruptMode
 224              		.section	.text.SPIS_ReadTxStatus,"ax",%progbits
 225              		.align	1
 226              		.global	SPIS_ReadTxStatus
 227              		.thumb
 228              		.thumb_func
 229              		.type	SPIS_ReadTxStatus, %function
 230              	SPIS_ReadTxStatus:
 231              	.LFB10:
 381:Generated_Source\PSoC5/SPIS.c **** }
 382:Generated_Source\PSoC5/SPIS.c **** 
 383:Generated_Source\PSoC5/SPIS.c **** 
 384:Generated_Source\PSoC5/SPIS.c **** /*******************************************************************************
 385:Generated_Source\PSoC5/SPIS.c **** * Function Name: SPIS_ReadTxStatus
 386:Generated_Source\PSoC5/SPIS.c **** ********************************************************************************
 387:Generated_Source\PSoC5/SPIS.c **** *
 388:Generated_Source\PSoC5/SPIS.c **** * Summary:
 389:Generated_Source\PSoC5/SPIS.c **** *  Read the Tx status register for the component.
 390:Generated_Source\PSoC5/SPIS.c **** *
 391:Generated_Source\PSoC5/SPIS.c **** * Parameters:
 392:Generated_Source\PSoC5/SPIS.c **** *  None.
 393:Generated_Source\PSoC5/SPIS.c **** *
 394:Generated_Source\PSoC5/SPIS.c **** * Return:
ARM GAS  C:\Users\HARLOW~1\AppData\Local\Temp\cccXBsIm.s 			page 12


 395:Generated_Source\PSoC5/SPIS.c **** *  Contents of the Tx status register.
 396:Generated_Source\PSoC5/SPIS.c **** *
 397:Generated_Source\PSoC5/SPIS.c **** * Global variables:
 398:Generated_Source\PSoC5/SPIS.c **** *  SPIS_swStatusTx - used to store in software status register,
 399:Generated_Source\PSoC5/SPIS.c **** *  modified every function call - resets to zero.
 400:Generated_Source\PSoC5/SPIS.c **** *
 401:Generated_Source\PSoC5/SPIS.c **** * Theory:
 402:Generated_Source\PSoC5/SPIS.c **** *  Allows the user and the API to read the Tx status register for error
 403:Generated_Source\PSoC5/SPIS.c **** *  detection and flow control.
 404:Generated_Source\PSoC5/SPIS.c **** *
 405:Generated_Source\PSoC5/SPIS.c **** * Side Effects:
 406:Generated_Source\PSoC5/SPIS.c **** *  Clear Tx status register of the component.
 407:Generated_Source\PSoC5/SPIS.c **** *
 408:Generated_Source\PSoC5/SPIS.c **** * Reentrant:
 409:Generated_Source\PSoC5/SPIS.c **** *  No.
 410:Generated_Source\PSoC5/SPIS.c **** *
 411:Generated_Source\PSoC5/SPIS.c **** *******************************************************************************/
 412:Generated_Source\PSoC5/SPIS.c **** uint8 SPIS_ReadTxStatus(void) 
 413:Generated_Source\PSoC5/SPIS.c **** {
 232              		.loc 1 413 0
 233              		.cfi_startproc
 234              		@ args = 0, pretend = 0, frame = 0
 235              		@ frame_needed = 0, uses_anonymous_args = 0
 236              		@ link register save eliminated.
 414:Generated_Source\PSoC5/SPIS.c ****     uint8 tmpStatus;
 415:Generated_Source\PSoC5/SPIS.c **** 
 416:Generated_Source\PSoC5/SPIS.c ****     #if (SPIS_TX_SOFTWARE_BUF_ENABLED)
 417:Generated_Source\PSoC5/SPIS.c **** 
 418:Generated_Source\PSoC5/SPIS.c ****         SPIS_DisableTxInt();
 419:Generated_Source\PSoC5/SPIS.c **** 
 420:Generated_Source\PSoC5/SPIS.c ****         tmpStatus = SPIS_GET_STATUS_TX(SPIS_swStatusTx);
 421:Generated_Source\PSoC5/SPIS.c **** 
 422:Generated_Source\PSoC5/SPIS.c ****         SPIS_swStatusTx = 0u;
 423:Generated_Source\PSoC5/SPIS.c **** 
 424:Generated_Source\PSoC5/SPIS.c ****         /* Enable Interrupts */
 425:Generated_Source\PSoC5/SPIS.c ****         SPIS_EnableTxInt();
 426:Generated_Source\PSoC5/SPIS.c **** 
 427:Generated_Source\PSoC5/SPIS.c ****     #else /* !SPIS_TX_SOFTWARE_BUF_ENABLED */
 428:Generated_Source\PSoC5/SPIS.c **** 
 429:Generated_Source\PSoC5/SPIS.c ****         tmpStatus = SPIS_TX_STATUS_REG;
 237              		.loc 1 429 0
 238 0000 014B     		ldr	r3, .L18
 239 0002 1878     		ldrb	r0, [r3]	@ zero_extendqisi2
 240              	.LVL6:
 430:Generated_Source\PSoC5/SPIS.c **** 
 431:Generated_Source\PSoC5/SPIS.c ****     #endif /* SPIS_TX_SOFTWARE_BUF_ENABLED */
 432:Generated_Source\PSoC5/SPIS.c **** 
 433:Generated_Source\PSoC5/SPIS.c ****     return(tmpStatus);
 434:Generated_Source\PSoC5/SPIS.c **** }
 241              		.loc 1 434 0
 242 0004 7047     		bx	lr
 243              	.L19:
 244 0006 00BF     		.align	2
 245              	.L18:
 246 0008 66640040 		.word	1073767526
 247              		.cfi_endproc
 248              	.LFE10:
ARM GAS  C:\Users\HARLOW~1\AppData\Local\Temp\cccXBsIm.s 			page 13


 249              		.size	SPIS_ReadTxStatus, .-SPIS_ReadTxStatus
 250              		.section	.text.SPIS_ReadRxStatus,"ax",%progbits
 251              		.align	1
 252              		.global	SPIS_ReadRxStatus
 253              		.thumb
 254              		.thumb_func
 255              		.type	SPIS_ReadRxStatus, %function
 256              	SPIS_ReadRxStatus:
 257              	.LFB11:
 435:Generated_Source\PSoC5/SPIS.c **** 
 436:Generated_Source\PSoC5/SPIS.c **** 
 437:Generated_Source\PSoC5/SPIS.c **** /*******************************************************************************
 438:Generated_Source\PSoC5/SPIS.c **** * Function Name: SPIS_ReadRxStatus
 439:Generated_Source\PSoC5/SPIS.c **** ********************************************************************************
 440:Generated_Source\PSoC5/SPIS.c **** *
 441:Generated_Source\PSoC5/SPIS.c **** * Summary:
 442:Generated_Source\PSoC5/SPIS.c **** *  Read the Rx status register for the component.
 443:Generated_Source\PSoC5/SPIS.c **** *
 444:Generated_Source\PSoC5/SPIS.c **** * Parameters:
 445:Generated_Source\PSoC5/SPIS.c **** *  None.
 446:Generated_Source\PSoC5/SPIS.c **** *
 447:Generated_Source\PSoC5/SPIS.c **** * Return:
 448:Generated_Source\PSoC5/SPIS.c **** *  Contents of the Rx status register.
 449:Generated_Source\PSoC5/SPIS.c **** *
 450:Generated_Source\PSoC5/SPIS.c **** * Global variables:
 451:Generated_Source\PSoC5/SPIS.c **** *  SPIS_swStatusRx - used to store in software Rx status register,
 452:Generated_Source\PSoC5/SPIS.c **** *  modified every function call - resets to zero.
 453:Generated_Source\PSoC5/SPIS.c **** *
 454:Generated_Source\PSoC5/SPIS.c **** * Theory:
 455:Generated_Source\PSoC5/SPIS.c **** *  Allows the user and the API to read the Rx status register for error
 456:Generated_Source\PSoC5/SPIS.c **** *  detection and flow control.
 457:Generated_Source\PSoC5/SPIS.c **** *
 458:Generated_Source\PSoC5/SPIS.c **** * Side Effects:
 459:Generated_Source\PSoC5/SPIS.c **** *  Clear Rx status register of the component.
 460:Generated_Source\PSoC5/SPIS.c **** *
 461:Generated_Source\PSoC5/SPIS.c **** * Reentrant:
 462:Generated_Source\PSoC5/SPIS.c **** *  No.
 463:Generated_Source\PSoC5/SPIS.c **** *
 464:Generated_Source\PSoC5/SPIS.c **** *******************************************************************************/
 465:Generated_Source\PSoC5/SPIS.c **** uint8 SPIS_ReadRxStatus(void) 
 466:Generated_Source\PSoC5/SPIS.c **** {
 258              		.loc 1 466 0
 259              		.cfi_startproc
 260              		@ args = 0, pretend = 0, frame = 0
 261              		@ frame_needed = 0, uses_anonymous_args = 0
 262              		@ link register save eliminated.
 467:Generated_Source\PSoC5/SPIS.c ****     uint8 tmpStatus;
 468:Generated_Source\PSoC5/SPIS.c **** 
 469:Generated_Source\PSoC5/SPIS.c ****     #if (SPIS_RX_SOFTWARE_BUF_ENABLED)
 470:Generated_Source\PSoC5/SPIS.c **** 
 471:Generated_Source\PSoC5/SPIS.c ****         SPIS_DisableRxInt();
 472:Generated_Source\PSoC5/SPIS.c **** 
 473:Generated_Source\PSoC5/SPIS.c ****         tmpStatus = SPIS_GET_STATUS_RX(SPIS_swStatusRx);
 474:Generated_Source\PSoC5/SPIS.c **** 
 475:Generated_Source\PSoC5/SPIS.c ****         SPIS_swStatusRx = 0u;
 476:Generated_Source\PSoC5/SPIS.c **** 
 477:Generated_Source\PSoC5/SPIS.c ****         /* Enable Interrupts */
ARM GAS  C:\Users\HARLOW~1\AppData\Local\Temp\cccXBsIm.s 			page 14


 478:Generated_Source\PSoC5/SPIS.c ****         SPIS_EnableRxInt();
 479:Generated_Source\PSoC5/SPIS.c **** 
 480:Generated_Source\PSoC5/SPIS.c ****     #else /* !SPIS_RX_SOFTWARE_BUF_ENABLED */
 481:Generated_Source\PSoC5/SPIS.c **** 
 482:Generated_Source\PSoC5/SPIS.c ****         tmpStatus = SPIS_RX_STATUS_REG;
 263              		.loc 1 482 0
 264 0000 014B     		ldr	r3, .L21
 265 0002 1878     		ldrb	r0, [r3]	@ zero_extendqisi2
 266              	.LVL7:
 483:Generated_Source\PSoC5/SPIS.c **** 
 484:Generated_Source\PSoC5/SPIS.c ****     #endif /* SPIS_RX_SOFTWARE_BUF_ENABLED */
 485:Generated_Source\PSoC5/SPIS.c **** 
 486:Generated_Source\PSoC5/SPIS.c ****     return(tmpStatus);
 487:Generated_Source\PSoC5/SPIS.c **** }
 267              		.loc 1 487 0
 268 0004 7047     		bx	lr
 269              	.L22:
 270 0006 00BF     		.align	2
 271              	.L21:
 272 0008 69650040 		.word	1073767785
 273              		.cfi_endproc
 274              	.LFE11:
 275              		.size	SPIS_ReadRxStatus, .-SPIS_ReadRxStatus
 276              		.section	.text.SPIS_WriteTxData,"ax",%progbits
 277              		.align	1
 278              		.global	SPIS_WriteTxData
 279              		.thumb
 280              		.thumb_func
 281              		.type	SPIS_WriteTxData, %function
 282              	SPIS_WriteTxData:
 283              	.LFB12:
 488:Generated_Source\PSoC5/SPIS.c **** 
 489:Generated_Source\PSoC5/SPIS.c **** 
 490:Generated_Source\PSoC5/SPIS.c **** /*******************************************************************************
 491:Generated_Source\PSoC5/SPIS.c **** * Function Name: SPIS_WriteTxData
 492:Generated_Source\PSoC5/SPIS.c **** ********************************************************************************
 493:Generated_Source\PSoC5/SPIS.c **** *
 494:Generated_Source\PSoC5/SPIS.c **** * Summary:
 495:Generated_Source\PSoC5/SPIS.c **** *  Write a byte of data to be sent across the SPI.
 496:Generated_Source\PSoC5/SPIS.c **** *
 497:Generated_Source\PSoC5/SPIS.c **** * Parameters:
 498:Generated_Source\PSoC5/SPIS.c **** *  txDataByte: The data value to send across the SPI.
 499:Generated_Source\PSoC5/SPIS.c **** *
 500:Generated_Source\PSoC5/SPIS.c **** * Return:
 501:Generated_Source\PSoC5/SPIS.c **** *  None.
 502:Generated_Source\PSoC5/SPIS.c **** *
 503:Generated_Source\PSoC5/SPIS.c **** * Global variables:
 504:Generated_Source\PSoC5/SPIS.c **** *  SPIS_txBufferWrite - used for the account of the bytes which
 505:Generated_Source\PSoC5/SPIS.c **** *  have been written down in the TX software buffer, modified every function
 506:Generated_Source\PSoC5/SPIS.c **** *  call if TX Software Buffer is used.
 507:Generated_Source\PSoC5/SPIS.c **** *  SPIS_txBufferRead - used for the account of the bytes which
 508:Generated_Source\PSoC5/SPIS.c **** *  have been read from the TX software buffer.
 509:Generated_Source\PSoC5/SPIS.c **** *  SPIS_txBuffer[SPIS_TX_BUFFER_SIZE] - used to store
 510:Generated_Source\PSoC5/SPIS.c **** *  data to sending, modified every function call if TX Software Buffer is used.
 511:Generated_Source\PSoC5/SPIS.c **** *
 512:Generated_Source\PSoC5/SPIS.c **** * Theory:
 513:Generated_Source\PSoC5/SPIS.c **** *  Allows the user to transmit any byte of data in a single transfer.
ARM GAS  C:\Users\HARLOW~1\AppData\Local\Temp\cccXBsIm.s 			page 15


 514:Generated_Source\PSoC5/SPIS.c **** *
 515:Generated_Source\PSoC5/SPIS.c **** * Side Effects:
 516:Generated_Source\PSoC5/SPIS.c **** *  If this function is called again before the previous byte is finished then
 517:Generated_Source\PSoC5/SPIS.c **** *  the next byte will be appended to the transfer with no time between
 518:Generated_Source\PSoC5/SPIS.c **** *  the byte transfers. Clear Tx status register of the component.
 519:Generated_Source\PSoC5/SPIS.c **** *
 520:Generated_Source\PSoC5/SPIS.c **** * Reentrant:
 521:Generated_Source\PSoC5/SPIS.c **** *  No.
 522:Generated_Source\PSoC5/SPIS.c **** *
 523:Generated_Source\PSoC5/SPIS.c **** *******************************************************************************/
 524:Generated_Source\PSoC5/SPIS.c **** void SPIS_WriteTxData(uint16 txData) 
 525:Generated_Source\PSoC5/SPIS.c **** {
 284              		.loc 1 525 0
 285              		.cfi_startproc
 286              		@ args = 0, pretend = 0, frame = 0
 287              		@ frame_needed = 0, uses_anonymous_args = 0
 288              		@ link register save eliminated.
 289              	.LVL8:
 526:Generated_Source\PSoC5/SPIS.c ****     #if(SPIS_TX_SOFTWARE_BUF_ENABLED)
 527:Generated_Source\PSoC5/SPIS.c **** 
 528:Generated_Source\PSoC5/SPIS.c ****         uint8 tempStatus;
 529:Generated_Source\PSoC5/SPIS.c ****         uint8 tmpTxBufferRead;
 530:Generated_Source\PSoC5/SPIS.c **** 
 531:Generated_Source\PSoC5/SPIS.c ****         /* Block if buffer is full, so we don't overwrite. */
 532:Generated_Source\PSoC5/SPIS.c ****         do
 533:Generated_Source\PSoC5/SPIS.c ****         {
 534:Generated_Source\PSoC5/SPIS.c ****             tmpTxBufferRead = SPIS_txBufferRead;
 535:Generated_Source\PSoC5/SPIS.c ****             if (0u == tmpTxBufferRead)
 536:Generated_Source\PSoC5/SPIS.c ****             {
 537:Generated_Source\PSoC5/SPIS.c ****                 tmpTxBufferRead = SPIS_TX_BUFFER_SIZE - 1u;
 538:Generated_Source\PSoC5/SPIS.c ****             }
 539:Generated_Source\PSoC5/SPIS.c ****             else
 540:Generated_Source\PSoC5/SPIS.c ****             {
 541:Generated_Source\PSoC5/SPIS.c ****                 tmpTxBufferRead--;
 542:Generated_Source\PSoC5/SPIS.c ****             }
 543:Generated_Source\PSoC5/SPIS.c **** 
 544:Generated_Source\PSoC5/SPIS.c ****         }
 545:Generated_Source\PSoC5/SPIS.c ****         while(tmpTxBufferRead == SPIS_txBufferWrite);
 546:Generated_Source\PSoC5/SPIS.c **** 
 547:Generated_Source\PSoC5/SPIS.c ****         /* Disable Interrupt to protect variables that could change on interrupt. */
 548:Generated_Source\PSoC5/SPIS.c ****         SPIS_DisableTxInt();
 549:Generated_Source\PSoC5/SPIS.c **** 
 550:Generated_Source\PSoC5/SPIS.c ****         tempStatus = SPIS_GET_STATUS_TX(SPIS_swStatusTx);
 551:Generated_Source\PSoC5/SPIS.c ****         SPIS_swStatusTx = tempStatus;
 552:Generated_Source\PSoC5/SPIS.c **** 
 553:Generated_Source\PSoC5/SPIS.c ****         if((SPIS_txBufferRead == SPIS_txBufferWrite) &&
 554:Generated_Source\PSoC5/SPIS.c ****             (0u != (SPIS_swStatusTx & SPIS_STS_TX_FIFO_NOT_FULL)))
 555:Generated_Source\PSoC5/SPIS.c ****         {
 556:Generated_Source\PSoC5/SPIS.c ****             /* Put data element into the TX FIFO */
 557:Generated_Source\PSoC5/SPIS.c ****             CY_SET_REG16(SPIS_TXDATA_PTR, txData);
 558:Generated_Source\PSoC5/SPIS.c ****         }
 559:Generated_Source\PSoC5/SPIS.c ****         else
 560:Generated_Source\PSoC5/SPIS.c ****         {
 561:Generated_Source\PSoC5/SPIS.c ****             /* Put data element into the software buffer */
 562:Generated_Source\PSoC5/SPIS.c ****             SPIS_txBufferWrite++;
 563:Generated_Source\PSoC5/SPIS.c ****             if(SPIS_txBufferWrite >= SPIS_TX_BUFFER_SIZE)
 564:Generated_Source\PSoC5/SPIS.c ****             {
ARM GAS  C:\Users\HARLOW~1\AppData\Local\Temp\cccXBsIm.s 			page 16


 565:Generated_Source\PSoC5/SPIS.c ****                 SPIS_txBufferWrite = 0u;
 566:Generated_Source\PSoC5/SPIS.c ****             }
 567:Generated_Source\PSoC5/SPIS.c **** 
 568:Generated_Source\PSoC5/SPIS.c ****             if(SPIS_txBufferWrite == SPIS_txBufferRead)
 569:Generated_Source\PSoC5/SPIS.c ****             {
 570:Generated_Source\PSoC5/SPIS.c ****                 SPIS_txBufferRead++;
 571:Generated_Source\PSoC5/SPIS.c ****                 if(SPIS_txBufferRead >= SPIS_RX_BUFFER_SIZE)
 572:Generated_Source\PSoC5/SPIS.c ****                 {
 573:Generated_Source\PSoC5/SPIS.c ****                     SPIS_txBufferRead = 0u;
 574:Generated_Source\PSoC5/SPIS.c ****                 }
 575:Generated_Source\PSoC5/SPIS.c ****                 SPIS_txBufferFull = 1u;
 576:Generated_Source\PSoC5/SPIS.c ****             }
 577:Generated_Source\PSoC5/SPIS.c **** 
 578:Generated_Source\PSoC5/SPIS.c ****             SPIS_txBuffer[SPIS_txBufferWrite] = txData;
 579:Generated_Source\PSoC5/SPIS.c **** 
 580:Generated_Source\PSoC5/SPIS.c ****             SPIS_TX_STATUS_MASK_REG |= SPIS_STS_TX_FIFO_NOT_FULL;
 581:Generated_Source\PSoC5/SPIS.c ****         }
 582:Generated_Source\PSoC5/SPIS.c **** 
 583:Generated_Source\PSoC5/SPIS.c ****         /* Enable Interrupt. */
 584:Generated_Source\PSoC5/SPIS.c ****         SPIS_EnableTxInt();
 585:Generated_Source\PSoC5/SPIS.c **** 
 586:Generated_Source\PSoC5/SPIS.c ****     #else /* !SPIS_TX_SOFTWARE_BUF_ENABLED */
 587:Generated_Source\PSoC5/SPIS.c ****         /* Wait until TX FIFO has a place */
 588:Generated_Source\PSoC5/SPIS.c ****         while(0u == (SPIS_TX_STATUS_REG & SPIS_STS_TX_FIFO_NOT_FULL))
 290              		.loc 1 588 0
 291 0000 034A     		ldr	r2, .L28
 292              	.L24:
 293              		.loc 1 588 0 is_stmt 0 discriminator 1
 294 0002 1378     		ldrb	r3, [r2]	@ zero_extendqisi2
 295 0004 9B07     		lsls	r3, r3, #30
 296 0006 FCD5     		bpl	.L24
 589:Generated_Source\PSoC5/SPIS.c ****         {
 590:Generated_Source\PSoC5/SPIS.c ****         }
 591:Generated_Source\PSoC5/SPIS.c **** 
 592:Generated_Source\PSoC5/SPIS.c ****         /* Put data element into the TX FIFO */
 593:Generated_Source\PSoC5/SPIS.c ****         CY_SET_REG16(SPIS_TXDATA_PTR, txData);
 297              		.loc 1 593 0 is_stmt 1
 298 0008 024B     		ldr	r3, .L28+4
 299 000a 1880     		strh	r0, [r3]	@ movhi
 300 000c 7047     		bx	lr
 301              	.L29:
 302 000e 00BF     		.align	2
 303              	.L28:
 304 0010 66640040 		.word	1073767526
 305 0014 4A640040 		.word	1073767498
 306              		.cfi_endproc
 307              	.LFE12:
 308              		.size	SPIS_WriteTxData, .-SPIS_WriteTxData
 309              		.section	.text.SPIS_WriteTxDataZero,"ax",%progbits
 310              		.align	1
 311              		.global	SPIS_WriteTxDataZero
 312              		.thumb
 313              		.thumb_func
 314              		.type	SPIS_WriteTxDataZero, %function
 315              	SPIS_WriteTxDataZero:
 316              	.LFB13:
 594:Generated_Source\PSoC5/SPIS.c ****         
ARM GAS  C:\Users\HARLOW~1\AppData\Local\Temp\cccXBsIm.s 			page 17


 595:Generated_Source\PSoC5/SPIS.c ****     #endif /* SPIS_TX_SOFTWARE_BUF_ENABLED */
 596:Generated_Source\PSoC5/SPIS.c **** }
 597:Generated_Source\PSoC5/SPIS.c **** 
 598:Generated_Source\PSoC5/SPIS.c **** #if(SPIS_MODE_USE_ZERO != 0u)
 599:Generated_Source\PSoC5/SPIS.c **** 
 600:Generated_Source\PSoC5/SPIS.c ****     /*******************************************************************************
 601:Generated_Source\PSoC5/SPIS.c ****     * Function Name: SPIS_WriteTxDataZero
 602:Generated_Source\PSoC5/SPIS.c ****     ********************************************************************************
 603:Generated_Source\PSoC5/SPIS.c ****     *
 604:Generated_Source\PSoC5/SPIS.c ****     * Summary:
 605:Generated_Source\PSoC5/SPIS.c ****     *  Write a byte zero of data to be sent across the SPI. This must be used in
 606:Generated_Source\PSoC5/SPIS.c ****     *  Mode 00 and 01 if the FIFO is empty and data is not being sent.
 607:Generated_Source\PSoC5/SPIS.c ****     *
 608:Generated_Source\PSoC5/SPIS.c ****     * Parameters:
 609:Generated_Source\PSoC5/SPIS.c ****     *  txDataByte: The data value to send across the SPI.
 610:Generated_Source\PSoC5/SPIS.c ****     *
 611:Generated_Source\PSoC5/SPIS.c ****     * Return:
 612:Generated_Source\PSoC5/SPIS.c ****     *  None.
 613:Generated_Source\PSoC5/SPIS.c ****     *
 614:Generated_Source\PSoC5/SPIS.c ****     * Theory:
 615:Generated_Source\PSoC5/SPIS.c ****     *  Allows the user to transmit any byte of data in a single transfer. Clear
 616:Generated_Source\PSoC5/SPIS.c ****     *  status register of the component.
 617:Generated_Source\PSoC5/SPIS.c ****     *
 618:Generated_Source\PSoC5/SPIS.c ****     *******************************************************************************/
 619:Generated_Source\PSoC5/SPIS.c ****     void SPIS_WriteTxDataZero(uint16 txDataByte)
 620:Generated_Source\PSoC5/SPIS.c ****                                         
 621:Generated_Source\PSoC5/SPIS.c ****     {
 317              		.loc 1 621 0
 318              		.cfi_startproc
 319              		@ args = 0, pretend = 0, frame = 0
 320              		@ frame_needed = 0, uses_anonymous_args = 0
 321              		@ link register save eliminated.
 322              	.LVL9:
 622:Generated_Source\PSoC5/SPIS.c ****         CY_SET_REG16(SPIS_TXDATA_ZERO_PTR, txDataByte);
 323              		.loc 1 622 0
 324 0000 014B     		ldr	r3, .L31
 325 0002 1880     		strh	r0, [r3]	@ movhi
 326 0004 7047     		bx	lr
 327              	.L32:
 328 0006 00BF     		.align	2
 329              	.L31:
 330 0008 0A640040 		.word	1073767434
 331              		.cfi_endproc
 332              	.LFE13:
 333              		.size	SPIS_WriteTxDataZero, .-SPIS_WriteTxDataZero
 334              		.section	.text.SPIS_ReadRxData,"ax",%progbits
 335              		.align	1
 336              		.global	SPIS_ReadRxData
 337              		.thumb
 338              		.thumb_func
 339              		.type	SPIS_ReadRxData, %function
 340              	SPIS_ReadRxData:
 341              	.LFB14:
 623:Generated_Source\PSoC5/SPIS.c ****     }
 624:Generated_Source\PSoC5/SPIS.c **** 
 625:Generated_Source\PSoC5/SPIS.c **** #endif /* (SPIS_MODE_USE_ZERO != 0u) */
 626:Generated_Source\PSoC5/SPIS.c **** 
ARM GAS  C:\Users\HARLOW~1\AppData\Local\Temp\cccXBsIm.s 			page 18


 627:Generated_Source\PSoC5/SPIS.c **** 
 628:Generated_Source\PSoC5/SPIS.c **** /*******************************************************************************
 629:Generated_Source\PSoC5/SPIS.c **** * Function Name: SPIS_ReadRxData
 630:Generated_Source\PSoC5/SPIS.c **** ********************************************************************************
 631:Generated_Source\PSoC5/SPIS.c **** *
 632:Generated_Source\PSoC5/SPIS.c **** * Summary:
 633:Generated_Source\PSoC5/SPIS.c **** *  Read the next byte of data received across the SPI.
 634:Generated_Source\PSoC5/SPIS.c **** *
 635:Generated_Source\PSoC5/SPIS.c **** * Parameters:
 636:Generated_Source\PSoC5/SPIS.c **** *  None.
 637:Generated_Source\PSoC5/SPIS.c **** *
 638:Generated_Source\PSoC5/SPIS.c **** * Return:
 639:Generated_Source\PSoC5/SPIS.c **** *  The next byte of data read from the FIFO.
 640:Generated_Source\PSoC5/SPIS.c **** *
 641:Generated_Source\PSoC5/SPIS.c **** * Global variables:
 642:Generated_Source\PSoC5/SPIS.c **** *  SPIS_rxBufferWrite - used for the account of the bytes which
 643:Generated_Source\PSoC5/SPIS.c **** *  have been written down in the RX software buffer.
 644:Generated_Source\PSoC5/SPIS.c **** *  SPIS_rxBufferRead - used for the account of the bytes which
 645:Generated_Source\PSoC5/SPIS.c **** *  have been read from the RX software buffer, modified every function
 646:Generated_Source\PSoC5/SPIS.c **** *  call if RX Software Buffer is used.
 647:Generated_Source\PSoC5/SPIS.c **** *  SPIS_rxBuffer[SPIS_RX_BUFFER_SIZE] - used to store
 648:Generated_Source\PSoC5/SPIS.c **** *  received data.
 649:Generated_Source\PSoC5/SPIS.c **** *
 650:Generated_Source\PSoC5/SPIS.c **** * Theory:
 651:Generated_Source\PSoC5/SPIS.c **** *  Allows the user to read a byte of data received.
 652:Generated_Source\PSoC5/SPIS.c **** *
 653:Generated_Source\PSoC5/SPIS.c **** * Side Effects:
 654:Generated_Source\PSoC5/SPIS.c **** *  Will return invalid data if the FIFO is empty.  User should poll for FIFO
 655:Generated_Source\PSoC5/SPIS.c **** *  empty status before calling Read function.
 656:Generated_Source\PSoC5/SPIS.c **** *
 657:Generated_Source\PSoC5/SPIS.c **** * Reentrant:
 658:Generated_Source\PSoC5/SPIS.c **** *  No.
 659:Generated_Source\PSoC5/SPIS.c **** *
 660:Generated_Source\PSoC5/SPIS.c **** *******************************************************************************/
 661:Generated_Source\PSoC5/SPIS.c **** uint16 SPIS_ReadRxData(void) 
 662:Generated_Source\PSoC5/SPIS.c **** {
 342              		.loc 1 662 0
 343              		.cfi_startproc
 344              		@ args = 0, pretend = 0, frame = 0
 345              		@ frame_needed = 0, uses_anonymous_args = 0
 346              		@ link register save eliminated.
 663:Generated_Source\PSoC5/SPIS.c ****     uint16 rxData;
 664:Generated_Source\PSoC5/SPIS.c **** 
 665:Generated_Source\PSoC5/SPIS.c ****     #if(SPIS_RX_SOFTWARE_BUF_ENABLED)
 666:Generated_Source\PSoC5/SPIS.c **** 
 667:Generated_Source\PSoC5/SPIS.c ****         /* Disable Interrupt to protect variables that could change on interrupt. */
 668:Generated_Source\PSoC5/SPIS.c ****         SPIS_DisableRxInt();
 669:Generated_Source\PSoC5/SPIS.c **** 
 670:Generated_Source\PSoC5/SPIS.c ****         if(SPIS_rxBufferRead != SPIS_rxBufferWrite)
 671:Generated_Source\PSoC5/SPIS.c ****         {
 672:Generated_Source\PSoC5/SPIS.c ****             if(SPIS_rxBufferFull == 0u)
 673:Generated_Source\PSoC5/SPIS.c ****             {
 674:Generated_Source\PSoC5/SPIS.c ****                 SPIS_rxBufferRead++;
 675:Generated_Source\PSoC5/SPIS.c ****                 if(SPIS_rxBufferRead >= SPIS_RX_BUFFER_SIZE)
 676:Generated_Source\PSoC5/SPIS.c ****                 {
 677:Generated_Source\PSoC5/SPIS.c ****                     SPIS_rxBufferRead = 0u;
 678:Generated_Source\PSoC5/SPIS.c ****                 }
ARM GAS  C:\Users\HARLOW~1\AppData\Local\Temp\cccXBsIm.s 			page 19


 679:Generated_Source\PSoC5/SPIS.c ****             }
 680:Generated_Source\PSoC5/SPIS.c ****             else
 681:Generated_Source\PSoC5/SPIS.c ****             {
 682:Generated_Source\PSoC5/SPIS.c ****                 SPIS_rxBufferFull = 0u;
 683:Generated_Source\PSoC5/SPIS.c ****             }
 684:Generated_Source\PSoC5/SPIS.c ****         }
 685:Generated_Source\PSoC5/SPIS.c **** 
 686:Generated_Source\PSoC5/SPIS.c ****         rxData = SPIS_rxBuffer[SPIS_rxBufferRead];
 687:Generated_Source\PSoC5/SPIS.c **** 
 688:Generated_Source\PSoC5/SPIS.c ****         /* Enable Interrupt. */
 689:Generated_Source\PSoC5/SPIS.c ****         SPIS_EnableRxInt();
 690:Generated_Source\PSoC5/SPIS.c **** 
 691:Generated_Source\PSoC5/SPIS.c ****     #else /* !SPIS_RX_SOFTWARE_BUF_ENABLED */
 692:Generated_Source\PSoC5/SPIS.c **** 
 693:Generated_Source\PSoC5/SPIS.c ****         rxData = CY_GET_REG16(SPIS_RXDATA_PTR);
 347              		.loc 1 693 0
 348 0000 014B     		ldr	r3, .L34
 349 0002 1888     		ldrh	r0, [r3]
 350              	.LVL10:
 694:Generated_Source\PSoC5/SPIS.c **** 
 695:Generated_Source\PSoC5/SPIS.c ****     #endif /* SPIS_RX_SOFTWARE_BUF_ENABLED */
 696:Generated_Source\PSoC5/SPIS.c **** 
 697:Generated_Source\PSoC5/SPIS.c ****     return (rxData);
 698:Generated_Source\PSoC5/SPIS.c **** 
 699:Generated_Source\PSoC5/SPIS.c **** }
 351              		.loc 1 699 0
 352 0004 80B2     		uxth	r0, r0
 353 0006 7047     		bx	lr
 354              	.L35:
 355              		.align	2
 356              	.L34:
 357 0008 5A640040 		.word	1073767514
 358              		.cfi_endproc
 359              	.LFE14:
 360              		.size	SPIS_ReadRxData, .-SPIS_ReadRxData
 361              		.section	.text.SPIS_GetRxBufferSize,"ax",%progbits
 362              		.align	1
 363              		.global	SPIS_GetRxBufferSize
 364              		.thumb
 365              		.thumb_func
 366              		.type	SPIS_GetRxBufferSize, %function
 367              	SPIS_GetRxBufferSize:
 368              	.LFB15:
 700:Generated_Source\PSoC5/SPIS.c **** 
 701:Generated_Source\PSoC5/SPIS.c **** 
 702:Generated_Source\PSoC5/SPIS.c **** /*******************************************************************************
 703:Generated_Source\PSoC5/SPIS.c **** * Function Name: SPIS_GetRxBufferSize
 704:Generated_Source\PSoC5/SPIS.c **** ********************************************************************************
 705:Generated_Source\PSoC5/SPIS.c **** *
 706:Generated_Source\PSoC5/SPIS.c **** * Summary:
 707:Generated_Source\PSoC5/SPIS.c **** *  Returns the number of bytes/words of data currently held in the RX buffer.
 708:Generated_Source\PSoC5/SPIS.c **** *  If RX Software Buffer not used then function return 0 if FIFO empty or 1 if
 709:Generated_Source\PSoC5/SPIS.c **** *  FIFO not empty. In another case function return size of RX Software Buffer.
 710:Generated_Source\PSoC5/SPIS.c **** *
 711:Generated_Source\PSoC5/SPIS.c **** * Parameters:
 712:Generated_Source\PSoC5/SPIS.c **** *  None.
 713:Generated_Source\PSoC5/SPIS.c **** *
ARM GAS  C:\Users\HARLOW~1\AppData\Local\Temp\cccXBsIm.s 			page 20


 714:Generated_Source\PSoC5/SPIS.c **** * Return:
 715:Generated_Source\PSoC5/SPIS.c **** *  Integer count of the number of bytes/words in the RX buffer.
 716:Generated_Source\PSoC5/SPIS.c **** *
 717:Generated_Source\PSoC5/SPIS.c **** * Global variables:
 718:Generated_Source\PSoC5/SPIS.c **** *  SPIS_rxBufferWrite - used for the account of the bytes which
 719:Generated_Source\PSoC5/SPIS.c **** *  have been written down in the RX software buffer.
 720:Generated_Source\PSoC5/SPIS.c **** *  SPIS_rxBufferRead - used for the account of the bytes which
 721:Generated_Source\PSoC5/SPIS.c **** *  have been read from the RX software buffer.
 722:Generated_Source\PSoC5/SPIS.c **** *
 723:Generated_Source\PSoC5/SPIS.c **** * Theory:
 724:Generated_Source\PSoC5/SPIS.c **** *  Allows the user to find out how full the RX Buffer is.
 725:Generated_Source\PSoC5/SPIS.c **** *
 726:Generated_Source\PSoC5/SPIS.c **** *******************************************************************************/
 727:Generated_Source\PSoC5/SPIS.c **** uint8 SPIS_GetRxBufferSize(void) 
 728:Generated_Source\PSoC5/SPIS.c **** {
 369              		.loc 1 728 0
 370              		.cfi_startproc
 371              		@ args = 0, pretend = 0, frame = 0
 372              		@ frame_needed = 0, uses_anonymous_args = 0
 373              		@ link register save eliminated.
 729:Generated_Source\PSoC5/SPIS.c ****     uint8 size;
 730:Generated_Source\PSoC5/SPIS.c **** 
 731:Generated_Source\PSoC5/SPIS.c ****     #if(SPIS_RX_SOFTWARE_BUF_ENABLED)
 732:Generated_Source\PSoC5/SPIS.c **** 
 733:Generated_Source\PSoC5/SPIS.c ****         /* Disable Interrupt to protect variables that could change on interrupt. */
 734:Generated_Source\PSoC5/SPIS.c ****         SPIS_DisableRxInt();
 735:Generated_Source\PSoC5/SPIS.c **** 
 736:Generated_Source\PSoC5/SPIS.c ****         if(SPIS_rxBufferRead == SPIS_rxBufferWrite)
 737:Generated_Source\PSoC5/SPIS.c ****         {
 738:Generated_Source\PSoC5/SPIS.c ****             size = 0u; /* No data in RX buffer */
 739:Generated_Source\PSoC5/SPIS.c ****         }
 740:Generated_Source\PSoC5/SPIS.c ****         else if(SPIS_rxBufferRead < SPIS_rxBufferWrite)
 741:Generated_Source\PSoC5/SPIS.c ****         {
 742:Generated_Source\PSoC5/SPIS.c ****             size = (SPIS_rxBufferWrite - SPIS_rxBufferRead);
 743:Generated_Source\PSoC5/SPIS.c ****         }
 744:Generated_Source\PSoC5/SPIS.c ****         else
 745:Generated_Source\PSoC5/SPIS.c ****         {
 746:Generated_Source\PSoC5/SPIS.c ****             size = (SPIS_RX_BUFFER_SIZE - SPIS_rxBufferRead) + SPIS_rxBufferWrite;
 747:Generated_Source\PSoC5/SPIS.c ****         }
 748:Generated_Source\PSoC5/SPIS.c **** 
 749:Generated_Source\PSoC5/SPIS.c ****         /* Enable interrupt. */
 750:Generated_Source\PSoC5/SPIS.c ****         SPIS_EnableRxInt();
 751:Generated_Source\PSoC5/SPIS.c **** 
 752:Generated_Source\PSoC5/SPIS.c ****     #else /* !SPIS_RX_SOFTWARE_BUF_ENABLED*/
 753:Generated_Source\PSoC5/SPIS.c **** 
 754:Generated_Source\PSoC5/SPIS.c ****         /* We can only know if there is data in the fifo. */
 755:Generated_Source\PSoC5/SPIS.c ****         size = ((SPIS_RX_STATUS_REG & SPIS_STS_RX_FIFO_NOT_EMPTY) != 0u) ? 1u : 0u;
 374              		.loc 1 755 0
 375 0000 024B     		ldr	r3, .L37
 376 0002 1878     		ldrb	r0, [r3]	@ zero_extendqisi2
 377              	.LVL11:
 756:Generated_Source\PSoC5/SPIS.c **** 
 757:Generated_Source\PSoC5/SPIS.c ****     #endif /* SPIS_RX_SOFTWARE_BUF_ENABLED */
 758:Generated_Source\PSoC5/SPIS.c **** 
 759:Generated_Source\PSoC5/SPIS.c ****     return (size);
 760:Generated_Source\PSoC5/SPIS.c **** }
 378              		.loc 1 760 0
ARM GAS  C:\Users\HARLOW~1\AppData\Local\Temp\cccXBsIm.s 			page 21


 379 0004 C0F3C000 		ubfx	r0, r0, #3, #1
 380              	.LVL12:
 381 0008 7047     		bx	lr
 382              	.L38:
 383 000a 00BF     		.align	2
 384              	.L37:
 385 000c 69650040 		.word	1073767785
 386              		.cfi_endproc
 387              	.LFE15:
 388              		.size	SPIS_GetRxBufferSize, .-SPIS_GetRxBufferSize
 389              		.section	.text.SPIS_GetTxBufferSize,"ax",%progbits
 390              		.align	1
 391              		.global	SPIS_GetTxBufferSize
 392              		.thumb
 393              		.thumb_func
 394              		.type	SPIS_GetTxBufferSize, %function
 395              	SPIS_GetTxBufferSize:
 396              	.LFB16:
 761:Generated_Source\PSoC5/SPIS.c **** 
 762:Generated_Source\PSoC5/SPIS.c **** 
 763:Generated_Source\PSoC5/SPIS.c **** /*******************************************************************************
 764:Generated_Source\PSoC5/SPIS.c **** * Function Name: SPIS_GetTxBufferSize
 765:Generated_Source\PSoC5/SPIS.c **** ********************************************************************************
 766:Generated_Source\PSoC5/SPIS.c **** *
 767:Generated_Source\PSoC5/SPIS.c **** * Summary:
 768:Generated_Source\PSoC5/SPIS.c **** *  Returns the number of bytes/words of data currently held in the TX buffer.
 769:Generated_Source\PSoC5/SPIS.c **** *  If TX Software Buffer not used then function return 0 - if FIFO empty, 1 - if
 770:Generated_Source\PSoC5/SPIS.c **** *  FIFO not full, 4 - if FIFO full. In another case function return size of TX
 771:Generated_Source\PSoC5/SPIS.c **** *  Software Buffer.
 772:Generated_Source\PSoC5/SPIS.c **** *
 773:Generated_Source\PSoC5/SPIS.c **** * Parameters:
 774:Generated_Source\PSoC5/SPIS.c **** *  None.
 775:Generated_Source\PSoC5/SPIS.c **** *
 776:Generated_Source\PSoC5/SPIS.c **** * Return:
 777:Generated_Source\PSoC5/SPIS.c **** *  Integer count of the number of bytes/words in the TX buffer.
 778:Generated_Source\PSoC5/SPIS.c **** *
 779:Generated_Source\PSoC5/SPIS.c **** * Global variables:
 780:Generated_Source\PSoC5/SPIS.c **** *  SPIS_txBufferWrite - used for the account of the bytes which
 781:Generated_Source\PSoC5/SPIS.c **** *  have been written down in the TX software buffer.
 782:Generated_Source\PSoC5/SPIS.c **** *  SPIS_txBufferRead - used for the account of the bytes which
 783:Generated_Source\PSoC5/SPIS.c **** *  have been read from the TX software buffer.
 784:Generated_Source\PSoC5/SPIS.c **** *
 785:Generated_Source\PSoC5/SPIS.c **** * Theory:
 786:Generated_Source\PSoC5/SPIS.c **** *  Allows the user to find out how full the TX Buffer is.
 787:Generated_Source\PSoC5/SPIS.c **** *
 788:Generated_Source\PSoC5/SPIS.c **** * Side Effects:
 789:Generated_Source\PSoC5/SPIS.c **** *  Clear status register of the component.
 790:Generated_Source\PSoC5/SPIS.c **** *
 791:Generated_Source\PSoC5/SPIS.c **** *******************************************************************************/
 792:Generated_Source\PSoC5/SPIS.c **** uint8  SPIS_GetTxBufferSize(void) 
 793:Generated_Source\PSoC5/SPIS.c **** {
 397              		.loc 1 793 0
 398              		.cfi_startproc
 399              		@ args = 0, pretend = 0, frame = 0
 400              		@ frame_needed = 0, uses_anonymous_args = 0
 401              		@ link register save eliminated.
 794:Generated_Source\PSoC5/SPIS.c ****     uint8 size;
ARM GAS  C:\Users\HARLOW~1\AppData\Local\Temp\cccXBsIm.s 			page 22


 795:Generated_Source\PSoC5/SPIS.c **** 
 796:Generated_Source\PSoC5/SPIS.c ****     #if(SPIS_TX_SOFTWARE_BUF_ENABLED)
 797:Generated_Source\PSoC5/SPIS.c **** 
 798:Generated_Source\PSoC5/SPIS.c ****         /* Disable Interrupt to protect variables that could change on interrupt. */
 799:Generated_Source\PSoC5/SPIS.c ****         SPIS_DisableTxInt();
 800:Generated_Source\PSoC5/SPIS.c **** 
 801:Generated_Source\PSoC5/SPIS.c ****         if(SPIS_txBufferRead == SPIS_txBufferWrite)
 802:Generated_Source\PSoC5/SPIS.c ****         {
 803:Generated_Source\PSoC5/SPIS.c ****             size = 0u;
 804:Generated_Source\PSoC5/SPIS.c ****         }
 805:Generated_Source\PSoC5/SPIS.c ****         else if(SPIS_txBufferRead < SPIS_txBufferWrite)
 806:Generated_Source\PSoC5/SPIS.c ****         {
 807:Generated_Source\PSoC5/SPIS.c ****             size = (SPIS_txBufferWrite - SPIS_txBufferRead);
 808:Generated_Source\PSoC5/SPIS.c ****         }
 809:Generated_Source\PSoC5/SPIS.c ****         else
 810:Generated_Source\PSoC5/SPIS.c ****         {
 811:Generated_Source\PSoC5/SPIS.c ****             size = (SPIS_TX_BUFFER_SIZE - SPIS_txBufferRead) + SPIS_txBufferWrite;
 812:Generated_Source\PSoC5/SPIS.c ****         }
 813:Generated_Source\PSoC5/SPIS.c **** 
 814:Generated_Source\PSoC5/SPIS.c ****         /* Enable Interrupt. */
 815:Generated_Source\PSoC5/SPIS.c ****         SPIS_EnableTxInt();
 816:Generated_Source\PSoC5/SPIS.c **** 
 817:Generated_Source\PSoC5/SPIS.c ****     #else /* !SPIS_TX_SOFTWARE_BUF_ENABLED */
 818:Generated_Source\PSoC5/SPIS.c **** 
 819:Generated_Source\PSoC5/SPIS.c ****         size = SPIS_TX_STATUS_REG;
 402              		.loc 1 819 0
 403 0000 064B     		ldr	r3, .L43
 404 0002 1B78     		ldrb	r3, [r3]	@ zero_extendqisi2
 405 0004 DBB2     		uxtb	r3, r3
 406              	.LVL13:
 820:Generated_Source\PSoC5/SPIS.c **** 
 821:Generated_Source\PSoC5/SPIS.c ****         /* Is the fifo is full. */
 822:Generated_Source\PSoC5/SPIS.c ****         if((size & SPIS_STS_TX_FIFO_EMPTY) != 0u)
 407              		.loc 1 822 0
 408 0006 5A07     		lsls	r2, r3, #29
 409 0008 05D4     		bmi	.L41
 823:Generated_Source\PSoC5/SPIS.c ****         {
 824:Generated_Source\PSoC5/SPIS.c ****             size = 0u;
 825:Generated_Source\PSoC5/SPIS.c ****         }
 826:Generated_Source\PSoC5/SPIS.c ****         else if((size & SPIS_STS_TX_FIFO_NOT_FULL) != 0u)
 410              		.loc 1 826 0
 411 000a 13F0020F 		tst	r3, #2
 827:Generated_Source\PSoC5/SPIS.c ****         {
 828:Generated_Source\PSoC5/SPIS.c ****             size = 1u;
 829:Generated_Source\PSoC5/SPIS.c ****         }
 830:Generated_Source\PSoC5/SPIS.c ****         else
 831:Generated_Source\PSoC5/SPIS.c ****         {
 832:Generated_Source\PSoC5/SPIS.c ****             size = 4u;
 412              		.loc 1 832 0
 413 000e 14BF     		ite	ne
 414 0010 0120     		movne	r0, #1
 415 0012 0420     		moveq	r0, #4
 416 0014 7047     		bx	lr
 417              	.L41:
 824:Generated_Source\PSoC5/SPIS.c ****         }
 418              		.loc 1 824 0
 419 0016 0020     		movs	r0, #0
ARM GAS  C:\Users\HARLOW~1\AppData\Local\Temp\cccXBsIm.s 			page 23


 420              	.LVL14:
 833:Generated_Source\PSoC5/SPIS.c ****         }
 834:Generated_Source\PSoC5/SPIS.c **** 
 835:Generated_Source\PSoC5/SPIS.c ****     #endif /* SPIS_TX_SOFTWARE_BUF_ENABLED */
 836:Generated_Source\PSoC5/SPIS.c **** 
 837:Generated_Source\PSoC5/SPIS.c ****     return (size);
 838:Generated_Source\PSoC5/SPIS.c **** }
 421              		.loc 1 838 0
 422 0018 7047     		bx	lr
 423              	.L44:
 424 001a 00BF     		.align	2
 425              	.L43:
 426 001c 66640040 		.word	1073767526
 427              		.cfi_endproc
 428              	.LFE16:
 429              		.size	SPIS_GetTxBufferSize, .-SPIS_GetTxBufferSize
 430              		.section	.text.SPIS_ClearRxBuffer,"ax",%progbits
 431              		.align	1
 432              		.global	SPIS_ClearRxBuffer
 433              		.thumb
 434              		.thumb_func
 435              		.type	SPIS_ClearRxBuffer, %function
 436              	SPIS_ClearRxBuffer:
 437              	.LFB17:
 839:Generated_Source\PSoC5/SPIS.c **** 
 840:Generated_Source\PSoC5/SPIS.c **** 
 841:Generated_Source\PSoC5/SPIS.c **** /*******************************************************************************
 842:Generated_Source\PSoC5/SPIS.c **** * Function Name: SPIS_ClearRxBuffer
 843:Generated_Source\PSoC5/SPIS.c **** ********************************************************************************
 844:Generated_Source\PSoC5/SPIS.c **** *
 845:Generated_Source\PSoC5/SPIS.c **** * Summary:
 846:Generated_Source\PSoC5/SPIS.c **** *  Clear the RX RAM buffer by setting the read and write pointers both to zero.
 847:Generated_Source\PSoC5/SPIS.c **** *
 848:Generated_Source\PSoC5/SPIS.c **** * Parameters:
 849:Generated_Source\PSoC5/SPIS.c **** *  None.
 850:Generated_Source\PSoC5/SPIS.c **** *
 851:Generated_Source\PSoC5/SPIS.c **** * Return:
 852:Generated_Source\PSoC5/SPIS.c **** *  None.
 853:Generated_Source\PSoC5/SPIS.c **** *
 854:Generated_Source\PSoC5/SPIS.c **** * Global variables:
 855:Generated_Source\PSoC5/SPIS.c **** *  SPIS_rxBufferWrite - used for the account of the bytes which
 856:Generated_Source\PSoC5/SPIS.c **** *  have been written down in the RX software buffer, modified every function
 857:Generated_Source\PSoC5/SPIS.c **** *  call - resets to zero.
 858:Generated_Source\PSoC5/SPIS.c **** *  SPIS_rxBufferRead - used for the account of the bytes which
 859:Generated_Source\PSoC5/SPIS.c **** *  have been read from the RX software buffer, modified every function call -
 860:Generated_Source\PSoC5/SPIS.c **** *  resets to zero.
 861:Generated_Source\PSoC5/SPIS.c **** *
 862:Generated_Source\PSoC5/SPIS.c **** * Theory:
 863:Generated_Source\PSoC5/SPIS.c **** *  Setting the pointers to zero makes the system believe there is no data to
 864:Generated_Source\PSoC5/SPIS.c **** *  read and writing will resume at address 0 overwriting any data that may have
 865:Generated_Source\PSoC5/SPIS.c **** *  remained in the RAM.
 866:Generated_Source\PSoC5/SPIS.c **** *
 867:Generated_Source\PSoC5/SPIS.c **** * Side Effects:
 868:Generated_Source\PSoC5/SPIS.c **** *  Any received data not read from the RAM buffer will be lost when overwritten.
 869:Generated_Source\PSoC5/SPIS.c **** *
 870:Generated_Source\PSoC5/SPIS.c **** * Reentrant:
 871:Generated_Source\PSoC5/SPIS.c **** *  No.
ARM GAS  C:\Users\HARLOW~1\AppData\Local\Temp\cccXBsIm.s 			page 24


 872:Generated_Source\PSoC5/SPIS.c **** *
 873:Generated_Source\PSoC5/SPIS.c **** *******************************************************************************/
 874:Generated_Source\PSoC5/SPIS.c **** void SPIS_ClearRxBuffer(void) 
 875:Generated_Source\PSoC5/SPIS.c **** {
 438              		.loc 1 875 0
 439              		.cfi_startproc
 440              		@ args = 0, pretend = 0, frame = 0
 441              		@ frame_needed = 0, uses_anonymous_args = 0
 442              		@ link register save eliminated.
 876:Generated_Source\PSoC5/SPIS.c ****     /* Clear Hardware RX FIFO */
 877:Generated_Source\PSoC5/SPIS.c ****     while((SPIS_RX_STATUS_REG & SPIS_STS_RX_FIFO_NOT_EMPTY) != 0u)
 443              		.loc 1 877 0
 444 0000 034A     		ldr	r2, .L49
 878:Generated_Source\PSoC5/SPIS.c ****     {
 879:Generated_Source\PSoC5/SPIS.c ****         CY_GET_REG16(SPIS_RXDATA_PTR);
 445              		.loc 1 879 0
 446 0002 0449     		ldr	r1, .L49+4
 447              	.L46:
 877:Generated_Source\PSoC5/SPIS.c ****     {
 448              		.loc 1 877 0
 449 0004 1378     		ldrb	r3, [r2]	@ zero_extendqisi2
 450 0006 1B07     		lsls	r3, r3, #28
 451 0008 01D5     		bpl	.L48
 452              		.loc 1 879 0
 453 000a 0B88     		ldrh	r3, [r1]
 454 000c FAE7     		b	.L46
 455              	.L48:
 880:Generated_Source\PSoC5/SPIS.c ****     }
 881:Generated_Source\PSoC5/SPIS.c **** 
 882:Generated_Source\PSoC5/SPIS.c ****     #if(SPIS_RX_SOFTWARE_BUF_ENABLED)
 883:Generated_Source\PSoC5/SPIS.c **** 
 884:Generated_Source\PSoC5/SPIS.c ****         /* Disable interrupt to protect variables that could change on interrupt. */
 885:Generated_Source\PSoC5/SPIS.c ****         SPIS_DisableRxInt();
 886:Generated_Source\PSoC5/SPIS.c **** 
 887:Generated_Source\PSoC5/SPIS.c ****         SPIS_rxBufferRead  = 0u;
 888:Generated_Source\PSoC5/SPIS.c ****         SPIS_rxBufferWrite = 0u;
 889:Generated_Source\PSoC5/SPIS.c **** 		SPIS_rxBufferFull  = 0u;
 890:Generated_Source\PSoC5/SPIS.c ****         /* Enable interrupt. */
 891:Generated_Source\PSoC5/SPIS.c ****         SPIS_EnableRxInt();
 892:Generated_Source\PSoC5/SPIS.c **** 
 893:Generated_Source\PSoC5/SPIS.c ****     #endif /* SPIS_RX_SOFTWARE_BUF_ENABLED */
 894:Generated_Source\PSoC5/SPIS.c **** }
 456              		.loc 1 894 0
 457 000e 7047     		bx	lr
 458              	.L50:
 459              		.align	2
 460              	.L49:
 461 0010 69650040 		.word	1073767785
 462 0014 5A640040 		.word	1073767514
 463              		.cfi_endproc
 464              	.LFE17:
 465              		.size	SPIS_ClearRxBuffer, .-SPIS_ClearRxBuffer
 466              		.section	.text.SPIS_ClearTxBuffer,"ax",%progbits
 467              		.align	1
 468              		.global	SPIS_ClearTxBuffer
 469              		.thumb
 470              		.thumb_func
ARM GAS  C:\Users\HARLOW~1\AppData\Local\Temp\cccXBsIm.s 			page 25


 471              		.type	SPIS_ClearTxBuffer, %function
 472              	SPIS_ClearTxBuffer:
 473              	.LFB18:
 895:Generated_Source\PSoC5/SPIS.c **** 
 896:Generated_Source\PSoC5/SPIS.c **** 
 897:Generated_Source\PSoC5/SPIS.c **** /*******************************************************************************
 898:Generated_Source\PSoC5/SPIS.c **** * Function Name: SPIS_ClearTxBuffer
 899:Generated_Source\PSoC5/SPIS.c **** ********************************************************************************
 900:Generated_Source\PSoC5/SPIS.c **** *
 901:Generated_Source\PSoC5/SPIS.c **** * Summary:
 902:Generated_Source\PSoC5/SPIS.c **** *  Clear the TX RAM buffer by setting the read and write pointers both to zero.
 903:Generated_Source\PSoC5/SPIS.c **** *
 904:Generated_Source\PSoC5/SPIS.c **** * Parameters:
 905:Generated_Source\PSoC5/SPIS.c **** *  None.
 906:Generated_Source\PSoC5/SPIS.c **** *
 907:Generated_Source\PSoC5/SPIS.c **** * Return:
 908:Generated_Source\PSoC5/SPIS.c **** *  None.
 909:Generated_Source\PSoC5/SPIS.c **** *
 910:Generated_Source\PSoC5/SPIS.c **** * Global variables:
 911:Generated_Source\PSoC5/SPIS.c **** *  SPIS_txBufferWrite - used for the account of the bytes which
 912:Generated_Source\PSoC5/SPIS.c **** *  have been written down in the TX software buffer, modified every function
 913:Generated_Source\PSoC5/SPIS.c **** *  call - resets to zero.
 914:Generated_Source\PSoC5/SPIS.c **** *  SPIS_txBufferRead - used for the account of the bytes which
 915:Generated_Source\PSoC5/SPIS.c **** *  have been read from the TX software buffer, modified every function call -
 916:Generated_Source\PSoC5/SPIS.c **** *  resets to zero.
 917:Generated_Source\PSoC5/SPIS.c **** *
 918:Generated_Source\PSoC5/SPIS.c **** * Theory:
 919:Generated_Source\PSoC5/SPIS.c **** *  Setting the pointers to zero makes the system believe there is no data to
 920:Generated_Source\PSoC5/SPIS.c **** *  read and writing will resume at address 0 overwriting any data that may have
 921:Generated_Source\PSoC5/SPIS.c **** *  remained in the RAM.
 922:Generated_Source\PSoC5/SPIS.c **** *
 923:Generated_Source\PSoC5/SPIS.c **** * Side Effects:
 924:Generated_Source\PSoC5/SPIS.c **** *  Any data not yet transmitted from the RAM buffer will be lost when
 925:Generated_Source\PSoC5/SPIS.c **** *  overwritten.
 926:Generated_Source\PSoC5/SPIS.c **** *
 927:Generated_Source\PSoC5/SPIS.c **** * Reentrant:
 928:Generated_Source\PSoC5/SPIS.c **** *  No.
 929:Generated_Source\PSoC5/SPIS.c **** *
 930:Generated_Source\PSoC5/SPIS.c **** *******************************************************************************/
 931:Generated_Source\PSoC5/SPIS.c **** void SPIS_ClearTxBuffer(void) 
 932:Generated_Source\PSoC5/SPIS.c **** {
 474              		.loc 1 932 0
 475              		.cfi_startproc
 476              		@ args = 0, pretend = 0, frame = 0
 477              		@ frame_needed = 0, uses_anonymous_args = 0
 478 0000 08B5     		push	{r3, lr}
 479              		.cfi_def_cfa_offset 8
 480              		.cfi_offset 3, -8
 481              		.cfi_offset 14, -4
 933:Generated_Source\PSoC5/SPIS.c ****     uint8 enableInterrupts;
 934:Generated_Source\PSoC5/SPIS.c **** 
 935:Generated_Source\PSoC5/SPIS.c ****     /* Clear Hardware TX FIFO */
 936:Generated_Source\PSoC5/SPIS.c ****     enableInterrupts = CyEnterCriticalSection();
 482              		.loc 1 936 0
 483 0002 FFF7FEFF 		bl	CyEnterCriticalSection
 484              	.LVL15:
 937:Generated_Source\PSoC5/SPIS.c **** 
ARM GAS  C:\Users\HARLOW~1\AppData\Local\Temp\cccXBsIm.s 			page 26


 938:Generated_Source\PSoC5/SPIS.c ****     #if(SPIS_DATA_WIDTH <= 8u)
 939:Generated_Source\PSoC5/SPIS.c **** 
 940:Generated_Source\PSoC5/SPIS.c ****         /* Clear TX FIFO */
 941:Generated_Source\PSoC5/SPIS.c ****         SPIS_TX_AUX_CONTROL_DP0_REG |= (uint8)SPIS_FIFO_CLR;
 942:Generated_Source\PSoC5/SPIS.c ****         SPIS_TX_AUX_CONTROL_DP0_REG &= (uint8)~SPIS_FIFO_CLR;
 943:Generated_Source\PSoC5/SPIS.c **** 
 944:Generated_Source\PSoC5/SPIS.c ****     #else
 945:Generated_Source\PSoC5/SPIS.c **** 
 946:Generated_Source\PSoC5/SPIS.c ****         /* Clear TX FIFO */
 947:Generated_Source\PSoC5/SPIS.c ****         SPIS_TX_AUX_CONTROL_DP0_REG |= (uint8)SPIS_FIFO_CLR;
 485              		.loc 1 947 0
 486 0006 0A4B     		ldr	r3, .L52
 487 0008 1A78     		ldrb	r2, [r3]	@ zero_extendqisi2
 488 000a 42F00302 		orr	r2, r2, #3
 489 000e 1A70     		strb	r2, [r3]
 948:Generated_Source\PSoC5/SPIS.c ****         SPIS_TX_AUX_CONTROL_DP0_REG &= (uint8)~SPIS_FIFO_CLR;
 490              		.loc 1 948 0
 491 0010 1A78     		ldrb	r2, [r3]	@ zero_extendqisi2
 492 0012 02F0FC02 		and	r2, r2, #252
 493 0016 1A70     		strb	r2, [r3]
 949:Generated_Source\PSoC5/SPIS.c ****         SPIS_TX_AUX_CONTROL_DP1_REG |= (uint8)SPIS_FIFO_CLR;
 494              		.loc 1 949 0
 495 0018 5A78     		ldrb	r2, [r3, #1]	@ zero_extendqisi2
 496 001a 42F00302 		orr	r2, r2, #3
 497 001e 5A70     		strb	r2, [r3, #1]
 950:Generated_Source\PSoC5/SPIS.c ****         SPIS_TX_AUX_CONTROL_DP1_REG &= (uint8)~SPIS_FIFO_CLR;
 498              		.loc 1 950 0
 499 0020 5A78     		ldrb	r2, [r3, #1]	@ zero_extendqisi2
 500 0022 02F0FC02 		and	r2, r2, #252
 501 0026 5A70     		strb	r2, [r3, #1]
 951:Generated_Source\PSoC5/SPIS.c **** 
 952:Generated_Source\PSoC5/SPIS.c ****     #endif /* SPIS_DATA_WIDTH > 8u */
 953:Generated_Source\PSoC5/SPIS.c **** 
 954:Generated_Source\PSoC5/SPIS.c ****     CyExitCriticalSection(enableInterrupts);
 955:Generated_Source\PSoC5/SPIS.c **** 
 956:Generated_Source\PSoC5/SPIS.c ****     #if(SPIS_TX_SOFTWARE_BUF_ENABLED)
 957:Generated_Source\PSoC5/SPIS.c **** 
 958:Generated_Source\PSoC5/SPIS.c ****         /* Disable Interrupt to protect variables that could change on interrupt. */
 959:Generated_Source\PSoC5/SPIS.c ****         SPIS_DisableTxInt();
 960:Generated_Source\PSoC5/SPIS.c **** 
 961:Generated_Source\PSoC5/SPIS.c ****         SPIS_txBufferRead  = 0u;
 962:Generated_Source\PSoC5/SPIS.c ****         SPIS_txBufferWrite = 0u;
 963:Generated_Source\PSoC5/SPIS.c **** 		SPIS_txBufferFull  = 0u;
 964:Generated_Source\PSoC5/SPIS.c **** 		
 965:Generated_Source\PSoC5/SPIS.c ****         /* If Buffer is empty then disable TX FIFO status interrupt */
 966:Generated_Source\PSoC5/SPIS.c ****         SPIS_TX_STATUS_MASK_REG &= (uint8)~SPIS_STS_TX_FIFO_NOT_FULL;
 967:Generated_Source\PSoC5/SPIS.c **** 
 968:Generated_Source\PSoC5/SPIS.c ****         /* Enable Interrupt. */
 969:Generated_Source\PSoC5/SPIS.c ****         SPIS_EnableTxInt();
 970:Generated_Source\PSoC5/SPIS.c **** 
 971:Generated_Source\PSoC5/SPIS.c ****     #endif /* SPIS_TX_SOFTWARE_BUF_ENABLED */
 972:Generated_Source\PSoC5/SPIS.c **** }
 502              		.loc 1 972 0
 503 0028 BDE80840 		pop	{r3, lr}
 504              		.cfi_restore 14
 505              		.cfi_restore 3
 506              		.cfi_def_cfa_offset 0
ARM GAS  C:\Users\HARLOW~1\AppData\Local\Temp\cccXBsIm.s 			page 27


 954:Generated_Source\PSoC5/SPIS.c **** 
 507              		.loc 1 954 0
 508 002c FFF7FEBF 		b	CyExitCriticalSection
 509              	.LVL16:
 510              	.L53:
 511              		.align	2
 512              	.L52:
 513 0030 9A640040 		.word	1073767578
 514              		.cfi_endproc
 515              	.LFE18:
 516              		.size	SPIS_ClearTxBuffer, .-SPIS_ClearTxBuffer
 517              		.section	.text.SPIS_PutArray,"ax",%progbits
 518              		.align	1
 519              		.global	SPIS_PutArray
 520              		.thumb
 521              		.thumb_func
 522              		.type	SPIS_PutArray, %function
 523              	SPIS_PutArray:
 524              	.LFB19:
 973:Generated_Source\PSoC5/SPIS.c **** 
 974:Generated_Source\PSoC5/SPIS.c **** 
 975:Generated_Source\PSoC5/SPIS.c **** #if (SPIS_BIDIRECTIONAL_MODE != 0u)
 976:Generated_Source\PSoC5/SPIS.c **** 
 977:Generated_Source\PSoC5/SPIS.c ****     /*******************************************************************************
 978:Generated_Source\PSoC5/SPIS.c ****     * Function Name: SPIS_TxEnable
 979:Generated_Source\PSoC5/SPIS.c ****     ********************************************************************************
 980:Generated_Source\PSoC5/SPIS.c ****     *
 981:Generated_Source\PSoC5/SPIS.c ****     * Summary:
 982:Generated_Source\PSoC5/SPIS.c ****     *  If the SPI Slave is configured to use a single bi-directional pin then this
 983:Generated_Source\PSoC5/SPIS.c ****     *  will set the bi-directional pin to transmit.
 984:Generated_Source\PSoC5/SPIS.c ****     *
 985:Generated_Source\PSoC5/SPIS.c ****     * Parameters:
 986:Generated_Source\PSoC5/SPIS.c ****     *  None.
 987:Generated_Source\PSoC5/SPIS.c ****     *
 988:Generated_Source\PSoC5/SPIS.c ****     * Return:
 989:Generated_Source\PSoC5/SPIS.c ****     *  None.
 990:Generated_Source\PSoC5/SPIS.c ****     *
 991:Generated_Source\PSoC5/SPIS.c ****     *******************************************************************************/
 992:Generated_Source\PSoC5/SPIS.c ****     void SPIS_TxEnable(void) 
 993:Generated_Source\PSoC5/SPIS.c ****     {
 994:Generated_Source\PSoC5/SPIS.c ****             SPIS_CONTROL_REG |= SPIS_CTRL_TX_SIGNAL_EN;
 995:Generated_Source\PSoC5/SPIS.c ****     }
 996:Generated_Source\PSoC5/SPIS.c **** 
 997:Generated_Source\PSoC5/SPIS.c **** 
 998:Generated_Source\PSoC5/SPIS.c ****     /*******************************************************************************
 999:Generated_Source\PSoC5/SPIS.c ****     * Function Name: SPIS_TxDisable
1000:Generated_Source\PSoC5/SPIS.c ****     ********************************************************************************
1001:Generated_Source\PSoC5/SPIS.c ****     *
1002:Generated_Source\PSoC5/SPIS.c ****     * Summary:
1003:Generated_Source\PSoC5/SPIS.c ****     *  If the SPI Slave is configured to use a single bi-directional pin then this
1004:Generated_Source\PSoC5/SPIS.c ****     *  will set the bi-directional pin to receive.
1005:Generated_Source\PSoC5/SPIS.c ****     *
1006:Generated_Source\PSoC5/SPIS.c ****     * Parameters:
1007:Generated_Source\PSoC5/SPIS.c ****     *  None.
1008:Generated_Source\PSoC5/SPIS.c ****     *
1009:Generated_Source\PSoC5/SPIS.c ****     * Return:
1010:Generated_Source\PSoC5/SPIS.c ****     *  None.
ARM GAS  C:\Users\HARLOW~1\AppData\Local\Temp\cccXBsIm.s 			page 28


1011:Generated_Source\PSoC5/SPIS.c ****     *
1012:Generated_Source\PSoC5/SPIS.c ****     *******************************************************************************/
1013:Generated_Source\PSoC5/SPIS.c ****     void SPIS_TxDisable(void) 
1014:Generated_Source\PSoC5/SPIS.c ****     {
1015:Generated_Source\PSoC5/SPIS.c ****             SPIS_CONTROL_REG &= (uint8)~SPIS_CTRL_TX_SIGNAL_EN;
1016:Generated_Source\PSoC5/SPIS.c ****     }
1017:Generated_Source\PSoC5/SPIS.c **** 
1018:Generated_Source\PSoC5/SPIS.c **** #endif /* SPIS_BIDIRECTIONAL_MODE != 0u */
1019:Generated_Source\PSoC5/SPIS.c **** 
1020:Generated_Source\PSoC5/SPIS.c **** 
1021:Generated_Source\PSoC5/SPIS.c **** /*******************************************************************************
1022:Generated_Source\PSoC5/SPIS.c **** * Function Name: SPIS_PutArray
1023:Generated_Source\PSoC5/SPIS.c **** ********************************************************************************
1024:Generated_Source\PSoC5/SPIS.c **** *
1025:Generated_Source\PSoC5/SPIS.c **** * Summary:
1026:Generated_Source\PSoC5/SPIS.c **** *  Write available data from RAM/ROM to the TX buffer while space is available
1027:Generated_Source\PSoC5/SPIS.c **** *  in the TX buffer. Keep trying until all data is passed to the TX buffer. If
1028:Generated_Source\PSoC5/SPIS.c **** *  used Mode 00 or 01 before PutArray() function should be called
1029:Generated_Source\PSoC5/SPIS.c **** *  WriteTxDataZero() function.
1030:Generated_Source\PSoC5/SPIS.c **** *
1031:Generated_Source\PSoC5/SPIS.c **** * Parameters:
1032:Generated_Source\PSoC5/SPIS.c **** *  *buffer: Pointer to the location in RAM containing the data to send
1033:Generated_Source\PSoC5/SPIS.c **** *  byteCount: The number of bytes to move to the transmit buffer.
1034:Generated_Source\PSoC5/SPIS.c **** *
1035:Generated_Source\PSoC5/SPIS.c **** * Return:
1036:Generated_Source\PSoC5/SPIS.c **** *  None.
1037:Generated_Source\PSoC5/SPIS.c **** *
1038:Generated_Source\PSoC5/SPIS.c **** * Side Effects:
1039:Generated_Source\PSoC5/SPIS.c **** *  Will stay in this routine until all data has been sent.  May get locked in
1040:Generated_Source\PSoC5/SPIS.c **** *  this loop if data is not being initiated by the master if there is not
1041:Generated_Source\PSoC5/SPIS.c **** *  enough room in the TX FIFO.
1042:Generated_Source\PSoC5/SPIS.c **** *
1043:Generated_Source\PSoC5/SPIS.c **** * Reentrant:
1044:Generated_Source\PSoC5/SPIS.c **** *  No.
1045:Generated_Source\PSoC5/SPIS.c **** *
1046:Generated_Source\PSoC5/SPIS.c **** *******************************************************************************/
1047:Generated_Source\PSoC5/SPIS.c **** void SPIS_PutArray(const uint16 buffer[], uint8 byteCount)
1048:Generated_Source\PSoC5/SPIS.c ****                                                                     
1049:Generated_Source\PSoC5/SPIS.c **** {
 525              		.loc 1 1049 0
 526              		.cfi_startproc
 527              		@ args = 0, pretend = 0, frame = 0
 528              		@ frame_needed = 0, uses_anonymous_args = 0
 529              	.LVL17:
 530 0000 10B5     		push	{r4, lr}
 531              		.cfi_def_cfa_offset 8
 532              		.cfi_offset 4, -8
 533              		.cfi_offset 14, -4
 534 0002 841E     		subs	r4, r0, #2
 535              	.LVL18:
 536              	.L55:
1050:Generated_Source\PSoC5/SPIS.c ****     uint8 bufIndex;
1051:Generated_Source\PSoC5/SPIS.c ****     bufIndex = 0u;
1052:Generated_Source\PSoC5/SPIS.c **** 
1053:Generated_Source\PSoC5/SPIS.c ****     while(byteCount > 0u)
 537              		.loc 1 1053 0
 538 0004 31B1     		cbz	r1, .L57
ARM GAS  C:\Users\HARLOW~1\AppData\Local\Temp\cccXBsIm.s 			page 29


1054:Generated_Source\PSoC5/SPIS.c ****     {
1055:Generated_Source\PSoC5/SPIS.c ****         SPIS_WriteTxData(buffer[bufIndex]);
 539              		.loc 1 1055 0
 540 0006 34F8020F 		ldrh	r0, [r4, #2]!
 541 000a FFF7FEFF 		bl	SPIS_WriteTxData
 542              	.LVL19:
1056:Generated_Source\PSoC5/SPIS.c ****         bufIndex++;
1057:Generated_Source\PSoC5/SPIS.c ****         byteCount--;
 543              		.loc 1 1057 0
 544 000e 0139     		subs	r1, r1, #1
 545 0010 C9B2     		uxtb	r1, r1
 546              	.LVL20:
 547 0012 F7E7     		b	.L55
 548              	.LVL21:
 549              	.L57:
1058:Generated_Source\PSoC5/SPIS.c ****     }
1059:Generated_Source\PSoC5/SPIS.c **** }
 550              		.loc 1 1059 0
 551 0014 10BD     		pop	{r4, pc}
 552              		.cfi_endproc
 553              	.LFE19:
 554              		.size	SPIS_PutArray, .-SPIS_PutArray
 555              		.section	.text.SPIS_ClearFIFO,"ax",%progbits
 556              		.align	1
 557              		.global	SPIS_ClearFIFO
 558              		.thumb
 559              		.thumb_func
 560              		.type	SPIS_ClearFIFO, %function
 561              	SPIS_ClearFIFO:
 562              	.LFB20:
1060:Generated_Source\PSoC5/SPIS.c **** 
1061:Generated_Source\PSoC5/SPIS.c **** 
1062:Generated_Source\PSoC5/SPIS.c **** /*******************************************************************************
1063:Generated_Source\PSoC5/SPIS.c **** * Function Name: SPIS_ClearFIFO
1064:Generated_Source\PSoC5/SPIS.c **** ********************************************************************************
1065:Generated_Source\PSoC5/SPIS.c **** *
1066:Generated_Source\PSoC5/SPIS.c **** * Summary:
1067:Generated_Source\PSoC5/SPIS.c **** *  Clear the RX and TX FIFO's of all data for a fresh start.
1068:Generated_Source\PSoC5/SPIS.c **** *
1069:Generated_Source\PSoC5/SPIS.c **** * Parameters:
1070:Generated_Source\PSoC5/SPIS.c **** *  None.
1071:Generated_Source\PSoC5/SPIS.c **** *
1072:Generated_Source\PSoC5/SPIS.c **** * Return:
1073:Generated_Source\PSoC5/SPIS.c **** *  None.
1074:Generated_Source\PSoC5/SPIS.c **** *
1075:Generated_Source\PSoC5/SPIS.c **** * Side Effects:
1076:Generated_Source\PSoC5/SPIS.c **** *  Clear status register of the component.
1077:Generated_Source\PSoC5/SPIS.c **** *
1078:Generated_Source\PSoC5/SPIS.c **** *******************************************************************************/
1079:Generated_Source\PSoC5/SPIS.c **** void SPIS_ClearFIFO(void) 
1080:Generated_Source\PSoC5/SPIS.c **** {
 563              		.loc 1 1080 0
 564              		.cfi_startproc
 565              		@ args = 0, pretend = 0, frame = 0
 566              		@ frame_needed = 0, uses_anonymous_args = 0
 567 0000 08B5     		push	{r3, lr}
 568              		.cfi_def_cfa_offset 8
ARM GAS  C:\Users\HARLOW~1\AppData\Local\Temp\cccXBsIm.s 			page 30


 569              		.cfi_offset 3, -8
 570              		.cfi_offset 14, -4
1081:Generated_Source\PSoC5/SPIS.c ****     uint8 enableInterrupts;
1082:Generated_Source\PSoC5/SPIS.c **** 
1083:Generated_Source\PSoC5/SPIS.c ****     while((SPIS_RX_STATUS_REG & SPIS_STS_RX_FIFO_NOT_EMPTY) != 0u)
 571              		.loc 1 1083 0
 572 0002 0F4A     		ldr	r2, .L62
1084:Generated_Source\PSoC5/SPIS.c ****     {
1085:Generated_Source\PSoC5/SPIS.c ****         CY_GET_REG16(SPIS_RXDATA_PTR);
 573              		.loc 1 1085 0
 574 0004 0F49     		ldr	r1, .L62+4
 575              	.L59:
1083:Generated_Source\PSoC5/SPIS.c ****     {
 576              		.loc 1 1083 0
 577 0006 1378     		ldrb	r3, [r2]	@ zero_extendqisi2
 578 0008 1B07     		lsls	r3, r3, #28
 579 000a 01D5     		bpl	.L61
 580              		.loc 1 1085 0
 581 000c 0B88     		ldrh	r3, [r1]
 582 000e FAE7     		b	.L59
 583              	.L61:
1086:Generated_Source\PSoC5/SPIS.c ****     }
1087:Generated_Source\PSoC5/SPIS.c **** 
1088:Generated_Source\PSoC5/SPIS.c ****     enableInterrupts = CyEnterCriticalSection();
 584              		.loc 1 1088 0
 585 0010 FFF7FEFF 		bl	CyEnterCriticalSection
 586              	.LVL22:
1089:Generated_Source\PSoC5/SPIS.c **** 
1090:Generated_Source\PSoC5/SPIS.c ****     #if(SPIS_DATA_WIDTH <= 8u)
1091:Generated_Source\PSoC5/SPIS.c **** 
1092:Generated_Source\PSoC5/SPIS.c ****         /* Clear TX FIFO */
1093:Generated_Source\PSoC5/SPIS.c ****         SPIS_TX_AUX_CONTROL_DP0_REG |= (uint8)SPIS_FIFO_CLR;
1094:Generated_Source\PSoC5/SPIS.c ****         SPIS_TX_AUX_CONTROL_DP0_REG &= (uint8)~SPIS_FIFO_CLR;
1095:Generated_Source\PSoC5/SPIS.c **** 
1096:Generated_Source\PSoC5/SPIS.c ****     #else
1097:Generated_Source\PSoC5/SPIS.c **** 
1098:Generated_Source\PSoC5/SPIS.c ****         /* Clear TX FIFO */
1099:Generated_Source\PSoC5/SPIS.c ****         SPIS_TX_AUX_CONTROL_DP0_REG |= (uint8)SPIS_FIFO_CLR;
 587              		.loc 1 1099 0
 588 0014 0C4B     		ldr	r3, .L62+8
 589 0016 1A78     		ldrb	r2, [r3]	@ zero_extendqisi2
 590 0018 42F00302 		orr	r2, r2, #3
 591 001c 1A70     		strb	r2, [r3]
1100:Generated_Source\PSoC5/SPIS.c ****         SPIS_TX_AUX_CONTROL_DP0_REG &= (uint8)~SPIS_FIFO_CLR;
 592              		.loc 1 1100 0
 593 001e 1A78     		ldrb	r2, [r3]	@ zero_extendqisi2
 594 0020 02F0FC02 		and	r2, r2, #252
 595 0024 1A70     		strb	r2, [r3]
1101:Generated_Source\PSoC5/SPIS.c ****         SPIS_TX_AUX_CONTROL_DP1_REG |= (uint8)SPIS_FIFO_CLR;
 596              		.loc 1 1101 0
 597 0026 5A78     		ldrb	r2, [r3, #1]	@ zero_extendqisi2
 598 0028 42F00302 		orr	r2, r2, #3
 599 002c 5A70     		strb	r2, [r3, #1]
1102:Generated_Source\PSoC5/SPIS.c ****         SPIS_TX_AUX_CONTROL_DP1_REG &= (uint8)~SPIS_FIFO_CLR;
 600              		.loc 1 1102 0
 601 002e 5A78     		ldrb	r2, [r3, #1]	@ zero_extendqisi2
 602 0030 02F0FC02 		and	r2, r2, #252
ARM GAS  C:\Users\HARLOW~1\AppData\Local\Temp\cccXBsIm.s 			page 31


 603 0034 5A70     		strb	r2, [r3, #1]
1103:Generated_Source\PSoC5/SPIS.c **** 
1104:Generated_Source\PSoC5/SPIS.c ****     #endif /* SPIS_DATA_WIDTH <= 8u */
1105:Generated_Source\PSoC5/SPIS.c **** 
1106:Generated_Source\PSoC5/SPIS.c ****     CyExitCriticalSection(enableInterrupts);
1107:Generated_Source\PSoC5/SPIS.c **** }
 604              		.loc 1 1107 0
 605 0036 BDE80840 		pop	{r3, lr}
 606              		.cfi_restore 14
 607              		.cfi_restore 3
 608              		.cfi_def_cfa_offset 0
1106:Generated_Source\PSoC5/SPIS.c **** }
 609              		.loc 1 1106 0
 610 003a FFF7FEBF 		b	CyExitCriticalSection
 611              	.LVL23:
 612              	.L63:
 613 003e 00BF     		.align	2
 614              	.L62:
 615 0040 69650040 		.word	1073767785
 616 0044 5A640040 		.word	1073767514
 617 0048 9A640040 		.word	1073767578
 618              		.cfi_endproc
 619              	.LFE20:
 620              		.size	SPIS_ClearFIFO, .-SPIS_ClearFIFO
 621              		.section	.text.SPIS_Init,"ax",%progbits
 622              		.align	1
 623              		.global	SPIS_Init
 624              		.thumb
 625              		.thumb_func
 626              		.type	SPIS_Init, %function
 627              	SPIS_Init:
 628              	.LFB0:
  68:Generated_Source\PSoC5/SPIS.c ****     /*Initialize the Bit counter */
 629              		.loc 1 68 0
 630              		.cfi_startproc
 631              		@ args = 0, pretend = 0, frame = 0
 632              		@ frame_needed = 0, uses_anonymous_args = 0
 633 0000 08B5     		push	{r3, lr}
 634              		.cfi_def_cfa_offset 8
 635              		.cfi_offset 3, -8
 636              		.cfi_offset 14, -4
  70:Generated_Source\PSoC5/SPIS.c **** 
 637              		.loc 1 70 0
 638 0002 074B     		ldr	r3, .L65
 639 0004 0F22     		movs	r2, #15
 640 0006 1A70     		strb	r2, [r3]
  98:Generated_Source\PSoC5/SPIS.c **** 
 641              		.loc 1 98 0
 642 0008 FFF7FEFF 		bl	SPIS_ClearFIFO
 643              	.LVL24:
 644              	.LBB6:
 645              	.LBB7:
 429:Generated_Source\PSoC5/SPIS.c **** 
 646              		.loc 1 429 0
 647 000c 054B     		ldr	r3, .L65+4
 648              	.LBE7:
 649              	.LBE6:
ARM GAS  C:\Users\HARLOW~1\AppData\Local\Temp\cccXBsIm.s 			page 32


 121:Generated_Source\PSoC5/SPIS.c ****     #endif /* SPIS_TX_SOFTWARE_BUF_ENABLED */
 650              		.loc 1 121 0
 651 000e 064A     		ldr	r2, .L65+8
 652              	.LBB9:
 653              	.LBB8:
 429:Generated_Source\PSoC5/SPIS.c **** 
 654              		.loc 1 429 0
 655 0010 1B78     		ldrb	r3, [r3]	@ zero_extendqisi2
 656              	.LBE8:
 657              	.LBE9:
 658              	.LBB10:
 659              	.LBB11:
 482:Generated_Source\PSoC5/SPIS.c **** 
 660              		.loc 1 482 0
 661 0012 064B     		ldr	r3, .L65+12
 662 0014 1B78     		ldrb	r3, [r3]	@ zero_extendqisi2
 663              	.LBE11:
 664              	.LBE10:
 121:Generated_Source\PSoC5/SPIS.c ****     #endif /* SPIS_TX_SOFTWARE_BUF_ENABLED */
 665              		.loc 1 121 0
 666 0016 0023     		movs	r3, #0
 667 0018 1370     		strb	r3, [r2]
 124:Generated_Source\PSoC5/SPIS.c **** }
 668              		.loc 1 124 0
 669 001a 82F80331 		strb	r3, [r2, #259]
 670 001e 08BD     		pop	{r3, pc}
 671              	.L66:
 672              		.align	2
 673              	.L65:
 674 0020 8A640040 		.word	1073767562
 675 0024 66640040 		.word	1073767526
 676 0028 86640040 		.word	1073767558
 677 002c 69650040 		.word	1073767785
 678              		.cfi_endproc
 679              	.LFE0:
 680              		.size	SPIS_Init, .-SPIS_Init
 681              		.section	.text.SPIS_Start,"ax",%progbits
 682              		.align	1
 683              		.global	SPIS_Start
 684              		.thumb
 685              		.thumb_func
 686              		.type	SPIS_Start, %function
 687              	SPIS_Start:
 688              	.LFB2:
 188:Generated_Source\PSoC5/SPIS.c ****     if(SPIS_initVar == 0u)
 689              		.loc 1 188 0
 690              		.cfi_startproc
 691              		@ args = 0, pretend = 0, frame = 0
 692              		@ frame_needed = 0, uses_anonymous_args = 0
 693 0000 10B5     		push	{r4, lr}
 694              		.cfi_def_cfa_offset 8
 695              		.cfi_offset 4, -8
 696              		.cfi_offset 14, -4
 189:Generated_Source\PSoC5/SPIS.c ****     {
 697              		.loc 1 189 0
 698 0002 054C     		ldr	r4, .L69
 699 0004 2378     		ldrb	r3, [r4]	@ zero_extendqisi2
ARM GAS  C:\Users\HARLOW~1\AppData\Local\Temp\cccXBsIm.s 			page 33


 700 0006 1BB9     		cbnz	r3, .L68
 191:Generated_Source\PSoC5/SPIS.c ****         SPIS_initVar = 1u;
 701              		.loc 1 191 0
 702 0008 FFF7FEFF 		bl	SPIS_Init
 703              	.LVL25:
 192:Generated_Source\PSoC5/SPIS.c ****     }
 704              		.loc 1 192 0
 705 000c 0123     		movs	r3, #1
 706 000e 2370     		strb	r3, [r4]
 707              	.L68:
 196:Generated_Source\PSoC5/SPIS.c **** 
 708              		.loc 1 196 0
 709 0010 BDE81040 		pop	{r4, lr}
 710              		.cfi_restore 14
 711              		.cfi_restore 4
 712              		.cfi_def_cfa_offset 0
 195:Generated_Source\PSoC5/SPIS.c **** }
 713              		.loc 1 195 0
 714 0014 FFF7FEBF 		b	SPIS_Enable
 715              	.LVL26:
 716              	.L70:
 717              		.align	2
 718              	.L69:
 719 0018 00000000 		.word	.LANCHOR0
 720              		.cfi_endproc
 721              	.LFE2:
 722              		.size	SPIS_Start, .-SPIS_Start
 723              		.section	.text.SPIS_EnableInt,"ax",%progbits
 724              		.align	1
 725              		.global	SPIS_EnableInt
 726              		.thumb
 727              		.thumb_func
 728              		.type	SPIS_EnableInt, %function
 729              	SPIS_EnableInt:
 730              	.LFB26:
 731              		.cfi_startproc
 732              		@ args = 0, pretend = 0, frame = 0
 733              		@ frame_needed = 0, uses_anonymous_args = 0
 734              		@ link register save eliminated.
 735 0000 7047     		bx	lr
 736              		.cfi_endproc
 737              	.LFE26:
 738              		.size	SPIS_EnableInt, .-SPIS_EnableInt
 739              		.section	.text.SPIS_DisableInt,"ax",%progbits
 740              		.align	1
 741              		.global	SPIS_DisableInt
 742              		.thumb
 743              		.thumb_func
 744              		.type	SPIS_DisableInt, %function
 745              	SPIS_DisableInt:
 746              	.LFB22:
1108:Generated_Source\PSoC5/SPIS.c **** 
1109:Generated_Source\PSoC5/SPIS.c **** 
1110:Generated_Source\PSoC5/SPIS.c **** /* Following functions are for version Compatibility, they are obsolete.
1111:Generated_Source\PSoC5/SPIS.c **** *  Please do not use it in new projects.
1112:Generated_Source\PSoC5/SPIS.c **** */
1113:Generated_Source\PSoC5/SPIS.c **** 
ARM GAS  C:\Users\HARLOW~1\AppData\Local\Temp\cccXBsIm.s 			page 34


1114:Generated_Source\PSoC5/SPIS.c **** 
1115:Generated_Source\PSoC5/SPIS.c **** /*******************************************************************************
1116:Generated_Source\PSoC5/SPIS.c **** * Function Name: SPIS_EnableInt
1117:Generated_Source\PSoC5/SPIS.c **** ********************************************************************************
1118:Generated_Source\PSoC5/SPIS.c **** *
1119:Generated_Source\PSoC5/SPIS.c **** * Summary:
1120:Generated_Source\PSoC5/SPIS.c **** *  Enable internal interrupt generation.
1121:Generated_Source\PSoC5/SPIS.c **** *
1122:Generated_Source\PSoC5/SPIS.c **** * Parameters:
1123:Generated_Source\PSoC5/SPIS.c **** *  None.
1124:Generated_Source\PSoC5/SPIS.c **** *
1125:Generated_Source\PSoC5/SPIS.c **** * Return:
1126:Generated_Source\PSoC5/SPIS.c **** *  None.
1127:Generated_Source\PSoC5/SPIS.c **** *
1128:Generated_Source\PSoC5/SPIS.c **** * Theory:
1129:Generated_Source\PSoC5/SPIS.c **** *  Enable the internal interrupt output -or- the interrupt component itself.
1130:Generated_Source\PSoC5/SPIS.c **** *
1131:Generated_Source\PSoC5/SPIS.c **** *******************************************************************************/
1132:Generated_Source\PSoC5/SPIS.c **** void SPIS_EnableInt(void) 
1133:Generated_Source\PSoC5/SPIS.c **** {
1134:Generated_Source\PSoC5/SPIS.c ****     #if(SPIS_INTERNAL_TX_INT_ENABLED)
1135:Generated_Source\PSoC5/SPIS.c ****         CyIntEnable(SPIS_TX_ISR_NUMBER);
1136:Generated_Source\PSoC5/SPIS.c ****     #endif /* SPIS_INTERNAL_TX_INT_ENABLED */
1137:Generated_Source\PSoC5/SPIS.c **** 
1138:Generated_Source\PSoC5/SPIS.c ****     #if(SPIS_INTERNAL_RX_INT_ENABLED)
1139:Generated_Source\PSoC5/SPIS.c ****         CyIntEnable(SPIS_RX_ISR_NUMBER);
1140:Generated_Source\PSoC5/SPIS.c ****     #endif /* SPIS_INTERNAL_RX_INT_ENABLED */
1141:Generated_Source\PSoC5/SPIS.c **** }
1142:Generated_Source\PSoC5/SPIS.c **** 
1143:Generated_Source\PSoC5/SPIS.c **** 
1144:Generated_Source\PSoC5/SPIS.c **** /*******************************************************************************
1145:Generated_Source\PSoC5/SPIS.c **** * Function Name: SPIS_DisableInt
1146:Generated_Source\PSoC5/SPIS.c **** ********************************************************************************
1147:Generated_Source\PSoC5/SPIS.c **** *
1148:Generated_Source\PSoC5/SPIS.c **** * Summary:
1149:Generated_Source\PSoC5/SPIS.c **** *  Disable internal interrupt generation.
1150:Generated_Source\PSoC5/SPIS.c **** *
1151:Generated_Source\PSoC5/SPIS.c **** * Parameters:
1152:Generated_Source\PSoC5/SPIS.c **** *  None.
1153:Generated_Source\PSoC5/SPIS.c **** *
1154:Generated_Source\PSoC5/SPIS.c **** * Return:
1155:Generated_Source\PSoC5/SPIS.c **** *  None.
1156:Generated_Source\PSoC5/SPIS.c **** *
1157:Generated_Source\PSoC5/SPIS.c **** * Theory:
1158:Generated_Source\PSoC5/SPIS.c **** *  Disable the internal interrupt output -or- the interrupt component itself.
1159:Generated_Source\PSoC5/SPIS.c **** *
1160:Generated_Source\PSoC5/SPIS.c **** *******************************************************************************/
1161:Generated_Source\PSoC5/SPIS.c **** void SPIS_DisableInt(void) 
1162:Generated_Source\PSoC5/SPIS.c **** {
 747              		.loc 1 1162 0
 748              		.cfi_startproc
 749              		@ args = 0, pretend = 0, frame = 0
 750              		@ frame_needed = 0, uses_anonymous_args = 0
 751              		@ link register save eliminated.
 752 0000 7047     		bx	lr
 753              		.cfi_endproc
 754              	.LFE22:
ARM GAS  C:\Users\HARLOW~1\AppData\Local\Temp\cccXBsIm.s 			page 35


 755              		.size	SPIS_DisableInt, .-SPIS_DisableInt
 756              		.section	.text.SPIS_SetInterruptMode,"ax",%progbits
 757              		.align	1
 758              		.global	SPIS_SetInterruptMode
 759              		.thumb
 760              		.thumb_func
 761              		.type	SPIS_SetInterruptMode, %function
 762              	SPIS_SetInterruptMode:
 763              	.LFB23:
1163:Generated_Source\PSoC5/SPIS.c ****     #if(SPIS_INTERNAL_TX_INT_ENABLED)
1164:Generated_Source\PSoC5/SPIS.c ****         CyIntDisable(SPIS_TX_ISR_NUMBER);
1165:Generated_Source\PSoC5/SPIS.c ****     #endif /* SPIS_INTERNAL_TX_INT_ENABLED */
1166:Generated_Source\PSoC5/SPIS.c **** 
1167:Generated_Source\PSoC5/SPIS.c ****     #if(SPIS_INTERNAL_RX_INT_ENABLED)
1168:Generated_Source\PSoC5/SPIS.c ****         CyIntDisable(SPIS_RX_ISR_NUMBER);
1169:Generated_Source\PSoC5/SPIS.c ****     #endif /* SPIS_INTERNAL_RX_INT_ENABLED */
1170:Generated_Source\PSoC5/SPIS.c **** }
1171:Generated_Source\PSoC5/SPIS.c **** 
1172:Generated_Source\PSoC5/SPIS.c **** 
1173:Generated_Source\PSoC5/SPIS.c **** /*******************************************************************************
1174:Generated_Source\PSoC5/SPIS.c **** * Function Name: SPIS_SetInterruptMode
1175:Generated_Source\PSoC5/SPIS.c **** ********************************************************************************
1176:Generated_Source\PSoC5/SPIS.c **** *
1177:Generated_Source\PSoC5/SPIS.c **** * Summary:
1178:Generated_Source\PSoC5/SPIS.c **** *  Configure which status bits trigger an interrupt event.
1179:Generated_Source\PSoC5/SPIS.c **** *
1180:Generated_Source\PSoC5/SPIS.c **** * Parameters:
1181:Generated_Source\PSoC5/SPIS.c **** *  intSrc: An or'd combination of the desired status bit masks (defined in the
1182:Generated_Source\PSoC5/SPIS.c **** *  header file).
1183:Generated_Source\PSoC5/SPIS.c **** *
1184:Generated_Source\PSoC5/SPIS.c **** * Return:
1185:Generated_Source\PSoC5/SPIS.c **** *  None.
1186:Generated_Source\PSoC5/SPIS.c **** *
1187:Generated_Source\PSoC5/SPIS.c **** * Theory:
1188:Generated_Source\PSoC5/SPIS.c **** *  Enables the output of specific status bits to the interrupt controller.
1189:Generated_Source\PSoC5/SPIS.c **** *
1190:Generated_Source\PSoC5/SPIS.c **** *******************************************************************************/
1191:Generated_Source\PSoC5/SPIS.c **** void SPIS_SetInterruptMode(uint8 intSrc) 
1192:Generated_Source\PSoC5/SPIS.c **** {
 764              		.loc 1 1192 0
 765              		.cfi_startproc
 766              		@ args = 0, pretend = 0, frame = 0
 767              		@ frame_needed = 0, uses_anonymous_args = 0
 768              		@ link register save eliminated.
 769              	.LVL27:
1193:Generated_Source\PSoC5/SPIS.c ****     SPIS_TX_STATUS_MASK_REG  = intSrc;
 770              		.loc 1 1193 0
 771 0000 024B     		ldr	r3, .L74
 772 0002 1870     		strb	r0, [r3]
1194:Generated_Source\PSoC5/SPIS.c ****     SPIS_RX_STATUS_MASK_REG  = intSrc;
 773              		.loc 1 1194 0
 774 0004 83F80301 		strb	r0, [r3, #259]
 775 0008 7047     		bx	lr
 776              	.L75:
 777 000a 00BF     		.align	2
 778              	.L74:
 779 000c 86640040 		.word	1073767558
ARM GAS  C:\Users\HARLOW~1\AppData\Local\Temp\cccXBsIm.s 			page 36


 780              		.cfi_endproc
 781              	.LFE23:
 782              		.size	SPIS_SetInterruptMode, .-SPIS_SetInterruptMode
 783              		.section	.text.SPIS_ReadStatus,"ax",%progbits
 784              		.align	1
 785              		.global	SPIS_ReadStatus
 786              		.thumb
 787              		.thumb_func
 788              		.type	SPIS_ReadStatus, %function
 789              	SPIS_ReadStatus:
 790              	.LFB24:
1195:Generated_Source\PSoC5/SPIS.c **** }
1196:Generated_Source\PSoC5/SPIS.c **** 
1197:Generated_Source\PSoC5/SPIS.c **** 
1198:Generated_Source\PSoC5/SPIS.c **** /*******************************************************************************
1199:Generated_Source\PSoC5/SPIS.c **** * Function Name: SPIS_ReadStatus
1200:Generated_Source\PSoC5/SPIS.c **** ********************************************************************************
1201:Generated_Source\PSoC5/SPIS.c **** *
1202:Generated_Source\PSoC5/SPIS.c **** * Summary:
1203:Generated_Source\PSoC5/SPIS.c **** *  Read the status register for the component.
1204:Generated_Source\PSoC5/SPIS.c **** *
1205:Generated_Source\PSoC5/SPIS.c **** * Parameters:
1206:Generated_Source\PSoC5/SPIS.c **** *  None.
1207:Generated_Source\PSoC5/SPIS.c **** *
1208:Generated_Source\PSoC5/SPIS.c **** * Return:
1209:Generated_Source\PSoC5/SPIS.c **** *  Contents of the status register.
1210:Generated_Source\PSoC5/SPIS.c **** *
1211:Generated_Source\PSoC5/SPIS.c **** * Global variables:
1212:Generated_Source\PSoC5/SPIS.c **** *  SPIS_swStatus - used to store in software status register,
1213:Generated_Source\PSoC5/SPIS.c **** *  modified every function call - resets to zero.
1214:Generated_Source\PSoC5/SPIS.c **** *
1215:Generated_Source\PSoC5/SPIS.c **** * Theory:
1216:Generated_Source\PSoC5/SPIS.c **** *  Allows the user and the API to read the status register for error detection
1217:Generated_Source\PSoC5/SPIS.c **** *  and flow control.
1218:Generated_Source\PSoC5/SPIS.c **** *
1219:Generated_Source\PSoC5/SPIS.c **** * Side Effects:
1220:Generated_Source\PSoC5/SPIS.c **** *  Clear status register of the component.
1221:Generated_Source\PSoC5/SPIS.c **** *
1222:Generated_Source\PSoC5/SPIS.c **** * Reentrant:
1223:Generated_Source\PSoC5/SPIS.c **** *  No.
1224:Generated_Source\PSoC5/SPIS.c **** *
1225:Generated_Source\PSoC5/SPIS.c **** *******************************************************************************/
1226:Generated_Source\PSoC5/SPIS.c **** uint8 SPIS_ReadStatus(void) 
1227:Generated_Source\PSoC5/SPIS.c **** {
 791              		.loc 1 1227 0
 792              		.cfi_startproc
 793              		@ args = 0, pretend = 0, frame = 0
 794              		@ frame_needed = 0, uses_anonymous_args = 0
 795              		@ link register save eliminated.
1228:Generated_Source\PSoC5/SPIS.c ****     uint8 tmpStatus;
1229:Generated_Source\PSoC5/SPIS.c **** 
1230:Generated_Source\PSoC5/SPIS.c ****     #if ((SPIS_TX_SOFTWARE_BUF_ENABLED) || (SPIS_RX_SOFTWARE_BUF_ENABLED))
1231:Generated_Source\PSoC5/SPIS.c **** 
1232:Generated_Source\PSoC5/SPIS.c ****         SPIS_DisableInt();
1233:Generated_Source\PSoC5/SPIS.c **** 
1234:Generated_Source\PSoC5/SPIS.c ****         tmpStatus = SPIS_GET_STATUS_TX(SPIS_swStatusTx) |
1235:Generated_Source\PSoC5/SPIS.c ****               (SPIS_GET_STATUS_RX(SPIS_swStatusRx) & (uint8)~SPIS_STS_RX_FIFO_FULL);
ARM GAS  C:\Users\HARLOW~1\AppData\Local\Temp\cccXBsIm.s 			page 37


1236:Generated_Source\PSoC5/SPIS.c **** 
1237:Generated_Source\PSoC5/SPIS.c ****         SPIS_swStatusTx = 0u;
1238:Generated_Source\PSoC5/SPIS.c ****         SPIS_swStatusRx = 0u;
1239:Generated_Source\PSoC5/SPIS.c **** 
1240:Generated_Source\PSoC5/SPIS.c ****         /* Enable Interrupts */
1241:Generated_Source\PSoC5/SPIS.c ****         SPIS_EnableInt();
1242:Generated_Source\PSoC5/SPIS.c **** 
1243:Generated_Source\PSoC5/SPIS.c ****     #else /* !((SPIS_TX_SOFTWARE_BUF_ENABLED) || (SPIS_RX_SOFTWARE_BUF_ENABLED)) */
1244:Generated_Source\PSoC5/SPIS.c **** 
1245:Generated_Source\PSoC5/SPIS.c ****         tmpStatus = SPIS_TX_STATUS_REG | (SPIS_RX_STATUS_REG &
 796              		.loc 1 1245 0
 797 0000 044B     		ldr	r3, .L77
 798 0002 1878     		ldrb	r0, [r3]	@ zero_extendqisi2
 799 0004 03F20313 		addw	r3, r3, #259
 800 0008 1B78     		ldrb	r3, [r3]	@ zero_extendqisi2
 801              	.LVL28:
1246:Generated_Source\PSoC5/SPIS.c ****                                                       (uint8)~SPIS_STS_RX_FIFO_FULL);
1247:Generated_Source\PSoC5/SPIS.c **** 
1248:Generated_Source\PSoC5/SPIS.c ****     #endif /* (SPIS_TX_SOFTWARE_BUF_ENABLED) || (SPIS_RX_SOFTWARE_BUF_ENABLED) */
1249:Generated_Source\PSoC5/SPIS.c **** 
1250:Generated_Source\PSoC5/SPIS.c ****     return(tmpStatus);
 802              		.loc 1 1250 0
 803 000a 03F0BF03 		and	r3, r3, #191
 804              	.LVL29:
1251:Generated_Source\PSoC5/SPIS.c **** }
 805              		.loc 1 1251 0
 806 000e 1843     		orrs	r0, r0, r3
 807 0010 7047     		bx	lr
 808              	.L78:
 809 0012 00BF     		.align	2
 810              	.L77:
 811 0014 66640040 		.word	1073767526
 812              		.cfi_endproc
 813              	.LFE24:
 814              		.size	SPIS_ReadStatus, .-SPIS_ReadStatus
 815              		.comm	SPIS_swStatusRx,1,1
 816              		.comm	SPIS_swStatusTx,1,1
 817              		.global	SPIS_initVar
 818              		.bss
 819              		.set	.LANCHOR0,. + 0
 820              		.type	SPIS_initVar, %object
 821              		.size	SPIS_initVar, 1
 822              	SPIS_initVar:
 823 0000 00       		.space	1
 824              		.text
 825              	.Letext0:
 826              		.file 2 "Generated_Source\\PSoC5\\cytypes.h"
 827              		.file 3 "Generated_Source\\PSoC5\\CyLib.h"