ARM GAS  C:\Users\HARLOW~1\AppData\Local\Temp\ccuaMlob.s 			page 1


   1              		.syntax unified
   2              		.cpu cortex-m3
   3              		.fpu softvfp
   4              		.eabi_attribute 20, 1
   5              		.eabi_attribute 21, 1
   6              		.eabi_attribute 23, 3
   7              		.eabi_attribute 24, 1
   8              		.eabi_attribute 25, 1
   9              		.eabi_attribute 26, 1
  10              		.eabi_attribute 30, 4
  11              		.eabi_attribute 34, 1
  12              		.eabi_attribute 18, 4
  13              		.thumb
  14              		.syntax unified
  15              		.file	"Status_Reg_1.c"
  16              		.text
  17              	.Ltext0:
  18              		.cfi_sections	.debug_frame
  19              		.section	.text.Status_Reg_1_Read,"ax",%progbits
  20              		.align	1
  21              		.global	Status_Reg_1_Read
  22              		.thumb
  23              		.thumb_func
  24              		.type	Status_Reg_1_Read, %function
  25              	Status_Reg_1_Read:
  26              	.LFB0:
  27              		.file 1 "Generated_Source\\PSoC5\\Status_Reg_1.c"
   1:Generated_Source\PSoC5/Status_Reg_1.c **** /*******************************************************************************
   2:Generated_Source\PSoC5/Status_Reg_1.c **** * File Name: Status_Reg_1.c  
   3:Generated_Source\PSoC5/Status_Reg_1.c **** * Version 1.90
   4:Generated_Source\PSoC5/Status_Reg_1.c **** *
   5:Generated_Source\PSoC5/Status_Reg_1.c **** * Description:
   6:Generated_Source\PSoC5/Status_Reg_1.c **** *  This file contains API to enable firmware to read the value of a Status 
   7:Generated_Source\PSoC5/Status_Reg_1.c **** *  Register.
   8:Generated_Source\PSoC5/Status_Reg_1.c **** *
   9:Generated_Source\PSoC5/Status_Reg_1.c **** * Note:
  10:Generated_Source\PSoC5/Status_Reg_1.c **** *
  11:Generated_Source\PSoC5/Status_Reg_1.c **** ********************************************************************************
  12:Generated_Source\PSoC5/Status_Reg_1.c **** * Copyright 2008-2015, Cypress Semiconductor Corporation.  All rights reserved.
  13:Generated_Source\PSoC5/Status_Reg_1.c **** * You may use this file only in accordance with the license, terms, conditions, 
  14:Generated_Source\PSoC5/Status_Reg_1.c **** * disclaimers, and limitations in the end user license agreement accompanying 
  15:Generated_Source\PSoC5/Status_Reg_1.c **** * the software package with which this file was provided.
  16:Generated_Source\PSoC5/Status_Reg_1.c **** *******************************************************************************/
  17:Generated_Source\PSoC5/Status_Reg_1.c **** 
  18:Generated_Source\PSoC5/Status_Reg_1.c **** #include "Status_Reg_1.h"
  19:Generated_Source\PSoC5/Status_Reg_1.c **** 
  20:Generated_Source\PSoC5/Status_Reg_1.c **** #if !defined(Status_Reg_1_sts_sts_reg__REMOVED) /* Check for removal by optimization */
  21:Generated_Source\PSoC5/Status_Reg_1.c **** 
  22:Generated_Source\PSoC5/Status_Reg_1.c **** 
  23:Generated_Source\PSoC5/Status_Reg_1.c **** /*******************************************************************************
  24:Generated_Source\PSoC5/Status_Reg_1.c **** * Function Name: Status_Reg_1_Read
  25:Generated_Source\PSoC5/Status_Reg_1.c **** ********************************************************************************
  26:Generated_Source\PSoC5/Status_Reg_1.c **** *
  27:Generated_Source\PSoC5/Status_Reg_1.c **** * Summary:
  28:Generated_Source\PSoC5/Status_Reg_1.c **** *  Reads the current value assigned to the Status Register.
  29:Generated_Source\PSoC5/Status_Reg_1.c **** *
  30:Generated_Source\PSoC5/Status_Reg_1.c **** * Parameters:
ARM GAS  C:\Users\HARLOW~1\AppData\Local\Temp\ccuaMlob.s 			page 2


  31:Generated_Source\PSoC5/Status_Reg_1.c **** *  None.
  32:Generated_Source\PSoC5/Status_Reg_1.c **** *
  33:Generated_Source\PSoC5/Status_Reg_1.c **** * Return:
  34:Generated_Source\PSoC5/Status_Reg_1.c **** *  The current value in the Status Register.
  35:Generated_Source\PSoC5/Status_Reg_1.c **** *
  36:Generated_Source\PSoC5/Status_Reg_1.c **** *******************************************************************************/
  37:Generated_Source\PSoC5/Status_Reg_1.c **** uint8 Status_Reg_1_Read(void) 
  38:Generated_Source\PSoC5/Status_Reg_1.c **** { 
  28              		.loc 1 38 0
  29              		.cfi_startproc
  30              		@ args = 0, pretend = 0, frame = 0
  31              		@ frame_needed = 0, uses_anonymous_args = 0
  32              		@ link register save eliminated.
  39:Generated_Source\PSoC5/Status_Reg_1.c ****     return Status_Reg_1_Status;
  33              		.loc 1 39 0
  34 0000 014B     		ldr	r3, .L2
  35 0002 1878     		ldrb	r0, [r3]	@ zero_extendqisi2
  40:Generated_Source\PSoC5/Status_Reg_1.c **** }
  36              		.loc 1 40 0
  37 0004 7047     		bx	lr
  38              	.L3:
  39 0006 00BF     		.align	2
  40              	.L2:
  41 0008 65650040 		.word	1073767781
  42              		.cfi_endproc
  43              	.LFE0:
  44              		.size	Status_Reg_1_Read, .-Status_Reg_1_Read
  45              		.section	.text.Status_Reg_1_InterruptEnable,"ax",%progbits
  46              		.align	1
  47              		.global	Status_Reg_1_InterruptEnable
  48              		.thumb
  49              		.thumb_func
  50              		.type	Status_Reg_1_InterruptEnable, %function
  51              	Status_Reg_1_InterruptEnable:
  52              	.LFB1:
  41:Generated_Source\PSoC5/Status_Reg_1.c **** 
  42:Generated_Source\PSoC5/Status_Reg_1.c **** 
  43:Generated_Source\PSoC5/Status_Reg_1.c **** /*******************************************************************************
  44:Generated_Source\PSoC5/Status_Reg_1.c **** * Function Name: Status_Reg_1_InterruptEnable
  45:Generated_Source\PSoC5/Status_Reg_1.c **** ********************************************************************************
  46:Generated_Source\PSoC5/Status_Reg_1.c **** *
  47:Generated_Source\PSoC5/Status_Reg_1.c **** * Summary:
  48:Generated_Source\PSoC5/Status_Reg_1.c **** *  Enables the Status Register interrupt.
  49:Generated_Source\PSoC5/Status_Reg_1.c **** *
  50:Generated_Source\PSoC5/Status_Reg_1.c **** * Parameters:
  51:Generated_Source\PSoC5/Status_Reg_1.c **** *  None.
  52:Generated_Source\PSoC5/Status_Reg_1.c **** *
  53:Generated_Source\PSoC5/Status_Reg_1.c **** * Return:
  54:Generated_Source\PSoC5/Status_Reg_1.c **** *  None.
  55:Generated_Source\PSoC5/Status_Reg_1.c **** *
  56:Generated_Source\PSoC5/Status_Reg_1.c **** *******************************************************************************/
  57:Generated_Source\PSoC5/Status_Reg_1.c **** void Status_Reg_1_InterruptEnable(void) 
  58:Generated_Source\PSoC5/Status_Reg_1.c **** {
  53              		.loc 1 58 0
  54              		.cfi_startproc
  55              		@ args = 0, pretend = 0, frame = 0
  56              		@ frame_needed = 0, uses_anonymous_args = 0
ARM GAS  C:\Users\HARLOW~1\AppData\Local\Temp\ccuaMlob.s 			page 3


  57 0000 08B5     		push	{r3, lr}
  58              		.cfi_def_cfa_offset 8
  59              		.cfi_offset 3, -8
  60              		.cfi_offset 14, -4
  59:Generated_Source\PSoC5/Status_Reg_1.c ****     uint8 interruptState;
  60:Generated_Source\PSoC5/Status_Reg_1.c ****     interruptState = CyEnterCriticalSection();
  61              		.loc 1 60 0
  62 0002 FFF7FEFF 		bl	CyEnterCriticalSection
  63              	.LVL0:
  61:Generated_Source\PSoC5/Status_Reg_1.c ****     Status_Reg_1_Status_Aux_Ctrl |= Status_Reg_1_STATUS_INTR_ENBL;
  64              		.loc 1 61 0
  65 0006 044A     		ldr	r2, .L5
  66 0008 1378     		ldrb	r3, [r2]	@ zero_extendqisi2
  67 000a 43F01003 		orr	r3, r3, #16
  68 000e 1370     		strb	r3, [r2]
  62:Generated_Source\PSoC5/Status_Reg_1.c ****     CyExitCriticalSection(interruptState);
  63:Generated_Source\PSoC5/Status_Reg_1.c **** }
  69              		.loc 1 63 0
  70 0010 BDE80840 		pop	{r3, lr}
  71              		.cfi_restore 14
  72              		.cfi_restore 3
  73              		.cfi_def_cfa_offset 0
  62:Generated_Source\PSoC5/Status_Reg_1.c ****     CyExitCriticalSection(interruptState);
  74              		.loc 1 62 0
  75 0014 FFF7FEBF 		b	CyExitCriticalSection
  76              	.LVL1:
  77              	.L6:
  78              		.align	2
  79              	.L5:
  80 0018 95650040 		.word	1073767829
  81              		.cfi_endproc
  82              	.LFE1:
  83              		.size	Status_Reg_1_InterruptEnable, .-Status_Reg_1_InterruptEnable
  84              		.section	.text.Status_Reg_1_InterruptDisable,"ax",%progbits
  85              		.align	1
  86              		.global	Status_Reg_1_InterruptDisable
  87              		.thumb
  88              		.thumb_func
  89              		.type	Status_Reg_1_InterruptDisable, %function
  90              	Status_Reg_1_InterruptDisable:
  91              	.LFB2:
  64:Generated_Source\PSoC5/Status_Reg_1.c **** 
  65:Generated_Source\PSoC5/Status_Reg_1.c **** 
  66:Generated_Source\PSoC5/Status_Reg_1.c **** /*******************************************************************************
  67:Generated_Source\PSoC5/Status_Reg_1.c **** * Function Name: Status_Reg_1_InterruptDisable
  68:Generated_Source\PSoC5/Status_Reg_1.c **** ********************************************************************************
  69:Generated_Source\PSoC5/Status_Reg_1.c **** *
  70:Generated_Source\PSoC5/Status_Reg_1.c **** * Summary:
  71:Generated_Source\PSoC5/Status_Reg_1.c **** *  Disables the Status Register interrupt.
  72:Generated_Source\PSoC5/Status_Reg_1.c **** *
  73:Generated_Source\PSoC5/Status_Reg_1.c **** * Parameters:
  74:Generated_Source\PSoC5/Status_Reg_1.c **** *  None.
  75:Generated_Source\PSoC5/Status_Reg_1.c **** *
  76:Generated_Source\PSoC5/Status_Reg_1.c **** * Return:
  77:Generated_Source\PSoC5/Status_Reg_1.c **** *  None.
  78:Generated_Source\PSoC5/Status_Reg_1.c **** *
  79:Generated_Source\PSoC5/Status_Reg_1.c **** *******************************************************************************/
ARM GAS  C:\Users\HARLOW~1\AppData\Local\Temp\ccuaMlob.s 			page 4


  80:Generated_Source\PSoC5/Status_Reg_1.c **** void Status_Reg_1_InterruptDisable(void) 
  81:Generated_Source\PSoC5/Status_Reg_1.c **** {
  92              		.loc 1 81 0
  93              		.cfi_startproc
  94              		@ args = 0, pretend = 0, frame = 0
  95              		@ frame_needed = 0, uses_anonymous_args = 0
  96 0000 08B5     		push	{r3, lr}
  97              		.cfi_def_cfa_offset 8
  98              		.cfi_offset 3, -8
  99              		.cfi_offset 14, -4
  82:Generated_Source\PSoC5/Status_Reg_1.c ****     uint8 interruptState;
  83:Generated_Source\PSoC5/Status_Reg_1.c ****     interruptState = CyEnterCriticalSection();
 100              		.loc 1 83 0
 101 0002 FFF7FEFF 		bl	CyEnterCriticalSection
 102              	.LVL2:
  84:Generated_Source\PSoC5/Status_Reg_1.c ****     Status_Reg_1_Status_Aux_Ctrl &= (uint8)(~Status_Reg_1_STATUS_INTR_ENBL);
 103              		.loc 1 84 0
 104 0006 044A     		ldr	r2, .L8
 105 0008 1378     		ldrb	r3, [r2]	@ zero_extendqisi2
 106 000a 03F0EF03 		and	r3, r3, #239
 107 000e 1370     		strb	r3, [r2]
  85:Generated_Source\PSoC5/Status_Reg_1.c ****     CyExitCriticalSection(interruptState);
  86:Generated_Source\PSoC5/Status_Reg_1.c **** }
 108              		.loc 1 86 0
 109 0010 BDE80840 		pop	{r3, lr}
 110              		.cfi_restore 14
 111              		.cfi_restore 3
 112              		.cfi_def_cfa_offset 0
  85:Generated_Source\PSoC5/Status_Reg_1.c ****     CyExitCriticalSection(interruptState);
 113              		.loc 1 85 0
 114 0014 FFF7FEBF 		b	CyExitCriticalSection
 115              	.LVL3:
 116              	.L9:
 117              		.align	2
 118              	.L8:
 119 0018 95650040 		.word	1073767829
 120              		.cfi_endproc
 121              	.LFE2:
 122              		.size	Status_Reg_1_InterruptDisable, .-Status_Reg_1_InterruptDisable
 123              		.section	.text.Status_Reg_1_WriteMask,"ax",%progbits
 124              		.align	1
 125              		.global	Status_Reg_1_WriteMask
 126              		.thumb
 127              		.thumb_func
 128              		.type	Status_Reg_1_WriteMask, %function
 129              	Status_Reg_1_WriteMask:
 130              	.LFB3:
  87:Generated_Source\PSoC5/Status_Reg_1.c **** 
  88:Generated_Source\PSoC5/Status_Reg_1.c **** 
  89:Generated_Source\PSoC5/Status_Reg_1.c **** /*******************************************************************************
  90:Generated_Source\PSoC5/Status_Reg_1.c **** * Function Name: Status_Reg_1_WriteMask
  91:Generated_Source\PSoC5/Status_Reg_1.c **** ********************************************************************************
  92:Generated_Source\PSoC5/Status_Reg_1.c **** *
  93:Generated_Source\PSoC5/Status_Reg_1.c **** * Summary:
  94:Generated_Source\PSoC5/Status_Reg_1.c **** *  Writes the current mask value assigned to the Status Register.
  95:Generated_Source\PSoC5/Status_Reg_1.c **** *
  96:Generated_Source\PSoC5/Status_Reg_1.c **** * Parameters:
ARM GAS  C:\Users\HARLOW~1\AppData\Local\Temp\ccuaMlob.s 			page 5


  97:Generated_Source\PSoC5/Status_Reg_1.c **** *  mask:  Value to write into the mask register.
  98:Generated_Source\PSoC5/Status_Reg_1.c **** *
  99:Generated_Source\PSoC5/Status_Reg_1.c **** * Return:
 100:Generated_Source\PSoC5/Status_Reg_1.c **** *  None.
 101:Generated_Source\PSoC5/Status_Reg_1.c **** *
 102:Generated_Source\PSoC5/Status_Reg_1.c **** *******************************************************************************/
 103:Generated_Source\PSoC5/Status_Reg_1.c **** void Status_Reg_1_WriteMask(uint8 mask) 
 104:Generated_Source\PSoC5/Status_Reg_1.c **** {
 131              		.loc 1 104 0
 132              		.cfi_startproc
 133              		@ args = 0, pretend = 0, frame = 0
 134              		@ frame_needed = 0, uses_anonymous_args = 0
 135              		@ link register save eliminated.
 136              	.LVL4:
 105:Generated_Source\PSoC5/Status_Reg_1.c ****     #if(Status_Reg_1_INPUTS < 8u)
 106:Generated_Source\PSoC5/Status_Reg_1.c ****     	mask &= ((uint8)(1u << Status_Reg_1_INPUTS) - 1u);
 107:Generated_Source\PSoC5/Status_Reg_1.c **** 	#endif /* End Status_Reg_1_INPUTS < 8u */
 108:Generated_Source\PSoC5/Status_Reg_1.c ****     Status_Reg_1_Status_Mask = mask;
 137              		.loc 1 108 0
 138 0000 024B     		ldr	r3, .L11
 106:Generated_Source\PSoC5/Status_Reg_1.c **** 	#endif /* End Status_Reg_1_INPUTS < 8u */
 139              		.loc 1 106 0
 140 0002 00F00100 		and	r0, r0, #1
 141              	.LVL5:
 142              		.loc 1 108 0
 143 0006 1870     		strb	r0, [r3]
 144 0008 7047     		bx	lr
 145              	.L12:
 146 000a 00BF     		.align	2
 147              	.L11:
 148 000c 85650040 		.word	1073767813
 149              		.cfi_endproc
 150              	.LFE3:
 151              		.size	Status_Reg_1_WriteMask, .-Status_Reg_1_WriteMask
 152              		.section	.text.Status_Reg_1_ReadMask,"ax",%progbits
 153              		.align	1
 154              		.global	Status_Reg_1_ReadMask
 155              		.thumb
 156              		.thumb_func
 157              		.type	Status_Reg_1_ReadMask, %function
 158              	Status_Reg_1_ReadMask:
 159              	.LFB4:
 109:Generated_Source\PSoC5/Status_Reg_1.c **** }
 110:Generated_Source\PSoC5/Status_Reg_1.c **** 
 111:Generated_Source\PSoC5/Status_Reg_1.c **** 
 112:Generated_Source\PSoC5/Status_Reg_1.c **** /*******************************************************************************
 113:Generated_Source\PSoC5/Status_Reg_1.c **** * Function Name: Status_Reg_1_ReadMask
 114:Generated_Source\PSoC5/Status_Reg_1.c **** ********************************************************************************
 115:Generated_Source\PSoC5/Status_Reg_1.c **** *
 116:Generated_Source\PSoC5/Status_Reg_1.c **** * Summary:
 117:Generated_Source\PSoC5/Status_Reg_1.c **** *  Reads the current interrupt mask assigned to the Status Register.
 118:Generated_Source\PSoC5/Status_Reg_1.c **** *
 119:Generated_Source\PSoC5/Status_Reg_1.c **** * Parameters:
 120:Generated_Source\PSoC5/Status_Reg_1.c **** *  None.
 121:Generated_Source\PSoC5/Status_Reg_1.c **** *
 122:Generated_Source\PSoC5/Status_Reg_1.c **** * Return:
 123:Generated_Source\PSoC5/Status_Reg_1.c **** *  The value of the interrupt mask of the Status Register.
ARM GAS  C:\Users\HARLOW~1\AppData\Local\Temp\ccuaMlob.s 			page 6


 124:Generated_Source\PSoC5/Status_Reg_1.c **** *
 125:Generated_Source\PSoC5/Status_Reg_1.c **** *******************************************************************************/
 126:Generated_Source\PSoC5/Status_Reg_1.c **** uint8 Status_Reg_1_ReadMask(void) 
 127:Generated_Source\PSoC5/Status_Reg_1.c **** {
 160              		.loc 1 127 0
 161              		.cfi_startproc
 162              		@ args = 0, pretend = 0, frame = 0
 163              		@ frame_needed = 0, uses_anonymous_args = 0
 164              		@ link register save eliminated.
 128:Generated_Source\PSoC5/Status_Reg_1.c ****     return Status_Reg_1_Status_Mask;
 165              		.loc 1 128 0
 166 0000 014B     		ldr	r3, .L14
 167 0002 1878     		ldrb	r0, [r3]	@ zero_extendqisi2
 129:Generated_Source\PSoC5/Status_Reg_1.c **** }
 168              		.loc 1 129 0
 169 0004 7047     		bx	lr
 170              	.L15:
 171 0006 00BF     		.align	2
 172              	.L14:
 173 0008 85650040 		.word	1073767813
 174              		.cfi_endproc
 175              	.LFE4:
 176              		.size	Status_Reg_1_ReadMask, .-Status_Reg_1_ReadMask
 177              		.text
 178              	.Letext0:
 179              		.file 2 "Generated_Source\\PSoC5\\cytypes.h"
 180              		.file 3 "Generated_Source\\PSoC5\\CyLib.h"