ARM GAS  C:\Users\Joe\AppData\Local\Temp\ccgEOtOg.s 			page 1


   1              		.syntax unified
   2              		.cpu cortex-m3
   3              		.fpu softvfp
   4              		.eabi_attribute 20, 1
   5              		.eabi_attribute 21, 1
   6              		.eabi_attribute 23, 3
   7              		.eabi_attribute 24, 1
   8              		.eabi_attribute 25, 1
   9              		.eabi_attribute 26, 1
  10              		.eabi_attribute 30, 4
  11              		.eabi_attribute 34, 1
  12              		.eabi_attribute 18, 4
  13              		.thumb
  14              		.syntax unified
  15              		.file	"main.c"
  16              		.text
  17              	.Ltext0:
  18              		.cfi_sections	.debug_frame
  19              		.section	.text.SS_Fall_Handler,"ax",%progbits
  20              		.align	1
  21              		.global	SS_Fall_Handler
  22              		.thumb
  23              		.thumb_func
  24              		.type	SS_Fall_Handler, %function
  25              	SS_Fall_Handler:
  26              	.LFB63:
  27              		.file 1 "main.c"
   1:main.c        **** /*******************************************************************************
   2:main.c        **** * File Name: main.c
   3:main.c        **** *
   4:main.c        **** * Version: 1.10
   5:main.c        **** *
   6:main.c        **** * Description:
   7:main.c        **** *  This is source code for example project of the SPI Master component.
   8:main.c        **** *  Parameters used:
   9:main.c        **** *   Mode                CPHA == 0, CPOL == 0                
  10:main.c        **** *   Data lines          MOSI+MISO
  11:main.c        **** *   Shift direction     MSB First
  12:main.c        **** *   DataBits:           8 
  13:main.c        **** *   Bit Rate            1 Mbps
  14:main.c        **** *   Clock source        External 
  15:main.c        **** *
  16:main.c        **** *  SPI communication test using DMA. 8 bytes are transmitted
  17:main.c        **** *  between SPI Master and SPI Slave.
  18:main.c        **** *  Received data are displayed on LCD. 
  19:main.c        **** *
  20:main.c        **** ********************************************************************************
  21:main.c        **** * Copyright 2012-2015, Cypress Semiconductor Corporation. All rights reserved.
  22:main.c        **** * This software is owned by Cypress Semiconductor Corporation and is protected
  23:main.c        **** * by and subject to worldwide patent and copyright laws and treaties.
  24:main.c        **** * Therefore, you may use this software only as provided in the license agreement
  25:main.c        **** * accompanying the software package from which you obtained this software.
  26:main.c        **** * CYPRESS AND ITS SUPPLIERS MAKE NO WARRANTY OF ANY KIND, EXPRESS OR IMPLIED,
  27:main.c        **** * WITH REGARD TO THIS SOFTWARE, INCLUDING, BUT NOT LIMITED TO, NONINFRINGEMENT,
  28:main.c        **** * IMPLIED WARRANTIES OF MERCHANTABILITY AND FITNESS FOR A PARTICULAR PURPOSE.
  29:main.c        **** *******************************************************************************/
  30:main.c        **** #include <project.h>
ARM GAS  C:\Users\Joe\AppData\Local\Temp\ccgEOtOg.s 			page 2


  31:main.c        **** 
  32:main.c        **** 
  33:main.c        **** uint16 WriteSignalGen(uint8, uint16);
  34:main.c        **** uint16 ReadEncoderValue(uint8);
  35:main.c        **** uint16  RPi_Command;
  36:main.c        **** uint16  RPi_Data;
  37:main.c        **** uint16 enc_a_Position;
  38:main.c        **** uint16 enc_b_Position;
  39:main.c        **** uint16 enc_c_Position;
  40:main.c        **** 
  41:main.c        **** #define idle_state            ((uint8) (0x00u))
  42:main.c        **** #define read_encoder_state    ((uint8) (0x01u))
  43:main.c        **** #define write_funcGen1_state  ((uint8) (0x02u))
  44:main.c        **** #define write_funcGen2_state  ((uint8) (0x03u))
  45:main.c        **** #define write_Amp_state       ((uint8) (0x04u))
  46:main.c        **** 
  47:main.c        **** 
  48:main.c        **** uint8 read_counter;
  49:main.c        **** uint8  PSOC_state;
  50:main.c        **** uint8 i2cAddress;
  51:main.c        **** uint8 i2cData;
  52:main.c        **** 
  53:main.c        **** CY_ISR(SS_Fall_Handler)
  54:main.c        **** {
  28              		.loc 1 54 0
  29              		.cfi_startproc
  30              		@ args = 0, pretend = 0, frame = 0
  31              		@ frame_needed = 0, uses_anonymous_args = 0
  32 0000 08B5     		push	{r3, lr}
  33              		.cfi_def_cfa_offset 8
  34              		.cfi_offset 3, -8
  35              		.cfi_offset 14, -4
  55:main.c        ****     /*  load the encoder position data into the transmit data registers*/
  56:main.c        **** 
  57:main.c        ****     isr_SS_Fall_ClearPending();
  36              		.loc 1 57 0
  37 0002 FFF7FEFF 		bl	isr_SS_Fall_ClearPending
  38              	.LVL0:
  58:main.c        ****    if (PSOC_state == idle_state) {
  39              		.loc 1 58 0
  40 0006 0A4B     		ldr	r3, .L8
  41 0008 1B78     		ldrb	r3, [r3]	@ zero_extendqisi2
  42 000a 0BB9     		cbnz	r3, .L2
  59:main.c        ****        SPIS_WriteTxDataZero(0x0001);
  43              		.loc 1 59 0
  44 000c 0120     		movs	r0, #1
  45 000e 0AE0     		b	.L6
  46              	.L2:
  60:main.c        ****    } else if (PSOC_state == write_funcGen1_state) {
  47              		.loc 1 60 0
  48 0010 022B     		cmp	r3, #2
  49 0012 01D1     		bne	.L3
  61:main.c        ****        SPIS_WriteTxDataZero(0x0020 );
  50              		.loc 1 61 0
  51 0014 2020     		movs	r0, #32
  52 0016 06E0     		b	.L6
  53              	.L3:
ARM GAS  C:\Users\Joe\AppData\Local\Temp\ccgEOtOg.s 			page 3


  62:main.c        ****    } else if (PSOC_state == write_funcGen2_state) {
  54              		.loc 1 62 0
  55 0018 032B     		cmp	r3, #3
  56 001a 01D1     		bne	.L4
  63:main.c        ****        SPIS_WriteTxDataZero(0x0040 );
  57              		.loc 1 63 0
  58 001c 4020     		movs	r0, #64
  59 001e 02E0     		b	.L6
  60              	.L4:
  64:main.c        ****    }  else if (PSOC_state == write_Amp_state) {
  61              		.loc 1 64 0
  62 0020 042B     		cmp	r3, #4
  63 0022 04D1     		bne	.L1
  65:main.c        ****        SPIS_WriteTxDataZero(0x0080 );
  64              		.loc 1 65 0
  65 0024 8020     		movs	r0, #128
  66              	.L6:
  66:main.c        ****    }   
  67:main.c        **** }
  67              		.loc 1 67 0
  68 0026 BDE80840 		pop	{r3, lr}
  69              		.cfi_remember_state
  70              		.cfi_restore 14
  71              		.cfi_restore 3
  72              		.cfi_def_cfa_offset 0
  65:main.c        ****        SPIS_WriteTxDataZero(0x0080 );
  73              		.loc 1 65 0
  74 002a FFF7FEBF 		b	SPIS_WriteTxDataZero
  75              	.LVL1:
  76              	.L1:
  77              		.cfi_restore_state
  78 002e 08BD     		pop	{r3, pc}
  79              	.L9:
  80              		.align	2
  81              	.L8:
  82 0030 00000000 		.word	PSOC_state
  83              		.cfi_endproc
  84              	.LFE63:
  85              		.size	SS_Fall_Handler, .-SS_Fall_Handler
  86              		.section	.text.WriteSignalGen,"ax",%progbits
  87              		.align	1
  88              		.global	WriteSignalGen
  89              		.thumb
  90              		.thumb_func
  91              		.type	WriteSignalGen, %function
  92              	WriteSignalGen:
  93              	.LFB66:
  68:main.c        **** 
  69:main.c        **** CY_ISR(SS_Rise_Handler)
  70:main.c        **** {
  71:main.c        ****     if (PSOC_state == idle_state)
  72:main.c        ****     {
  73:main.c        ****         RPi_Command = SPIS_ReadRxData();
  74:main.c        ****         read_counter = 0u;
  75:main.c        ****     } else {
  76:main.c        ****         RPi_Data = SPIS_ReadRxData();
  77:main.c        ****     }
ARM GAS  C:\Users\Joe\AppData\Local\Temp\ccgEOtOg.s 			page 4


  78:main.c        ****     
  79:main.c        **** /*    Routine to write to sig gen over SPI or Power Amp Gain over I2C */
  80:main.c        ****     
  81:main.c        ****     if (PSOC_state == idle_state)  {
  82:main.c        ****         if (RPi_Command == 0x0010)  {          
  83:main.c        ****            PSOC_state = read_encoder_state;
  84:main.c        ****            SPIS_WriteTxDataZero(enc_a_Position);
  85:main.c        ****            SPIS_WriteTxData(enc_b_Position);
  86:main.c        ****            SPIS_WriteTxData(enc_c_Position);
  87:main.c        ****            read_counter = 0u; 
  88:main.c        ****         } else if (RPi_Command == 0x0020)  {
  89:main.c        ****            PSOC_state = write_funcGen1_state;
  90:main.c        ****         } else if (RPi_Command == 0x0040)  {
  91:main.c        ****            PSOC_state = write_funcGen2_state;
  92:main.c        ****         }  else if (RPi_Command == 0x0080)  {
  93:main.c        ****            PSOC_state = write_Amp_state;
  94:main.c        ****         }  
  95:main.c        ****     } else  if  ( PSOC_state == read_encoder_state) {      
  96:main.c        ****         if (read_counter < 2u) {
  97:main.c        ****             read_counter +=1;
  98:main.c        ****         } else  {
  99:main.c        ****             PSOC_state = idle_state;
 100:main.c        ****             read_counter = 0u;
 101:main.c        ****         }
 102:main.c        ****     } else if ( PSOC_state == write_funcGen1_state) {
 103:main.c        ****         WriteSignalGen(0u, RPi_Data); 
 104:main.c        ****         PSOC_state = idle_state;
 105:main.c        ****     } else if ( PSOC_state == write_funcGen2_state) {
 106:main.c        ****         WriteSignalGen(1u, RPi_Data); 
 107:main.c        ****         PSOC_state = idle_state;
 108:main.c        ****     } else if ( PSOC_state == write_Amp_state) {
 109:main.c        ****         i2cAddress = ((uint8) (RPi_Data >>8));
 110:main.c        ****         i2cData = ((uint8) (RPi_Data & 0x00ff));
 111:main.c        ****         I2C_1_MasterSendStart(i2cAddress,0);
 112:main.c        ****         I2C_1_MasterWriteByte(i2cData);I2C_1_MasterSendStop();
 113:main.c        ****         PSOC_state = idle_state;
 114:main.c        ****      } else {
 115:main.c        ****          PSOC_state = idle_state;
 116:main.c        ****     }
 117:main.c        **** 
 118:main.c        ****     SPIS_ReadRxStatus();
 119:main.c        ****     SPIS_ClearRxBuffer();
 120:main.c        ****     isr_SS_Rise_ClearPending();
 121:main.c        ****    
 122:main.c        **** }
 123:main.c        **** 
 124:main.c        **** 
 125:main.c        **** /* The txBuffer size is equal (BUFFER_SIZE-1) because for SPI Mode where CPHA == 0 and
 126:main.c        **** * CPOL == 0 one byte writes directly in SPI TX FIFO using SPIS_WriteTxDataZero() API.
 127:main.c        **** */
 128:main.c        **** 
 129:main.c        **** uint16 rxBuffer [4];
 130:main.c        **** 
 131:main.c        ****  uint8 temp1;
 132:main.c        ****  uint8 temp2;
 133:main.c        **** 
 134:main.c        **** 
ARM GAS  C:\Users\Joe\AppData\Local\Temp\ccgEOtOg.s 			page 5


 135:main.c        **** uint8 i;
 136:main.c        **** uint16 shutdown_count;
 137:main.c        **** 
 138:main.c        **** /*******************************************************************************
 139:main.c        **** * Function Name: main
 140:main.c        **** ********************************************************************************
 141:main.c        **** *******************************************************************************/
 142:main.c        **** int main()
 143:main.c        **** {
 144:main.c        ****     Comp_1_Start();
 145:main.c        ****     CyDelay(2000u);
 146:main.c        ****     /* Enable Battery Backup circuit and interface circuits between RPi and PSOC  */
 147:main.c        ****     EnableBattery_Write(1u);
 148:main.c        ****     Control_Reg_SS_Write(0u);
 149:main.c        ****     Control_Reg_LED_Write(0u);
 150:main.c        ****     RpiInterrupts_Write(3u);     
 151:main.c        ****     Clock_1_Start();
 152:main.c        ****  
 153:main.c        ****     SPIM_1_Start();
 154:main.c        ****     SPIM_1_ClearFIFO();
 155:main.c        ****     SPIM_1_ClearRxBuffer();
 156:main.c        ****     SPIM_1_ClearTxBuffer();   
 157:main.c        ****     
 158:main.c        ****     SPIM_SigGen_Start();
 159:main.c        ****     SPIM_SigGen_ClearFIFO();
 160:main.c        ****     SPIM_SigGen_ClearRxBuffer();
 161:main.c        ****     SPIM_SigGen_ClearTxBuffer();    
 162:main.c        **** 
 163:main.c        ****     SPIS_Start();
 164:main.c        ****     SPIS_WriteTxDataZero(0x00u);
 165:main.c        ****  
 166:main.c        ****      I2C_1_Start();   
 167:main.c        ****     
 168:main.c        ****     PSOC_state = idle_state;
 169:main.c        ****      read_counter = 0u;
 170:main.c        ****       
 171:main.c        ****     CyGlobalIntEnable; 
 172:main.c        ****     isr_SS_Fall_StartEx(SS_Fall_Handler );
 173:main.c        ****     isr_SS_Rise_StartEx( SS_Rise_Handler );
 174:main.c        ****  
 175:main.c        ****     RPi_Command = 0x000f;
 176:main.c        ****   
 177:main.c        ****     shutdown_count = 0;
 178:main.c        **** 
 179:main.c        ****     while (1)  {
 180:main.c        ****         
 181:main.c        ****      /* read the encoder values  */     
 182:main.c        ****       enc_a_Position = ReadEncoderValue(0u);    
 183:main.c        ****       enc_b_Position = ReadEncoderValue(1u);        
 184:main.c        ****       enc_c_Position = ReadEncoderValue(2u);
 185:main.c        ****       
 186:main.c        ****     /* This code monitors the main power input.  A local backup batter supply prevents  */
 187:main.c        ****     /* power from being removed from the raspberry pi before it has been properly shutdown   */
 188:main.c        ****     /* Monitor the presence of the main power input */    
 189:main.c        ****     /*  If power has been removed for more than 5000 times through this loop -  -  about 20 seconds
 190:main.c        ****     /*  Interrupt the Raspberry Pi telling it to shut itself down  */
 191:main.c        ****     /*  allow 20 sec for the Pi to shut down then turn off back up power. */
ARM GAS  C:\Users\Joe\AppData\Local\Temp\ccgEOtOg.s 			page 6


 192:main.c        ****       CyDelayUs(1400u);
 193:main.c        **** 
 194:main.c        ****     
 195:main.c        ****       
 196:main.c        ****       if (Status_Reg_1_Read() == 1u) {
 197:main.c        ****         shutdown_count +=1;
 198:main.c        ****         if (shutdown_count == 2000u) {      
 199:main.c        ****             CyGlobalIntDisable; 
 200:main.c        ****              Control_Reg_LED_Write(1u);
 201:main.c        ****             /* tell Pi to shut down */ 
 202:main.c        ****            RpiInterrupts_Write(0u);
 203:main.c        ****            CyDelay(20000u);
 204:main.c        ****         /* Wait 60 seconds then turn off back up power */
 205:main.c        ****            EnableBattery_Write(2u);
 206:main.c        ****            CyDelay(2000u);
 207:main.c        ****         }
 208:main.c        ****       } else {
 209:main.c        ****          shutdown_count =0u;
 210:main.c        ****       }
 211:main.c        ****     }
 212:main.c        **** }
 213:main.c        **** 
 214:main.c        **** uint16 WriteSignalGen(uint8 ChannelNumber, uint16 CommandWord)
 215:main.c        **** {
  94              		.loc 1 215 0
  95              		.cfi_startproc
  96              		@ args = 0, pretend = 0, frame = 0
  97              		@ frame_needed = 0, uses_anonymous_args = 0
  98              	.LVL2:
  99 0000 10B5     		push	{r4, lr}
 100              		.cfi_def_cfa_offset 8
 101              		.cfi_offset 4, -8
 102              		.cfi_offset 14, -4
 103              		.loc 1 215 0
 104 0002 0C46     		mov	r4, r1
 216:main.c        ****     uint16 result;
 217:main.c        ****     Control_Reg_SS_SigGen_Write(ChannelNumber);
 105              		.loc 1 217 0
 106 0004 FFF7FEFF 		bl	Control_Reg_SS_SigGen_Write
 107              	.LVL3:
 218:main.c        ****     SPIM_SigGen_ClearFIFO();
 108              		.loc 1 218 0
 109 0008 FFF7FEFF 		bl	SPIM_SigGen_ClearFIFO
 110              	.LVL4:
 219:main.c        ****     SPIM_SigGen_WriteTxData(CommandWord);
 111              		.loc 1 219 0
 112 000c 2046     		mov	r0, r4
 113 000e FFF7FEFF 		bl	SPIM_SigGen_WriteTxData
 114              	.LVL5:
 220:main.c        ****     while (!(SPIM_SigGen_STS_SPI_DONE));
 221:main.c        ****     result = 0u;
 222:main.c        ****     return(result);
 223:main.c        ****    
 224:main.c        **** }
 115              		.loc 1 224 0
 116 0012 0020     		movs	r0, #0
 117 0014 10BD     		pop	{r4, pc}
ARM GAS  C:\Users\Joe\AppData\Local\Temp\ccgEOtOg.s 			page 7


 118              		.cfi_endproc
 119              	.LFE66:
 120              		.size	WriteSignalGen, .-WriteSignalGen
 121              		.section	.text.SS_Rise_Handler,"ax",%progbits
 122              		.align	1
 123              		.global	SS_Rise_Handler
 124              		.thumb
 125              		.thumb_func
 126              		.type	SS_Rise_Handler, %function
 127              	SS_Rise_Handler:
 128              	.LFB64:
  70:main.c        ****     if (PSOC_state == idle_state)
 129              		.loc 1 70 0
 130              		.cfi_startproc
 131              		@ args = 0, pretend = 0, frame = 0
 132              		@ frame_needed = 0, uses_anonymous_args = 0
 133 0000 38B5     		push	{r3, r4, r5, lr}
 134              		.cfi_def_cfa_offset 16
 135              		.cfi_offset 3, -16
 136              		.cfi_offset 4, -12
 137              		.cfi_offset 5, -8
 138              		.cfi_offset 14, -4
  71:main.c        ****     {
 139              		.loc 1 71 0
 140 0002 334B     		ldr	r3, .L27
 141 0004 1C78     		ldrb	r4, [r3]	@ zero_extendqisi2
 142 0006 1D46     		mov	r5, r3
 143 0008 34B9     		cbnz	r4, .L12
  73:main.c        ****         read_counter = 0u;
 144              		.loc 1 73 0
 145 000a FFF7FEFF 		bl	SPIS_ReadRxData
 146              	.LVL6:
 147 000e 314B     		ldr	r3, .L27+4
 148 0010 1880     		strh	r0, [r3]	@ movhi
  74:main.c        ****     } else {
 149              		.loc 1 74 0
 150 0012 314B     		ldr	r3, .L27+8
 151 0014 1C70     		strb	r4, [r3]
 152 0016 03E0     		b	.L13
 153              	.L12:
  76:main.c        ****     }
 154              		.loc 1 76 0
 155 0018 FFF7FEFF 		bl	SPIS_ReadRxData
 156              	.LVL7:
 157 001c 2F4B     		ldr	r3, .L27+12
 158 001e 1880     		strh	r0, [r3]	@ movhi
 159              	.L13:
  81:main.c        ****         if (RPi_Command == 0x0010)  {          
 160              		.loc 1 81 0
 161 0020 2D78     		ldrb	r5, [r5]	@ zero_extendqisi2
 162 0022 2B4C     		ldr	r4, .L27
 163 0024 05BB     		cbnz	r5, .L14
  82:main.c        ****            PSOC_state = read_encoder_state;
 164              		.loc 1 82 0
 165 0026 2B4B     		ldr	r3, .L27+4
 166 0028 1B88     		ldrh	r3, [r3]
 167 002a 102B     		cmp	r3, #16
ARM GAS  C:\Users\Joe\AppData\Local\Temp\ccgEOtOg.s 			page 8


 168 002c 10D1     		bne	.L15
  83:main.c        ****            SPIS_WriteTxDataZero(enc_a_Position);
 169              		.loc 1 83 0
 170 002e 0123     		movs	r3, #1
 171 0030 2370     		strb	r3, [r4]
  84:main.c        ****            SPIS_WriteTxData(enc_b_Position);
 172              		.loc 1 84 0
 173 0032 2B4B     		ldr	r3, .L27+16
 174 0034 1888     		ldrh	r0, [r3]
 175 0036 FFF7FEFF 		bl	SPIS_WriteTxDataZero
 176              	.LVL8:
  85:main.c        ****            SPIS_WriteTxData(enc_c_Position);
 177              		.loc 1 85 0
 178 003a 2A4B     		ldr	r3, .L27+20
 179 003c 1888     		ldrh	r0, [r3]
 180 003e FFF7FEFF 		bl	SPIS_WriteTxData
 181              	.LVL9:
  86:main.c        ****            read_counter = 0u; 
 182              		.loc 1 86 0
 183 0042 294B     		ldr	r3, .L27+24
 184 0044 1888     		ldrh	r0, [r3]
 185 0046 FFF7FEFF 		bl	SPIS_WriteTxData
 186              	.LVL10:
  87:main.c        ****         } else if (RPi_Command == 0x0020)  {
 187              		.loc 1 87 0
 188 004a 234B     		ldr	r3, .L27+8
 189 004c 1D70     		strb	r5, [r3]
 190 004e 37E0     		b	.L16
 191              	.L15:
  88:main.c        ****            PSOC_state = write_funcGen1_state;
 192              		.loc 1 88 0
 193 0050 202B     		cmp	r3, #32
 194 0052 01D1     		bne	.L17
  89:main.c        ****         } else if (RPi_Command == 0x0040)  {
 195              		.loc 1 89 0
 196 0054 0223     		movs	r3, #2
 197 0056 32E0     		b	.L25
 198              	.L17:
  90:main.c        ****            PSOC_state = write_funcGen2_state;
 199              		.loc 1 90 0
 200 0058 402B     		cmp	r3, #64
 201 005a 01D1     		bne	.L18
  91:main.c        ****         }  else if (RPi_Command == 0x0080)  {
 202              		.loc 1 91 0
 203 005c 0323     		movs	r3, #3
 204 005e 2EE0     		b	.L25
 205              	.L18:
  92:main.c        ****            PSOC_state = write_Amp_state;
 206              		.loc 1 92 0
 207 0060 802B     		cmp	r3, #128
 208 0062 2DD1     		bne	.L16
  93:main.c        ****         }  
 209              		.loc 1 93 0
 210 0064 0423     		movs	r3, #4
 211 0066 2AE0     		b	.L25
 212              	.L14:
  95:main.c        ****         if (read_counter < 2u) {
ARM GAS  C:\Users\Joe\AppData\Local\Temp\ccgEOtOg.s 			page 9


 213              		.loc 1 95 0
 214 0068 012D     		cmp	r5, #1
 215 006a 08D1     		bne	.L19
  96:main.c        ****             read_counter +=1;
 216              		.loc 1 96 0
 217 006c 1A4A     		ldr	r2, .L27+8
 218 006e 1378     		ldrb	r3, [r2]	@ zero_extendqisi2
 219 0070 012B     		cmp	r3, #1
  99:main.c        ****             read_counter = 0u;
 220              		.loc 1 99 0
 221 0072 8ABF     		itet	hi
 222 0074 0023     		movhi	r3, #0
  97:main.c        ****         } else  {
 223              		.loc 1 97 0
 224 0076 0133     		addls	r3, r3, #1
  99:main.c        ****             read_counter = 0u;
 225              		.loc 1 99 0
 226 0078 2370     		strbhi	r3, [r4]
 100:main.c        ****         }
 227              		.loc 1 100 0
 228 007a 1370     		strb	r3, [r2]
 229 007c 20E0     		b	.L16
 230              	.L19:
 102:main.c        ****         WriteSignalGen(0u, RPi_Data); 
 231              		.loc 1 102 0
 232 007e 022D     		cmp	r5, #2
 233 0080 03D1     		bne	.L21
 103:main.c        ****         PSOC_state = idle_state;
 234              		.loc 1 103 0
 235 0082 164B     		ldr	r3, .L27+12
 236 0084 0020     		movs	r0, #0
 237 0086 1988     		ldrh	r1, [r3]
 238 0088 04E0     		b	.L26
 239              	.L21:
 105:main.c        ****         WriteSignalGen(1u, RPi_Data); 
 240              		.loc 1 105 0
 241 008a 032D     		cmp	r5, #3
 242 008c 05D1     		bne	.L22
 106:main.c        ****         PSOC_state = idle_state;
 243              		.loc 1 106 0
 244 008e 134B     		ldr	r3, .L27+12
 245 0090 0120     		movs	r0, #1
 246 0092 1988     		ldrh	r1, [r3]
 247              	.L26:
 248 0094 FFF7FEFF 		bl	WriteSignalGen
 249              	.LVL11:
 250 0098 10E0     		b	.L23
 251              	.L22:
 108:main.c        ****         i2cAddress = ((uint8) (RPi_Data >>8));
 252              		.loc 1 108 0
 253 009a 042D     		cmp	r5, #4
 254 009c 0ED1     		bne	.L23
 109:main.c        ****         i2cData = ((uint8) (RPi_Data & 0x00ff));
 255              		.loc 1 109 0
 256 009e 0F4B     		ldr	r3, .L27+12
 257 00a0 124A     		ldr	r2, .L27+28
 258 00a2 1B88     		ldrh	r3, [r3]
ARM GAS  C:\Users\Joe\AppData\Local\Temp\ccgEOtOg.s 			page 10


 110:main.c        ****         I2C_1_MasterSendStart(i2cAddress,0);
 259              		.loc 1 110 0
 260 00a4 124D     		ldr	r5, .L27+32
 109:main.c        ****         i2cData = ((uint8) (RPi_Data & 0x00ff));
 261              		.loc 1 109 0
 262 00a6 180A     		lsrs	r0, r3, #8
 111:main.c        ****         I2C_1_MasterWriteByte(i2cData);I2C_1_MasterSendStop();
 263              		.loc 1 111 0
 264 00a8 0021     		movs	r1, #0
 109:main.c        ****         i2cData = ((uint8) (RPi_Data & 0x00ff));
 265              		.loc 1 109 0
 266 00aa 1070     		strb	r0, [r2]
 110:main.c        ****         I2C_1_MasterSendStart(i2cAddress,0);
 267              		.loc 1 110 0
 268 00ac 2B70     		strb	r3, [r5]
 111:main.c        ****         I2C_1_MasterWriteByte(i2cData);I2C_1_MasterSendStop();
 269              		.loc 1 111 0
 270 00ae FFF7FEFF 		bl	I2C_1_MasterSendStart
 271              	.LVL12:
 112:main.c        ****         PSOC_state = idle_state;
 272              		.loc 1 112 0
 273 00b2 2878     		ldrb	r0, [r5]	@ zero_extendqisi2
 274 00b4 FFF7FEFF 		bl	I2C_1_MasterWriteByte
 275              	.LVL13:
 276 00b8 FFF7FEFF 		bl	I2C_1_MasterSendStop
 277              	.LVL14:
 278              	.L23:
 115:main.c        ****     }
 279              		.loc 1 115 0
 280 00bc 0023     		movs	r3, #0
 281              	.L25:
 282 00be 2370     		strb	r3, [r4]
 283              	.L16:
 118:main.c        ****     SPIS_ClearRxBuffer();
 284              		.loc 1 118 0
 285 00c0 FFF7FEFF 		bl	SPIS_ReadRxStatus
 286              	.LVL15:
 119:main.c        ****     isr_SS_Rise_ClearPending();
 287              		.loc 1 119 0
 288 00c4 FFF7FEFF 		bl	SPIS_ClearRxBuffer
 289              	.LVL16:
 122:main.c        **** 
 290              		.loc 1 122 0
 291 00c8 BDE83840 		pop	{r3, r4, r5, lr}
 292              		.cfi_restore 14
 293              		.cfi_restore 5
 294              		.cfi_restore 4
 295              		.cfi_restore 3
 296              		.cfi_def_cfa_offset 0
 120:main.c        ****    
 297              		.loc 1 120 0
 298 00cc FFF7FEBF 		b	isr_SS_Rise_ClearPending
 299              	.LVL17:
 300              	.L28:
 301              		.align	2
 302              	.L27:
 303 00d0 00000000 		.word	PSOC_state
ARM GAS  C:\Users\Joe\AppData\Local\Temp\ccgEOtOg.s 			page 11


 304 00d4 00000000 		.word	RPi_Command
 305 00d8 00000000 		.word	read_counter
 306 00dc 00000000 		.word	RPi_Data
 307 00e0 00000000 		.word	enc_a_Position
 308 00e4 00000000 		.word	enc_b_Position
 309 00e8 00000000 		.word	enc_c_Position
 310 00ec 00000000 		.word	i2cAddress
 311 00f0 00000000 		.word	i2cData
 312              		.cfi_endproc
 313              	.LFE64:
 314              		.size	SS_Rise_Handler, .-SS_Rise_Handler
 315              		.section	.text.ReadEncoderValue,"ax",%progbits
 316              		.align	1
 317              		.global	ReadEncoderValue
 318              		.thumb
 319              		.thumb_func
 320              		.type	ReadEncoderValue, %function
 321              	ReadEncoderValue:
 322              	.LFB67:
 225:main.c        **** 
 226:main.c        **** 
 227:main.c        **** uint16 ReadEncoderValue(uint8 encoderNumber)
 228:main.c        **** {
 323              		.loc 1 228 0
 324              		.cfi_startproc
 325              		@ args = 0, pretend = 0, frame = 0
 326              		@ frame_needed = 0, uses_anonymous_args = 0
 327              	.LVL18:
 328 0000 38B5     		push	{r3, r4, r5, lr}
 329              		.cfi_def_cfa_offset 16
 330              		.cfi_offset 3, -16
 331              		.cfi_offset 4, -12
 332              		.cfi_offset 5, -8
 333              		.cfi_offset 14, -4
 229:main.c        ****     uint16 result;
 230:main.c        ****     uint8 ii;
 231:main.c        ****        
 232:main.c        ****       Control_Reg_SS_Write(encoderNumber);
 334              		.loc 1 232 0
 335 0002 FFF7FEFF 		bl	Control_Reg_SS_Write
 336              	.LVL19:
 233:main.c        ****       SPIM_1_ClearFIFO();
 337              		.loc 1 233 0
 338 0006 FFF7FEFF 		bl	SPIM_1_ClearFIFO
 339              	.LVL20:
 234:main.c        ****       SPIM_1_WriteTxData(0x10);       
 340              		.loc 1 234 0
 341 000a 1020     		movs	r0, #16
 342 000c FFF7FEFF 		bl	SPIM_1_WriteTxData
 343              	.LVL21:
 344              	.L30:
 235:main.c        ****       /*  wait for transmit of first data is finished  */
 236:main.c        ****       while(!(SPIM_1_ReadTxStatus() & SPIM_1_STS_SPI_DONE));   
 345              		.loc 1 236 0 discriminator 1
 346 0010 FFF7FEFF 		bl	SPIM_1_ReadTxStatus
 347              	.LVL22:
 348 0014 C007     		lsls	r0, r0, #31
ARM GAS  C:\Users\Joe\AppData\Local\Temp\ccgEOtOg.s 			page 12


 349 0016 FBD5     		bpl	.L30
 237:main.c        ****       CyDelayUs(20u);
 350              		.loc 1 237 0
 351 0018 1420     		movs	r0, #20
 352 001a FFF7FEFF 		bl	CyDelayUs
 353              	.LVL23:
 238:main.c        ****       ii=0;
 239:main.c        ****       while ((SPIM_1_ReadByte() != 0x10) & (ii<6)) {
 354              		.loc 1 239 0
 355 001e 0024     		movs	r4, #0
 356              	.LVL24:
 357              	.L31:
 358 0020 FFF7FEFF 		bl	SPIM_1_ReadRxData
 359              	.LVL25:
 360 0024 1028     		cmp	r0, #16
 361 0026 E5B2     		uxtb	r5, r4
 362              	.LVL26:
 363 0028 0DD0     		beq	.L39
 364 002a 052D     		cmp	r5, #5
 365 002c 0BD8     		bhi	.L39
 240:main.c        ****           CyDelayUs(20u);
 366              		.loc 1 240 0
 367 002e 1420     		movs	r0, #20
 368 0030 FFF7FEFF 		bl	CyDelayUs
 369              	.LVL27:
 241:main.c        ****           SPIM_1_WriteTxData(0x00);  
 370              		.loc 1 241 0
 371 0034 0020     		movs	r0, #0
 372 0036 FFF7FEFF 		bl	SPIM_1_WriteTxData
 373              	.LVL28:
 374              	.L32:
 242:main.c        ****           while(!(SPIM_1_ReadTxStatus() & SPIM_1_STS_SPI_DONE));
 375              		.loc 1 242 0 discriminator 1
 376 003a FFF7FEFF 		bl	SPIM_1_ReadTxStatus
 377              	.LVL29:
 378 003e C107     		lsls	r1, r0, #31
 379 0040 FBD5     		bpl	.L32
 380              	.LVL30:
 381 0042 0134     		adds	r4, r4, #1
 382              	.LVL31:
 383 0044 ECE7     		b	.L31
 384              	.LVL32:
 385              	.L39:
 243:main.c        ****           ii+=1;
 244:main.c        ****       }  
 245:main.c        ****      /*  if ii > 6  means encoder did not respond -- possibly not hooked up*/
 246:main.c        ****       if (ii<6) {
 386              		.loc 1 246 0
 387 0046 052D     		cmp	r5, #5
 388 0048 1FD8     		bhi	.L35
 389              	.LVL33:
 390              	.LBB4:
 391              	.LBB5:
 247:main.c        ****          CyDelayUs(20u);
 392              		.loc 1 247 0
 393 004a 1420     		movs	r0, #20
 394 004c FFF7FEFF 		bl	CyDelayUs
ARM GAS  C:\Users\Joe\AppData\Local\Temp\ccgEOtOg.s 			page 13


 395              	.LVL34:
 248:main.c        ****          SPIM_1_WriteTxData(0x00);  
 396              		.loc 1 248 0
 397 0050 0020     		movs	r0, #0
 398 0052 FFF7FEFF 		bl	SPIM_1_WriteTxData
 399              	.LVL35:
 400              	.L36:
 249:main.c        ****          while(!(SPIM_1_ReadTxStatus() & SPIM_1_STS_SPI_DONE));
 401              		.loc 1 249 0
 402 0056 FFF7FEFF 		bl	SPIM_1_ReadTxStatus
 403              	.LVL36:
 404 005a C207     		lsls	r2, r0, #31
 405 005c FBD5     		bpl	.L36
 250:main.c        ****          result = SPIM_1_ReadByte()*256;    
 406              		.loc 1 250 0
 407 005e FFF7FEFF 		bl	SPIM_1_ReadRxData
 408              	.LVL37:
 409 0062 0002     		lsls	r0, r0, #8
 410 0064 84B2     		uxth	r4, r0
 411              	.LVL38:
 251:main.c        ****          CyDelayUs(20u);
 412              		.loc 1 251 0
 413 0066 1420     		movs	r0, #20
 414 0068 FFF7FEFF 		bl	CyDelayUs
 415              	.LVL39:
 252:main.c        ****          SPIM_1_WriteTxData(0x00);  
 416              		.loc 1 252 0
 417 006c 0020     		movs	r0, #0
 418 006e FFF7FEFF 		bl	SPIM_1_WriteTxData
 419              	.LVL40:
 420              	.L37:
 253:main.c        ****          while(!(SPIM_1_ReadTxStatus() & SPIM_1_STS_SPI_DONE));
 421              		.loc 1 253 0
 422 0072 FFF7FEFF 		bl	SPIM_1_ReadTxStatus
 423              	.LVL41:
 424 0076 C307     		lsls	r3, r0, #31
 425 0078 FBD5     		bpl	.L37
 254:main.c        ****          result += SPIM_1_ReadByte();          
 426              		.loc 1 254 0
 427 007a FFF7FEFF 		bl	SPIM_1_ReadRxData
 428              	.LVL42:
 429 007e 2044     		add	r0, r0, r4
 430 0080 84B2     		uxth	r4, r0
 431              	.LVL43:
 255:main.c        ****          CyDelayUs(40u);
 432              		.loc 1 255 0
 433 0082 2820     		movs	r0, #40
 434 0084 FFF7FEFF 		bl	CyDelayUs
 435              	.LVL44:
 436 0088 04E0     		b	.L38
 437              	.L35:
 438              	.LVL45:
 439              	.LBE5:
 440              	.LBE4:
 256:main.c        ****       } else {
 257:main.c        ****          /*  note encoder word is 12 bits long.  0xF000 represents an invalid code  */
 258:main.c        ****          result = 0xF000;
ARM GAS  C:\Users\Joe\AppData\Local\Temp\ccgEOtOg.s 			page 14


 259:main.c        ****         CyDelayUs(40u);
 441              		.loc 1 259 0
 442 008a 2820     		movs	r0, #40
 443 008c FFF7FEFF 		bl	CyDelayUs
 444              	.LVL46:
 258:main.c        ****         CyDelayUs(40u);
 445              		.loc 1 258 0
 446 0090 4FF47044 		mov	r4, #61440
 447              	.LVL47:
 448              	.L38:
 260:main.c        ****       }    
 261:main.c        ****     return(result);
 262:main.c        **** }
 449              		.loc 1 262 0
 450 0094 2046     		mov	r0, r4
 451 0096 38BD     		pop	{r3, r4, r5, pc}
 452              		.cfi_endproc
 453              	.LFE67:
 454              		.size	ReadEncoderValue, .-ReadEncoderValue
 455              		.section	.text.startup.main,"ax",%progbits
 456              		.align	1
 457              		.global	main
 458              		.thumb
 459              		.thumb_func
 460              		.type	main, %function
 461              	main:
 462              	.LFB65:
 143:main.c        ****     Comp_1_Start();
 463              		.loc 1 143 0
 464              		.cfi_startproc
 465              		@ Volatile: function does not return.
 466              		@ args = 0, pretend = 0, frame = 0
 467              		@ frame_needed = 0, uses_anonymous_args = 0
 468 0000 80B5     		push	{r7, lr}
 469              		.cfi_def_cfa_offset 8
 470              		.cfi_offset 7, -8
 471              		.cfi_offset 14, -4
 144:main.c        ****     CyDelay(2000u);
 472              		.loc 1 144 0
 473 0002 FFF7FEFF 		bl	Comp_1_Start
 474              	.LVL48:
 145:main.c        ****     /* Enable Battery Backup circuit and interface circuits between RPi and PSOC  */
 475              		.loc 1 145 0
 476 0006 4FF4FA60 		mov	r0, #2000
 477 000a FFF7FEFF 		bl	CyDelay
 478              	.LVL49:
 147:main.c        ****     Control_Reg_SS_Write(0u);
 479              		.loc 1 147 0
 480 000e 0120     		movs	r0, #1
 481 0010 FFF7FEFF 		bl	EnableBattery_Write
 482              	.LVL50:
 148:main.c        ****     Control_Reg_LED_Write(0u);
 483              		.loc 1 148 0
 484 0014 0020     		movs	r0, #0
 485 0016 FFF7FEFF 		bl	Control_Reg_SS_Write
 486              	.LVL51:
 149:main.c        ****     RpiInterrupts_Write(3u);     
ARM GAS  C:\Users\Joe\AppData\Local\Temp\ccgEOtOg.s 			page 15


 487              		.loc 1 149 0
 488 001a 0020     		movs	r0, #0
 489 001c FFF7FEFF 		bl	Control_Reg_LED_Write
 490              	.LVL52:
 150:main.c        ****     Clock_1_Start();
 491              		.loc 1 150 0
 492 0020 0320     		movs	r0, #3
 493 0022 FFF7FEFF 		bl	RpiInterrupts_Write
 494              	.LVL53:
 151:main.c        ****  
 495              		.loc 1 151 0
 496 0026 FFF7FEFF 		bl	Clock_1_Start
 497              	.LVL54:
 153:main.c        ****     SPIM_1_ClearFIFO();
 498              		.loc 1 153 0
 499 002a FFF7FEFF 		bl	SPIM_1_Start
 500              	.LVL55:
 154:main.c        ****     SPIM_1_ClearRxBuffer();
 501              		.loc 1 154 0
 502 002e FFF7FEFF 		bl	SPIM_1_ClearFIFO
 503              	.LVL56:
 155:main.c        ****     SPIM_1_ClearTxBuffer();   
 504              		.loc 1 155 0
 505 0032 FFF7FEFF 		bl	SPIM_1_ClearRxBuffer
 506              	.LVL57:
 156:main.c        ****     
 507              		.loc 1 156 0
 508 0036 FFF7FEFF 		bl	SPIM_1_ClearTxBuffer
 509              	.LVL58:
 158:main.c        ****     SPIM_SigGen_ClearFIFO();
 510              		.loc 1 158 0
 511 003a FFF7FEFF 		bl	SPIM_SigGen_Start
 512              	.LVL59:
 159:main.c        ****     SPIM_SigGen_ClearRxBuffer();
 513              		.loc 1 159 0
 514 003e FFF7FEFF 		bl	SPIM_SigGen_ClearFIFO
 515              	.LVL60:
 160:main.c        ****     SPIM_SigGen_ClearTxBuffer();    
 516              		.loc 1 160 0
 517 0042 FFF7FEFF 		bl	SPIM_SigGen_ClearRxBuffer
 518              	.LVL61:
 161:main.c        **** 
 519              		.loc 1 161 0
 520 0046 FFF7FEFF 		bl	SPIM_SigGen_ClearTxBuffer
 521              	.LVL62:
 163:main.c        ****     SPIS_WriteTxDataZero(0x00u);
 522              		.loc 1 163 0
 523 004a FFF7FEFF 		bl	SPIS_Start
 524              	.LVL63:
 164:main.c        ****  
 525              		.loc 1 164 0
 526 004e 0020     		movs	r0, #0
 527 0050 FFF7FEFF 		bl	SPIS_WriteTxDataZero
 528              	.LVL64:
 166:main.c        ****     
 529              		.loc 1 166 0
 530 0054 FFF7FEFF 		bl	I2C_1_Start
ARM GAS  C:\Users\Joe\AppData\Local\Temp\ccgEOtOg.s 			page 16


 531              	.LVL65:
 168:main.c        ****      read_counter = 0u;
 532              		.loc 1 168 0
 533 0058 224B     		ldr	r3, .L55
 534 005a 0024     		movs	r4, #0
 535 005c 1C70     		strb	r4, [r3]
 169:main.c        ****       
 536              		.loc 1 169 0
 537 005e 224B     		ldr	r3, .L55+4
 538 0060 1C70     		strb	r4, [r3]
 171:main.c        ****     isr_SS_Fall_StartEx(SS_Fall_Handler );
 539              		.loc 1 171 0
 540              		.syntax unified
 541              	@ 171 "main.c" 1
 542 0062 62B6     		CPSIE   i
 543              	@ 0 "" 2
 172:main.c        ****     isr_SS_Rise_StartEx( SS_Rise_Handler );
 544              		.loc 1 172 0
 545              		.thumb
 546              		.syntax unified
 547 0064 2148     		ldr	r0, .L55+8
 548 0066 FFF7FEFF 		bl	isr_SS_Fall_StartEx
 549              	.LVL66:
 173:main.c        ****  
 550              		.loc 1 173 0
 551 006a 2148     		ldr	r0, .L55+12
 552 006c FFF7FEFF 		bl	isr_SS_Rise_StartEx
 553              	.LVL67:
 177:main.c        **** 
 554              		.loc 1 177 0
 555 0070 204D     		ldr	r5, .L55+16
 175:main.c        ****   
 556              		.loc 1 175 0
 557 0072 214B     		ldr	r3, .L55+20
 558 0074 0F22     		movs	r2, #15
 182:main.c        ****       enc_b_Position = ReadEncoderValue(1u);        
 559              		.loc 1 182 0
 560 0076 214E     		ldr	r6, .L55+24
 183:main.c        ****       enc_c_Position = ReadEncoderValue(2u);
 561              		.loc 1 183 0
 562 0078 214F     		ldr	r7, .L55+28
 184:main.c        ****       
 563              		.loc 1 184 0
 564 007a DFF88880 		ldr	r8, .L55+32
 175:main.c        ****   
 565              		.loc 1 175 0
 566 007e 1A80     		strh	r2, [r3]	@ movhi
 177:main.c        **** 
 567              		.loc 1 177 0
 568 0080 2C80     		strh	r4, [r5]	@ movhi
 569              	.L52:
 182:main.c        ****       enc_b_Position = ReadEncoderValue(1u);        
 570              		.loc 1 182 0
 571 0082 0020     		movs	r0, #0
 572 0084 FFF7FEFF 		bl	ReadEncoderValue
 573              	.LVL68:
 574 0088 3080     		strh	r0, [r6]	@ movhi
ARM GAS  C:\Users\Joe\AppData\Local\Temp\ccgEOtOg.s 			page 17


 183:main.c        ****       enc_c_Position = ReadEncoderValue(2u);
 575              		.loc 1 183 0
 576 008a 0120     		movs	r0, #1
 577 008c FFF7FEFF 		bl	ReadEncoderValue
 578              	.LVL69:
 579 0090 3880     		strh	r0, [r7]	@ movhi
 184:main.c        ****       
 580              		.loc 1 184 0
 581 0092 0220     		movs	r0, #2
 582 0094 FFF7FEFF 		bl	ReadEncoderValue
 583              	.LVL70:
 584 0098 A8F80000 		strh	r0, [r8]	@ movhi
 192:main.c        **** 
 585              		.loc 1 192 0
 586 009c 4FF4AF60 		mov	r0, #1400
 587 00a0 FFF7FEFF 		bl	CyDelayUs
 588              	.LVL71:
 196:main.c        ****         shutdown_count +=1;
 589              		.loc 1 196 0
 590 00a4 FFF7FEFF 		bl	Status_Reg_1_Read
 591              	.LVL72:
 592 00a8 0128     		cmp	r0, #1
 593 00aa 17D1     		bne	.L53
 197:main.c        ****         if (shutdown_count == 2000u) {      
 594              		.loc 1 197 0
 595 00ac 2C88     		ldrh	r4, [r5]
 596 00ae 0134     		adds	r4, r4, #1
 597 00b0 A4B2     		uxth	r4, r4
 198:main.c        ****             CyGlobalIntDisable; 
 598              		.loc 1 198 0
 599 00b2 B4F5FA6F 		cmp	r4, #2000
 197:main.c        ****         if (shutdown_count == 2000u) {      
 600              		.loc 1 197 0
 601 00b6 2C80     		strh	r4, [r5]	@ movhi
 198:main.c        ****             CyGlobalIntDisable; 
 602              		.loc 1 198 0
 603 00b8 E3D1     		bne	.L52
 199:main.c        ****              Control_Reg_LED_Write(1u);
 604              		.loc 1 199 0
 605              		.syntax unified
 606              	@ 199 "main.c" 1
 607 00ba 72B6     		CPSID   i
 608              	@ 0 "" 2
 200:main.c        ****             /* tell Pi to shut down */ 
 609              		.loc 1 200 0
 610              		.thumb
 611              		.syntax unified
 612 00bc FFF7FEFF 		bl	Control_Reg_LED_Write
 613              	.LVL73:
 202:main.c        ****            CyDelay(20000u);
 614              		.loc 1 202 0
 615 00c0 0020     		movs	r0, #0
 616 00c2 FFF7FEFF 		bl	RpiInterrupts_Write
 617              	.LVL74:
 203:main.c        ****         /* Wait 60 seconds then turn off back up power */
 618              		.loc 1 203 0
 619 00c6 44F62060 		movw	r0, #20000
ARM GAS  C:\Users\Joe\AppData\Local\Temp\ccgEOtOg.s 			page 18


 620 00ca FFF7FEFF 		bl	CyDelay
 621              	.LVL75:
 205:main.c        ****            CyDelay(2000u);
 622              		.loc 1 205 0
 623 00ce 0220     		movs	r0, #2
 624 00d0 FFF7FEFF 		bl	EnableBattery_Write
 625              	.LVL76:
 206:main.c        ****         }
 626              		.loc 1 206 0
 627 00d4 2046     		mov	r0, r4
 628 00d6 FFF7FEFF 		bl	CyDelay
 629              	.LVL77:
 630 00da D2E7     		b	.L52
 631              	.L53:
 209:main.c        ****       }
 632              		.loc 1 209 0
 633 00dc 0023     		movs	r3, #0
 634 00de 2B80     		strh	r3, [r5]	@ movhi
 635 00e0 CFE7     		b	.L52
 636              	.L56:
 637 00e2 00BF     		.align	2
 638              	.L55:
 639 00e4 00000000 		.word	PSOC_state
 640 00e8 00000000 		.word	read_counter
 641 00ec 00000000 		.word	SS_Fall_Handler
 642 00f0 00000000 		.word	SS_Rise_Handler
 643 00f4 00000000 		.word	shutdown_count
 644 00f8 00000000 		.word	RPi_Command
 645 00fc 00000000 		.word	enc_a_Position
 646 0100 00000000 		.word	enc_b_Position
 647 0104 00000000 		.word	enc_c_Position
 648              		.cfi_endproc
 649              	.LFE65:
 650              		.size	main, .-main
 651              		.comm	shutdown_count,2,2
 652              		.comm	i,1,1
 653              		.comm	temp2,1,1
 654              		.comm	temp1,1,1
 655              		.comm	rxBuffer,8,2
 656              		.comm	i2cData,1,1
 657              		.comm	i2cAddress,1,1
 658              		.comm	PSOC_state,1,1
 659              		.comm	read_counter,1,1
 660              		.comm	enc_c_Position,2,2
 661              		.comm	enc_b_Position,2,2
 662              		.comm	enc_a_Position,2,2
 663              		.comm	RPi_Data,2,2
 664              		.comm	RPi_Command,2,2
 665              		.text
 666              	.Letext0:
 667              		.file 2 "c:\\program files (x86)\\cypress\\psoc creator\\4.2\\psoc creator\\import\\gnu\\arm\\5.4.
 668              		.file 3 "c:\\program files (x86)\\cypress\\psoc creator\\4.2\\psoc creator\\import\\gnu\\arm\\5.4.
 669              		.file 4 "Generated_Source\\PSoC5/cytypes.h"
 670              		.file 5 "Generated_Source\\PSoC5/core_cm3.h"
 671              		.file 6 "Generated_Source\\PSoC5/isr_SS_Fall.h"
 672              		.file 7 "Generated_Source\\PSoC5/SPIS.h"
 673              		.file 8 "Generated_Source\\PSoC5/Control_Reg_SS_SigGen.h"
ARM GAS  C:\Users\Joe\AppData\Local\Temp\ccgEOtOg.s 			page 19


 674              		.file 9 "Generated_Source\\PSoC5/SPIM_SigGen.h"
 675              		.file 10 "Generated_Source\\PSoC5/I2C_1.h"
 676              		.file 11 "Generated_Source\\PSoC5/isr_SS_Rise.h"
 677              		.file 12 "Generated_Source\\PSoC5/CyLib.h"
 678              		.file 13 "Generated_Source\\PSoC5/SPIM_1.h"
 679              		.file 14 "Generated_Source\\PSoC5/Control_Reg_SS.h"
 680              		.file 15 "Generated_Source\\PSoC5/Comp_1.h"
 681              		.file 16 "Generated_Source\\PSoC5/EnableBattery.h"
 682              		.file 17 "Generated_Source\\PSoC5/Control_Reg_LED.h"
 683              		.file 18 "Generated_Source\\PSoC5/RpiInterrupts.h"
 684              		.file 19 "Generated_Source\\PSoC5/Clock_1.h"
 685              		.file 20 "Generated_Source\\PSoC5/Status_Reg_1.h"