ARM GAS  C:\Users\Joe\AppData\Local\Temp\cciIUQmc.s 			page 1


   1              		.syntax unified
   2              		.cpu cortex-m3
   3              		.fpu softvfp
   4              		.eabi_attribute 20, 1
   5              		.eabi_attribute 21, 1
   6              		.eabi_attribute 23, 3
   7              		.eabi_attribute 24, 1
   8              		.eabi_attribute 25, 1
   9              		.eabi_attribute 26, 1
  10              		.eabi_attribute 30, 4
  11              		.eabi_attribute 34, 1
  12              		.eabi_attribute 18, 4
  13              		.thumb
  14              		.syntax unified
  15              		.file	"SPIS_1_INT.c"
  16              		.text
  17              	.Ltext0:
  18              		.cfi_sections	.debug_frame
  19              		.section	.text.SPIS_1_TX_ISR,"ax",%progbits
  20              		.align	1
  21              		.global	SPIS_1_TX_ISR
  22              		.thumb
  23              		.thumb_func
  24              		.type	SPIS_1_TX_ISR, %function
  25              	SPIS_1_TX_ISR:
  26              	.LFB0:
  27              		.file 1 "Generated_Source\\PSoC5\\SPIS_1_INT.c"
   1:Generated_Source\PSoC5/SPIS_1_INT.c **** /*******************************************************************************
   2:Generated_Source\PSoC5/SPIS_1_INT.c **** * File Name: SPIS_1_INT.c
   3:Generated_Source\PSoC5/SPIS_1_INT.c **** * Version 2.70
   4:Generated_Source\PSoC5/SPIS_1_INT.c **** *
   5:Generated_Source\PSoC5/SPIS_1_INT.c **** * Description:
   6:Generated_Source\PSoC5/SPIS_1_INT.c **** *  This file provides all Interrupt Service Routine (ISR) for the SPI Slave
   7:Generated_Source\PSoC5/SPIS_1_INT.c **** *  component.
   8:Generated_Source\PSoC5/SPIS_1_INT.c **** *
   9:Generated_Source\PSoC5/SPIS_1_INT.c **** * Note:
  10:Generated_Source\PSoC5/SPIS_1_INT.c **** *  None.
  11:Generated_Source\PSoC5/SPIS_1_INT.c **** *
  12:Generated_Source\PSoC5/SPIS_1_INT.c **** ********************************************************************************
  13:Generated_Source\PSoC5/SPIS_1_INT.c **** * Copyright 2008-2015, Cypress Semiconductor Corporation.  All rights reserved.
  14:Generated_Source\PSoC5/SPIS_1_INT.c **** * You may use this file only in accordance with the license, terms, conditions,
  15:Generated_Source\PSoC5/SPIS_1_INT.c **** * disclaimers, and limitations in the end user license agreement accompanying
  16:Generated_Source\PSoC5/SPIS_1_INT.c **** * the software package with which this file was provided.
  17:Generated_Source\PSoC5/SPIS_1_INT.c **** *******************************************************************************/
  18:Generated_Source\PSoC5/SPIS_1_INT.c **** 
  19:Generated_Source\PSoC5/SPIS_1_INT.c **** #include "SPIS_1_PVT.h"
  20:Generated_Source\PSoC5/SPIS_1_INT.c **** #include "cyapicallbacks.h"
  21:Generated_Source\PSoC5/SPIS_1_INT.c **** 
  22:Generated_Source\PSoC5/SPIS_1_INT.c **** /* User code required at start of ISR */
  23:Generated_Source\PSoC5/SPIS_1_INT.c **** /* `#START SPIS_1_ISR_START_DEF` */
  24:Generated_Source\PSoC5/SPIS_1_INT.c **** 
  25:Generated_Source\PSoC5/SPIS_1_INT.c **** /* `#END` */
  26:Generated_Source\PSoC5/SPIS_1_INT.c **** 
  27:Generated_Source\PSoC5/SPIS_1_INT.c **** 
  28:Generated_Source\PSoC5/SPIS_1_INT.c **** /*******************************************************************************
  29:Generated_Source\PSoC5/SPIS_1_INT.c **** * Function Name: SPIS_1_TX_ISR
  30:Generated_Source\PSoC5/SPIS_1_INT.c **** *
ARM GAS  C:\Users\Joe\AppData\Local\Temp\cciIUQmc.s 			page 2


  31:Generated_Source\PSoC5/SPIS_1_INT.c **** * Summary:
  32:Generated_Source\PSoC5/SPIS_1_INT.c **** *  Interrupt Service Routine for TX portion of the SPI Slave.
  33:Generated_Source\PSoC5/SPIS_1_INT.c **** *
  34:Generated_Source\PSoC5/SPIS_1_INT.c **** * Parameters:
  35:Generated_Source\PSoC5/SPIS_1_INT.c **** *  None.
  36:Generated_Source\PSoC5/SPIS_1_INT.c **** *
  37:Generated_Source\PSoC5/SPIS_1_INT.c **** * Return:
  38:Generated_Source\PSoC5/SPIS_1_INT.c **** *  None.
  39:Generated_Source\PSoC5/SPIS_1_INT.c **** *
  40:Generated_Source\PSoC5/SPIS_1_INT.c **** * Global variables:
  41:Generated_Source\PSoC5/SPIS_1_INT.c **** *  SPIS_1_txBufferWrite - used for the account of the bytes which
  42:Generated_Source\PSoC5/SPIS_1_INT.c **** *  have been written down in the TX software buffer.
  43:Generated_Source\PSoC5/SPIS_1_INT.c **** *  SPIS_1_txBufferRead - used for the account of the bytes which
  44:Generated_Source\PSoC5/SPIS_1_INT.c **** *  have been read from the TX software buffer, modified when exist data to
  45:Generated_Source\PSoC5/SPIS_1_INT.c **** *  sending and FIFO Not Full.
  46:Generated_Source\PSoC5/SPIS_1_INT.c **** *  SPIS_1_txBuffer[SPIS_1_TX_BUFFER_SIZE] - used to store
  47:Generated_Source\PSoC5/SPIS_1_INT.c **** *  data to sending.
  48:Generated_Source\PSoC5/SPIS_1_INT.c **** *  All described above Global variables are used when Software Buffer is used.
  49:Generated_Source\PSoC5/SPIS_1_INT.c **** *
  50:Generated_Source\PSoC5/SPIS_1_INT.c **** *******************************************************************************/
  51:Generated_Source\PSoC5/SPIS_1_INT.c **** CY_ISR(SPIS_1_TX_ISR)
  52:Generated_Source\PSoC5/SPIS_1_INT.c **** {
  28              		.loc 1 52 0
  29              		.cfi_startproc
  30              		@ args = 0, pretend = 0, frame = 0
  31              		@ frame_needed = 0, uses_anonymous_args = 0
  53:Generated_Source\PSoC5/SPIS_1_INT.c **** 
  54:Generated_Source\PSoC5/SPIS_1_INT.c ****     #if(SPIS_1_TX_SOFTWARE_BUF_ENABLED)
  55:Generated_Source\PSoC5/SPIS_1_INT.c ****         uint8 tmpStatus;
  56:Generated_Source\PSoC5/SPIS_1_INT.c ****     #endif /* (SPIS_1_TX_SOFTWARE_BUF_ENABLED) */
  57:Generated_Source\PSoC5/SPIS_1_INT.c **** 
  58:Generated_Source\PSoC5/SPIS_1_INT.c ****     #ifdef SPIS_1_TX_ISR_ENTRY_CALLBACK
  59:Generated_Source\PSoC5/SPIS_1_INT.c ****         SPIS_1_TX_ISR_EntryCallback();
  60:Generated_Source\PSoC5/SPIS_1_INT.c ****     #endif /* SPIS_1_TX_ISR_ENTRY_CALLBACK */
  61:Generated_Source\PSoC5/SPIS_1_INT.c **** 
  62:Generated_Source\PSoC5/SPIS_1_INT.c ****     /* User code required at start of ISR */
  63:Generated_Source\PSoC5/SPIS_1_INT.c ****     /* `#START SPIS_1_ISR_TX_START` */
  64:Generated_Source\PSoC5/SPIS_1_INT.c **** 
  65:Generated_Source\PSoC5/SPIS_1_INT.c ****     /* `#END` */
  66:Generated_Source\PSoC5/SPIS_1_INT.c **** 
  67:Generated_Source\PSoC5/SPIS_1_INT.c ****     #if(SPIS_1_TX_SOFTWARE_BUF_ENABLED)
  68:Generated_Source\PSoC5/SPIS_1_INT.c ****         /* Component interrupt service code */
  69:Generated_Source\PSoC5/SPIS_1_INT.c **** 
  70:Generated_Source\PSoC5/SPIS_1_INT.c ****         /* See if TX data buffer is not empty and there is space in TX FIFO */
  71:Generated_Source\PSoC5/SPIS_1_INT.c ****         while(SPIS_1_txBufferRead != SPIS_1_txBufferWrite)
  32              		.loc 1 71 0
  33 0000 1E4B     		ldr	r3, .L11
  52:Generated_Source\PSoC5/SPIS_1_INT.c **** 
  34              		.loc 1 52 0
  35 0002 F0B5     		push	{r4, r5, r6, r7, lr}
  36              		.cfi_def_cfa_offset 20
  37              		.cfi_offset 4, -20
  38              		.cfi_offset 5, -16
  39              		.cfi_offset 6, -12
  40              		.cfi_offset 7, -8
  41              		.cfi_offset 14, -4
  42 0004 1D46     		mov	r5, r3
ARM GAS  C:\Users\Joe\AppData\Local\Temp\cciIUQmc.s 			page 3


  43              		.loc 1 71 0
  44 0006 1E4C     		ldr	r4, .L11+4
  72:Generated_Source\PSoC5/SPIS_1_INT.c ****         {
  73:Generated_Source\PSoC5/SPIS_1_INT.c ****             tmpStatus = SPIS_1_GET_STATUS_TX(SPIS_1_swStatusTx);
  45              		.loc 1 73 0
  46 0008 1E4E     		ldr	r6, .L11+8
  47 000a 1F49     		ldr	r1, .L11+12
  74:Generated_Source\PSoC5/SPIS_1_INT.c ****             SPIS_1_swStatusTx = tmpStatus;
  75:Generated_Source\PSoC5/SPIS_1_INT.c **** 
  76:Generated_Source\PSoC5/SPIS_1_INT.c ****             if ((SPIS_1_swStatusTx & SPIS_1_STS_TX_FIFO_NOT_FULL) != 0u)
  77:Generated_Source\PSoC5/SPIS_1_INT.c ****             {
  78:Generated_Source\PSoC5/SPIS_1_INT.c ****                 if(SPIS_1_txBufferFull == 0u)
  48              		.loc 1 78 0
  49 000c 1F48     		ldr	r0, .L11+16
  79:Generated_Source\PSoC5/SPIS_1_INT.c ****                 {
  80:Generated_Source\PSoC5/SPIS_1_INT.c ****                    SPIS_1_txBufferRead++;
  81:Generated_Source\PSoC5/SPIS_1_INT.c **** 
  82:Generated_Source\PSoC5/SPIS_1_INT.c ****                     if(SPIS_1_txBufferRead >= SPIS_1_TX_BUFFER_SIZE)
  83:Generated_Source\PSoC5/SPIS_1_INT.c ****                     {
  84:Generated_Source\PSoC5/SPIS_1_INT.c ****                         SPIS_1_txBufferRead = 0u;
  85:Generated_Source\PSoC5/SPIS_1_INT.c ****                     }
  86:Generated_Source\PSoC5/SPIS_1_INT.c ****                 }
  87:Generated_Source\PSoC5/SPIS_1_INT.c ****                 else
  88:Generated_Source\PSoC5/SPIS_1_INT.c ****                 {
  89:Generated_Source\PSoC5/SPIS_1_INT.c ****                     SPIS_1_txBufferFull = 0u;
  90:Generated_Source\PSoC5/SPIS_1_INT.c ****                 }
  91:Generated_Source\PSoC5/SPIS_1_INT.c **** 
  92:Generated_Source\PSoC5/SPIS_1_INT.c ****                 /* Put data element into the TX FIFO */
  93:Generated_Source\PSoC5/SPIS_1_INT.c ****                 CY_SET_REG8(SPIS_1_TXDATA_PTR, 
  50              		.loc 1 93 0
  51 000e 204F     		ldr	r7, .L11+20
  52 0010 DFF884E0 		ldr	lr, .L11+28
  53              	.L2:
  71:Generated_Source\PSoC5/SPIS_1_INT.c ****         {
  54              		.loc 1 71 0
  55 0014 93F800C0 		ldrb	ip, [r3]	@ zero_extendqisi2
  56 0018 2278     		ldrb	r2, [r4]	@ zero_extendqisi2
  57 001a 9445     		cmp	ip, r2
  58 001c 0AD0     		beq	.L9
  73:Generated_Source\PSoC5/SPIS_1_INT.c ****             SPIS_1_swStatusTx = tmpStatus;
  59              		.loc 1 73 0
  60 001e 96F800C0 		ldrb	ip, [r6]	@ zero_extendqisi2
  61 0022 0A78     		ldrb	r2, [r1]	@ zero_extendqisi2
  62 0024 02F06102 		and	r2, r2, #97
  63 0028 4CEA0202 		orr	r2, ip, r2
  64              	.LVL0:
  74:Generated_Source\PSoC5/SPIS_1_INT.c **** 
  65              		.loc 1 74 0
  66 002c 0A70     		strb	r2, [r1]
  76:Generated_Source\PSoC5/SPIS_1_INT.c ****             {
  67              		.loc 1 76 0
  68 002e 0A78     		ldrb	r2, [r1]	@ zero_extendqisi2
  69              	.LVL1:
  70 0030 9207     		lsls	r2, r2, #30
  71 0032 0BD4     		bmi	.L3
  72              	.LVL2:
  73              	.L9:
ARM GAS  C:\Users\Joe\AppData\Local\Temp\cciIUQmc.s 			page 4


  94:Generated_Source\PSoC5/SPIS_1_INT.c ****                                              SPIS_1_txBuffer[SPIS_1_txBufferRead]);
  95:Generated_Source\PSoC5/SPIS_1_INT.c ****             }
  96:Generated_Source\PSoC5/SPIS_1_INT.c ****             else
  97:Generated_Source\PSoC5/SPIS_1_INT.c ****             {
  98:Generated_Source\PSoC5/SPIS_1_INT.c ****                 break;
  99:Generated_Source\PSoC5/SPIS_1_INT.c ****             }
 100:Generated_Source\PSoC5/SPIS_1_INT.c ****         }
 101:Generated_Source\PSoC5/SPIS_1_INT.c **** 
 102:Generated_Source\PSoC5/SPIS_1_INT.c ****         /* If Buffer is empty then disable TX FIFO status interrupt until there is data in the buff
 103:Generated_Source\PSoC5/SPIS_1_INT.c ****         if(SPIS_1_txBufferRead == SPIS_1_txBufferWrite)
  74              		.loc 1 103 0
  75 0034 114B     		ldr	r3, .L11
  76 0036 1A78     		ldrb	r2, [r3]	@ zero_extendqisi2
  77 0038 114B     		ldr	r3, .L11+4
  78 003a 1B78     		ldrb	r3, [r3]	@ zero_extendqisi2
  79 003c 9A42     		cmp	r2, r3
  80 003e 1CD1     		bne	.L1
 104:Generated_Source\PSoC5/SPIS_1_INT.c ****         {
 105:Generated_Source\PSoC5/SPIS_1_INT.c ****             SPIS_1_TX_STATUS_MASK_REG &= ((uint8)~SPIS_1_STS_TX_FIFO_NOT_FULL);
  81              		.loc 1 105 0
  82 0040 144A     		ldr	r2, .L11+24
  83 0042 1378     		ldrb	r3, [r2]	@ zero_extendqisi2
  84 0044 03F0FD03 		and	r3, r3, #253
  85 0048 1370     		strb	r3, [r2]
 106:Generated_Source\PSoC5/SPIS_1_INT.c ****         }
 107:Generated_Source\PSoC5/SPIS_1_INT.c **** 
 108:Generated_Source\PSoC5/SPIS_1_INT.c ****     #endif /* SPIS_1_TX_SOFTWARE_BUF_ENABLED */
 109:Generated_Source\PSoC5/SPIS_1_INT.c **** 
 110:Generated_Source\PSoC5/SPIS_1_INT.c ****     /* User code required at end of ISR (Optional) */
 111:Generated_Source\PSoC5/SPIS_1_INT.c ****     /* `#START SPIS_1_ISR_TX_END` */
 112:Generated_Source\PSoC5/SPIS_1_INT.c **** 
 113:Generated_Source\PSoC5/SPIS_1_INT.c ****     /* `#END` */
 114:Generated_Source\PSoC5/SPIS_1_INT.c ****     
 115:Generated_Source\PSoC5/SPIS_1_INT.c ****     #ifdef SPIS_1_TX_ISR_EXIT_CALLBACK
 116:Generated_Source\PSoC5/SPIS_1_INT.c ****         SPIS_1_TX_ISR_ExitCallback();
 117:Generated_Source\PSoC5/SPIS_1_INT.c ****     #endif /* SPIS_1_TX_ISR_EXIT_CALLBACK */
 118:Generated_Source\PSoC5/SPIS_1_INT.c ****    }
  86              		.loc 1 118 0
  87 004a 16E0     		b	.L1
  88              	.LVL3:
  89              	.L3:
  78:Generated_Source\PSoC5/SPIS_1_INT.c ****                 {
  90              		.loc 1 78 0
  91 004c 0278     		ldrb	r2, [r0]	@ zero_extendqisi2
  92 004e 02F0FF0C 		and	ip, r2, #255
  93 0052 4AB9     		cbnz	r2, .L6
  80:Generated_Source\PSoC5/SPIS_1_INT.c **** 
  94              		.loc 1 80 0
  95 0054 1A78     		ldrb	r2, [r3]	@ zero_extendqisi2
  96 0056 0132     		adds	r2, r2, #1
  97 0058 D2B2     		uxtb	r2, r2
  98 005a 1A70     		strb	r2, [r3]
  99              	.LVL4:
  82:Generated_Source\PSoC5/SPIS_1_INT.c ****                     {
 100              		.loc 1 82 0
 101 005c 1A78     		ldrb	r2, [r3]	@ zero_extendqisi2
 102 005e 072A     		cmp	r2, #7
ARM GAS  C:\Users\Joe\AppData\Local\Temp\cciIUQmc.s 			page 5


 103 0060 04D9     		bls	.L7
  84:Generated_Source\PSoC5/SPIS_1_INT.c ****                     }
 104              		.loc 1 84 0
 105 0062 83F800C0 		strb	ip, [r3]
 106 0066 01E0     		b	.L7
 107              	.LVL5:
 108              	.L6:
  89:Generated_Source\PSoC5/SPIS_1_INT.c ****                 }
 109              		.loc 1 89 0
 110 0068 0022     		movs	r2, #0
 111 006a 0270     		strb	r2, [r0]
 112              	.LVL6:
 113              	.L7:
  93:Generated_Source\PSoC5/SPIS_1_INT.c ****                                              SPIS_1_txBuffer[SPIS_1_txBufferRead]);
 114              		.loc 1 93 0
 115 006c 2A78     		ldrb	r2, [r5]	@ zero_extendqisi2
 116 006e D2B2     		uxtb	r2, r2
 117 0070 BA5C     		ldrb	r2, [r7, r2]	@ zero_extendqisi2
 118 0072 D2B2     		uxtb	r2, r2
 119 0074 8EF80020 		strb	r2, [lr]
 120 0078 CCE7     		b	.L2
 121              	.L1:
 122 007a F0BD     		pop	{r4, r5, r6, r7, pc}
 123              	.L12:
 124              		.align	2
 125              	.L11:
 126 007c 00000000 		.word	SPIS_1_txBufferRead
 127 0080 00000000 		.word	SPIS_1_txBufferWrite
 128 0084 67640040 		.word	1073767527
 129 0088 00000000 		.word	SPIS_1_swStatusTx
 130 008c 00000000 		.word	SPIS_1_txBufferFull
 131 0090 00000000 		.word	SPIS_1_txBuffer
 132 0094 87640040 		.word	1073767559
 133 0098 42640040 		.word	1073767490
 134              		.cfi_endproc
 135              	.LFE0:
 136              		.size	SPIS_1_TX_ISR, .-SPIS_1_TX_ISR
 137              		.section	.text.SPIS_1_RX_ISR,"ax",%progbits
 138              		.align	1
 139              		.global	SPIS_1_RX_ISR
 140              		.thumb
 141              		.thumb_func
 142              		.type	SPIS_1_RX_ISR, %function
 143              	SPIS_1_RX_ISR:
 144              	.LFB1:
 119:Generated_Source\PSoC5/SPIS_1_INT.c **** 
 120:Generated_Source\PSoC5/SPIS_1_INT.c **** 
 121:Generated_Source\PSoC5/SPIS_1_INT.c **** /*******************************************************************************
 122:Generated_Source\PSoC5/SPIS_1_INT.c **** * Function Name: SPIS_1_RX_ISR
 123:Generated_Source\PSoC5/SPIS_1_INT.c **** *
 124:Generated_Source\PSoC5/SPIS_1_INT.c **** * Summary:
 125:Generated_Source\PSoC5/SPIS_1_INT.c **** *  Interrupt Service Routine for RX portion of the SPI Slave.
 126:Generated_Source\PSoC5/SPIS_1_INT.c **** *
 127:Generated_Source\PSoC5/SPIS_1_INT.c **** * Parameters:
 128:Generated_Source\PSoC5/SPIS_1_INT.c **** *  None.
 129:Generated_Source\PSoC5/SPIS_1_INT.c **** *
 130:Generated_Source\PSoC5/SPIS_1_INT.c **** * Return:
ARM GAS  C:\Users\Joe\AppData\Local\Temp\cciIUQmc.s 			page 6


 131:Generated_Source\PSoC5/SPIS_1_INT.c **** *  None.
 132:Generated_Source\PSoC5/SPIS_1_INT.c **** *
 133:Generated_Source\PSoC5/SPIS_1_INT.c **** * Global variables:
 134:Generated_Source\PSoC5/SPIS_1_INT.c **** *  SPIS_1_rxBufferWrite - used for the account of the bytes which
 135:Generated_Source\PSoC5/SPIS_1_INT.c **** *  have been written down in the RX software buffer modified when FIFO contains
 136:Generated_Source\PSoC5/SPIS_1_INT.c **** *  new data.
 137:Generated_Source\PSoC5/SPIS_1_INT.c **** *  SPIS_1_rxBufferRead - used for the account of the bytes which
 138:Generated_Source\PSoC5/SPIS_1_INT.c **** *  have been read from the RX software buffer, modified when overflow occurred.
 139:Generated_Source\PSoC5/SPIS_1_INT.c **** *  SPIS_1_rxBuffer[SPIS_1_RX_BUFFER_SIZE] - used to store
 140:Generated_Source\PSoC5/SPIS_1_INT.c **** *  received data, modified when FIFO contains new data.
 141:Generated_Source\PSoC5/SPIS_1_INT.c **** *  All described above Global variables are used when Software Buffer is used.
 142:Generated_Source\PSoC5/SPIS_1_INT.c **** *
 143:Generated_Source\PSoC5/SPIS_1_INT.c **** *******************************************************************************/
 144:Generated_Source\PSoC5/SPIS_1_INT.c **** CY_ISR(SPIS_1_RX_ISR)
 145:Generated_Source\PSoC5/SPIS_1_INT.c **** {
 145              		.loc 1 145 0
 146              		.cfi_startproc
 147              		@ args = 0, pretend = 0, frame = 0
 148              		@ frame_needed = 0, uses_anonymous_args = 0
 149 0000 2DE9F047 		push	{r4, r5, r6, r7, r8, r9, r10, lr}
 150              		.cfi_def_cfa_offset 32
 151              		.cfi_offset 4, -32
 152              		.cfi_offset 5, -28
 153              		.cfi_offset 6, -24
 154              		.cfi_offset 7, -20
 155              		.cfi_offset 8, -16
 156              		.cfi_offset 9, -12
 157              		.cfi_offset 10, -8
 158              		.cfi_offset 14, -4
 146:Generated_Source\PSoC5/SPIS_1_INT.c ****     #if(SPIS_1_RX_SOFTWARE_BUF_ENABLED)
 147:Generated_Source\PSoC5/SPIS_1_INT.c ****         uint8 tmpStatus;
 148:Generated_Source\PSoC5/SPIS_1_INT.c ****         uint8 rxData;
 149:Generated_Source\PSoC5/SPIS_1_INT.c ****     #endif /* (SPIS_1_TX_SOFTWARE_BUF_ENABLED) */
 150:Generated_Source\PSoC5/SPIS_1_INT.c **** 
 151:Generated_Source\PSoC5/SPIS_1_INT.c ****     #ifdef SPIS_1_RX_ISR_ENTRY_CALLBACK
 152:Generated_Source\PSoC5/SPIS_1_INT.c ****         SPIS_1_RX_ISR_EntryCallback();
 153:Generated_Source\PSoC5/SPIS_1_INT.c ****     #endif /* SPIS_1_RX_ISR_ENTRY_CALLBACK */
 154:Generated_Source\PSoC5/SPIS_1_INT.c **** 
 155:Generated_Source\PSoC5/SPIS_1_INT.c ****     /* User code required at start of ISR */
 156:Generated_Source\PSoC5/SPIS_1_INT.c ****     /* `#START SPIS_1_RX_ISR_START` */
 157:Generated_Source\PSoC5/SPIS_1_INT.c **** 
 158:Generated_Source\PSoC5/SPIS_1_INT.c ****     /* `#END` */
 159:Generated_Source\PSoC5/SPIS_1_INT.c ****     
 160:Generated_Source\PSoC5/SPIS_1_INT.c ****     #if(SPIS_1_RX_SOFTWARE_BUF_ENABLED)
 161:Generated_Source\PSoC5/SPIS_1_INT.c ****         tmpStatus = SPIS_1_GET_STATUS_RX(SPIS_1_swStatusRx);
 159              		.loc 1 161 0
 160 0004 1F4B     		ldr	r3, .L20
 161 0006 204C     		ldr	r4, .L20+4
 162:Generated_Source\PSoC5/SPIS_1_INT.c ****         SPIS_1_swStatusRx = tmpStatus;
 163:Generated_Source\PSoC5/SPIS_1_INT.c ****         /* See if RX data FIFO has some data and if it can be moved to the RX Buffer */
 164:Generated_Source\PSoC5/SPIS_1_INT.c ****         while((SPIS_1_swStatusRx & SPIS_1_STS_RX_FIFO_NOT_EMPTY) != 0u)
 165:Generated_Source\PSoC5/SPIS_1_INT.c ****         {
 166:Generated_Source\PSoC5/SPIS_1_INT.c ****             rxData = CY_GET_REG8(SPIS_1_RXDATA_PTR);
 162              		.loc 1 166 0
 163 0008 204F     		ldr	r7, .L20+8
 161:Generated_Source\PSoC5/SPIS_1_INT.c ****         SPIS_1_swStatusRx = tmpStatus;
 164              		.loc 1 161 0
ARM GAS  C:\Users\Joe\AppData\Local\Temp\cciIUQmc.s 			page 7


 165 000a 2178     		ldrb	r1, [r4]	@ zero_extendqisi2
 166 000c 1A78     		ldrb	r2, [r3]	@ zero_extendqisi2
 167:Generated_Source\PSoC5/SPIS_1_INT.c **** 
 168:Generated_Source\PSoC5/SPIS_1_INT.c ****             /* Set next pointer. */
 169:Generated_Source\PSoC5/SPIS_1_INT.c ****             SPIS_1_rxBufferWrite++;
 170:Generated_Source\PSoC5/SPIS_1_INT.c ****             if(SPIS_1_rxBufferWrite >= SPIS_1_RX_BUFFER_SIZE)
 171:Generated_Source\PSoC5/SPIS_1_INT.c ****             {
 172:Generated_Source\PSoC5/SPIS_1_INT.c ****                 SPIS_1_rxBufferWrite = 0u;
 173:Generated_Source\PSoC5/SPIS_1_INT.c ****             }
 174:Generated_Source\PSoC5/SPIS_1_INT.c **** 
 175:Generated_Source\PSoC5/SPIS_1_INT.c ****             if(SPIS_1_rxBufferWrite == SPIS_1_rxBufferRead)
 176:Generated_Source\PSoC5/SPIS_1_INT.c ****             {
 177:Generated_Source\PSoC5/SPIS_1_INT.c ****                 SPIS_1_rxBufferRead++;
 178:Generated_Source\PSoC5/SPIS_1_INT.c ****                 if(SPIS_1_rxBufferRead >= SPIS_1_RX_BUFFER_SIZE)
 179:Generated_Source\PSoC5/SPIS_1_INT.c ****                 {
 180:Generated_Source\PSoC5/SPIS_1_INT.c ****                     SPIS_1_rxBufferRead = 0u;
 181:Generated_Source\PSoC5/SPIS_1_INT.c ****                 }
 182:Generated_Source\PSoC5/SPIS_1_INT.c ****                 SPIS_1_rxBufferFull = 1u;
 167              		.loc 1 182 0
 168 000e DFF888E0 		ldr	lr, .L20+20
 161:Generated_Source\PSoC5/SPIS_1_INT.c ****         SPIS_1_swStatusRx = tmpStatus;
 169              		.loc 1 161 0
 170 0012 02F06102 		and	r2, r2, #97
 171 0016 0A43     		orrs	r2, r2, r1
 172              	.LVL7:
 162:Generated_Source\PSoC5/SPIS_1_INT.c ****         /* See if RX data FIFO has some data and if it can be moved to the RX Buffer */
 173              		.loc 1 162 0
 174 0018 1A70     		strb	r2, [r3]
 169:Generated_Source\PSoC5/SPIS_1_INT.c ****             if(SPIS_1_rxBufferWrite >= SPIS_1_RX_BUFFER_SIZE)
 175              		.loc 1 169 0
 176 001a 1D4A     		ldr	r2, .L20+12
 177              	.LVL8:
 175:Generated_Source\PSoC5/SPIS_1_INT.c ****             {
 178              		.loc 1 175 0
 179 001c 1D49     		ldr	r1, .L20+16
 180 001e 1546     		mov	r5, r2
 183:Generated_Source\PSoC5/SPIS_1_INT.c ****             }
 184:Generated_Source\PSoC5/SPIS_1_INT.c **** 
 185:Generated_Source\PSoC5/SPIS_1_INT.c ****             /* Move data from the FIFO to the Buffer */
 186:Generated_Source\PSoC5/SPIS_1_INT.c ****             SPIS_1_rxBuffer[SPIS_1_rxBufferWrite] = rxData;
 181              		.loc 1 186 0
 182 0020 DFF87880 		ldr	r8, .L20+24
 172:Generated_Source\PSoC5/SPIS_1_INT.c ****             }
 183              		.loc 1 172 0
 184 0024 0026     		movs	r6, #0
 182:Generated_Source\PSoC5/SPIS_1_INT.c ****             }
 185              		.loc 1 182 0
 186 0026 4FF0010C 		mov	ip, #1
 187              	.LVL9:
 188              	.L14:
 164:Generated_Source\PSoC5/SPIS_1_INT.c ****         {
 189              		.loc 1 164 0
 190 002a 1878     		ldrb	r0, [r3]	@ zero_extendqisi2
 191 002c 0007     		lsls	r0, r0, #28
 192 002e 27D5     		bpl	.L19
 166:Generated_Source\PSoC5/SPIS_1_INT.c **** 
 193              		.loc 1 166 0
ARM GAS  C:\Users\Joe\AppData\Local\Temp\cciIUQmc.s 			page 8


 194 0030 97F80090 		ldrb	r9, [r7]	@ zero_extendqisi2
 169:Generated_Source\PSoC5/SPIS_1_INT.c ****             if(SPIS_1_rxBufferWrite >= SPIS_1_RX_BUFFER_SIZE)
 195              		.loc 1 169 0
 196 0034 1078     		ldrb	r0, [r2]	@ zero_extendqisi2
 166:Generated_Source\PSoC5/SPIS_1_INT.c **** 
 197              		.loc 1 166 0
 198 0036 5FFA89F9 		uxtb	r9, r9
 199              	.LVL10:
 169:Generated_Source\PSoC5/SPIS_1_INT.c ****             if(SPIS_1_rxBufferWrite >= SPIS_1_RX_BUFFER_SIZE)
 200              		.loc 1 169 0
 201 003a 0130     		adds	r0, r0, #1
 202 003c C0B2     		uxtb	r0, r0
 203 003e 1070     		strb	r0, [r2]
 170:Generated_Source\PSoC5/SPIS_1_INT.c ****             {
 204              		.loc 1 170 0
 205 0040 1078     		ldrb	r0, [r2]	@ zero_extendqisi2
 206 0042 0728     		cmp	r0, #7
 172:Generated_Source\PSoC5/SPIS_1_INT.c ****             }
 207              		.loc 1 172 0
 208 0044 88BF     		it	hi
 209 0046 1670     		strbhi	r6, [r2]
 175:Generated_Source\PSoC5/SPIS_1_INT.c ****             {
 210              		.loc 1 175 0
 211 0048 95F800A0 		ldrb	r10, [r5]	@ zero_extendqisi2
 212 004c 0878     		ldrb	r0, [r1]	@ zero_extendqisi2
 213 004e 8245     		cmp	r10, r0
 214 0050 09D1     		bne	.L16
 177:Generated_Source\PSoC5/SPIS_1_INT.c ****                 if(SPIS_1_rxBufferRead >= SPIS_1_RX_BUFFER_SIZE)
 215              		.loc 1 177 0
 216 0052 0878     		ldrb	r0, [r1]	@ zero_extendqisi2
 217 0054 0130     		adds	r0, r0, #1
 218 0056 C0B2     		uxtb	r0, r0
 219 0058 0870     		strb	r0, [r1]
 178:Generated_Source\PSoC5/SPIS_1_INT.c ****                 {
 220              		.loc 1 178 0
 221 005a 0878     		ldrb	r0, [r1]	@ zero_extendqisi2
 222 005c 0728     		cmp	r0, #7
 180:Generated_Source\PSoC5/SPIS_1_INT.c ****                 }
 223              		.loc 1 180 0
 224 005e 88BF     		it	hi
 225 0060 0E70     		strbhi	r6, [r1]
 182:Generated_Source\PSoC5/SPIS_1_INT.c ****             }
 226              		.loc 1 182 0
 227 0062 8EF800C0 		strb	ip, [lr]
 228              	.L16:
 229              		.loc 1 186 0
 230 0066 2878     		ldrb	r0, [r5]	@ zero_extendqisi2
 231 0068 C0B2     		uxtb	r0, r0
 232 006a 08F80090 		strb	r9, [r8, r0]
 187:Generated_Source\PSoC5/SPIS_1_INT.c **** 
 188:Generated_Source\PSoC5/SPIS_1_INT.c ****             tmpStatus = SPIS_1_GET_STATUS_RX(SPIS_1_swStatusRx);
 233              		.loc 1 188 0
 234 006e 94F80090 		ldrb	r9, [r4]	@ zero_extendqisi2
 235              	.LVL11:
 236 0072 1878     		ldrb	r0, [r3]	@ zero_extendqisi2
 237              	.LVL12:
 238 0074 00F06100 		and	r0, r0, #97
ARM GAS  C:\Users\Joe\AppData\Local\Temp\cciIUQmc.s 			page 9


 239 0078 49EA0000 		orr	r0, r9, r0
 240              	.LVL13:
 189:Generated_Source\PSoC5/SPIS_1_INT.c ****             SPIS_1_swStatusRx = tmpStatus;
 241              		.loc 1 189 0
 242 007c 1870     		strb	r0, [r3]
 243 007e D4E7     		b	.L14
 244              	.LVL14:
 245              	.L19:
 190:Generated_Source\PSoC5/SPIS_1_INT.c ****         }
 191:Generated_Source\PSoC5/SPIS_1_INT.c ****     #endif /* SPIS_1_RX_SOFTWARE_BUF_ENABLED */
 192:Generated_Source\PSoC5/SPIS_1_INT.c **** 
 193:Generated_Source\PSoC5/SPIS_1_INT.c ****     /* User code required at end of ISR (Optional) */
 194:Generated_Source\PSoC5/SPIS_1_INT.c ****     /* `#START SPIS_1_RX_ISR_END` */
 195:Generated_Source\PSoC5/SPIS_1_INT.c **** 
 196:Generated_Source\PSoC5/SPIS_1_INT.c ****     /* `#END` */
 197:Generated_Source\PSoC5/SPIS_1_INT.c **** 
 198:Generated_Source\PSoC5/SPIS_1_INT.c ****     #ifdef SPIS_1_RX_ISR_EXIT_CALLBACK
 199:Generated_Source\PSoC5/SPIS_1_INT.c ****         SPIS_1_RX_ISR_ExitCallback();
 200:Generated_Source\PSoC5/SPIS_1_INT.c ****     #endif /* SPIS_1_RX_ISR_EXIT_CALLBACK */
 201:Generated_Source\PSoC5/SPIS_1_INT.c **** }
 246              		.loc 1 201 0
 247 0080 BDE8F087 		pop	{r4, r5, r6, r7, r8, r9, r10, pc}
 248              	.L21:
 249              		.align	2
 250              	.L20:
 251 0084 00000000 		.word	SPIS_1_swStatusRx
 252 0088 64640040 		.word	1073767524
 253 008c 52640040 		.word	1073767506
 254 0090 00000000 		.word	SPIS_1_rxBufferWrite
 255 0094 00000000 		.word	SPIS_1_rxBufferRead
 256 0098 00000000 		.word	SPIS_1_rxBufferFull
 257 009c 00000000 		.word	SPIS_1_rxBuffer
 258              		.cfi_endproc
 259              	.LFE1:
 260              		.size	SPIS_1_RX_ISR, .-SPIS_1_RX_ISR
 261              		.text
 262              	.Letext0:
 263              		.file 2 "Generated_Source\\PSoC5\\cytypes.h"
 264              		.file 3 "Generated_Source\\PSoC5\\SPIS_1_PVT.h"