ARM GAS  C:\Users\Joe\AppData\Local\Temp\ccq3C9Cg.s 			page 1


   1              		.syntax unified
   2              		.cpu cortex-m3
   3              		.fpu softvfp
   4              		.eabi_attribute 20, 1
   5              		.eabi_attribute 21, 1
   6              		.eabi_attribute 23, 3
   7              		.eabi_attribute 24, 1
   8              		.eabi_attribute 25, 1
   9              		.eabi_attribute 26, 1
  10              		.eabi_attribute 30, 6
  11              		.eabi_attribute 34, 1
  12              		.eabi_attribute 18, 4
  13              		.thumb
  14              		.syntax unified
  15              		.file	"cyfitter_cfg.c"
  16              		.text
  17              	.Ltext0:
  18              		.cfi_sections	.debug_frame
  19              		.section	.text.CYMEMZERO,"ax",%progbits
  20              		.align	2
  21              		.thumb
  22              		.thumb_func
  23              		.type	CYMEMZERO, %function
  24              	CYMEMZERO:
  25              	.LFB0:
  26              		.file 1 "Generated_Source\\PSoC5\\cyfitter_cfg.c"
   1:Generated_Source\PSoC5/cyfitter_cfg.c **** 
   2:Generated_Source\PSoC5/cyfitter_cfg.c **** /*******************************************************************************
   3:Generated_Source\PSoC5/cyfitter_cfg.c **** * File Name: cyfitter_cfg.c
   4:Generated_Source\PSoC5/cyfitter_cfg.c **** * 
   5:Generated_Source\PSoC5/cyfitter_cfg.c **** * PSoC Creator  4.1 Update 1
   6:Generated_Source\PSoC5/cyfitter_cfg.c **** *
   7:Generated_Source\PSoC5/cyfitter_cfg.c **** * Description:
   8:Generated_Source\PSoC5/cyfitter_cfg.c **** * This file contains device initialization code.
   9:Generated_Source\PSoC5/cyfitter_cfg.c **** * Except for the user defined sections in CyClockStartupError(), this file should not be modified.
  10:Generated_Source\PSoC5/cyfitter_cfg.c **** * This file is automatically generated by PSoC Creator.
  11:Generated_Source\PSoC5/cyfitter_cfg.c **** *
  12:Generated_Source\PSoC5/cyfitter_cfg.c **** ********************************************************************************
  13:Generated_Source\PSoC5/cyfitter_cfg.c **** * Copyright (c) 2007-2017 Cypress Semiconductor.  All rights reserved.
  14:Generated_Source\PSoC5/cyfitter_cfg.c **** * You may use this file only in accordance with the license, terms, conditions, 
  15:Generated_Source\PSoC5/cyfitter_cfg.c **** * disclaimers, and limitations in the end user license agreement accompanying 
  16:Generated_Source\PSoC5/cyfitter_cfg.c **** * the software package with which this file was provided.
  17:Generated_Source\PSoC5/cyfitter_cfg.c **** ********************************************************************************/
  18:Generated_Source\PSoC5/cyfitter_cfg.c **** 
  19:Generated_Source\PSoC5/cyfitter_cfg.c **** #include <string.h>
  20:Generated_Source\PSoC5/cyfitter_cfg.c **** #include "cytypes.h"
  21:Generated_Source\PSoC5/cyfitter_cfg.c **** #include "cydevice_trm.h"
  22:Generated_Source\PSoC5/cyfitter_cfg.c **** #include "cyfitter.h"
  23:Generated_Source\PSoC5/cyfitter_cfg.c **** #include "CyLib.h"
  24:Generated_Source\PSoC5/cyfitter_cfg.c **** #include "cyfitter_cfg.h"
  25:Generated_Source\PSoC5/cyfitter_cfg.c **** #include "cyapicallbacks.h"
  26:Generated_Source\PSoC5/cyfitter_cfg.c **** 
  27:Generated_Source\PSoC5/cyfitter_cfg.c **** #define CY_NEED_CYCLOCKSTARTUPERROR 1
  28:Generated_Source\PSoC5/cyfitter_cfg.c **** 
  29:Generated_Source\PSoC5/cyfitter_cfg.c **** 
  30:Generated_Source\PSoC5/cyfitter_cfg.c **** #if defined(__GNUC__) || defined(__ARMCC_VERSION)
  31:Generated_Source\PSoC5/cyfitter_cfg.c ****     #define CYPACKED 
ARM GAS  C:\Users\Joe\AppData\Local\Temp\ccq3C9Cg.s 			page 2


  32:Generated_Source\PSoC5/cyfitter_cfg.c ****     #define CYPACKED_ATTR __attribute__ ((packed))
  33:Generated_Source\PSoC5/cyfitter_cfg.c ****     #define CYALIGNED __attribute__ ((aligned))
  34:Generated_Source\PSoC5/cyfitter_cfg.c ****     #define CY_CFG_UNUSED __attribute__ ((unused))
  35:Generated_Source\PSoC5/cyfitter_cfg.c ****     #ifndef CY_CFG_SECTION
  36:Generated_Source\PSoC5/cyfitter_cfg.c ****         #define CY_CFG_SECTION __attribute__ ((section(".psocinit")))
  37:Generated_Source\PSoC5/cyfitter_cfg.c ****     #endif
  38:Generated_Source\PSoC5/cyfitter_cfg.c ****     
  39:Generated_Source\PSoC5/cyfitter_cfg.c ****     #if CYDEV_CONFIGURATION_DMA
  40:Generated_Source\PSoC5/cyfitter_cfg.c ****         #if (defined(__ARMCC_VERSION) || defined(__GNUC__))
  41:Generated_Source\PSoC5/cyfitter_cfg.c ****             #ifndef DMAINITSEC
  42:Generated_Source\PSoC5/cyfitter_cfg.c ****                 #define DMAINITSEC __attribute__ ((section(".dma_init")))
  43:Generated_Source\PSoC5/cyfitter_cfg.c ****             #endif
  44:Generated_Source\PSoC5/cyfitter_cfg.c ****         #elif defined(__ICCARM__)
  45:Generated_Source\PSoC5/cyfitter_cfg.c ****             #define DMAINITSEC _Pragma("location=\".dma_init\"")
  46:Generated_Source\PSoC5/cyfitter_cfg.c ****         #endif
  47:Generated_Source\PSoC5/cyfitter_cfg.c ****     #else
  48:Generated_Source\PSoC5/cyfitter_cfg.c ****         #define DMAINITSEC
  49:Generated_Source\PSoC5/cyfitter_cfg.c ****     #endif
  50:Generated_Source\PSoC5/cyfitter_cfg.c **** 
  51:Generated_Source\PSoC5/cyfitter_cfg.c ****     #if defined(__ARMCC_VERSION)
  52:Generated_Source\PSoC5/cyfitter_cfg.c ****         #define CY_CFG_MEMORY_BARRIER() __memory_changed()
  53:Generated_Source\PSoC5/cyfitter_cfg.c ****     #else
  54:Generated_Source\PSoC5/cyfitter_cfg.c ****         #define CY_CFG_MEMORY_BARRIER() __sync_synchronize()
  55:Generated_Source\PSoC5/cyfitter_cfg.c ****     #endif
  56:Generated_Source\PSoC5/cyfitter_cfg.c ****     
  57:Generated_Source\PSoC5/cyfitter_cfg.c **** #elif defined(__ICCARM__)
  58:Generated_Source\PSoC5/cyfitter_cfg.c ****     #include <intrinsics.h>
  59:Generated_Source\PSoC5/cyfitter_cfg.c **** 
  60:Generated_Source\PSoC5/cyfitter_cfg.c ****     #define CYPACKED __packed
  61:Generated_Source\PSoC5/cyfitter_cfg.c ****     #define CYPACKED_ATTR 
  62:Generated_Source\PSoC5/cyfitter_cfg.c ****     #define CYALIGNED _Pragma("data_alignment=4")
  63:Generated_Source\PSoC5/cyfitter_cfg.c ****     #define CY_CFG_UNUSED _Pragma("diag_suppress=Pe177")
  64:Generated_Source\PSoC5/cyfitter_cfg.c ****     #define CY_CFG_SECTION _Pragma("location=\".psocinit\"")
  65:Generated_Source\PSoC5/cyfitter_cfg.c ****     
  66:Generated_Source\PSoC5/cyfitter_cfg.c ****     #if CYDEV_CONFIGURATION_DMA
  67:Generated_Source\PSoC5/cyfitter_cfg.c ****         #if (defined(__ARMCC_VERSION) || defined(__GNUC__))
  68:Generated_Source\PSoC5/cyfitter_cfg.c ****             #ifndef DMAINITSEC
  69:Generated_Source\PSoC5/cyfitter_cfg.c ****                 #define DMAINITSEC __attribute__ ((section(".dma_init")))
  70:Generated_Source\PSoC5/cyfitter_cfg.c ****             #endif
  71:Generated_Source\PSoC5/cyfitter_cfg.c ****         #elif defined(__ICCARM__)
  72:Generated_Source\PSoC5/cyfitter_cfg.c ****             #define DMAINITSEC _Pragma("location=\".dma_init\"")
  73:Generated_Source\PSoC5/cyfitter_cfg.c ****         #endif
  74:Generated_Source\PSoC5/cyfitter_cfg.c ****     #else
  75:Generated_Source\PSoC5/cyfitter_cfg.c ****         #define DMAINITSEC
  76:Generated_Source\PSoC5/cyfitter_cfg.c ****     #endif
  77:Generated_Source\PSoC5/cyfitter_cfg.c **** 
  78:Generated_Source\PSoC5/cyfitter_cfg.c ****     #define CY_CFG_MEMORY_BARRIER() __DMB()
  79:Generated_Source\PSoC5/cyfitter_cfg.c ****     
  80:Generated_Source\PSoC5/cyfitter_cfg.c **** #else
  81:Generated_Source\PSoC5/cyfitter_cfg.c ****     #error Unsupported toolchain
  82:Generated_Source\PSoC5/cyfitter_cfg.c **** #endif
  83:Generated_Source\PSoC5/cyfitter_cfg.c **** 
  84:Generated_Source\PSoC5/cyfitter_cfg.c **** #ifndef CYCODE
  85:Generated_Source\PSoC5/cyfitter_cfg.c ****     #define CYCODE
  86:Generated_Source\PSoC5/cyfitter_cfg.c **** #endif
  87:Generated_Source\PSoC5/cyfitter_cfg.c **** #ifndef CYDATA
  88:Generated_Source\PSoC5/cyfitter_cfg.c ****     #define CYDATA
ARM GAS  C:\Users\Joe\AppData\Local\Temp\ccq3C9Cg.s 			page 3


  89:Generated_Source\PSoC5/cyfitter_cfg.c **** #endif
  90:Generated_Source\PSoC5/cyfitter_cfg.c **** #ifndef CYFAR
  91:Generated_Source\PSoC5/cyfitter_cfg.c ****     #define CYFAR
  92:Generated_Source\PSoC5/cyfitter_cfg.c **** #endif
  93:Generated_Source\PSoC5/cyfitter_cfg.c **** #ifndef CYXDATA
  94:Generated_Source\PSoC5/cyfitter_cfg.c ****     #define CYXDATA
  95:Generated_Source\PSoC5/cyfitter_cfg.c **** #endif
  96:Generated_Source\PSoC5/cyfitter_cfg.c **** 
  97:Generated_Source\PSoC5/cyfitter_cfg.c **** 
  98:Generated_Source\PSoC5/cyfitter_cfg.c **** CY_CFG_UNUSED
  99:Generated_Source\PSoC5/cyfitter_cfg.c **** static void CYMEMZERO(void *s, size_t n);
 100:Generated_Source\PSoC5/cyfitter_cfg.c **** CY_CFG_UNUSED
 101:Generated_Source\PSoC5/cyfitter_cfg.c **** static void CYMEMZERO(void *s, size_t n)
 102:Generated_Source\PSoC5/cyfitter_cfg.c **** {
  27              		.loc 1 102 0
  28              		.cfi_startproc
  29              		@ args = 0, pretend = 0, frame = 8
  30              		@ frame_needed = 1, uses_anonymous_args = 0
  31 0000 80B5     		push	{r7, lr}
  32              		.cfi_def_cfa_offset 8
  33              		.cfi_offset 7, -8
  34              		.cfi_offset 14, -4
  35 0002 82B0     		sub	sp, sp, #8
  36              		.cfi_def_cfa_offset 16
  37 0004 00AF     		add	r7, sp, #0
  38              		.cfi_def_cfa_register 7
  39 0006 7860     		str	r0, [r7, #4]
  40 0008 3960     		str	r1, [r7]
 103:Generated_Source\PSoC5/cyfitter_cfg.c **** 	(void)memset(s, 0, n);
  41              		.loc 1 103 0
  42 000a 3A68     		ldr	r2, [r7]
  43 000c 0021     		movs	r1, #0
  44 000e 7868     		ldr	r0, [r7, #4]
  45 0010 FFF7FEFF 		bl	memset
 104:Generated_Source\PSoC5/cyfitter_cfg.c **** }
  46              		.loc 1 104 0
  47 0014 00BF     		nop
  48 0016 0837     		adds	r7, r7, #8
  49              		.cfi_def_cfa_offset 8
  50 0018 BD46     		mov	sp, r7
  51              		.cfi_def_cfa_register 13
  52              		@ sp needed
  53 001a 80BD     		pop	{r7, pc}
  54              		.cfi_endproc
  55              	.LFE0:
  56              		.size	CYMEMZERO, .-CYMEMZERO
  57              		.section	.text.CYCONFIGCPY,"ax",%progbits
  58              		.align	2
  59              		.thumb
  60              		.thumb_func
  61              		.type	CYCONFIGCPY, %function
  62              	CYCONFIGCPY:
  63              	.LFB1:
 105:Generated_Source\PSoC5/cyfitter_cfg.c **** CY_CFG_UNUSED
 106:Generated_Source\PSoC5/cyfitter_cfg.c **** static void CYCONFIGCPY(void *dest, const void *src, size_t n);
 107:Generated_Source\PSoC5/cyfitter_cfg.c **** CY_CFG_UNUSED
 108:Generated_Source\PSoC5/cyfitter_cfg.c **** static void CYCONFIGCPY(void *dest, const void *src, size_t n)
ARM GAS  C:\Users\Joe\AppData\Local\Temp\ccq3C9Cg.s 			page 4


 109:Generated_Source\PSoC5/cyfitter_cfg.c **** {
  64              		.loc 1 109 0
  65              		.cfi_startproc
  66              		@ args = 0, pretend = 0, frame = 16
  67              		@ frame_needed = 1, uses_anonymous_args = 0
  68 0000 80B5     		push	{r7, lr}
  69              		.cfi_def_cfa_offset 8
  70              		.cfi_offset 7, -8
  71              		.cfi_offset 14, -4
  72 0002 84B0     		sub	sp, sp, #16
  73              		.cfi_def_cfa_offset 24
  74 0004 00AF     		add	r7, sp, #0
  75              		.cfi_def_cfa_register 7
  76 0006 F860     		str	r0, [r7, #12]
  77 0008 B960     		str	r1, [r7, #8]
  78 000a 7A60     		str	r2, [r7, #4]
 110:Generated_Source\PSoC5/cyfitter_cfg.c **** 	(void)memcpy(dest, src, n);
  79              		.loc 1 110 0
  80 000c 7A68     		ldr	r2, [r7, #4]
  81 000e B968     		ldr	r1, [r7, #8]
  82 0010 F868     		ldr	r0, [r7, #12]
  83 0012 FFF7FEFF 		bl	memcpy
 111:Generated_Source\PSoC5/cyfitter_cfg.c **** }
  84              		.loc 1 111 0
  85 0016 00BF     		nop
  86 0018 1037     		adds	r7, r7, #16
  87              		.cfi_def_cfa_offset 8
  88 001a BD46     		mov	sp, r7
  89              		.cfi_def_cfa_register 13
  90              		@ sp needed
  91 001c 80BD     		pop	{r7, pc}
  92              		.cfi_endproc
  93              	.LFE1:
  94              		.size	CYCONFIGCPY, .-CYCONFIGCPY
  95 001e 00BF     		.section	.text.CYCONFIGCPYCODE,"ax",%progbits
  96              		.align	2
  97              		.thumb
  98              		.thumb_func
  99              		.type	CYCONFIGCPYCODE, %function
 100              	CYCONFIGCPYCODE:
 101              	.LFB2:
 112:Generated_Source\PSoC5/cyfitter_cfg.c **** CY_CFG_UNUSED
 113:Generated_Source\PSoC5/cyfitter_cfg.c **** static void CYCONFIGCPYCODE(void *dest, const void *src, size_t n);
 114:Generated_Source\PSoC5/cyfitter_cfg.c **** CY_CFG_UNUSED
 115:Generated_Source\PSoC5/cyfitter_cfg.c **** static void CYCONFIGCPYCODE(void *dest, const void *src, size_t n)
 116:Generated_Source\PSoC5/cyfitter_cfg.c **** {
 102              		.loc 1 116 0
 103              		.cfi_startproc
 104              		@ args = 0, pretend = 0, frame = 16
 105              		@ frame_needed = 1, uses_anonymous_args = 0
 106 0000 80B5     		push	{r7, lr}
 107              		.cfi_def_cfa_offset 8
 108              		.cfi_offset 7, -8
 109              		.cfi_offset 14, -4
 110 0002 84B0     		sub	sp, sp, #16
 111              		.cfi_def_cfa_offset 24
 112 0004 00AF     		add	r7, sp, #0
ARM GAS  C:\Users\Joe\AppData\Local\Temp\ccq3C9Cg.s 			page 5


 113              		.cfi_def_cfa_register 7
 114 0006 F860     		str	r0, [r7, #12]
 115 0008 B960     		str	r1, [r7, #8]
 116 000a 7A60     		str	r2, [r7, #4]
 117:Generated_Source\PSoC5/cyfitter_cfg.c **** 	(void)memcpy(dest, src, n);
 117              		.loc 1 117 0
 118 000c 7A68     		ldr	r2, [r7, #4]
 119 000e B968     		ldr	r1, [r7, #8]
 120 0010 F868     		ldr	r0, [r7, #12]
 121 0012 FFF7FEFF 		bl	memcpy
 118:Generated_Source\PSoC5/cyfitter_cfg.c **** }
 122              		.loc 1 118 0
 123 0016 00BF     		nop
 124 0018 1037     		adds	r7, r7, #16
 125              		.cfi_def_cfa_offset 8
 126 001a BD46     		mov	sp, r7
 127              		.cfi_def_cfa_register 13
 128              		@ sp needed
 129 001c 80BD     		pop	{r7, pc}
 130              		.cfi_endproc
 131              	.LFE2:
 132              		.size	CYCONFIGCPYCODE, .-CYCONFIGCPYCODE
 133 001e 00BF     		.section	.text.CyClockStartupError,"ax",%progbits
 134              		.align	2
 135              		.thumb
 136              		.thumb_func
 137              		.type	CyClockStartupError, %function
 138              	CyClockStartupError:
 139              	.LFB3:
 119:Generated_Source\PSoC5/cyfitter_cfg.c **** 
 120:Generated_Source\PSoC5/cyfitter_cfg.c **** 
 121:Generated_Source\PSoC5/cyfitter_cfg.c **** 
 122:Generated_Source\PSoC5/cyfitter_cfg.c **** 
 123:Generated_Source\PSoC5/cyfitter_cfg.c **** /* Clock startup error codes                                                   */
 124:Generated_Source\PSoC5/cyfitter_cfg.c **** #define CYCLOCKSTART_NO_ERROR    0u
 125:Generated_Source\PSoC5/cyfitter_cfg.c **** #define CYCLOCKSTART_XTAL_ERROR  1u
 126:Generated_Source\PSoC5/cyfitter_cfg.c **** #define CYCLOCKSTART_32KHZ_ERROR 2u
 127:Generated_Source\PSoC5/cyfitter_cfg.c **** #define CYCLOCKSTART_PLL_ERROR   3u
 128:Generated_Source\PSoC5/cyfitter_cfg.c **** #define CYCLOCKSTART_FLL_ERROR   4u
 129:Generated_Source\PSoC5/cyfitter_cfg.c **** 
 130:Generated_Source\PSoC5/cyfitter_cfg.c **** 
 131:Generated_Source\PSoC5/cyfitter_cfg.c **** #ifdef CY_NEED_CYCLOCKSTARTUPERROR
 132:Generated_Source\PSoC5/cyfitter_cfg.c **** /*******************************************************************************
 133:Generated_Source\PSoC5/cyfitter_cfg.c **** * Function Name: CyClockStartupError
 134:Generated_Source\PSoC5/cyfitter_cfg.c **** ********************************************************************************
 135:Generated_Source\PSoC5/cyfitter_cfg.c **** * Summary:
 136:Generated_Source\PSoC5/cyfitter_cfg.c **** *  If an error is encountered during clock configuration (crystal startup error,
 137:Generated_Source\PSoC5/cyfitter_cfg.c **** *  PLL lock error, etc.), the system will end up here.  Unless reimplemented by
 138:Generated_Source\PSoC5/cyfitter_cfg.c **** *  the customer, this function will stop in an infinite loop.
 139:Generated_Source\PSoC5/cyfitter_cfg.c **** *
 140:Generated_Source\PSoC5/cyfitter_cfg.c **** * Parameters:
 141:Generated_Source\PSoC5/cyfitter_cfg.c **** *   void
 142:Generated_Source\PSoC5/cyfitter_cfg.c **** *
 143:Generated_Source\PSoC5/cyfitter_cfg.c **** * Return:
 144:Generated_Source\PSoC5/cyfitter_cfg.c **** *   void
 145:Generated_Source\PSoC5/cyfitter_cfg.c **** *
 146:Generated_Source\PSoC5/cyfitter_cfg.c **** *******************************************************************************/
ARM GAS  C:\Users\Joe\AppData\Local\Temp\ccq3C9Cg.s 			page 6


 147:Generated_Source\PSoC5/cyfitter_cfg.c **** CY_CFG_UNUSED
 148:Generated_Source\PSoC5/cyfitter_cfg.c **** static void CyClockStartupError(uint8 errorCode);
 149:Generated_Source\PSoC5/cyfitter_cfg.c **** CY_CFG_UNUSED
 150:Generated_Source\PSoC5/cyfitter_cfg.c **** static void CyClockStartupError(uint8 errorCode)
 151:Generated_Source\PSoC5/cyfitter_cfg.c **** {
 140              		.loc 1 151 0
 141              		.cfi_startproc
 142              		@ args = 0, pretend = 0, frame = 8
 143              		@ frame_needed = 1, uses_anonymous_args = 0
 144              		@ link register save eliminated.
 145 0000 80B4     		push	{r7}
 146              		.cfi_def_cfa_offset 4
 147              		.cfi_offset 7, -4
 148 0002 83B0     		sub	sp, sp, #12
 149              		.cfi_def_cfa_offset 16
 150 0004 00AF     		add	r7, sp, #0
 151              		.cfi_def_cfa_register 7
 152 0006 0346     		mov	r3, r0
 153 0008 FB71     		strb	r3, [r7, #7]
 154              	.L5:
 152:Generated_Source\PSoC5/cyfitter_cfg.c ****     /* To remove the compiler warning if errorCode not used. */
 153:Generated_Source\PSoC5/cyfitter_cfg.c **** #if defined(CY_PSOC3) && (CY_PSOC3)
 154:Generated_Source\PSoC5/cyfitter_cfg.c ****     errorCode = errorCode;
 155:Generated_Source\PSoC5/cyfitter_cfg.c **** #else
 156:Generated_Source\PSoC5/cyfitter_cfg.c ****     (void)errorCode;
 157:Generated_Source\PSoC5/cyfitter_cfg.c **** #endif /* CY_PSOC3 */
 158:Generated_Source\PSoC5/cyfitter_cfg.c **** 
 159:Generated_Source\PSoC5/cyfitter_cfg.c ****     /* If we have a clock startup error (bad MHz crystal, PLL lock, etc.),  */
 160:Generated_Source\PSoC5/cyfitter_cfg.c ****     /* we will end up here to allow the customer to implement something to  */
 161:Generated_Source\PSoC5/cyfitter_cfg.c ****     /* deal with the clock condition.                                       */
 162:Generated_Source\PSoC5/cyfitter_cfg.c **** 
 163:Generated_Source\PSoC5/cyfitter_cfg.c **** #ifdef CY_CFG_CLOCK_STARTUP_ERROR_CALLBACK
 164:Generated_Source\PSoC5/cyfitter_cfg.c ****     CY_CFG_Clock_Startup_ErrorCallback();
 165:Generated_Source\PSoC5/cyfitter_cfg.c **** #else
 166:Generated_Source\PSoC5/cyfitter_cfg.c ****     /*  If not using CY_CFG_CLOCK_STARTUP_ERROR_CALLBACK, place your clock startup code here. */
 167:Generated_Source\PSoC5/cyfitter_cfg.c ****     /* `#START CyClockStartupError` */
 168:Generated_Source\PSoC5/cyfitter_cfg.c **** 
 169:Generated_Source\PSoC5/cyfitter_cfg.c **** 
 170:Generated_Source\PSoC5/cyfitter_cfg.c **** 
 171:Generated_Source\PSoC5/cyfitter_cfg.c ****     /* `#END` */
 172:Generated_Source\PSoC5/cyfitter_cfg.c **** 
 173:Generated_Source\PSoC5/cyfitter_cfg.c ****     while(1) {}
 155              		.loc 1 173 0 discriminator 1
 156 000a FEE7     		b	.L5
 157              		.cfi_endproc
 158              	.LFE3:
 159              		.size	CyClockStartupError, .-CyClockStartupError
 160              		.section	.dma_init,"a",%progbits
 161              		.align	2
 162              		.type	CH1_ADDR_DATA0.4977, %object
 163              		.size	CH1_ADDR_DATA0.4977, 8
 164              	CH1_ADDR_DATA0.4977:
 165 0000 01       		.byte	1
 166 0001 00       		.byte	0
 167 0002 00       		.byte	0
 168 0003 00       		.byte	0
 169 0004 00       		.byte	0
ARM GAS  C:\Users\Joe\AppData\Local\Temp\ccq3C9Cg.s 			page 7


 170 0005 20       		.byte	32
 171 0006 00       		.byte	0
 172 0007 40       		.byte	64
 173              		.align	2
 174              		.type	CH2_ADDR_DATA0.4978, %object
 175              		.size	CH2_ADDR_DATA0.4978, 8
 176              	CH2_ADDR_DATA0.4978:
 177 0008 01       		.byte	1
 178 0009 00       		.byte	0
 179 000a 00       		.byte	0
 180 000b 00       		.byte	0
 181 000c 00       		.byte	0
 182 000d 20       		.byte	32
 183 000e 01       		.byte	1
 184 000f 40       		.byte	64
 185              		.align	2
 186              		.type	CH5_ADDR_DATA0.4979, %object
 187              		.size	CH5_ADDR_DATA0.4979, 8
 188              	CH5_ADDR_DATA0.4979:
 189 0010 01       		.byte	1
 190 0011 00       		.byte	0
 191 0012 00       		.byte	0
 192 0013 00       		.byte	0
 193 0014 00       		.byte	0
 194 0015 48       		.byte	72
 195 0016 00       		.byte	0
 196 0017 40       		.byte	64
 197              		.align	2
 198              		.type	CH6_ADDR_DATA0.4980, %object
 199              		.size	CH6_ADDR_DATA0.4980, 8
 200              	CH6_ADDR_DATA0.4980:
 201 0018 01       		.byte	1
 202 0019 00       		.byte	0
 203 001a 00       		.byte	0
 204 001b 00       		.byte	0
 205 001c 00       		.byte	0
 206 001d 48       		.byte	72
 207 001e 01       		.byte	1
 208 001f 40       		.byte	64
 209              		.align	2
 210              		.type	DMA_TD_START_CMD.4981, %object
 211              		.size	DMA_TD_START_CMD.4981, 5
 212              	DMA_TD_START_CMD.4981:
 213 0020 01       		.byte	1
 214 0021 00       		.byte	0
 215 0022 00       		.byte	0
 216 0023 00       		.byte	0
 217 0024 01       		.byte	1
 218 0025 000000   		.align	2
 219              		.type	CFG_TD_LIST0.4983, %object
 220              		.size	CFG_TD_LIST0.4983, 768
 221              	CFG_TD_LIST0.4983:
 222 0028 0800     		.short	8
 223 002a 02       		.byte	2
 224 002b 23       		.byte	35
 225 002c 0000     		.short	0
 226 002e 0876     		.short	30216
ARM GAS  C:\Users\Joe\AppData\Local\Temp\ccq3C9Cg.s 			page 8


 227 0030 0800     		.short	8
 228 0032 03       		.byte	3
 229 0033 23       		.byte	35
 230 0034 0000     		.short	0
 231 0036 1076     		.short	30224
 232 0038 0800     		.short	8
 233 003a 04       		.byte	4
 234 003b 23       		.byte	35
 235 003c 0000     		.short	0
 236 003e 2876     		.short	30248
 237 0040 0800     		.short	8
 238 0042 05       		.byte	5
 239 0043 23       		.byte	35
 240 0044 0000     		.short	0
 241 0046 3076     		.short	30256
 242 0048 0500     		.short	5
 243 004a 06       		.byte	6
 244 004b 23       		.byte	35
 245 004c 0000     		.short	0
 246 004e 2070     		.short	28704
 247 0050 0500     		.short	5
 248 0052 07       		.byte	7
 249 0053 23       		.byte	35
 250 0054 0000     		.short	0
 251 0056 3070     		.short	28720
 252 0058 0500     		.short	5
 253 005a 08       		.byte	8
 254 005b 23       		.byte	35
 255 005c 0000     		.short	0
 256 005e 6070     		.short	28768
 257 0060 0500     		.short	5
 258 0062 FE       		.byte	-2
 259 0063 23       		.byte	35
 260 0064 0000     		.short	0
 261 0066 7070     		.short	28784
 262 0068 3000     		.short	48
 263 006a FE       		.byte	-2
 264 006b 22       		.byte	34
 265 006c 0000     		.short	0
 266 006e 4051     		.short	20800
 267 0070 8001     		.short	384
 268 0072 FE       		.byte	-2
 269 0073 22       		.byte	34
 270 0074 0000     		.short	0
 271 0076 000E     		.short	3584
 272 0078 0700     		.short	7
 273 007a 0C       		.byte	12
 274 007b 23       		.byte	35
 275 007c 0000     		.short	0
 276 007e 0052     		.short	20992
 277 0080 0700     		.short	7
 278 0082 0D       		.byte	13
 279 0083 23       		.byte	35
 280 0084 0000     		.short	0
 281 0086 0852     		.short	21000
 282 0088 0700     		.short	7
 283 008a 0E       		.byte	14
ARM GAS  C:\Users\Joe\AppData\Local\Temp\ccq3C9Cg.s 			page 9


 284 008b 23       		.byte	35
 285 008c 0000     		.short	0
 286 008e 1052     		.short	21008
 287 0090 0700     		.short	7
 288 0092 0F       		.byte	15
 289 0093 23       		.byte	35
 290 0094 0000     		.short	0
 291 0096 1852     		.short	21016
 292 0098 0600     		.short	6
 293 009a 10       		.byte	16
 294 009b 23       		.byte	35
 295 009c 0000     		.short	0
 296 009e 6052     		.short	21088
 297 00a0 0700     		.short	7
 298 00a2 11       		.byte	17
 299 00a3 23       		.byte	35
 300 00a4 0000     		.short	0
 301 00a6 7852     		.short	21112
 302 00a8 0C00     		.short	12
 303 00aa 12       		.byte	18
 304 00ab 23       		.byte	35
 305 00ac 0000     		.short	0
 306 00ae 004F     		.short	20224
 307 00b0 0C00     		.short	12
 308 00b2 13       		.byte	19
 309 00b3 23       		.byte	35
 310 00b4 0000     		.short	0
 311 00b6 0C4F     		.short	20236
 312 00b8 0C00     		.short	12
 313 00ba 14       		.byte	20
 314 00bb 23       		.byte	35
 315 00bc 0000     		.short	0
 316 00be 184F     		.short	20248
 317 00c0 0800     		.short	8
 318 00c2 15       		.byte	21
 319 00c3 23       		.byte	35
 320 00c4 0000     		.short	0
 321 00c6 285B     		.short	23336
 322 00c8 4000     		.short	64
 323 00ca 16       		.byte	22
 324 00cb 23       		.byte	35
 325 00cc 0000     		.short	0
 326 00ce 0064     		.short	25600
 327 00d0 2000     		.short	32
 328 00d2 17       		.byte	23
 329 00d3 23       		.byte	35
 330 00d4 0000     		.short	0
 331 00d6 7064     		.short	25712
 332 00d8 4000     		.short	64
 333 00da 18       		.byte	24
 334 00db 23       		.byte	35
 335 00dc 0000     		.short	0
 336 00de 0065     		.short	25856
 337 00e0 2000     		.short	32
 338 00e2 FE       		.byte	-2
 339 00e3 23       		.byte	35
 340 00e4 0000     		.short	0
ARM GAS  C:\Users\Joe\AppData\Local\Temp\ccq3C9Cg.s 			page 10


 341 00e6 7065     		.short	25968
 342 00e8 0800     		.short	8
 343 00ea 1A       		.byte	26
 344 00eb 23       		.byte	35
 345 00ec 0000     		.short	0
 346 00ee 0051     		.short	20736
 347 00f0 8000     		.short	128
 348 00f2 1B       		.byte	27
 349 00f3 23       		.byte	35
 350 00f4 0000     		.short	0
 351 00f6 0000     		.short	0
 352 00f8 8000     		.short	128
 353 00fa 1C       		.byte	28
 354 00fb 23       		.byte	35
 355 00fc 0000     		.short	0
 356 00fe 8000     		.short	128
 357 0100 8000     		.short	128
 358 0102 1D       		.byte	29
 359 0103 23       		.byte	35
 360 0104 0000     		.short	0
 361 0106 0002     		.short	512
 362 0108 8000     		.short	128
 363 010a 1E       		.byte	30
 364 010b 23       		.byte	35
 365 010c 0000     		.short	0
 366 010e 8002     		.short	640
 367 0110 8000     		.short	128
 368 0112 1F       		.byte	31
 369 0113 23       		.byte	35
 370 0114 0000     		.short	0
 371 0116 0004     		.short	1024
 372 0118 8000     		.short	128
 373 011a 20       		.byte	32
 374 011b 23       		.byte	35
 375 011c 0000     		.short	0
 376 011e 8004     		.short	1152
 377 0120 8000     		.short	128
 378 0122 21       		.byte	33
 379 0123 23       		.byte	35
 380 0124 0000     		.short	0
 381 0126 0006     		.short	1536
 382 0128 8000     		.short	128
 383 012a 22       		.byte	34
 384 012b 23       		.byte	35
 385 012c 0000     		.short	0
 386 012e 8006     		.short	1664
 387 0130 8000     		.short	128
 388 0132 23       		.byte	35
 389 0133 23       		.byte	35
 390 0134 0000     		.short	0
 391 0136 0008     		.short	2048
 392 0138 8000     		.short	128
 393 013a 24       		.byte	36
 394 013b 23       		.byte	35
 395 013c 0000     		.short	0
 396 013e 8008     		.short	2176
 397 0140 8000     		.short	128
ARM GAS  C:\Users\Joe\AppData\Local\Temp\ccq3C9Cg.s 			page 11


 398 0142 25       		.byte	37
 399 0143 23       		.byte	35
 400 0144 0000     		.short	0
 401 0146 000A     		.short	2560
 402 0148 8000     		.short	128
 403 014a 26       		.byte	38
 404 014b 23       		.byte	35
 405 014c 0000     		.short	0
 406 014e 800A     		.short	2688
 407 0150 8000     		.short	128
 408 0152 27       		.byte	39
 409 0153 23       		.byte	35
 410 0154 0000     		.short	0
 411 0156 000C     		.short	3072
 412 0158 8000     		.short	128
 413 015a 28       		.byte	40
 414 015b 23       		.byte	35
 415 015c 0000     		.short	0
 416 015e 800C     		.short	3200
 417 0160 8000     		.short	128
 418 0162 29       		.byte	41
 419 0163 23       		.byte	35
 420 0164 0000     		.short	0
 421 0166 0014     		.short	5120
 422 0168 8000     		.short	128
 423 016a 2A       		.byte	42
 424 016b 23       		.byte	35
 425 016c 0000     		.short	0
 426 016e 8014     		.short	5248
 427 0170 8000     		.short	128
 428 0172 2B       		.byte	43
 429 0173 23       		.byte	35
 430 0174 0000     		.short	0
 431 0176 0016     		.short	5632
 432 0178 8000     		.short	128
 433 017a 2C       		.byte	44
 434 017b 23       		.byte	35
 435 017c 0000     		.short	0
 436 017e 8016     		.short	5760
 437 0180 8000     		.short	128
 438 0182 2D       		.byte	45
 439 0183 23       		.byte	35
 440 0184 0000     		.short	0
 441 0186 0018     		.short	6144
 442 0188 8000     		.short	128
 443 018a 2E       		.byte	46
 444 018b 23       		.byte	35
 445 018c 0000     		.short	0
 446 018e 8018     		.short	6272
 447 0190 8000     		.short	128
 448 0192 2F       		.byte	47
 449 0193 23       		.byte	35
 450 0194 0000     		.short	0
 451 0196 001A     		.short	6656
 452 0198 8000     		.short	128
 453 019a 30       		.byte	48
 454 019b 23       		.byte	35
ARM GAS  C:\Users\Joe\AppData\Local\Temp\ccq3C9Cg.s 			page 12


 455 019c 0000     		.short	0
 456 019e 801A     		.short	6784
 457 01a0 1000     		.short	16
 458 01a2 31       		.byte	49
 459 01a3 23       		.byte	35
 460 01a4 0000     		.short	0
 461 01a6 1050     		.short	20496
 462 01a8 1000     		.short	16
 463 01aa 32       		.byte	50
 464 01ab 23       		.byte	35
 465 01ac 0000     		.short	0
 466 01ae 0050     		.short	20480
 467 01b0 8000     		.short	128
 468 01b2 33       		.byte	51
 469 01b3 23       		.byte	35
 470 01b4 0000     		.short	0
 471 01b6 004D     		.short	19712
 472 01b8 8000     		.short	128
 473 01ba 34       		.byte	52
 474 01bb 23       		.byte	35
 475 01bc 0000     		.short	0
 476 01be 804D     		.short	19840
 477 01c0 8000     		.short	128
 478 01c2 35       		.byte	53
 479 01c3 23       		.byte	35
 480 01c4 0000     		.short	0
 481 01c6 004C     		.short	19456
 482 01c8 8000     		.short	128
 483 01ca 36       		.byte	54
 484 01cb 23       		.byte	35
 485 01cc 0000     		.short	0
 486 01ce 804C     		.short	19584
 487 01d0 8000     		.short	128
 488 01d2 37       		.byte	55
 489 01d3 23       		.byte	35
 490 01d4 0000     		.short	0
 491 01d6 0047     		.short	18176
 492 01d8 8000     		.short	128
 493 01da 38       		.byte	56
 494 01db 23       		.byte	35
 495 01dc 0000     		.short	0
 496 01de 8047     		.short	18304
 497 01e0 8000     		.short	128
 498 01e2 39       		.byte	57
 499 01e3 23       		.byte	35
 500 01e4 0000     		.short	0
 501 01e6 0046     		.short	17920
 502 01e8 8000     		.short	128
 503 01ea 3A       		.byte	58
 504 01eb 23       		.byte	35
 505 01ec 0000     		.short	0
 506 01ee 8046     		.short	18048
 507 01f0 8000     		.short	128
 508 01f2 3B       		.byte	59
 509 01f3 23       		.byte	35
 510 01f4 0000     		.short	0
 511 01f6 0045     		.short	17664
ARM GAS  C:\Users\Joe\AppData\Local\Temp\ccq3C9Cg.s 			page 13


 512 01f8 8000     		.short	128
 513 01fa 3C       		.byte	60
 514 01fb 23       		.byte	35
 515 01fc 0000     		.short	0
 516 01fe 8045     		.short	17792
 517 0200 8000     		.short	128
 518 0202 3D       		.byte	61
 519 0203 23       		.byte	35
 520 0204 0000     		.short	0
 521 0206 0044     		.short	17408
 522 0208 8000     		.short	128
 523 020a 3E       		.byte	62
 524 020b 23       		.byte	35
 525 020c 0000     		.short	0
 526 020e 8044     		.short	17536
 527 0210 8000     		.short	128
 528 0212 3F       		.byte	63
 529 0213 23       		.byte	35
 530 0214 0000     		.short	0
 531 0216 001B     		.short	6912
 532 0218 8000     		.short	128
 533 021a 40       		.byte	64
 534 021b 23       		.byte	35
 535 021c 0000     		.short	0
 536 021e 801B     		.short	7040
 537 0220 8000     		.short	128
 538 0222 41       		.byte	65
 539 0223 23       		.byte	35
 540 0224 0000     		.short	0
 541 0226 0015     		.short	5376
 542 0228 8000     		.short	128
 543 022a 42       		.byte	66
 544 022b 23       		.byte	35
 545 022c 0000     		.short	0
 546 022e 8015     		.short	5504
 547 0230 8000     		.short	128
 548 0232 43       		.byte	67
 549 0233 23       		.byte	35
 550 0234 0000     		.short	0
 551 0236 0019     		.short	6400
 552 0238 8000     		.short	128
 553 023a 44       		.byte	68
 554 023b 23       		.byte	35
 555 023c 0000     		.short	0
 556 023e 8019     		.short	6528
 557 0240 8000     		.short	128
 558 0242 45       		.byte	69
 559 0243 23       		.byte	35
 560 0244 0000     		.short	0
 561 0246 0017     		.short	5888
 562 0248 8000     		.short	128
 563 024a 46       		.byte	70
 564 024b 23       		.byte	35
 565 024c 0000     		.short	0
 566 024e 8017     		.short	6016
 567 0250 8000     		.short	128
 568 0252 47       		.byte	71
ARM GAS  C:\Users\Joe\AppData\Local\Temp\ccq3C9Cg.s 			page 14


 569 0253 23       		.byte	35
 570 0254 0000     		.short	0
 571 0256 0009     		.short	2304
 572 0258 8000     		.short	128
 573 025a 48       		.byte	72
 574 025b 23       		.byte	35
 575 025c 0000     		.short	0
 576 025e 8009     		.short	2432
 577 0260 8000     		.short	128
 578 0262 49       		.byte	73
 579 0263 23       		.byte	35
 580 0264 0000     		.short	0
 581 0266 0007     		.short	1792
 582 0268 8000     		.short	128
 583 026a 4A       		.byte	74
 584 026b 23       		.byte	35
 585 026c 0000     		.short	0
 586 026e 8007     		.short	1920
 587 0270 8000     		.short	128
 588 0272 4B       		.byte	75
 589 0273 23       		.byte	35
 590 0274 0000     		.short	0
 591 0276 000B     		.short	2816
 592 0278 8000     		.short	128
 593 027a 4C       		.byte	76
 594 027b 23       		.byte	35
 595 027c 0000     		.short	0
 596 027e 800B     		.short	2944
 597 0280 8000     		.short	128
 598 0282 4D       		.byte	77
 599 0283 23       		.byte	35
 600 0284 0000     		.short	0
 601 0286 0005     		.short	1280
 602 0288 8000     		.short	128
 603 028a 4E       		.byte	78
 604 028b 23       		.byte	35
 605 028c 0000     		.short	0
 606 028e 8005     		.short	1408
 607 0290 8000     		.short	128
 608 0292 4F       		.byte	79
 609 0293 23       		.byte	35
 610 0294 0000     		.short	0
 611 0296 000D     		.short	3328
 612 0298 8000     		.short	128
 613 029a 50       		.byte	80
 614 029b 23       		.byte	35
 615 029c 0000     		.short	0
 616 029e 800D     		.short	3456
 617 02a0 8000     		.short	128
 618 02a2 51       		.byte	81
 619 02a3 23       		.byte	35
 620 02a4 0000     		.short	0
 621 02a6 0003     		.short	768
 622 02a8 8000     		.short	128
 623 02aa 52       		.byte	82
 624 02ab 23       		.byte	35
 625 02ac 0000     		.short	0
ARM GAS  C:\Users\Joe\AppData\Local\Temp\ccq3C9Cg.s 			page 15


 626 02ae 8003     		.short	896
 627 02b0 8000     		.short	128
 628 02b2 53       		.byte	83
 629 02b3 23       		.byte	35
 630 02b4 0000     		.short	0
 631 02b6 800F     		.short	3968
 632 02b8 8000     		.short	128
 633 02ba 54       		.byte	84
 634 02bb 23       		.byte	35
 635 02bc 0000     		.short	0
 636 02be 0001     		.short	256
 637 02c0 8000     		.short	128
 638 02c2 55       		.byte	85
 639 02c3 23       		.byte	35
 640 02c4 0000     		.short	0
 641 02c6 8001     		.short	384
 642 02c8 8000     		.short	128
 643 02ca 56       		.byte	86
 644 02cb 23       		.byte	35
 645 02cc 0000     		.short	0
 646 02ce 0049     		.short	18688
 647 02d0 8000     		.short	128
 648 02d2 57       		.byte	87
 649 02d3 23       		.byte	35
 650 02d4 0000     		.short	0
 651 02d6 8049     		.short	18816
 652 02d8 8000     		.short	128
 653 02da 58       		.byte	88
 654 02db 23       		.byte	35
 655 02dc 0000     		.short	0
 656 02de 0048     		.short	18432
 657 02e0 8000     		.short	128
 658 02e2 59       		.byte	89
 659 02e3 23       		.byte	35
 660 02e4 0000     		.short	0
 661 02e6 8048     		.short	18560
 662 02e8 8000     		.short	128
 663 02ea 5A       		.byte	90
 664 02eb 23       		.byte	35
 665 02ec 0000     		.short	0
 666 02ee 0043     		.short	17152
 667 02f0 8000     		.short	128
 668 02f2 5B       		.byte	91
 669 02f3 23       		.byte	35
 670 02f4 0000     		.short	0
 671 02f6 8043     		.short	17280
 672 02f8 8000     		.short	128
 673 02fa 5C       		.byte	92
 674 02fb 23       		.byte	35
 675 02fc 0000     		.short	0
 676 02fe 0042     		.short	16896
 677 0300 8000     		.short	128
 678 0302 5D       		.byte	93
 679 0303 23       		.byte	35
 680 0304 0000     		.short	0
 681 0306 8042     		.short	17024
 682 0308 8000     		.short	128
ARM GAS  C:\Users\Joe\AppData\Local\Temp\ccq3C9Cg.s 			page 16


 683 030a 5E       		.byte	94
 684 030b 23       		.byte	35
 685 030c 0000     		.short	0
 686 030e 0041     		.short	16640
 687 0310 8000     		.short	128
 688 0312 5F       		.byte	95
 689 0313 23       		.byte	35
 690 0314 0000     		.short	0
 691 0316 8041     		.short	16768
 692 0318 8000     		.short	128
 693 031a 60       		.byte	96
 694 031b 23       		.byte	35
 695 031c 0000     		.short	0
 696 031e 0040     		.short	16384
 697 0320 8000     		.short	128
 698 0322 FE       		.byte	-2
 699 0323 23       		.byte	35
 700 0324 0000     		.short	0
 701 0326 8040     		.short	16512
 702              		.section	.text.cfg_dma_init,"ax",%progbits
 703              		.align	2
 704              		.thumb
 705              		.thumb_func
 706              		.type	cfg_dma_init, %function
 707              	cfg_dma_init:
 708              	.LFB4:
 174:Generated_Source\PSoC5/cyfitter_cfg.c **** #endif /* CY_CFG_CLOCK_STARTUP_ERROR_CALLBACK */
 175:Generated_Source\PSoC5/cyfitter_cfg.c **** }
 176:Generated_Source\PSoC5/cyfitter_cfg.c **** #endif
 177:Generated_Source\PSoC5/cyfitter_cfg.c **** 
 178:Generated_Source\PSoC5/cyfitter_cfg.c **** /* IDMUX Address: CYREG_IDMUX_DRQ_CTL0 Size (bytes): 6 */
 179:Generated_Source\PSoC5/cyfitter_cfg.c **** #define BS_IDMUX_VAL ((const uint8 CYFAR *)0x48000000u)
 180:Generated_Source\PSoC5/cyfitter_cfg.c **** 
 181:Generated_Source\PSoC5/cyfitter_cfg.c **** /* IOPORT_0 Address: CYDEV_PRTDSI_PRT0_BASE Size (bytes): 7 */
 182:Generated_Source\PSoC5/cyfitter_cfg.c **** #define BS_IOPORT_0_VAL ((const uint8 CYFAR *)0x48000008u)
 183:Generated_Source\PSoC5/cyfitter_cfg.c **** 
 184:Generated_Source\PSoC5/cyfitter_cfg.c **** /* IOPORT_1 Address: CYDEV_PRTDSI_PRT1_BASE Size (bytes): 7 */
 185:Generated_Source\PSoC5/cyfitter_cfg.c **** #define BS_IOPORT_1_VAL ((const uint8 CYFAR *)0x48000010u)
 186:Generated_Source\PSoC5/cyfitter_cfg.c **** 
 187:Generated_Source\PSoC5/cyfitter_cfg.c **** /* IOPORT_2 Address: CYDEV_PRTDSI_PRT2_BASE Size (bytes): 7 */
 188:Generated_Source\PSoC5/cyfitter_cfg.c **** #define BS_IOPORT_2_VAL ((const uint8 CYFAR *)0x48000018u)
 189:Generated_Source\PSoC5/cyfitter_cfg.c **** 
 190:Generated_Source\PSoC5/cyfitter_cfg.c **** /* IOPORT_3 Address: CYDEV_PRTDSI_PRT3_BASE Size (bytes): 7 */
 191:Generated_Source\PSoC5/cyfitter_cfg.c **** #define BS_IOPORT_3_VAL ((const uint8 CYFAR *)0x48000020u)
 192:Generated_Source\PSoC5/cyfitter_cfg.c **** 
 193:Generated_Source\PSoC5/cyfitter_cfg.c **** /* IOPORT_7 Address: CYDEV_PRTDSI_PRT12_BASE Size (bytes): 6 */
 194:Generated_Source\PSoC5/cyfitter_cfg.c **** #define BS_IOPORT_7_VAL ((const uint8 CYFAR *)0x48000028u)
 195:Generated_Source\PSoC5/cyfitter_cfg.c **** 
 196:Generated_Source\PSoC5/cyfitter_cfg.c **** /* IOPORT_8 Address: CYDEV_PRTDSI_PRT15_BASE Size (bytes): 7 */
 197:Generated_Source\PSoC5/cyfitter_cfg.c **** #define BS_IOPORT_8_VAL ((const uint8 CYFAR *)0x48000030u)
 198:Generated_Source\PSoC5/cyfitter_cfg.c **** 
 199:Generated_Source\PSoC5/cyfitter_cfg.c **** /* IDMUX_IRQ Address: CYREG_IDMUX_IRQ_CTL0 Size (bytes): 8 */
 200:Generated_Source\PSoC5/cyfitter_cfg.c **** #define BS_IDMUX_IRQ_VAL ((const uint8 CYFAR *)0x48000038u)
 201:Generated_Source\PSoC5/cyfitter_cfg.c **** 
 202:Generated_Source\PSoC5/cyfitter_cfg.c **** /* TMR0 Address: CYREG_TMR0_CFG0 Size (bytes): 12 */
 203:Generated_Source\PSoC5/cyfitter_cfg.c **** #define BS_TMR0_VAL ((const uint8 CYFAR *)0x48000040u)
 204:Generated_Source\PSoC5/cyfitter_cfg.c **** 
ARM GAS  C:\Users\Joe\AppData\Local\Temp\ccq3C9Cg.s 			page 17


 205:Generated_Source\PSoC5/cyfitter_cfg.c **** /* TMR1 Address: CYREG_TMR1_CFG0 Size (bytes): 12 */
 206:Generated_Source\PSoC5/cyfitter_cfg.c **** #define BS_TMR1_VAL ((const uint8 CYFAR *)0x4800004Cu)
 207:Generated_Source\PSoC5/cyfitter_cfg.c **** 
 208:Generated_Source\PSoC5/cyfitter_cfg.c **** /* TMR2 Address: CYREG_TMR2_CFG0 Size (bytes): 12 */
 209:Generated_Source\PSoC5/cyfitter_cfg.c **** #define BS_TMR2_VAL ((const uint8 CYFAR *)0x48000058u)
 210:Generated_Source\PSoC5/cyfitter_cfg.c **** 
 211:Generated_Source\PSoC5/cyfitter_cfg.c **** /* SAR1 Address: CYREG_SAR1_SW0 Size (bytes): 8 */
 212:Generated_Source\PSoC5/cyfitter_cfg.c **** #define BS_SAR1_VAL ((const uint8 CYFAR *)0x48000064u)
 213:Generated_Source\PSoC5/cyfitter_cfg.c **** 
 214:Generated_Source\PSoC5/cyfitter_cfg.c **** /* UDB_1_5_0_CONFIG Address: CYDEV_UCFG_B0_P0_U0_BASE Size (bytes): 128 */
 215:Generated_Source\PSoC5/cyfitter_cfg.c **** #define BS_UDB_1_5_0_CONFIG_VAL ((const uint8 CYFAR *)0x4800006Cu)
 216:Generated_Source\PSoC5/cyfitter_cfg.c **** 
 217:Generated_Source\PSoC5/cyfitter_cfg.c **** /* UDB_1_5_1_CONFIG Address: CYDEV_UCFG_B0_P0_U1_BASE Size (bytes): 128 */
 218:Generated_Source\PSoC5/cyfitter_cfg.c **** #define BS_UDB_1_5_1_CONFIG_VAL ((const uint8 CYFAR *)0x480000ECu)
 219:Generated_Source\PSoC5/cyfitter_cfg.c **** 
 220:Generated_Source\PSoC5/cyfitter_cfg.c **** /* UDB_1_4_1_CONFIG Address: CYDEV_UCFG_B0_P1_U0_BASE Size (bytes): 128 */
 221:Generated_Source\PSoC5/cyfitter_cfg.c **** #define BS_UDB_1_4_1_CONFIG_VAL ((const uint8 CYFAR *)0x4800016Cu)
 222:Generated_Source\PSoC5/cyfitter_cfg.c **** 
 223:Generated_Source\PSoC5/cyfitter_cfg.c **** /* UDB_1_4_0_CONFIG Address: CYDEV_UCFG_B0_P1_U1_BASE Size (bytes): 128 */
 224:Generated_Source\PSoC5/cyfitter_cfg.c **** #define BS_UDB_1_4_0_CONFIG_VAL ((const uint8 CYFAR *)0x480001ECu)
 225:Generated_Source\PSoC5/cyfitter_cfg.c **** 
 226:Generated_Source\PSoC5/cyfitter_cfg.c **** /* UDB_1_3_0_CONFIG Address: CYDEV_UCFG_B0_P2_U0_BASE Size (bytes): 128 */
 227:Generated_Source\PSoC5/cyfitter_cfg.c **** #define BS_UDB_1_3_0_CONFIG_VAL ((const uint8 CYFAR *)0x4800026Cu)
 228:Generated_Source\PSoC5/cyfitter_cfg.c **** 
 229:Generated_Source\PSoC5/cyfitter_cfg.c **** /* UDB_1_3_1_CONFIG Address: CYDEV_UCFG_B0_P2_U1_BASE Size (bytes): 128 */
 230:Generated_Source\PSoC5/cyfitter_cfg.c **** #define BS_UDB_1_3_1_CONFIG_VAL ((const uint8 CYFAR *)0x480002ECu)
 231:Generated_Source\PSoC5/cyfitter_cfg.c **** 
 232:Generated_Source\PSoC5/cyfitter_cfg.c **** /* UDB_1_2_1_CONFIG Address: CYDEV_UCFG_B0_P3_U0_BASE Size (bytes): 128 */
 233:Generated_Source\PSoC5/cyfitter_cfg.c **** #define BS_UDB_1_2_1_CONFIG_VAL ((const uint8 CYFAR *)0x4800036Cu)
 234:Generated_Source\PSoC5/cyfitter_cfg.c **** 
 235:Generated_Source\PSoC5/cyfitter_cfg.c **** /* UDB_1_2_0_CONFIG Address: CYDEV_UCFG_B0_P3_U1_BASE Size (bytes): 128 */
 236:Generated_Source\PSoC5/cyfitter_cfg.c **** #define BS_UDB_1_2_0_CONFIG_VAL ((const uint8 CYFAR *)0x480003ECu)
 237:Generated_Source\PSoC5/cyfitter_cfg.c **** 
 238:Generated_Source\PSoC5/cyfitter_cfg.c **** /* UDB_0_2_1_CONFIG Address: CYDEV_UCFG_B0_P4_U0_BASE Size (bytes): 128 */
 239:Generated_Source\PSoC5/cyfitter_cfg.c **** #define BS_UDB_0_2_1_CONFIG_VAL ((const uint8 CYFAR *)0x4800046Cu)
 240:Generated_Source\PSoC5/cyfitter_cfg.c **** 
 241:Generated_Source\PSoC5/cyfitter_cfg.c **** /* UDB_0_2_0_CONFIG Address: CYDEV_UCFG_B0_P4_U1_BASE Size (bytes): 128 */
 242:Generated_Source\PSoC5/cyfitter_cfg.c **** #define BS_UDB_0_2_0_CONFIG_VAL ((const uint8 CYFAR *)0x480004ECu)
 243:Generated_Source\PSoC5/cyfitter_cfg.c **** 
 244:Generated_Source\PSoC5/cyfitter_cfg.c **** /* UDB_0_3_0_CONFIG Address: CYDEV_UCFG_B0_P5_U0_BASE Size (bytes): 128 */
 245:Generated_Source\PSoC5/cyfitter_cfg.c **** #define BS_UDB_0_3_0_CONFIG_VAL ((const uint8 CYFAR *)0x4800056Cu)
 246:Generated_Source\PSoC5/cyfitter_cfg.c **** 
 247:Generated_Source\PSoC5/cyfitter_cfg.c **** /* UDB_0_3_1_CONFIG Address: CYDEV_UCFG_B0_P5_U1_BASE Size (bytes): 128 */
 248:Generated_Source\PSoC5/cyfitter_cfg.c **** #define BS_UDB_0_3_1_CONFIG_VAL ((const uint8 CYFAR *)0x480005ECu)
 249:Generated_Source\PSoC5/cyfitter_cfg.c **** 
 250:Generated_Source\PSoC5/cyfitter_cfg.c **** /* UDB_0_4_1_CONFIG Address: CYDEV_UCFG_B0_P6_U0_BASE Size (bytes): 128 */
 251:Generated_Source\PSoC5/cyfitter_cfg.c **** #define BS_UDB_0_4_1_CONFIG_VAL ((const uint8 CYFAR *)0x4800066Cu)
 252:Generated_Source\PSoC5/cyfitter_cfg.c **** 
 253:Generated_Source\PSoC5/cyfitter_cfg.c **** /* UDB_0_4_0_CONFIG Address: CYDEV_UCFG_B0_P6_U1_BASE Size (bytes): 128 */
 254:Generated_Source\PSoC5/cyfitter_cfg.c **** #define BS_UDB_0_4_0_CONFIG_VAL ((const uint8 CYFAR *)0x480006ECu)
 255:Generated_Source\PSoC5/cyfitter_cfg.c **** 
 256:Generated_Source\PSoC5/cyfitter_cfg.c **** /* UDB_1_0_0_CONFIG Address: CYDEV_UCFG_B1_P2_U0_BASE Size (bytes): 128 */
 257:Generated_Source\PSoC5/cyfitter_cfg.c **** #define BS_UDB_1_0_0_CONFIG_VAL ((const uint8 CYFAR *)0x4800076Cu)
 258:Generated_Source\PSoC5/cyfitter_cfg.c **** 
 259:Generated_Source\PSoC5/cyfitter_cfg.c **** /* UDB_1_0_1_CONFIG Address: CYDEV_UCFG_B1_P2_U1_BASE Size (bytes): 128 */
 260:Generated_Source\PSoC5/cyfitter_cfg.c **** #define BS_UDB_1_0_1_CONFIG_VAL ((const uint8 CYFAR *)0x480007ECu)
 261:Generated_Source\PSoC5/cyfitter_cfg.c **** 
ARM GAS  C:\Users\Joe\AppData\Local\Temp\ccq3C9Cg.s 			page 18


 262:Generated_Source\PSoC5/cyfitter_cfg.c **** /* UDB_1_1_1_CONFIG Address: CYDEV_UCFG_B1_P3_U0_BASE Size (bytes): 128 */
 263:Generated_Source\PSoC5/cyfitter_cfg.c **** #define BS_UDB_1_1_1_CONFIG_VAL ((const uint8 CYFAR *)0x4800086Cu)
 264:Generated_Source\PSoC5/cyfitter_cfg.c **** 
 265:Generated_Source\PSoC5/cyfitter_cfg.c **** /* UDB_1_1_0_CONFIG Address: CYDEV_UCFG_B1_P3_U1_BASE Size (bytes): 128 */
 266:Generated_Source\PSoC5/cyfitter_cfg.c **** #define BS_UDB_1_1_0_CONFIG_VAL ((const uint8 CYFAR *)0x480008ECu)
 267:Generated_Source\PSoC5/cyfitter_cfg.c **** 
 268:Generated_Source\PSoC5/cyfitter_cfg.c **** /* UDB_0_1_1_CONFIG Address: CYDEV_UCFG_B1_P4_U0_BASE Size (bytes): 128 */
 269:Generated_Source\PSoC5/cyfitter_cfg.c **** #define BS_UDB_0_1_1_CONFIG_VAL ((const uint8 CYFAR *)0x4800096Cu)
 270:Generated_Source\PSoC5/cyfitter_cfg.c **** 
 271:Generated_Source\PSoC5/cyfitter_cfg.c **** /* UDB_0_1_0_CONFIG Address: CYDEV_UCFG_B1_P4_U1_BASE Size (bytes): 128 */
 272:Generated_Source\PSoC5/cyfitter_cfg.c **** #define BS_UDB_0_1_0_CONFIG_VAL ((const uint8 CYFAR *)0x480009ECu)
 273:Generated_Source\PSoC5/cyfitter_cfg.c **** 
 274:Generated_Source\PSoC5/cyfitter_cfg.c **** /* UDB_0_0_0_CONFIG Address: CYDEV_UCFG_B1_P5_U0_BASE Size (bytes): 128 */
 275:Generated_Source\PSoC5/cyfitter_cfg.c **** #define BS_UDB_0_0_0_CONFIG_VAL ((const uint8 CYFAR *)0x48000A6Cu)
 276:Generated_Source\PSoC5/cyfitter_cfg.c **** 
 277:Generated_Source\PSoC5/cyfitter_cfg.c **** /* UDB_0_0_1_CONFIG Address: CYDEV_UCFG_B1_P5_U1_BASE Size (bytes): 128 */
 278:Generated_Source\PSoC5/cyfitter_cfg.c **** #define BS_UDB_0_0_1_CONFIG_VAL ((const uint8 CYFAR *)0x48000AECu)
 279:Generated_Source\PSoC5/cyfitter_cfg.c **** 
 280:Generated_Source\PSoC5/cyfitter_cfg.c **** /* UWRK_B0_WRK_DP_BITS Address: CYDEV_UWRK_UWRK8_B0_BASE Size (bytes): 64 */
 281:Generated_Source\PSoC5/cyfitter_cfg.c **** #define BS_UWRK_B0_WRK_DP_BITS_VAL ((const uint8 CYFAR *)0x48000B6Cu)
 282:Generated_Source\PSoC5/cyfitter_cfg.c **** 
 283:Generated_Source\PSoC5/cyfitter_cfg.c **** /* UWRK_B0_WRK_STATCTL_BITS Address: CYDEV_UWRK_UWRK8_B0_BASE + 0x00000070u Size (bytes): 32 */
 284:Generated_Source\PSoC5/cyfitter_cfg.c **** #define BS_UWRK_B0_WRK_STATCTL_BITS_VAL ((const uint8 CYFAR *)0x48000BACu)
 285:Generated_Source\PSoC5/cyfitter_cfg.c **** 
 286:Generated_Source\PSoC5/cyfitter_cfg.c **** /* UWRK_B1_WRK_DP_BITS Address: CYDEV_UWRK_UWRK8_B1_BASE Size (bytes): 64 */
 287:Generated_Source\PSoC5/cyfitter_cfg.c **** #define BS_UWRK_B1_WRK_DP_BITS_VAL ((const uint8 CYFAR *)0x48000BCCu)
 288:Generated_Source\PSoC5/cyfitter_cfg.c **** 
 289:Generated_Source\PSoC5/cyfitter_cfg.c **** /* UWRK_B1_WRK_STATCTL_BITS Address: CYDEV_UWRK_UWRK8_B1_BASE + 0x00000070u Size (bytes): 32 */
 290:Generated_Source\PSoC5/cyfitter_cfg.c **** #define BS_UWRK_B1_WRK_STATCTL_BITS_VAL ((const uint8 CYFAR *)0x48000C0Cu)
 291:Generated_Source\PSoC5/cyfitter_cfg.c **** 
 292:Generated_Source\PSoC5/cyfitter_cfg.c **** /* UCFG_BCTL1 Address: CYREG_BCTL1_MDCLK_EN Size (bytes): 16 */
 293:Generated_Source\PSoC5/cyfitter_cfg.c **** #define BS_UCFG_BCTL1_VAL ((const uint8 CYFAR *)0x48000C2Cu)
 294:Generated_Source\PSoC5/cyfitter_cfg.c **** 
 295:Generated_Source\PSoC5/cyfitter_cfg.c **** /* UCFG_BCTL0 Address: CYREG_BCTL0_MDCLK_EN Size (bytes): 16 */
 296:Generated_Source\PSoC5/cyfitter_cfg.c **** #define BS_UCFG_BCTL0_VAL ((const uint8 CYFAR *)0x48000C3Cu)
 297:Generated_Source\PSoC5/cyfitter_cfg.c **** 
 298:Generated_Source\PSoC5/cyfitter_cfg.c **** /* DSISWITCH_0_0 Address: CYDEV_UCFG_DSI13_BASE Size (bytes): 128 */
 299:Generated_Source\PSoC5/cyfitter_cfg.c **** #define BS_DSISWITCH_0_0_VAL ((const uint8 CYFAR *)0x48000C4Cu)
 300:Generated_Source\PSoC5/cyfitter_cfg.c **** 
 301:Generated_Source\PSoC5/cyfitter_cfg.c **** /* DSI0_0_HV_ROUTING Address: CYDEV_UCFG_DSI13_BASE + 0x00000080u Size (bytes): 128 */
 302:Generated_Source\PSoC5/cyfitter_cfg.c **** #define BS_DSI0_0_HV_ROUTING_VAL ((const uint8 CYFAR *)0x48000CCCu)
 303:Generated_Source\PSoC5/cyfitter_cfg.c **** 
 304:Generated_Source\PSoC5/cyfitter_cfg.c **** /* DSISWITCH_0_1 Address: CYDEV_UCFG_DSI12_BASE Size (bytes): 128 */
 305:Generated_Source\PSoC5/cyfitter_cfg.c **** #define BS_DSISWITCH_0_1_VAL ((const uint8 CYFAR *)0x48000D4Cu)
 306:Generated_Source\PSoC5/cyfitter_cfg.c **** 
 307:Generated_Source\PSoC5/cyfitter_cfg.c **** /* DSI0_1_HV_ROUTING Address: CYDEV_UCFG_DSI12_BASE + 0x00000080u Size (bytes): 128 */
 308:Generated_Source\PSoC5/cyfitter_cfg.c **** #define BS_DSI0_1_HV_ROUTING_VAL ((const uint8 CYFAR *)0x48000DCCu)
 309:Generated_Source\PSoC5/cyfitter_cfg.c **** 
 310:Generated_Source\PSoC5/cyfitter_cfg.c **** /* DSISWITCH_0_2 Address: CYDEV_UCFG_DSI7_BASE Size (bytes): 128 */
 311:Generated_Source\PSoC5/cyfitter_cfg.c **** #define BS_DSISWITCH_0_2_VAL ((const uint8 CYFAR *)0x48000E4Cu)
 312:Generated_Source\PSoC5/cyfitter_cfg.c **** 
 313:Generated_Source\PSoC5/cyfitter_cfg.c **** /* DSI0_2_HV_ROUTING Address: CYDEV_UCFG_DSI7_BASE + 0x00000080u Size (bytes): 128 */
 314:Generated_Source\PSoC5/cyfitter_cfg.c **** #define BS_DSI0_2_HV_ROUTING_VAL ((const uint8 CYFAR *)0x48000ECCu)
 315:Generated_Source\PSoC5/cyfitter_cfg.c **** 
 316:Generated_Source\PSoC5/cyfitter_cfg.c **** /* DSISWITCH_0_3 Address: CYDEV_UCFG_DSI6_BASE Size (bytes): 128 */
 317:Generated_Source\PSoC5/cyfitter_cfg.c **** #define BS_DSISWITCH_0_3_VAL ((const uint8 CYFAR *)0x48000F4Cu)
 318:Generated_Source\PSoC5/cyfitter_cfg.c **** 
ARM GAS  C:\Users\Joe\AppData\Local\Temp\ccq3C9Cg.s 			page 19


 319:Generated_Source\PSoC5/cyfitter_cfg.c **** /* DSI0_3_HV_ROUTING Address: CYDEV_UCFG_DSI6_BASE + 0x00000080u Size (bytes): 128 */
 320:Generated_Source\PSoC5/cyfitter_cfg.c **** #define BS_DSI0_3_HV_ROUTING_VAL ((const uint8 CYFAR *)0x48000FCCu)
 321:Generated_Source\PSoC5/cyfitter_cfg.c **** 
 322:Generated_Source\PSoC5/cyfitter_cfg.c **** /* DSISWITCH_0_4 Address: CYDEV_UCFG_DSI5_BASE Size (bytes): 128 */
 323:Generated_Source\PSoC5/cyfitter_cfg.c **** #define BS_DSISWITCH_0_4_VAL ((const uint8 CYFAR *)0x4800104Cu)
 324:Generated_Source\PSoC5/cyfitter_cfg.c **** 
 325:Generated_Source\PSoC5/cyfitter_cfg.c **** /* DSI0_4_HV_ROUTING Address: CYDEV_UCFG_DSI5_BASE + 0x00000080u Size (bytes): 128 */
 326:Generated_Source\PSoC5/cyfitter_cfg.c **** #define BS_DSI0_4_HV_ROUTING_VAL ((const uint8 CYFAR *)0x480010CCu)
 327:Generated_Source\PSoC5/cyfitter_cfg.c **** 
 328:Generated_Source\PSoC5/cyfitter_cfg.c **** /* DSISWITCH_0_5 Address: CYDEV_UCFG_DSI4_BASE Size (bytes): 128 */
 329:Generated_Source\PSoC5/cyfitter_cfg.c **** #define BS_DSISWITCH_0_5_VAL ((const uint8 CYFAR *)0x4800114Cu)
 330:Generated_Source\PSoC5/cyfitter_cfg.c **** 
 331:Generated_Source\PSoC5/cyfitter_cfg.c **** /* DSI0_5_HV_ROUTING Address: CYDEV_UCFG_DSI4_BASE + 0x00000080u Size (bytes): 128 */
 332:Generated_Source\PSoC5/cyfitter_cfg.c **** #define BS_DSI0_5_HV_ROUTING_VAL ((const uint8 CYFAR *)0x480011CCu)
 333:Generated_Source\PSoC5/cyfitter_cfg.c **** 
 334:Generated_Source\PSoC5/cyfitter_cfg.c **** /* UDBSWITCH_0_0 Address: CYDEV_UCFG_B1_P5_ROUTE_BASE Size (bytes): 128 */
 335:Generated_Source\PSoC5/cyfitter_cfg.c **** #define BS_UDBSWITCH_0_0_VAL ((const uint8 CYFAR *)0x4800124Cu)
 336:Generated_Source\PSoC5/cyfitter_cfg.c **** 
 337:Generated_Source\PSoC5/cyfitter_cfg.c **** /* UDB_1_0_HV_ROUTING Address: CYDEV_UCFG_B1_P5_ROUTE_BASE + 0x00000080u Size (bytes): 128 */
 338:Generated_Source\PSoC5/cyfitter_cfg.c **** #define BS_UDB_1_0_HV_ROUTING_VAL ((const uint8 CYFAR *)0x480012CCu)
 339:Generated_Source\PSoC5/cyfitter_cfg.c **** 
 340:Generated_Source\PSoC5/cyfitter_cfg.c **** /* UDBSWITCH_1_0 Address: CYDEV_UCFG_B1_P2_ROUTE_BASE Size (bytes): 128 */
 341:Generated_Source\PSoC5/cyfitter_cfg.c **** #define BS_UDBSWITCH_1_0_VAL ((const uint8 CYFAR *)0x4800134Cu)
 342:Generated_Source\PSoC5/cyfitter_cfg.c **** 
 343:Generated_Source\PSoC5/cyfitter_cfg.c **** /* UDB_2_0_HV_ROUTING Address: CYDEV_UCFG_B1_P2_ROUTE_BASE + 0x00000080u Size (bytes): 128 */
 344:Generated_Source\PSoC5/cyfitter_cfg.c **** #define BS_UDB_2_0_HV_ROUTING_VAL ((const uint8 CYFAR *)0x480013CCu)
 345:Generated_Source\PSoC5/cyfitter_cfg.c **** 
 346:Generated_Source\PSoC5/cyfitter_cfg.c **** /* UDBSWITCH_0_1 Address: CYDEV_UCFG_B1_P4_ROUTE_BASE Size (bytes): 128 */
 347:Generated_Source\PSoC5/cyfitter_cfg.c **** #define BS_UDBSWITCH_0_1_VAL ((const uint8 CYFAR *)0x4800144Cu)
 348:Generated_Source\PSoC5/cyfitter_cfg.c **** 
 349:Generated_Source\PSoC5/cyfitter_cfg.c **** /* UDB_1_1_HV_ROUTING Address: CYDEV_UCFG_B1_P4_ROUTE_BASE + 0x00000080u Size (bytes): 128 */
 350:Generated_Source\PSoC5/cyfitter_cfg.c **** #define BS_UDB_1_1_HV_ROUTING_VAL ((const uint8 CYFAR *)0x480014CCu)
 351:Generated_Source\PSoC5/cyfitter_cfg.c **** 
 352:Generated_Source\PSoC5/cyfitter_cfg.c **** /* UDBSWITCH_1_1 Address: CYDEV_UCFG_B1_P3_ROUTE_BASE Size (bytes): 128 */
 353:Generated_Source\PSoC5/cyfitter_cfg.c **** #define BS_UDBSWITCH_1_1_VAL ((const uint8 CYFAR *)0x4800154Cu)
 354:Generated_Source\PSoC5/cyfitter_cfg.c **** 
 355:Generated_Source\PSoC5/cyfitter_cfg.c **** /* UDB_2_1_HV_ROUTING Address: CYDEV_UCFG_B1_P3_ROUTE_BASE + 0x00000080u Size (bytes): 128 */
 356:Generated_Source\PSoC5/cyfitter_cfg.c **** #define BS_UDB_2_1_HV_ROUTING_VAL ((const uint8 CYFAR *)0x480015CCu)
 357:Generated_Source\PSoC5/cyfitter_cfg.c **** 
 358:Generated_Source\PSoC5/cyfitter_cfg.c **** /* UDBSWITCH_0_2 Address: CYDEV_UCFG_B0_P4_ROUTE_BASE Size (bytes): 128 */
 359:Generated_Source\PSoC5/cyfitter_cfg.c **** #define BS_UDBSWITCH_0_2_VAL ((const uint8 CYFAR *)0x4800164Cu)
 360:Generated_Source\PSoC5/cyfitter_cfg.c **** 
 361:Generated_Source\PSoC5/cyfitter_cfg.c **** /* UDB_1_2_HV_ROUTING Address: CYDEV_UCFG_B0_P4_ROUTE_BASE + 0x00000080u Size (bytes): 128 */
 362:Generated_Source\PSoC5/cyfitter_cfg.c **** #define BS_UDB_1_2_HV_ROUTING_VAL ((const uint8 CYFAR *)0x480016CCu)
 363:Generated_Source\PSoC5/cyfitter_cfg.c **** 
 364:Generated_Source\PSoC5/cyfitter_cfg.c **** /* UDBSWITCH_1_2 Address: CYDEV_UCFG_B0_P3_ROUTE_BASE Size (bytes): 128 */
 365:Generated_Source\PSoC5/cyfitter_cfg.c **** #define BS_UDBSWITCH_1_2_VAL ((const uint8 CYFAR *)0x4800174Cu)
 366:Generated_Source\PSoC5/cyfitter_cfg.c **** 
 367:Generated_Source\PSoC5/cyfitter_cfg.c **** /* UDB_2_2_HV_ROUTING Address: CYDEV_UCFG_B0_P3_ROUTE_BASE + 0x00000080u Size (bytes): 128 */
 368:Generated_Source\PSoC5/cyfitter_cfg.c **** #define BS_UDB_2_2_HV_ROUTING_VAL ((const uint8 CYFAR *)0x480017CCu)
 369:Generated_Source\PSoC5/cyfitter_cfg.c **** 
 370:Generated_Source\PSoC5/cyfitter_cfg.c **** /* UDBSWITCH_0_3 Address: CYDEV_UCFG_B0_P5_ROUTE_BASE Size (bytes): 128 */
 371:Generated_Source\PSoC5/cyfitter_cfg.c **** #define BS_UDBSWITCH_0_3_VAL ((const uint8 CYFAR *)0x4800184Cu)
 372:Generated_Source\PSoC5/cyfitter_cfg.c **** 
 373:Generated_Source\PSoC5/cyfitter_cfg.c **** /* UDB_1_3_HV_ROUTING Address: CYDEV_UCFG_B0_P5_ROUTE_BASE + 0x00000080u Size (bytes): 128 */
 374:Generated_Source\PSoC5/cyfitter_cfg.c **** #define BS_UDB_1_3_HV_ROUTING_VAL ((const uint8 CYFAR *)0x480018CCu)
 375:Generated_Source\PSoC5/cyfitter_cfg.c **** 
ARM GAS  C:\Users\Joe\AppData\Local\Temp\ccq3C9Cg.s 			page 20


 376:Generated_Source\PSoC5/cyfitter_cfg.c **** /* UDBSWITCH_1_3 Address: CYDEV_UCFG_B0_P2_ROUTE_BASE Size (bytes): 128 */
 377:Generated_Source\PSoC5/cyfitter_cfg.c **** #define BS_UDBSWITCH_1_3_VAL ((const uint8 CYFAR *)0x4800194Cu)
 378:Generated_Source\PSoC5/cyfitter_cfg.c **** 
 379:Generated_Source\PSoC5/cyfitter_cfg.c **** /* UDB_2_3_HV_ROUTING Address: CYDEV_UCFG_B0_P2_ROUTE_BASE + 0x00000080u Size (bytes): 128 */
 380:Generated_Source\PSoC5/cyfitter_cfg.c **** #define BS_UDB_2_3_HV_ROUTING_VAL ((const uint8 CYFAR *)0x480019CCu)
 381:Generated_Source\PSoC5/cyfitter_cfg.c **** 
 382:Generated_Source\PSoC5/cyfitter_cfg.c **** /* UDBSWITCH_0_4 Address: CYDEV_UCFG_B0_P6_ROUTE_BASE Size (bytes): 128 */
 383:Generated_Source\PSoC5/cyfitter_cfg.c **** #define BS_UDBSWITCH_0_4_VAL ((const uint8 CYFAR *)0x48001A4Cu)
 384:Generated_Source\PSoC5/cyfitter_cfg.c **** 
 385:Generated_Source\PSoC5/cyfitter_cfg.c **** /* UDB_1_4_HV_ROUTING Address: CYDEV_UCFG_B0_P6_ROUTE_BASE + 0x00000080u Size (bytes): 128 */
 386:Generated_Source\PSoC5/cyfitter_cfg.c **** #define BS_UDB_1_4_HV_ROUTING_VAL ((const uint8 CYFAR *)0x48001ACCu)
 387:Generated_Source\PSoC5/cyfitter_cfg.c **** 
 388:Generated_Source\PSoC5/cyfitter_cfg.c **** /* UDBSWITCH_1_4 Address: CYDEV_UCFG_B0_P1_ROUTE_BASE Size (bytes): 128 */
 389:Generated_Source\PSoC5/cyfitter_cfg.c **** #define BS_UDBSWITCH_1_4_VAL ((const uint8 CYFAR *)0x48001B4Cu)
 390:Generated_Source\PSoC5/cyfitter_cfg.c **** 
 391:Generated_Source\PSoC5/cyfitter_cfg.c **** /* UDB_2_4_HV_ROUTING Address: CYDEV_UCFG_B0_P1_ROUTE_BASE + 0x00000080u Size (bytes): 128 */
 392:Generated_Source\PSoC5/cyfitter_cfg.c **** #define BS_UDB_2_4_HV_ROUTING_VAL ((const uint8 CYFAR *)0x48001BCCu)
 393:Generated_Source\PSoC5/cyfitter_cfg.c **** 
 394:Generated_Source\PSoC5/cyfitter_cfg.c **** /* UDB_1_5_HV_ROUTING Address: CYDEV_UCFG_B0_P7_ROUTE_BASE + 0x00000080u Size (bytes): 128 */
 395:Generated_Source\PSoC5/cyfitter_cfg.c **** #define BS_UDB_1_5_HV_ROUTING_VAL ((const uint8 CYFAR *)0x48001C4Cu)
 396:Generated_Source\PSoC5/cyfitter_cfg.c **** 
 397:Generated_Source\PSoC5/cyfitter_cfg.c **** /* UDBSWITCH_1_5 Address: CYDEV_UCFG_B0_P0_ROUTE_BASE Size (bytes): 128 */
 398:Generated_Source\PSoC5/cyfitter_cfg.c **** #define BS_UDBSWITCH_1_5_VAL ((const uint8 CYFAR *)0x48001CCCu)
 399:Generated_Source\PSoC5/cyfitter_cfg.c **** 
 400:Generated_Source\PSoC5/cyfitter_cfg.c **** /* UDB_2_5_HV_ROUTING Address: CYDEV_UCFG_B0_P0_ROUTE_BASE + 0x00000080u Size (bytes): 128 */
 401:Generated_Source\PSoC5/cyfitter_cfg.c **** #define BS_UDB_2_5_HV_ROUTING_VAL ((const uint8 CYFAR *)0x48001D4Cu)
 402:Generated_Source\PSoC5/cyfitter_cfg.c **** 
 403:Generated_Source\PSoC5/cyfitter_cfg.c **** /* DSISWITCH_1_0 Address: CYDEV_UCFG_DSI9_BASE Size (bytes): 128 */
 404:Generated_Source\PSoC5/cyfitter_cfg.c **** #define BS_DSISWITCH_1_0_VAL ((const uint8 CYFAR *)0x48001DCCu)
 405:Generated_Source\PSoC5/cyfitter_cfg.c **** 
 406:Generated_Source\PSoC5/cyfitter_cfg.c **** /* DSI3_0_HV_ROUTING Address: CYDEV_UCFG_DSI9_BASE + 0x00000080u Size (bytes): 128 */
 407:Generated_Source\PSoC5/cyfitter_cfg.c **** #define BS_DSI3_0_HV_ROUTING_VAL ((const uint8 CYFAR *)0x48001E4Cu)
 408:Generated_Source\PSoC5/cyfitter_cfg.c **** 
 409:Generated_Source\PSoC5/cyfitter_cfg.c **** /* DSISWITCH_1_1 Address: CYDEV_UCFG_DSI8_BASE Size (bytes): 128 */
 410:Generated_Source\PSoC5/cyfitter_cfg.c **** #define BS_DSISWITCH_1_1_VAL ((const uint8 CYFAR *)0x48001ECCu)
 411:Generated_Source\PSoC5/cyfitter_cfg.c **** 
 412:Generated_Source\PSoC5/cyfitter_cfg.c **** /* DSI3_1_HV_ROUTING Address: CYDEV_UCFG_DSI8_BASE + 0x00000080u Size (bytes): 128 */
 413:Generated_Source\PSoC5/cyfitter_cfg.c **** #define BS_DSI3_1_HV_ROUTING_VAL ((const uint8 CYFAR *)0x48001F4Cu)
 414:Generated_Source\PSoC5/cyfitter_cfg.c **** 
 415:Generated_Source\PSoC5/cyfitter_cfg.c **** /* DSISWITCH_1_2 Address: CYDEV_UCFG_DSI3_BASE Size (bytes): 128 */
 416:Generated_Source\PSoC5/cyfitter_cfg.c **** #define BS_DSISWITCH_1_2_VAL ((const uint8 CYFAR *)0x48001FCCu)
 417:Generated_Source\PSoC5/cyfitter_cfg.c **** 
 418:Generated_Source\PSoC5/cyfitter_cfg.c **** /* DSI3_2_HV_ROUTING Address: CYDEV_UCFG_DSI3_BASE + 0x00000080u Size (bytes): 128 */
 419:Generated_Source\PSoC5/cyfitter_cfg.c **** #define BS_DSI3_2_HV_ROUTING_VAL ((const uint8 CYFAR *)0x4800204Cu)
 420:Generated_Source\PSoC5/cyfitter_cfg.c **** 
 421:Generated_Source\PSoC5/cyfitter_cfg.c **** /* DSISWITCH_1_3 Address: CYDEV_UCFG_DSI2_BASE Size (bytes): 128 */
 422:Generated_Source\PSoC5/cyfitter_cfg.c **** #define BS_DSISWITCH_1_3_VAL ((const uint8 CYFAR *)0x480020CCu)
 423:Generated_Source\PSoC5/cyfitter_cfg.c **** 
 424:Generated_Source\PSoC5/cyfitter_cfg.c **** /* DSI3_3_HV_ROUTING Address: CYDEV_UCFG_DSI2_BASE + 0x00000080u Size (bytes): 128 */
 425:Generated_Source\PSoC5/cyfitter_cfg.c **** #define BS_DSI3_3_HV_ROUTING_VAL ((const uint8 CYFAR *)0x4800214Cu)
 426:Generated_Source\PSoC5/cyfitter_cfg.c **** 
 427:Generated_Source\PSoC5/cyfitter_cfg.c **** /* DSISWITCH_1_4 Address: CYDEV_UCFG_DSI1_BASE Size (bytes): 128 */
 428:Generated_Source\PSoC5/cyfitter_cfg.c **** #define BS_DSISWITCH_1_4_VAL ((const uint8 CYFAR *)0x480021CCu)
 429:Generated_Source\PSoC5/cyfitter_cfg.c **** 
 430:Generated_Source\PSoC5/cyfitter_cfg.c **** /* DSI3_4_HV_ROUTING Address: CYDEV_UCFG_DSI1_BASE + 0x00000080u Size (bytes): 128 */
 431:Generated_Source\PSoC5/cyfitter_cfg.c **** #define BS_DSI3_4_HV_ROUTING_VAL ((const uint8 CYFAR *)0x4800224Cu)
 432:Generated_Source\PSoC5/cyfitter_cfg.c **** 
ARM GAS  C:\Users\Joe\AppData\Local\Temp\ccq3C9Cg.s 			page 21


 433:Generated_Source\PSoC5/cyfitter_cfg.c **** /* DSISWITCH_1_5 Address: CYDEV_UCFG_DSI0_BASE Size (bytes): 128 */
 434:Generated_Source\PSoC5/cyfitter_cfg.c **** #define BS_DSISWITCH_1_5_VAL ((const uint8 CYFAR *)0x480022CCu)
 435:Generated_Source\PSoC5/cyfitter_cfg.c **** 
 436:Generated_Source\PSoC5/cyfitter_cfg.c **** /* DSI3_5_HV_ROUTING Address: CYDEV_UCFG_DSI0_BASE + 0x00000080u Size (bytes): 128 */
 437:Generated_Source\PSoC5/cyfitter_cfg.c **** #define BS_DSI3_5_HV_ROUTING_VAL ((const uint8 CYFAR *)0x4800234Cu)
 438:Generated_Source\PSoC5/cyfitter_cfg.c **** 
 439:Generated_Source\PSoC5/cyfitter_cfg.c **** /* IOPINS0_0 Address: CYREG_PRT0_DM0 Size (bytes): 8 */
 440:Generated_Source\PSoC5/cyfitter_cfg.c **** #define BS_IOPINS0_0_VAL ((const uint8 CYFAR *)0x480023CCu)
 441:Generated_Source\PSoC5/cyfitter_cfg.c **** 
 442:Generated_Source\PSoC5/cyfitter_cfg.c **** /* IOPINS0_7 Address: CYREG_PRT12_DM0 Size (bytes): 8 */
 443:Generated_Source\PSoC5/cyfitter_cfg.c **** #define BS_IOPINS0_7_VAL ((const uint8 CYFAR *)0x480023D4u)
 444:Generated_Source\PSoC5/cyfitter_cfg.c **** 
 445:Generated_Source\PSoC5/cyfitter_cfg.c **** /* IOPINS0_8 Address: CYREG_PRT15_DM0 Size (bytes): 8 */
 446:Generated_Source\PSoC5/cyfitter_cfg.c **** #define BS_IOPINS0_8_VAL ((const uint8 CYFAR *)0x480023DCu)
 447:Generated_Source\PSoC5/cyfitter_cfg.c **** 
 448:Generated_Source\PSoC5/cyfitter_cfg.c **** /* IOPINS0_1 Address: CYREG_PRT1_DM0 Size (bytes): 8 */
 449:Generated_Source\PSoC5/cyfitter_cfg.c **** #define BS_IOPINS0_1_VAL ((const uint8 CYFAR *)0x480023E4u)
 450:Generated_Source\PSoC5/cyfitter_cfg.c **** 
 451:Generated_Source\PSoC5/cyfitter_cfg.c **** /* IOPINS0_2 Address: CYREG_PRT2_DR Size (bytes): 10 */
 452:Generated_Source\PSoC5/cyfitter_cfg.c **** #define BS_IOPINS0_2_VAL ((const uint8 CYFAR *)0x480023ECu)
 453:Generated_Source\PSoC5/cyfitter_cfg.c **** 
 454:Generated_Source\PSoC5/cyfitter_cfg.c **** /* IOPINS0_3 Address: CYREG_PRT3_DR Size (bytes): 10 */
 455:Generated_Source\PSoC5/cyfitter_cfg.c **** #define BS_IOPINS0_3_VAL ((const uint8 CYFAR *)0x480023F8u)
 456:Generated_Source\PSoC5/cyfitter_cfg.c **** 
 457:Generated_Source\PSoC5/cyfitter_cfg.c **** /* CYDEV_CLKDIST_ACFG0_CFG0 Address: CYREG_CLKDIST_ACFG0_CFG0 Size (bytes): 8 */
 458:Generated_Source\PSoC5/cyfitter_cfg.c **** #define BS_CYDEV_CLKDIST_ACFG0_CFG0_VAL ((const uint8 CYFAR *)0x48002404u)
 459:Generated_Source\PSoC5/cyfitter_cfg.c **** 
 460:Generated_Source\PSoC5/cyfitter_cfg.c **** 
 461:Generated_Source\PSoC5/cyfitter_cfg.c **** /*******************************************************************************
 462:Generated_Source\PSoC5/cyfitter_cfg.c **** * Function Name: cfg_dma_init
 463:Generated_Source\PSoC5/cyfitter_cfg.c **** ********************************************************************************
 464:Generated_Source\PSoC5/cyfitter_cfg.c **** * Summary:
 465:Generated_Source\PSoC5/cyfitter_cfg.c **** *  This function is used to copy device configuration data from constant values
 466:Generated_Source\PSoC5/cyfitter_cfg.c **** *  stored in memory into the proper chip configuration registers using DMA.  It
 467:Generated_Source\PSoC5/cyfitter_cfg.c **** *  pulls data out of the CFG_TD_LISTs to know exactly how/what to configure.
 468:Generated_Source\PSoC5/cyfitter_cfg.c **** *
 469:Generated_Source\PSoC5/cyfitter_cfg.c **** * Parameters:  
 470:Generated_Source\PSoC5/cyfitter_cfg.c **** *   void
 471:Generated_Source\PSoC5/cyfitter_cfg.c **** *
 472:Generated_Source\PSoC5/cyfitter_cfg.c **** * Return:
 473:Generated_Source\PSoC5/cyfitter_cfg.c **** *   void
 474:Generated_Source\PSoC5/cyfitter_cfg.c **** *
 475:Generated_Source\PSoC5/cyfitter_cfg.c **** *******************************************************************************/
 476:Generated_Source\PSoC5/cyfitter_cfg.c **** static void cfg_dma_init(void);
 477:Generated_Source\PSoC5/cyfitter_cfg.c **** static void cfg_dma_init(void)
 478:Generated_Source\PSoC5/cyfitter_cfg.c **** {
 709              		.loc 1 478 0
 710              		.cfi_startproc
 711              		@ args = 0, pretend = 0, frame = 8
 712              		@ frame_needed = 1, uses_anonymous_args = 0
 713 0000 80B5     		push	{r7, lr}
 714              		.cfi_def_cfa_offset 8
 715              		.cfi_offset 7, -8
 716              		.cfi_offset 14, -4
 717 0002 82B0     		sub	sp, sp, #8
 718              		.cfi_def_cfa_offset 16
 719 0004 00AF     		add	r7, sp, #0
ARM GAS  C:\Users\Joe\AppData\Local\Temp\ccq3C9Cg.s 			page 22


 720              		.cfi_def_cfa_register 7
 479:Generated_Source\PSoC5/cyfitter_cfg.c **** 	/* TD structure for little-endian systems. Does not require endian swap */
 480:Generated_Source\PSoC5/cyfitter_cfg.c **** 	CYPACKED struct td_t {
 481:Generated_Source\PSoC5/cyfitter_cfg.c **** 		uint16 size;
 482:Generated_Source\PSoC5/cyfitter_cfg.c **** 		uint8 next_td_ptr;
 483:Generated_Source\PSoC5/cyfitter_cfg.c **** 		uint8 flags;
 484:Generated_Source\PSoC5/cyfitter_cfg.c **** 		uint16 src;
 485:Generated_Source\PSoC5/cyfitter_cfg.c **** 		uint16 dest;
 486:Generated_Source\PSoC5/cyfitter_cfg.c **** 	} CYPACKED_ATTR;
 487:Generated_Source\PSoC5/cyfitter_cfg.c **** 
 488:Generated_Source\PSoC5/cyfitter_cfg.c **** 	/* PHUB_CH1_CFGMEM_CFG0/1 initialization data */
 489:Generated_Source\PSoC5/cyfitter_cfg.c **** 	DMAINITSEC static const uint8 CYCODE CH1_ADDR_DATA0[] = { 0x01u, 0x00u, 0x00u, 0x00u, 0x00u, 0x20u
 490:Generated_Source\PSoC5/cyfitter_cfg.c **** 
 491:Generated_Source\PSoC5/cyfitter_cfg.c **** 	/* PHUB_CH2_CFGMEM_CFG0/1 initialization data */
 492:Generated_Source\PSoC5/cyfitter_cfg.c **** 	DMAINITSEC static const uint8 CYCODE CH2_ADDR_DATA0[] = { 0x01u, 0x00u, 0x00u, 0x00u, 0x00u, 0x20u
 493:Generated_Source\PSoC5/cyfitter_cfg.c **** 
 494:Generated_Source\PSoC5/cyfitter_cfg.c **** 	/* PHUB_CH5_CFGMEM_CFG0/1 initialization data */
 495:Generated_Source\PSoC5/cyfitter_cfg.c **** 	DMAINITSEC static const uint8 CYCODE CH5_ADDR_DATA0[] = { 0x01u, 0x00u, 0x00u, 0x00u, 0x00u, 0x48u
 496:Generated_Source\PSoC5/cyfitter_cfg.c **** 
 497:Generated_Source\PSoC5/cyfitter_cfg.c **** 	/* PHUB_CH6_CFGMEM_CFG0/1 initialization data */
 498:Generated_Source\PSoC5/cyfitter_cfg.c **** 	DMAINITSEC static const uint8 CYCODE CH6_ADDR_DATA0[] = { 0x01u, 0x00u, 0x00u, 0x00u, 0x00u, 0x48u
 499:Generated_Source\PSoC5/cyfitter_cfg.c **** 
 500:Generated_Source\PSoC5/cyfitter_cfg.c **** 	/* Initialization data for each DMA channel's TD registers */
 501:Generated_Source\PSoC5/cyfitter_cfg.c **** 	DMAINITSEC static const uint8 CYCODE DMA_TD_START_CMD[] = { 0x01u, 0x00u, 0x00u, 0x00u, 0x01u };
 502:Generated_Source\PSoC5/cyfitter_cfg.c **** 
 503:Generated_Source\PSoC5/cyfitter_cfg.c **** 	CYALIGNED static uint32 CYXDATA DMA_ZERO_VAL;
 504:Generated_Source\PSoC5/cyfitter_cfg.c **** 
 505:Generated_Source\PSoC5/cyfitter_cfg.c **** 	/* This table holds all of the initialization data necessary for the DMA
 506:Generated_Source\PSoC5/cyfitter_cfg.c **** 	   process to transfer data from the source location to the destination. */
 507:Generated_Source\PSoC5/cyfitter_cfg.c **** 	/* Source addresses can be relocated, but only when in 32bit addresses.
 508:Generated_Source\PSoC5/cyfitter_cfg.c **** 	   Because the standard TD table only has 16bit addresses, we generate a
 509:Generated_Source\PSoC5/cyfitter_cfg.c **** 	   separate CFG_TD_ADDR table for the source addresses that supports 32bit
 510:Generated_Source\PSoC5/cyfitter_cfg.c **** 	   addresses. */
 511:Generated_Source\PSoC5/cyfitter_cfg.c **** 	DMAINITSEC static const struct td_t CYCODE CFG_TD_LIST0[] = {
 512:Generated_Source\PSoC5/cyfitter_cfg.c **** 		/* Size, Next, Flags, Source, Destination */
 513:Generated_Source\PSoC5/cyfitter_cfg.c **** 		{ 8u, 0x02u, 0x23u, (uint16)(uint32)(0u), (uint16)(CYREG_PHUB_CFGMEM1_CFG0) },	/* TD 1 */
 514:Generated_Source\PSoC5/cyfitter_cfg.c **** 		{ 8u, 0x03u, 0x23u, (uint16)(uint32)(0u), (uint16)(CYREG_PHUB_CFGMEM2_CFG0) },	/* TD 2 */
 515:Generated_Source\PSoC5/cyfitter_cfg.c **** 		{ 8u, 0x04u, 0x23u, (uint16)(uint32)(0u), (uint16)(CYREG_PHUB_CFGMEM5_CFG0) },	/* TD 3 */
 516:Generated_Source\PSoC5/cyfitter_cfg.c **** 		{ 8u, 0x05u, 0x23u, (uint16)(uint32)(0u), (uint16)(CYREG_PHUB_CFGMEM6_CFG0) },	/* TD 4 */
 517:Generated_Source\PSoC5/cyfitter_cfg.c **** 		{ 5u, 0x06u, 0x23u, (uint16)(uint32)(0u), (uint16)(CYREG_PHUB_CH1_BASIC_CFG) },	/* TD 5 */
 518:Generated_Source\PSoC5/cyfitter_cfg.c **** 		{ 5u, 0x07u, 0x23u, (uint16)(uint32)(0u), (uint16)(CYREG_PHUB_CH2_BASIC_CFG) },	/* TD 6 */
 519:Generated_Source\PSoC5/cyfitter_cfg.c **** 		{ 5u, 0x08u, 0x23u, (uint16)(uint32)(0u), (uint16)(CYREG_PHUB_CH5_BASIC_CFG) },	/* TD 7 */
 520:Generated_Source\PSoC5/cyfitter_cfg.c **** 		{ 5u, 0xFEu, 0x23u, (uint16)(uint32)(0u), (uint16)(CYREG_PHUB_CH6_BASIC_CFG) },	/* TD 8 */
 521:Generated_Source\PSoC5/cyfitter_cfg.c **** 		{ 48u, 0xFEu, 0x22u, (uint16)(uint32)(0u), (uint16)(CYREG_PRT4_DR) },	/* TD 9 */
 522:Generated_Source\PSoC5/cyfitter_cfg.c **** 		{ 384u, 0xFEu, 0x22u, (uint16)(uint32)(0u), (uint16)(CYDEV_UCFG_B0_P7_U0_BASE) },	/* TD 10 */
 523:Generated_Source\PSoC5/cyfitter_cfg.c **** 		{ 7u, 0x0Cu, 0x23u, (uint16)(uint32)(0u), (uint16)(CYDEV_PRTDSI_PRT0_BASE) },	/* TD 11 */
 524:Generated_Source\PSoC5/cyfitter_cfg.c **** 		{ 7u, 0x0Du, 0x23u, (uint16)(uint32)(0u), (uint16)(CYDEV_PRTDSI_PRT1_BASE) },	/* TD 12 */
 525:Generated_Source\PSoC5/cyfitter_cfg.c **** 		{ 7u, 0x0Eu, 0x23u, (uint16)(uint32)(0u), (uint16)(CYDEV_PRTDSI_PRT2_BASE) },	/* TD 13 */
 526:Generated_Source\PSoC5/cyfitter_cfg.c **** 		{ 7u, 0x0Fu, 0x23u, (uint16)(uint32)(0u), (uint16)(CYDEV_PRTDSI_PRT3_BASE) },	/* TD 14 */
 527:Generated_Source\PSoC5/cyfitter_cfg.c **** 		{ 6u, 0x10u, 0x23u, (uint16)(uint32)(0u), (uint16)(CYDEV_PRTDSI_PRT12_BASE) },	/* TD 15 */
 528:Generated_Source\PSoC5/cyfitter_cfg.c **** 		{ 7u, 0x11u, 0x23u, (uint16)(uint32)(0u), (uint16)(CYDEV_PRTDSI_PRT15_BASE) },	/* TD 16 */
 529:Generated_Source\PSoC5/cyfitter_cfg.c **** 		{ 12u, 0x12u, 0x23u, (uint16)(uint32)(0u), (uint16)(CYREG_TMR0_CFG0) },	/* TD 17 */
 530:Generated_Source\PSoC5/cyfitter_cfg.c **** 		{ 12u, 0x13u, 0x23u, (uint16)(uint32)(0u), (uint16)(CYREG_TMR1_CFG0) },	/* TD 18 */
 531:Generated_Source\PSoC5/cyfitter_cfg.c **** 		{ 12u, 0x14u, 0x23u, (uint16)(uint32)(0u), (uint16)(CYREG_TMR2_CFG0) },	/* TD 19 */
 532:Generated_Source\PSoC5/cyfitter_cfg.c **** 		{ 8u, 0x15u, 0x23u, (uint16)(uint32)(0u), (uint16)(CYREG_SAR1_SW0) },	/* TD 20 */
 533:Generated_Source\PSoC5/cyfitter_cfg.c **** 		{ 64u, 0x16u, 0x23u, (uint16)(uint32)(0u), (uint16)(CYDEV_UWRK_UWRK8_B0_BASE) },	/* TD 21 */
 534:Generated_Source\PSoC5/cyfitter_cfg.c **** 		{ 32u, 0x17u, 0x23u, (uint16)(uint32)(0u), (uint16)(CYDEV_UWRK_UWRK8_B0_BASE + 0x00000070u) },	/*
ARM GAS  C:\Users\Joe\AppData\Local\Temp\ccq3C9Cg.s 			page 23


 535:Generated_Source\PSoC5/cyfitter_cfg.c **** 		{ 64u, 0x18u, 0x23u, (uint16)(uint32)(0u), (uint16)(CYDEV_UWRK_UWRK8_B1_BASE) },	/* TD 23 */
 536:Generated_Source\PSoC5/cyfitter_cfg.c **** 		{ 32u, 0xFEu, 0x23u, (uint16)(uint32)(0u), (uint16)(CYDEV_UWRK_UWRK8_B1_BASE + 0x00000070u) },	/*
 537:Generated_Source\PSoC5/cyfitter_cfg.c **** 		{ 8u, 0x1Au, 0x23u, (uint16)(uint32)(0u), (uint16)(CYREG_IDMUX_IRQ_CTL0) },	/* TD 25 */
 538:Generated_Source\PSoC5/cyfitter_cfg.c **** 		{ 128u, 0x1Bu, 0x23u, (uint16)(uint32)(0u), (uint16)(CYDEV_UCFG_B0_P0_U0_BASE) },	/* TD 26 */
 539:Generated_Source\PSoC5/cyfitter_cfg.c **** 		{ 128u, 0x1Cu, 0x23u, (uint16)(uint32)(0u), (uint16)(CYDEV_UCFG_B0_P0_U1_BASE) },	/* TD 27 */
 540:Generated_Source\PSoC5/cyfitter_cfg.c **** 		{ 128u, 0x1Du, 0x23u, (uint16)(uint32)(0u), (uint16)(CYDEV_UCFG_B0_P1_U0_BASE) },	/* TD 28 */
 541:Generated_Source\PSoC5/cyfitter_cfg.c **** 		{ 128u, 0x1Eu, 0x23u, (uint16)(uint32)(0u), (uint16)(CYDEV_UCFG_B0_P1_U1_BASE) },	/* TD 29 */
 542:Generated_Source\PSoC5/cyfitter_cfg.c **** 		{ 128u, 0x1Fu, 0x23u, (uint16)(uint32)(0u), (uint16)(CYDEV_UCFG_B0_P2_U0_BASE) },	/* TD 30 */
 543:Generated_Source\PSoC5/cyfitter_cfg.c **** 		{ 128u, 0x20u, 0x23u, (uint16)(uint32)(0u), (uint16)(CYDEV_UCFG_B0_P2_U1_BASE) },	/* TD 31 */
 544:Generated_Source\PSoC5/cyfitter_cfg.c **** 		{ 128u, 0x21u, 0x23u, (uint16)(uint32)(0u), (uint16)(CYDEV_UCFG_B0_P3_U0_BASE) },	/* TD 32 */
 545:Generated_Source\PSoC5/cyfitter_cfg.c **** 		{ 128u, 0x22u, 0x23u, (uint16)(uint32)(0u), (uint16)(CYDEV_UCFG_B0_P3_U1_BASE) },	/* TD 33 */
 546:Generated_Source\PSoC5/cyfitter_cfg.c **** 		{ 128u, 0x23u, 0x23u, (uint16)(uint32)(0u), (uint16)(CYDEV_UCFG_B0_P4_U0_BASE) },	/* TD 34 */
 547:Generated_Source\PSoC5/cyfitter_cfg.c **** 		{ 128u, 0x24u, 0x23u, (uint16)(uint32)(0u), (uint16)(CYDEV_UCFG_B0_P4_U1_BASE) },	/* TD 35 */
 548:Generated_Source\PSoC5/cyfitter_cfg.c **** 		{ 128u, 0x25u, 0x23u, (uint16)(uint32)(0u), (uint16)(CYDEV_UCFG_B0_P5_U0_BASE) },	/* TD 36 */
 549:Generated_Source\PSoC5/cyfitter_cfg.c **** 		{ 128u, 0x26u, 0x23u, (uint16)(uint32)(0u), (uint16)(CYDEV_UCFG_B0_P5_U1_BASE) },	/* TD 37 */
 550:Generated_Source\PSoC5/cyfitter_cfg.c **** 		{ 128u, 0x27u, 0x23u, (uint16)(uint32)(0u), (uint16)(CYDEV_UCFG_B0_P6_U0_BASE) },	/* TD 38 */
 551:Generated_Source\PSoC5/cyfitter_cfg.c **** 		{ 128u, 0x28u, 0x23u, (uint16)(uint32)(0u), (uint16)(CYDEV_UCFG_B0_P6_U1_BASE) },	/* TD 39 */
 552:Generated_Source\PSoC5/cyfitter_cfg.c **** 		{ 128u, 0x29u, 0x23u, (uint16)(uint32)(0u), (uint16)(CYDEV_UCFG_B1_P2_U0_BASE) },	/* TD 40 */
 553:Generated_Source\PSoC5/cyfitter_cfg.c **** 		{ 128u, 0x2Au, 0x23u, (uint16)(uint32)(0u), (uint16)(CYDEV_UCFG_B1_P2_U1_BASE) },	/* TD 41 */
 554:Generated_Source\PSoC5/cyfitter_cfg.c **** 		{ 128u, 0x2Bu, 0x23u, (uint16)(uint32)(0u), (uint16)(CYDEV_UCFG_B1_P3_U0_BASE) },	/* TD 42 */
 555:Generated_Source\PSoC5/cyfitter_cfg.c **** 		{ 128u, 0x2Cu, 0x23u, (uint16)(uint32)(0u), (uint16)(CYDEV_UCFG_B1_P3_U1_BASE) },	/* TD 43 */
 556:Generated_Source\PSoC5/cyfitter_cfg.c **** 		{ 128u, 0x2Du, 0x23u, (uint16)(uint32)(0u), (uint16)(CYDEV_UCFG_B1_P4_U0_BASE) },	/* TD 44 */
 557:Generated_Source\PSoC5/cyfitter_cfg.c **** 		{ 128u, 0x2Eu, 0x23u, (uint16)(uint32)(0u), (uint16)(CYDEV_UCFG_B1_P4_U1_BASE) },	/* TD 45 */
 558:Generated_Source\PSoC5/cyfitter_cfg.c **** 		{ 128u, 0x2Fu, 0x23u, (uint16)(uint32)(0u), (uint16)(CYDEV_UCFG_B1_P5_U0_BASE) },	/* TD 46 */
 559:Generated_Source\PSoC5/cyfitter_cfg.c **** 		{ 128u, 0x30u, 0x23u, (uint16)(uint32)(0u), (uint16)(CYDEV_UCFG_B1_P5_U1_BASE) },	/* TD 47 */
 560:Generated_Source\PSoC5/cyfitter_cfg.c **** 		{ 16u, 0x31u, 0x23u, (uint16)(uint32)(0u), (uint16)(CYREG_BCTL1_MDCLK_EN) },	/* TD 48 */
 561:Generated_Source\PSoC5/cyfitter_cfg.c **** 		{ 16u, 0x32u, 0x23u, (uint16)(uint32)(0u), (uint16)(CYREG_BCTL0_MDCLK_EN) },	/* TD 49 */
 562:Generated_Source\PSoC5/cyfitter_cfg.c **** 		{ 128u, 0x33u, 0x23u, (uint16)(uint32)(0u), (uint16)(CYDEV_UCFG_DSI13_BASE) },	/* TD 50 */
 563:Generated_Source\PSoC5/cyfitter_cfg.c **** 		{ 128u, 0x34u, 0x23u, (uint16)(uint32)(0u), (uint16)(CYDEV_UCFG_DSI13_BASE + 0x00000080u) },	/* T
 564:Generated_Source\PSoC5/cyfitter_cfg.c **** 		{ 128u, 0x35u, 0x23u, (uint16)(uint32)(0u), (uint16)(CYDEV_UCFG_DSI12_BASE) },	/* TD 52 */
 565:Generated_Source\PSoC5/cyfitter_cfg.c **** 		{ 128u, 0x36u, 0x23u, (uint16)(uint32)(0u), (uint16)(CYDEV_UCFG_DSI12_BASE + 0x00000080u) },	/* T
 566:Generated_Source\PSoC5/cyfitter_cfg.c **** 		{ 128u, 0x37u, 0x23u, (uint16)(uint32)(0u), (uint16)(CYDEV_UCFG_DSI7_BASE) },	/* TD 54 */
 567:Generated_Source\PSoC5/cyfitter_cfg.c **** 		{ 128u, 0x38u, 0x23u, (uint16)(uint32)(0u), (uint16)(CYDEV_UCFG_DSI7_BASE + 0x00000080u) },	/* TD
 568:Generated_Source\PSoC5/cyfitter_cfg.c **** 		{ 128u, 0x39u, 0x23u, (uint16)(uint32)(0u), (uint16)(CYDEV_UCFG_DSI6_BASE) },	/* TD 56 */
 569:Generated_Source\PSoC5/cyfitter_cfg.c **** 		{ 128u, 0x3Au, 0x23u, (uint16)(uint32)(0u), (uint16)(CYDEV_UCFG_DSI6_BASE + 0x00000080u) },	/* TD
 570:Generated_Source\PSoC5/cyfitter_cfg.c **** 		{ 128u, 0x3Bu, 0x23u, (uint16)(uint32)(0u), (uint16)(CYDEV_UCFG_DSI5_BASE) },	/* TD 58 */
 571:Generated_Source\PSoC5/cyfitter_cfg.c **** 		{ 128u, 0x3Cu, 0x23u, (uint16)(uint32)(0u), (uint16)(CYDEV_UCFG_DSI5_BASE + 0x00000080u) },	/* TD
 572:Generated_Source\PSoC5/cyfitter_cfg.c **** 		{ 128u, 0x3Du, 0x23u, (uint16)(uint32)(0u), (uint16)(CYDEV_UCFG_DSI4_BASE) },	/* TD 60 */
 573:Generated_Source\PSoC5/cyfitter_cfg.c **** 		{ 128u, 0x3Eu, 0x23u, (uint16)(uint32)(0u), (uint16)(CYDEV_UCFG_DSI4_BASE + 0x00000080u) },	/* TD
 574:Generated_Source\PSoC5/cyfitter_cfg.c **** 		{ 128u, 0x3Fu, 0x23u, (uint16)(uint32)(0u), (uint16)(CYDEV_UCFG_B1_P5_ROUTE_BASE) },	/* TD 62 */
 575:Generated_Source\PSoC5/cyfitter_cfg.c **** 		{ 128u, 0x40u, 0x23u, (uint16)(uint32)(0u), (uint16)(CYDEV_UCFG_B1_P5_ROUTE_BASE + 0x00000080u) }
 576:Generated_Source\PSoC5/cyfitter_cfg.c **** 		{ 128u, 0x41u, 0x23u, (uint16)(uint32)(0u), (uint16)(CYDEV_UCFG_B1_P2_ROUTE_BASE) },	/* TD 64 */
 577:Generated_Source\PSoC5/cyfitter_cfg.c **** 		{ 128u, 0x42u, 0x23u, (uint16)(uint32)(0u), (uint16)(CYDEV_UCFG_B1_P2_ROUTE_BASE + 0x00000080u) }
 578:Generated_Source\PSoC5/cyfitter_cfg.c **** 		{ 128u, 0x43u, 0x23u, (uint16)(uint32)(0u), (uint16)(CYDEV_UCFG_B1_P4_ROUTE_BASE) },	/* TD 66 */
 579:Generated_Source\PSoC5/cyfitter_cfg.c **** 		{ 128u, 0x44u, 0x23u, (uint16)(uint32)(0u), (uint16)(CYDEV_UCFG_B1_P4_ROUTE_BASE + 0x00000080u) }
 580:Generated_Source\PSoC5/cyfitter_cfg.c **** 		{ 128u, 0x45u, 0x23u, (uint16)(uint32)(0u), (uint16)(CYDEV_UCFG_B1_P3_ROUTE_BASE) },	/* TD 68 */
 581:Generated_Source\PSoC5/cyfitter_cfg.c **** 		{ 128u, 0x46u, 0x23u, (uint16)(uint32)(0u), (uint16)(CYDEV_UCFG_B1_P3_ROUTE_BASE + 0x00000080u) }
 582:Generated_Source\PSoC5/cyfitter_cfg.c **** 		{ 128u, 0x47u, 0x23u, (uint16)(uint32)(0u), (uint16)(CYDEV_UCFG_B0_P4_ROUTE_BASE) },	/* TD 70 */
 583:Generated_Source\PSoC5/cyfitter_cfg.c **** 		{ 128u, 0x48u, 0x23u, (uint16)(uint32)(0u), (uint16)(CYDEV_UCFG_B0_P4_ROUTE_BASE + 0x00000080u) }
 584:Generated_Source\PSoC5/cyfitter_cfg.c **** 		{ 128u, 0x49u, 0x23u, (uint16)(uint32)(0u), (uint16)(CYDEV_UCFG_B0_P3_ROUTE_BASE) },	/* TD 72 */
 585:Generated_Source\PSoC5/cyfitter_cfg.c **** 		{ 128u, 0x4Au, 0x23u, (uint16)(uint32)(0u), (uint16)(CYDEV_UCFG_B0_P3_ROUTE_BASE + 0x00000080u) }
 586:Generated_Source\PSoC5/cyfitter_cfg.c **** 		{ 128u, 0x4Bu, 0x23u, (uint16)(uint32)(0u), (uint16)(CYDEV_UCFG_B0_P5_ROUTE_BASE) },	/* TD 74 */
 587:Generated_Source\PSoC5/cyfitter_cfg.c **** 		{ 128u, 0x4Cu, 0x23u, (uint16)(uint32)(0u), (uint16)(CYDEV_UCFG_B0_P5_ROUTE_BASE + 0x00000080u) }
 588:Generated_Source\PSoC5/cyfitter_cfg.c **** 		{ 128u, 0x4Du, 0x23u, (uint16)(uint32)(0u), (uint16)(CYDEV_UCFG_B0_P2_ROUTE_BASE) },	/* TD 76 */
 589:Generated_Source\PSoC5/cyfitter_cfg.c **** 		{ 128u, 0x4Eu, 0x23u, (uint16)(uint32)(0u), (uint16)(CYDEV_UCFG_B0_P2_ROUTE_BASE + 0x00000080u) }
 590:Generated_Source\PSoC5/cyfitter_cfg.c **** 		{ 128u, 0x4Fu, 0x23u, (uint16)(uint32)(0u), (uint16)(CYDEV_UCFG_B0_P6_ROUTE_BASE) },	/* TD 78 */
 591:Generated_Source\PSoC5/cyfitter_cfg.c **** 		{ 128u, 0x50u, 0x23u, (uint16)(uint32)(0u), (uint16)(CYDEV_UCFG_B0_P6_ROUTE_BASE + 0x00000080u) }
ARM GAS  C:\Users\Joe\AppData\Local\Temp\ccq3C9Cg.s 			page 24


 592:Generated_Source\PSoC5/cyfitter_cfg.c **** 		{ 128u, 0x51u, 0x23u, (uint16)(uint32)(0u), (uint16)(CYDEV_UCFG_B0_P1_ROUTE_BASE) },	/* TD 80 */
 593:Generated_Source\PSoC5/cyfitter_cfg.c **** 		{ 128u, 0x52u, 0x23u, (uint16)(uint32)(0u), (uint16)(CYDEV_UCFG_B0_P1_ROUTE_BASE + 0x00000080u) }
 594:Generated_Source\PSoC5/cyfitter_cfg.c **** 		{ 128u, 0x53u, 0x23u, (uint16)(uint32)(0u), (uint16)(CYDEV_UCFG_B0_P7_ROUTE_BASE + 0x00000080u) }
 595:Generated_Source\PSoC5/cyfitter_cfg.c **** 		{ 128u, 0x54u, 0x23u, (uint16)(uint32)(0u), (uint16)(CYDEV_UCFG_B0_P0_ROUTE_BASE) },	/* TD 83 */
 596:Generated_Source\PSoC5/cyfitter_cfg.c **** 		{ 128u, 0x55u, 0x23u, (uint16)(uint32)(0u), (uint16)(CYDEV_UCFG_B0_P0_ROUTE_BASE + 0x00000080u) }
 597:Generated_Source\PSoC5/cyfitter_cfg.c **** 		{ 128u, 0x56u, 0x23u, (uint16)(uint32)(0u), (uint16)(CYDEV_UCFG_DSI9_BASE) },	/* TD 85 */
 598:Generated_Source\PSoC5/cyfitter_cfg.c **** 		{ 128u, 0x57u, 0x23u, (uint16)(uint32)(0u), (uint16)(CYDEV_UCFG_DSI9_BASE + 0x00000080u) },	/* TD
 599:Generated_Source\PSoC5/cyfitter_cfg.c **** 		{ 128u, 0x58u, 0x23u, (uint16)(uint32)(0u), (uint16)(CYDEV_UCFG_DSI8_BASE) },	/* TD 87 */
 600:Generated_Source\PSoC5/cyfitter_cfg.c **** 		{ 128u, 0x59u, 0x23u, (uint16)(uint32)(0u), (uint16)(CYDEV_UCFG_DSI8_BASE + 0x00000080u) },	/* TD
 601:Generated_Source\PSoC5/cyfitter_cfg.c **** 		{ 128u, 0x5Au, 0x23u, (uint16)(uint32)(0u), (uint16)(CYDEV_UCFG_DSI3_BASE) },	/* TD 89 */
 602:Generated_Source\PSoC5/cyfitter_cfg.c **** 		{ 128u, 0x5Bu, 0x23u, (uint16)(uint32)(0u), (uint16)(CYDEV_UCFG_DSI3_BASE + 0x00000080u) },	/* TD
 603:Generated_Source\PSoC5/cyfitter_cfg.c **** 		{ 128u, 0x5Cu, 0x23u, (uint16)(uint32)(0u), (uint16)(CYDEV_UCFG_DSI2_BASE) },	/* TD 91 */
 604:Generated_Source\PSoC5/cyfitter_cfg.c **** 		{ 128u, 0x5Du, 0x23u, (uint16)(uint32)(0u), (uint16)(CYDEV_UCFG_DSI2_BASE + 0x00000080u) },	/* TD
 605:Generated_Source\PSoC5/cyfitter_cfg.c **** 		{ 128u, 0x5Eu, 0x23u, (uint16)(uint32)(0u), (uint16)(CYDEV_UCFG_DSI1_BASE) },	/* TD 93 */
 606:Generated_Source\PSoC5/cyfitter_cfg.c **** 		{ 128u, 0x5Fu, 0x23u, (uint16)(uint32)(0u), (uint16)(CYDEV_UCFG_DSI1_BASE + 0x00000080u) },	/* TD
 607:Generated_Source\PSoC5/cyfitter_cfg.c **** 		{ 128u, 0x60u, 0x23u, (uint16)(uint32)(0u), (uint16)(CYDEV_UCFG_DSI0_BASE) },	/* TD 95 */
 608:Generated_Source\PSoC5/cyfitter_cfg.c **** 		{ 128u, 0xFEu, 0x23u, (uint16)(uint32)(0u), (uint16)(CYDEV_UCFG_DSI0_BASE + 0x00000080u) },	/* TD
 609:Generated_Source\PSoC5/cyfitter_cfg.c **** 	};
 610:Generated_Source\PSoC5/cyfitter_cfg.c **** 
 611:Generated_Source\PSoC5/cyfitter_cfg.c **** 	/* Source addresses can be relocated, but only when in 32bit addresses.
 612:Generated_Source\PSoC5/cyfitter_cfg.c **** 	   Because the standard TD table only has 16bit addresses, we generate a
 613:Generated_Source\PSoC5/cyfitter_cfg.c **** 	   separate table for the source addresses that does use 32bit addresses. This
 614:Generated_Source\PSoC5/cyfitter_cfg.c **** 	   table will be re-merged with the corresponding CFG_TD_LIST table during
 615:Generated_Source\PSoC5/cyfitter_cfg.c **** 	   initialization. */
 616:Generated_Source\PSoC5/cyfitter_cfg.c **** 	static const void * const CFG_TD_ADDR0[] = {
 617:Generated_Source\PSoC5/cyfitter_cfg.c **** 		(const void *)(CH1_ADDR_DATA0),	/* TD 1 */
 618:Generated_Source\PSoC5/cyfitter_cfg.c **** 		(const void *)(CH2_ADDR_DATA0),	/* TD 2 */
 619:Generated_Source\PSoC5/cyfitter_cfg.c **** 		(const void *)(CH5_ADDR_DATA0),	/* TD 3 */
 620:Generated_Source\PSoC5/cyfitter_cfg.c **** 		(const void *)(CH6_ADDR_DATA0),	/* TD 4 */
 621:Generated_Source\PSoC5/cyfitter_cfg.c **** 		(const void *)(DMA_TD_START_CMD),	/* TD 5 */
 622:Generated_Source\PSoC5/cyfitter_cfg.c **** 		(const void *)(DMA_TD_START_CMD),	/* TD 6 */
 623:Generated_Source\PSoC5/cyfitter_cfg.c **** 		(const void *)(DMA_TD_START_CMD),	/* TD 7 */
 624:Generated_Source\PSoC5/cyfitter_cfg.c **** 		(const void *)(DMA_TD_START_CMD),	/* TD 8 */
 625:Generated_Source\PSoC5/cyfitter_cfg.c **** 		(const void *)(&DMA_ZERO_VAL),	/* TD 9 */
 626:Generated_Source\PSoC5/cyfitter_cfg.c **** 		(const void *)(&DMA_ZERO_VAL),	/* TD 10 */
 627:Generated_Source\PSoC5/cyfitter_cfg.c **** 		(const void *)(BS_IOPORT_0_VAL),	/* TD 11 */
 628:Generated_Source\PSoC5/cyfitter_cfg.c **** 		(const void *)(BS_IOPORT_1_VAL),	/* TD 12 */
 629:Generated_Source\PSoC5/cyfitter_cfg.c **** 		(const void *)(BS_IOPORT_2_VAL),	/* TD 13 */
 630:Generated_Source\PSoC5/cyfitter_cfg.c **** 		(const void *)(BS_IOPORT_3_VAL),	/* TD 14 */
 631:Generated_Source\PSoC5/cyfitter_cfg.c **** 		(const void *)(BS_IOPORT_7_VAL),	/* TD 15 */
 632:Generated_Source\PSoC5/cyfitter_cfg.c **** 		(const void *)(BS_IOPORT_8_VAL),	/* TD 16 */
 633:Generated_Source\PSoC5/cyfitter_cfg.c **** 		(const void *)(BS_TMR0_VAL),	/* TD 17 */
 634:Generated_Source\PSoC5/cyfitter_cfg.c **** 		(const void *)(BS_TMR1_VAL),	/* TD 18 */
 635:Generated_Source\PSoC5/cyfitter_cfg.c **** 		(const void *)(BS_TMR2_VAL),	/* TD 19 */
 636:Generated_Source\PSoC5/cyfitter_cfg.c **** 		(const void *)(BS_SAR1_VAL),	/* TD 20 */
 637:Generated_Source\PSoC5/cyfitter_cfg.c **** 		(const void *)(BS_UWRK_B0_WRK_DP_BITS_VAL),	/* TD 21 */
 638:Generated_Source\PSoC5/cyfitter_cfg.c **** 		(const void *)(BS_UWRK_B0_WRK_STATCTL_BITS_VAL),	/* TD 22 */
 639:Generated_Source\PSoC5/cyfitter_cfg.c **** 		(const void *)(BS_UWRK_B1_WRK_DP_BITS_VAL),	/* TD 23 */
 640:Generated_Source\PSoC5/cyfitter_cfg.c **** 		(const void *)(BS_UWRK_B1_WRK_STATCTL_BITS_VAL),	/* TD 24 */
 641:Generated_Source\PSoC5/cyfitter_cfg.c **** 		(const void *)(BS_IDMUX_IRQ_VAL),	/* TD 25 */
 642:Generated_Source\PSoC5/cyfitter_cfg.c **** 		(const void *)(BS_UDB_1_5_0_CONFIG_VAL),	/* TD 26 */
 643:Generated_Source\PSoC5/cyfitter_cfg.c **** 		(const void *)(BS_UDB_1_5_1_CONFIG_VAL),	/* TD 27 */
 644:Generated_Source\PSoC5/cyfitter_cfg.c **** 		(const void *)(BS_UDB_1_4_1_CONFIG_VAL),	/* TD 28 */
 645:Generated_Source\PSoC5/cyfitter_cfg.c **** 		(const void *)(BS_UDB_1_4_0_CONFIG_VAL),	/* TD 29 */
 646:Generated_Source\PSoC5/cyfitter_cfg.c **** 		(const void *)(BS_UDB_1_3_0_CONFIG_VAL),	/* TD 30 */
 647:Generated_Source\PSoC5/cyfitter_cfg.c **** 		(const void *)(BS_UDB_1_3_1_CONFIG_VAL),	/* TD 31 */
 648:Generated_Source\PSoC5/cyfitter_cfg.c **** 		(const void *)(BS_UDB_1_2_1_CONFIG_VAL),	/* TD 32 */
ARM GAS  C:\Users\Joe\AppData\Local\Temp\ccq3C9Cg.s 			page 25


 649:Generated_Source\PSoC5/cyfitter_cfg.c **** 		(const void *)(BS_UDB_1_2_0_CONFIG_VAL),	/* TD 33 */
 650:Generated_Source\PSoC5/cyfitter_cfg.c **** 		(const void *)(BS_UDB_0_2_1_CONFIG_VAL),	/* TD 34 */
 651:Generated_Source\PSoC5/cyfitter_cfg.c **** 		(const void *)(BS_UDB_0_2_0_CONFIG_VAL),	/* TD 35 */
 652:Generated_Source\PSoC5/cyfitter_cfg.c **** 		(const void *)(BS_UDB_0_3_0_CONFIG_VAL),	/* TD 36 */
 653:Generated_Source\PSoC5/cyfitter_cfg.c **** 		(const void *)(BS_UDB_0_3_1_CONFIG_VAL),	/* TD 37 */
 654:Generated_Source\PSoC5/cyfitter_cfg.c **** 		(const void *)(BS_UDB_0_4_1_CONFIG_VAL),	/* TD 38 */
 655:Generated_Source\PSoC5/cyfitter_cfg.c **** 		(const void *)(BS_UDB_0_4_0_CONFIG_VAL),	/* TD 39 */
 656:Generated_Source\PSoC5/cyfitter_cfg.c **** 		(const void *)(BS_UDB_1_0_0_CONFIG_VAL),	/* TD 40 */
 657:Generated_Source\PSoC5/cyfitter_cfg.c **** 		(const void *)(BS_UDB_1_0_1_CONFIG_VAL),	/* TD 41 */
 658:Generated_Source\PSoC5/cyfitter_cfg.c **** 		(const void *)(BS_UDB_1_1_1_CONFIG_VAL),	/* TD 42 */
 659:Generated_Source\PSoC5/cyfitter_cfg.c **** 		(const void *)(BS_UDB_1_1_0_CONFIG_VAL),	/* TD 43 */
 660:Generated_Source\PSoC5/cyfitter_cfg.c **** 		(const void *)(BS_UDB_0_1_1_CONFIG_VAL),	/* TD 44 */
 661:Generated_Source\PSoC5/cyfitter_cfg.c **** 		(const void *)(BS_UDB_0_1_0_CONFIG_VAL),	/* TD 45 */
 662:Generated_Source\PSoC5/cyfitter_cfg.c **** 		(const void *)(BS_UDB_0_0_0_CONFIG_VAL),	/* TD 46 */
 663:Generated_Source\PSoC5/cyfitter_cfg.c **** 		(const void *)(BS_UDB_0_0_1_CONFIG_VAL),	/* TD 47 */
 664:Generated_Source\PSoC5/cyfitter_cfg.c **** 		(const void *)(BS_UCFG_BCTL1_VAL),	/* TD 48 */
 665:Generated_Source\PSoC5/cyfitter_cfg.c **** 		(const void *)(BS_UCFG_BCTL0_VAL),	/* TD 49 */
 666:Generated_Source\PSoC5/cyfitter_cfg.c **** 		(const void *)(BS_DSISWITCH_0_0_VAL),	/* TD 50 */
 667:Generated_Source\PSoC5/cyfitter_cfg.c **** 		(const void *)(BS_DSI0_0_HV_ROUTING_VAL),	/* TD 51 */
 668:Generated_Source\PSoC5/cyfitter_cfg.c **** 		(const void *)(BS_DSISWITCH_0_1_VAL),	/* TD 52 */
 669:Generated_Source\PSoC5/cyfitter_cfg.c **** 		(const void *)(BS_DSI0_1_HV_ROUTING_VAL),	/* TD 53 */
 670:Generated_Source\PSoC5/cyfitter_cfg.c **** 		(const void *)(BS_DSISWITCH_0_2_VAL),	/* TD 54 */
 671:Generated_Source\PSoC5/cyfitter_cfg.c **** 		(const void *)(BS_DSI0_2_HV_ROUTING_VAL),	/* TD 55 */
 672:Generated_Source\PSoC5/cyfitter_cfg.c **** 		(const void *)(BS_DSISWITCH_0_3_VAL),	/* TD 56 */
 673:Generated_Source\PSoC5/cyfitter_cfg.c **** 		(const void *)(BS_DSI0_3_HV_ROUTING_VAL),	/* TD 57 */
 674:Generated_Source\PSoC5/cyfitter_cfg.c **** 		(const void *)(BS_DSISWITCH_0_4_VAL),	/* TD 58 */
 675:Generated_Source\PSoC5/cyfitter_cfg.c **** 		(const void *)(BS_DSI0_4_HV_ROUTING_VAL),	/* TD 59 */
 676:Generated_Source\PSoC5/cyfitter_cfg.c **** 		(const void *)(BS_DSISWITCH_0_5_VAL),	/* TD 60 */
 677:Generated_Source\PSoC5/cyfitter_cfg.c **** 		(const void *)(BS_DSI0_5_HV_ROUTING_VAL),	/* TD 61 */
 678:Generated_Source\PSoC5/cyfitter_cfg.c **** 		(const void *)(BS_UDBSWITCH_0_0_VAL),	/* TD 62 */
 679:Generated_Source\PSoC5/cyfitter_cfg.c **** 		(const void *)(BS_UDB_1_0_HV_ROUTING_VAL),	/* TD 63 */
 680:Generated_Source\PSoC5/cyfitter_cfg.c **** 		(const void *)(BS_UDBSWITCH_1_0_VAL),	/* TD 64 */
 681:Generated_Source\PSoC5/cyfitter_cfg.c **** 		(const void *)(BS_UDB_2_0_HV_ROUTING_VAL),	/* TD 65 */
 682:Generated_Source\PSoC5/cyfitter_cfg.c **** 		(const void *)(BS_UDBSWITCH_0_1_VAL),	/* TD 66 */
 683:Generated_Source\PSoC5/cyfitter_cfg.c **** 		(const void *)(BS_UDB_1_1_HV_ROUTING_VAL),	/* TD 67 */
 684:Generated_Source\PSoC5/cyfitter_cfg.c **** 		(const void *)(BS_UDBSWITCH_1_1_VAL),	/* TD 68 */
 685:Generated_Source\PSoC5/cyfitter_cfg.c **** 		(const void *)(BS_UDB_2_1_HV_ROUTING_VAL),	/* TD 69 */
 686:Generated_Source\PSoC5/cyfitter_cfg.c **** 		(const void *)(BS_UDBSWITCH_0_2_VAL),	/* TD 70 */
 687:Generated_Source\PSoC5/cyfitter_cfg.c **** 		(const void *)(BS_UDB_1_2_HV_ROUTING_VAL),	/* TD 71 */
 688:Generated_Source\PSoC5/cyfitter_cfg.c **** 		(const void *)(BS_UDBSWITCH_1_2_VAL),	/* TD 72 */
 689:Generated_Source\PSoC5/cyfitter_cfg.c **** 		(const void *)(BS_UDB_2_2_HV_ROUTING_VAL),	/* TD 73 */
 690:Generated_Source\PSoC5/cyfitter_cfg.c **** 		(const void *)(BS_UDBSWITCH_0_3_VAL),	/* TD 74 */
 691:Generated_Source\PSoC5/cyfitter_cfg.c **** 		(const void *)(BS_UDB_1_3_HV_ROUTING_VAL),	/* TD 75 */
 692:Generated_Source\PSoC5/cyfitter_cfg.c **** 		(const void *)(BS_UDBSWITCH_1_3_VAL),	/* TD 76 */
 693:Generated_Source\PSoC5/cyfitter_cfg.c **** 		(const void *)(BS_UDB_2_3_HV_ROUTING_VAL),	/* TD 77 */
 694:Generated_Source\PSoC5/cyfitter_cfg.c **** 		(const void *)(BS_UDBSWITCH_0_4_VAL),	/* TD 78 */
 695:Generated_Source\PSoC5/cyfitter_cfg.c **** 		(const void *)(BS_UDB_1_4_HV_ROUTING_VAL),	/* TD 79 */
 696:Generated_Source\PSoC5/cyfitter_cfg.c **** 		(const void *)(BS_UDBSWITCH_1_4_VAL),	/* TD 80 */
 697:Generated_Source\PSoC5/cyfitter_cfg.c **** 		(const void *)(BS_UDB_2_4_HV_ROUTING_VAL),	/* TD 81 */
 698:Generated_Source\PSoC5/cyfitter_cfg.c **** 		(const void *)(BS_UDB_1_5_HV_ROUTING_VAL),	/* TD 82 */
 699:Generated_Source\PSoC5/cyfitter_cfg.c **** 		(const void *)(BS_UDBSWITCH_1_5_VAL),	/* TD 83 */
 700:Generated_Source\PSoC5/cyfitter_cfg.c **** 		(const void *)(BS_UDB_2_5_HV_ROUTING_VAL),	/* TD 84 */
 701:Generated_Source\PSoC5/cyfitter_cfg.c **** 		(const void *)(BS_DSISWITCH_1_0_VAL),	/* TD 85 */
 702:Generated_Source\PSoC5/cyfitter_cfg.c **** 		(const void *)(BS_DSI3_0_HV_ROUTING_VAL),	/* TD 86 */
 703:Generated_Source\PSoC5/cyfitter_cfg.c **** 		(const void *)(BS_DSISWITCH_1_1_VAL),	/* TD 87 */
 704:Generated_Source\PSoC5/cyfitter_cfg.c **** 		(const void *)(BS_DSI3_1_HV_ROUTING_VAL),	/* TD 88 */
 705:Generated_Source\PSoC5/cyfitter_cfg.c **** 		(const void *)(BS_DSISWITCH_1_2_VAL),	/* TD 89 */
ARM GAS  C:\Users\Joe\AppData\Local\Temp\ccq3C9Cg.s 			page 26


 706:Generated_Source\PSoC5/cyfitter_cfg.c **** 		(const void *)(BS_DSI3_2_HV_ROUTING_VAL),	/* TD 90 */
 707:Generated_Source\PSoC5/cyfitter_cfg.c **** 		(const void *)(BS_DSISWITCH_1_3_VAL),	/* TD 91 */
 708:Generated_Source\PSoC5/cyfitter_cfg.c **** 		(const void *)(BS_DSI3_3_HV_ROUTING_VAL),	/* TD 92 */
 709:Generated_Source\PSoC5/cyfitter_cfg.c **** 		(const void *)(BS_DSISWITCH_1_4_VAL),	/* TD 93 */
 710:Generated_Source\PSoC5/cyfitter_cfg.c **** 		(const void *)(BS_DSI3_4_HV_ROUTING_VAL),	/* TD 94 */
 711:Generated_Source\PSoC5/cyfitter_cfg.c **** 		(const void *)(BS_DSISWITCH_1_5_VAL),	/* TD 95 */
 712:Generated_Source\PSoC5/cyfitter_cfg.c **** 		(const void *)(BS_DSI3_5_HV_ROUTING_VAL),	/* TD 96 */
 713:Generated_Source\PSoC5/cyfitter_cfg.c **** 	};
 714:Generated_Source\PSoC5/cyfitter_cfg.c **** 
 715:Generated_Source\PSoC5/cyfitter_cfg.c **** 
 716:Generated_Source\PSoC5/cyfitter_cfg.c **** 	uint32 i;
 717:Generated_Source\PSoC5/cyfitter_cfg.c **** 
 718:Generated_Source\PSoC5/cyfitter_cfg.c **** 	DMA_ZERO_VAL = 0u;
 721              		.loc 1 718 0
 722 0006 454B     		ldr	r3, .L15
 723 0008 0022     		movs	r2, #0
 724 000a 1A60     		str	r2, [r3]
 719:Generated_Source\PSoC5/cyfitter_cfg.c **** 	CY_SET_REG8((void CYXDATA *)CYREG_PHUB_CFGMEM0_CFG0, 0x10u);	/* set burstcnt */
 725              		.loc 1 719 0
 726 000c 444B     		ldr	r3, .L15+4
 727 000e 1022     		movs	r2, #16
 728 0010 1A70     		strb	r2, [r3]
 720:Generated_Source\PSoC5/cyfitter_cfg.c **** 	CY_SET_REG8((void CYXDATA *)CYREG_PHUB_CH0_BASIC_CFG, 0x01u);	/* enable ch0 */
 729              		.loc 1 720 0
 730 0012 444B     		ldr	r3, .L15+8
 731 0014 0122     		movs	r2, #1
 732 0016 1A70     		strb	r2, [r3]
 721:Generated_Source\PSoC5/cyfitter_cfg.c **** 	CY_SET_REG8((void CYXDATA *)(CYREG_PHUB_CH0_BASIC_STATUS+1u), 0x00u);	/* set first TD to 0 */
 733              		.loc 1 721 0
 734 0018 434B     		ldr	r3, .L15+12
 735 001a 0022     		movs	r2, #0
 736 001c 1A70     		strb	r2, [r3]
 722:Generated_Source\PSoC5/cyfitter_cfg.c **** 	CY_SET_REG16((void CYXDATA *)CYREG_PHUB_TDMEM0_ORIG_TD0, 96u*8u);	/* transfer size */
 737              		.loc 1 722 0
 738 001e 434B     		ldr	r3, .L15+16
 739 0020 4FF44072 		mov	r2, #768
 740 0024 1A80     		strh	r2, [r3]	@ movhi
 723:Generated_Source\PSoC5/cyfitter_cfg.c **** 	CY_SET_REG8((void CYXDATA *)(CYREG_PHUB_TDMEM0_ORIG_TD0+2u), 0x01u);	/* set next TD to 1 */
 741              		.loc 1 723 0
 742 0026 424B     		ldr	r3, .L15+20
 743 0028 0122     		movs	r2, #1
 744 002a 1A70     		strb	r2, [r3]
 724:Generated_Source\PSoC5/cyfitter_cfg.c **** 	CY_SET_REG8((void CYXDATA *)(CYREG_PHUB_TDMEM0_ORIG_TD0+3u), 0x03u);	/* set TD flags */
 745              		.loc 1 724 0
 746 002c 414B     		ldr	r3, .L15+24
 747 002e 0322     		movs	r2, #3
 748 0030 1A70     		strb	r2, [r3]
 725:Generated_Source\PSoC5/cyfitter_cfg.c **** 	CY_SET_REG16((void CYXDATA *)CYREG_PHUB_TDMEM0_ORIG_TD1, (uint16)((uint32)CFG_TD_LIST0 & 0x0000FFF
 749              		.loc 1 725 0
 750 0032 414B     		ldr	r3, .L15+28
 751 0034 414A     		ldr	r2, .L15+32
 752 0036 92B2     		uxth	r2, r2
 753 0038 1A80     		strh	r2, [r3]	@ movhi
 726:Generated_Source\PSoC5/cyfitter_cfg.c **** 	CY_SET_REG16((void CYXDATA *)(CYREG_PHUB_TDMEM0_ORIG_TD1+2u), CYDEV_PHUB_TDMEM1_BASE);	/* set td0'
 754              		.loc 1 726 0
 755 003a 414B     		ldr	r3, .L15+36
 756 003c 47F60802 		movw	r2, #30728
ARM GAS  C:\Users\Joe\AppData\Local\Temp\ccq3C9Cg.s 			page 27


 757 0040 1A80     		strh	r2, [r3]	@ movhi
 727:Generated_Source\PSoC5/cyfitter_cfg.c **** 	CY_SET_REG16((void CYXDATA *)CYREG_PHUB_CFGMEM0_CFG1, (uint16)(CYDEV_FLASH_BASE >> 16));	/* set ch
 758              		.loc 1 727 0
 759 0042 404B     		ldr	r3, .L15+40
 760 0044 0022     		movs	r2, #0
 761 0046 1A80     		strh	r2, [r3]	@ movhi
 728:Generated_Source\PSoC5/cyfitter_cfg.c **** 	CY_SET_REG16((void CYXDATA *)(CYREG_PHUB_CFGMEM0_CFG1+2u), (uint16)(CYDEV_PHUB_TDMEM1_BASE >> 16))
 762              		.loc 1 728 0
 763 0048 3F4B     		ldr	r3, .L15+44
 764 004a 4FF48042 		mov	r2, #16384
 765 004e 1A80     		strh	r2, [r3]	@ movhi
 729:Generated_Source\PSoC5/cyfitter_cfg.c **** 	CY_SET_REG8((void CYXDATA *)(CYREG_PHUB_CH1_BASIC_STATUS+1u), 0x09u);	/* ch1 first TD: 9 */
 766              		.loc 1 729 0
 767 0050 3E4B     		ldr	r3, .L15+48
 768 0052 0922     		movs	r2, #9
 769 0054 1A70     		strb	r2, [r3]
 730:Generated_Source\PSoC5/cyfitter_cfg.c **** 	CY_SET_REG8((void CYXDATA *)(CYREG_PHUB_CH2_BASIC_STATUS+1u), 0x0Au);	/* ch2 first TD: 10 */
 770              		.loc 1 730 0
 771 0056 3E4B     		ldr	r3, .L15+52
 772 0058 0A22     		movs	r2, #10
 773 005a 1A70     		strb	r2, [r3]
 731:Generated_Source\PSoC5/cyfitter_cfg.c **** 	CY_SET_REG8((void CYXDATA *)(CYREG_PHUB_CH5_BASIC_STATUS+1u), 0x0Bu);	/* ch5 first TD: 11 */
 774              		.loc 1 731 0
 775 005c 3D4B     		ldr	r3, .L15+56
 776 005e 0B22     		movs	r2, #11
 777 0060 1A70     		strb	r2, [r3]
 732:Generated_Source\PSoC5/cyfitter_cfg.c **** 	CY_SET_REG8((void CYXDATA *)(CYREG_PHUB_CH6_BASIC_STATUS+1u), 0x19u);	/* ch6 first TD: 25 */
 778              		.loc 1 732 0
 779 0062 3D4B     		ldr	r3, .L15+60
 780 0064 1922     		movs	r2, #25
 781 0066 1A70     		strb	r2, [r3]
 733:Generated_Source\PSoC5/cyfitter_cfg.c **** 
 734:Generated_Source\PSoC5/cyfitter_cfg.c **** 	CY_CFG_MEMORY_BARRIER();
 782              		.loc 1 734 0
 783 0068 BFF35F8F 		dmb	sy
 735:Generated_Source\PSoC5/cyfitter_cfg.c **** 	CY_SET_REG8((void CYXDATA *)CYREG_PHUB_CH0_ACTION, 0x01u); /* cpu_req */
 784              		.loc 1 735 0
 785 006c 3B4B     		ldr	r3, .L15+64
 786 006e 0122     		movs	r2, #1
 787 0070 1A70     		strb	r2, [r3]
 736:Generated_Source\PSoC5/cyfitter_cfg.c **** 	CY_CFG_MEMORY_BARRIER();
 788              		.loc 1 736 0
 789 0072 BFF35F8F 		dmb	sy
 737:Generated_Source\PSoC5/cyfitter_cfg.c **** 
 738:Generated_Source\PSoC5/cyfitter_cfg.c **** 	/* Wait for TDs to be copied into TDMEM */
 739:Generated_Source\PSoC5/cyfitter_cfg.c **** 	while (CY_GET_REG16((void CYXDATA *)CYREG_PHUB_TDMEM0_ORIG_TD0) != 0u) { }
 790              		.loc 1 739 0
 791 0076 00BF     		nop
 792              	.L7:
 793              		.loc 1 739 0 is_stmt 0 discriminator 1
 794 0078 2C4B     		ldr	r3, .L15+16
 795 007a 1B88     		ldrh	r3, [r3]	@ movhi
 796 007c 9BB2     		uxth	r3, r3
 797 007e 002B     		cmp	r3, #0
 798 0080 FAD1     		bne	.L7
 740:Generated_Source\PSoC5/cyfitter_cfg.c **** 
 741:Generated_Source\PSoC5/cyfitter_cfg.c **** 	/* Recombine TD source table (CFG_TD_ADDR0) with full TD table (CFG_TD_LIST0) */
ARM GAS  C:\Users\Joe\AppData\Local\Temp\ccq3C9Cg.s 			page 28


 742:Generated_Source\PSoC5/cyfitter_cfg.c **** 	for (i = 0u; i < 96u; i++)
 799              		.loc 1 742 0 is_stmt 1
 800 0082 0023     		movs	r3, #0
 801 0084 7B60     		str	r3, [r7, #4]
 802 0086 0DE0     		b	.L8
 803              	.L9:
 743:Generated_Source\PSoC5/cyfitter_cfg.c **** 	{
 744:Generated_Source\PSoC5/cyfitter_cfg.c **** 		CY_SET_REG16((void CYXDATA *)(CYREG_PHUB_TDMEM1_ORIG_TD1 + (sizeof(struct td_t)*i)), (uint16)(uin
 804              		.loc 1 744 0 discriminator 3
 805 0088 7B68     		ldr	r3, [r7, #4]
 806 008a DA00     		lsls	r2, r3, #3
 807 008c 344B     		ldr	r3, .L15+68
 808 008e 1344     		add	r3, r3, r2
 809 0090 1946     		mov	r1, r3
 810 0092 344A     		ldr	r2, .L15+72
 811 0094 7B68     		ldr	r3, [r7, #4]
 812 0096 52F82330 		ldr	r3, [r2, r3, lsl #2]
 813 009a 9BB2     		uxth	r3, r3
 814 009c 0B80     		strh	r3, [r1]	@ movhi
 742:Generated_Source\PSoC5/cyfitter_cfg.c **** 	{
 815              		.loc 1 742 0 discriminator 3
 816 009e 7B68     		ldr	r3, [r7, #4]
 817 00a0 0133     		adds	r3, r3, #1
 818 00a2 7B60     		str	r3, [r7, #4]
 819              	.L8:
 742:Generated_Source\PSoC5/cyfitter_cfg.c **** 	{
 820              		.loc 1 742 0 is_stmt 0 discriminator 1
 821 00a4 7B68     		ldr	r3, [r7, #4]
 822 00a6 5F2B     		cmp	r3, #95
 823 00a8 EED9     		bls	.L9
 745:Generated_Source\PSoC5/cyfitter_cfg.c **** 	}
 746:Generated_Source\PSoC5/cyfitter_cfg.c **** 
 747:Generated_Source\PSoC5/cyfitter_cfg.c **** 	CY_CFG_MEMORY_BARRIER();
 824              		.loc 1 747 0 is_stmt 1
 825 00aa BFF35F8F 		dmb	sy
 748:Generated_Source\PSoC5/cyfitter_cfg.c **** 	CY_SET_REG8((void CYXDATA *)CYREG_PHUB_CH0_ACTION, 0x01u); /* cpu_req */
 826              		.loc 1 748 0
 827 00ae 2B4B     		ldr	r3, .L15+64
 828 00b0 0122     		movs	r2, #1
 829 00b2 1A70     		strb	r2, [r3]
 749:Generated_Source\PSoC5/cyfitter_cfg.c **** 	CY_CFG_MEMORY_BARRIER();
 830              		.loc 1 749 0
 831 00b4 BFF35F8F 		dmb	sy
 750:Generated_Source\PSoC5/cyfitter_cfg.c **** 
 751:Generated_Source\PSoC5/cyfitter_cfg.c **** 	/* Wait for all DMA transfers to complete */
 752:Generated_Source\PSoC5/cyfitter_cfg.c **** 	while(0u != (CY_GET_REG8((void CYXDATA *)CYREG_PHUB_CH0_BASIC_STATUS) & 0x01u)){}
 832              		.loc 1 752 0
 833 00b8 00BF     		nop
 834              	.L10:
 835              		.loc 1 752 0 is_stmt 0 discriminator 1
 836 00ba 2B4B     		ldr	r3, .L15+76
 837 00bc 1B78     		ldrb	r3, [r3]
 838 00be DBB2     		uxtb	r3, r3
 839 00c0 03F00103 		and	r3, r3, #1
 840 00c4 002B     		cmp	r3, #0
 841 00c6 F8D1     		bne	.L10
 753:Generated_Source\PSoC5/cyfitter_cfg.c **** 	while(0u != (CY_GET_REG8((void CYXDATA *)CYREG_PHUB_CH1_BASIC_STATUS) & 0x01u)){}
ARM GAS  C:\Users\Joe\AppData\Local\Temp\ccq3C9Cg.s 			page 29


 842              		.loc 1 753 0 is_stmt 1
 843 00c8 00BF     		nop
 844              	.L11:
 845              		.loc 1 753 0 is_stmt 0 discriminator 1
 846 00ca 284B     		ldr	r3, .L15+80
 847 00cc 1B78     		ldrb	r3, [r3]
 848 00ce DBB2     		uxtb	r3, r3
 849 00d0 03F00103 		and	r3, r3, #1
 850 00d4 002B     		cmp	r3, #0
 851 00d6 F8D1     		bne	.L11
 754:Generated_Source\PSoC5/cyfitter_cfg.c **** 	while(0u != (CY_GET_REG8((void CYXDATA *)CYREG_PHUB_CH2_BASIC_STATUS) & 0x01u)){}
 852              		.loc 1 754 0 is_stmt 1
 853 00d8 00BF     		nop
 854              	.L12:
 855              		.loc 1 754 0 is_stmt 0 discriminator 1
 856 00da 254B     		ldr	r3, .L15+84
 857 00dc 1B78     		ldrb	r3, [r3]
 858 00de DBB2     		uxtb	r3, r3
 859 00e0 03F00103 		and	r3, r3, #1
 860 00e4 002B     		cmp	r3, #0
 861 00e6 F8D1     		bne	.L12
 755:Generated_Source\PSoC5/cyfitter_cfg.c **** 	while(0u != (CY_GET_REG8((void CYXDATA *)CYREG_PHUB_CH5_BASIC_STATUS) & 0x01u)){}
 862              		.loc 1 755 0 is_stmt 1
 863 00e8 00BF     		nop
 864              	.L13:
 865              		.loc 1 755 0 is_stmt 0 discriminator 1
 866 00ea 224B     		ldr	r3, .L15+88
 867 00ec 1B78     		ldrb	r3, [r3]
 868 00ee DBB2     		uxtb	r3, r3
 869 00f0 03F00103 		and	r3, r3, #1
 870 00f4 002B     		cmp	r3, #0
 871 00f6 F8D1     		bne	.L13
 756:Generated_Source\PSoC5/cyfitter_cfg.c **** 	while(0u != (CY_GET_REG8((void CYXDATA *)CYREG_PHUB_CH6_BASIC_STATUS) & 0x01u)){}
 872              		.loc 1 756 0 is_stmt 1
 873 00f8 00BF     		nop
 874              	.L14:
 875              		.loc 1 756 0 is_stmt 0 discriminator 1
 876 00fa 1F4B     		ldr	r3, .L15+92
 877 00fc 1B78     		ldrb	r3, [r3]
 878 00fe DBB2     		uxtb	r3, r3
 879 0100 03F00103 		and	r3, r3, #1
 880 0104 002B     		cmp	r3, #0
 881 0106 F8D1     		bne	.L14
 757:Generated_Source\PSoC5/cyfitter_cfg.c **** 
 758:Generated_Source\PSoC5/cyfitter_cfg.c **** 
 759:Generated_Source\PSoC5/cyfitter_cfg.c **** 	CYCONFIGCPY((void CYFAR *)(CYREG_IDMUX_DRQ_CTL0), (const void CYFAR *)(BS_IDMUX_VAL), 6u);
 882              		.loc 1 759 0 is_stmt 1
 883 0108 0622     		movs	r2, #6
 884 010a 4FF09041 		mov	r1, #1207959552
 885 010e 1B48     		ldr	r0, .L15+96
 886 0110 FFF7FEFF 		bl	CYCONFIGCPY
 760:Generated_Source\PSoC5/cyfitter_cfg.c **** 
 761:Generated_Source\PSoC5/cyfitter_cfg.c **** }
 887              		.loc 1 761 0
 888 0114 00BF     		nop
 889 0116 0837     		adds	r7, r7, #8
 890              		.cfi_def_cfa_offset 8
ARM GAS  C:\Users\Joe\AppData\Local\Temp\ccq3C9Cg.s 			page 30


 891 0118 BD46     		mov	sp, r7
 892              		.cfi_def_cfa_register 13
 893              		@ sp needed
 894 011a 80BD     		pop	{r7, pc}
 895              	.L16:
 896              		.align	2
 897              	.L15:
 898 011c 00000000 		.word	DMA_ZERO_VAL.4982
 899 0120 00760040 		.word	1073772032
 900 0124 10700040 		.word	1073770512
 901 0128 19700040 		.word	1073770521
 902 012c 00780040 		.word	1073772544
 903 0130 02780040 		.word	1073772546
 904 0134 03780040 		.word	1073772547
 905 0138 04780040 		.word	1073772548
 906 013c 28000000 		.word	CFG_TD_LIST0.4983
 907 0140 06780040 		.word	1073772550
 908 0144 04760040 		.word	1073772036
 909 0148 06760040 		.word	1073772038
 910 014c 29700040 		.word	1073770537
 911 0150 39700040 		.word	1073770553
 912 0154 69700040 		.word	1073770601
 913 0158 79700040 		.word	1073770617
 914 015c 14700040 		.word	1073770516
 915 0160 0C780040 		.word	1073772556
 916 0164 0C000000 		.word	CFG_TD_ADDR0.4984
 917 0168 18700040 		.word	1073770520
 918 016c 28700040 		.word	1073770536
 919 0170 38700040 		.word	1073770552
 920 0174 68700040 		.word	1073770600
 921 0178 78700040 		.word	1073770616
 922 017c 10510140 		.word	1073828112
 923              		.cfi_endproc
 924              	.LFE4:
 925              		.size	cfg_dma_init, .-cfg_dma_init
 926              		.section	.text.ClockSetup,"ax",%progbits
 927              		.align	2
 928              		.thumb
 929              		.thumb_func
 930              		.type	ClockSetup, %function
 931              	ClockSetup:
 932              	.LFB5:
 762:Generated_Source\PSoC5/cyfitter_cfg.c **** /*******************************************************************************
 763:Generated_Source\PSoC5/cyfitter_cfg.c **** * Function Name: ClockSetup
 764:Generated_Source\PSoC5/cyfitter_cfg.c **** ********************************************************************************
 765:Generated_Source\PSoC5/cyfitter_cfg.c **** *
 766:Generated_Source\PSoC5/cyfitter_cfg.c **** * Summary:
 767:Generated_Source\PSoC5/cyfitter_cfg.c **** *  Performs the initialization of all of the clocks in the device based on the
 768:Generated_Source\PSoC5/cyfitter_cfg.c **** *  settings in the Clock tab of the DWR.  This includes enabling the requested
 769:Generated_Source\PSoC5/cyfitter_cfg.c **** *  clocks and setting the necessary dividers to produce the desired frequency. 
 770:Generated_Source\PSoC5/cyfitter_cfg.c **** *
 771:Generated_Source\PSoC5/cyfitter_cfg.c **** * Parameters:
 772:Generated_Source\PSoC5/cyfitter_cfg.c **** *  void
 773:Generated_Source\PSoC5/cyfitter_cfg.c **** *
 774:Generated_Source\PSoC5/cyfitter_cfg.c **** * Return:
 775:Generated_Source\PSoC5/cyfitter_cfg.c **** *  void
 776:Generated_Source\PSoC5/cyfitter_cfg.c **** *
ARM GAS  C:\Users\Joe\AppData\Local\Temp\ccq3C9Cg.s 			page 31


 777:Generated_Source\PSoC5/cyfitter_cfg.c **** *******************************************************************************/
 778:Generated_Source\PSoC5/cyfitter_cfg.c **** static void ClockSetup(void);
 779:Generated_Source\PSoC5/cyfitter_cfg.c **** static void ClockSetup(void)
 780:Generated_Source\PSoC5/cyfitter_cfg.c **** {
 933              		.loc 1 780 0
 934              		.cfi_startproc
 935              		@ args = 0, pretend = 0, frame = 8
 936              		@ frame_needed = 1, uses_anonymous_args = 0
 937 0000 80B5     		push	{r7, lr}
 938              		.cfi_def_cfa_offset 8
 939              		.cfi_offset 7, -8
 940              		.cfi_offset 14, -4
 941 0002 82B0     		sub	sp, sp, #8
 942              		.cfi_def_cfa_offset 16
 943 0004 00AF     		add	r7, sp, #0
 944              		.cfi_def_cfa_register 7
 781:Generated_Source\PSoC5/cyfitter_cfg.c **** 	uint32 timeout;
 782:Generated_Source\PSoC5/cyfitter_cfg.c **** 	uint8 pllLock;
 783:Generated_Source\PSoC5/cyfitter_cfg.c **** 
 784:Generated_Source\PSoC5/cyfitter_cfg.c **** 
 785:Generated_Source\PSoC5/cyfitter_cfg.c **** 	/* Configure Digital Clocks based on settings from Clock DWR */
 786:Generated_Source\PSoC5/cyfitter_cfg.c **** 	CY_SET_XTND_REG16((void CYFAR *)(CYREG_CLKDIST_DCFG0_CFG0), 0x0000u);
 945              		.loc 1 786 0
 946 0006 4F4B     		ldr	r3, .L22
 947 0008 0022     		movs	r2, #0
 948 000a 1A80     		strh	r2, [r3]	@ movhi
 787:Generated_Source\PSoC5/cyfitter_cfg.c **** 	CY_SET_XTND_REG8((void CYFAR *)(CYREG_CLKDIST_DCFG0_CFG0 + 0x2u), 0x50u);
 949              		.loc 1 787 0
 950 000c 4E4B     		ldr	r3, .L22+4
 951 000e 5022     		movs	r2, #80
 952 0010 1A70     		strb	r2, [r3]
 788:Generated_Source\PSoC5/cyfitter_cfg.c **** 	CY_SET_XTND_REG16((void CYFAR *)(CYREG_CLKDIST_DCFG1_CFG0), 0x0001u);
 953              		.loc 1 788 0
 954 0012 4E4B     		ldr	r3, .L22+8
 955 0014 0122     		movs	r2, #1
 956 0016 1A80     		strh	r2, [r3]	@ movhi
 789:Generated_Source\PSoC5/cyfitter_cfg.c **** 	CY_SET_XTND_REG8((void CYFAR *)(CYREG_CLKDIST_DCFG1_CFG0 + 0x2u), 0x18u);
 957              		.loc 1 789 0
 958 0018 4D4B     		ldr	r3, .L22+12
 959 001a 1822     		movs	r2, #24
 960 001c 1A70     		strb	r2, [r3]
 790:Generated_Source\PSoC5/cyfitter_cfg.c **** 	CY_SET_XTND_REG16((void CYFAR *)(CYREG_CLKDIST_DCFG2_CFG0), 0x0001u);
 961              		.loc 1 790 0
 962 001e 4D4B     		ldr	r3, .L22+16
 963 0020 0122     		movs	r2, #1
 964 0022 1A80     		strh	r2, [r3]	@ movhi
 791:Generated_Source\PSoC5/cyfitter_cfg.c **** 	CY_SET_XTND_REG8((void CYFAR *)(CYREG_CLKDIST_DCFG2_CFG0 + 0x2u), 0x18u);
 965              		.loc 1 791 0
 966 0024 4C4B     		ldr	r3, .L22+20
 967 0026 1822     		movs	r2, #24
 968 0028 1A70     		strb	r2, [r3]
 792:Generated_Source\PSoC5/cyfitter_cfg.c **** 	CY_SET_XTND_REG16((void CYFAR *)(CYREG_CLKDIST_DCFG3_CFG0), 0x0003u);
 969              		.loc 1 792 0
 970 002a 4C4B     		ldr	r3, .L22+24
 971 002c 0322     		movs	r2, #3
 972 002e 1A80     		strh	r2, [r3]	@ movhi
 793:Generated_Source\PSoC5/cyfitter_cfg.c **** 	CY_SET_XTND_REG8((void CYFAR *)(CYREG_CLKDIST_DCFG3_CFG0 + 0x2u), 0x18u);
ARM GAS  C:\Users\Joe\AppData\Local\Temp\ccq3C9Cg.s 			page 32


 973              		.loc 1 793 0
 974 0030 4B4B     		ldr	r3, .L22+28
 975 0032 1822     		movs	r2, #24
 976 0034 1A70     		strb	r2, [r3]
 794:Generated_Source\PSoC5/cyfitter_cfg.c **** 	CY_SET_XTND_REG16((void CYFAR *)(CYREG_CLKDIST_DCFG4_CFG0), 0x0003u);
 977              		.loc 1 794 0
 978 0036 4B4B     		ldr	r3, .L22+32
 979 0038 0322     		movs	r2, #3
 980 003a 1A80     		strh	r2, [r3]	@ movhi
 795:Generated_Source\PSoC5/cyfitter_cfg.c **** 	CY_SET_XTND_REG8((void CYFAR *)(CYREG_CLKDIST_DCFG4_CFG0 + 0x2u), 0x18u);
 981              		.loc 1 795 0
 982 003c 4A4B     		ldr	r3, .L22+36
 983 003e 1822     		movs	r2, #24
 984 0040 1A70     		strb	r2, [r3]
 796:Generated_Source\PSoC5/cyfitter_cfg.c **** 	CY_SET_XTND_REG16((void CYFAR *)(CYREG_CLKDIST_DCFG5_CFG0), 0x000Bu);
 985              		.loc 1 796 0
 986 0042 4A4B     		ldr	r3, .L22+40
 987 0044 0B22     		movs	r2, #11
 988 0046 1A80     		strh	r2, [r3]	@ movhi
 797:Generated_Source\PSoC5/cyfitter_cfg.c **** 	CY_SET_XTND_REG8((void CYFAR *)(CYREG_CLKDIST_DCFG5_CFG0 + 0x2u), 0x18u);
 989              		.loc 1 797 0
 990 0048 494B     		ldr	r3, .L22+44
 991 004a 1822     		movs	r2, #24
 992 004c 1A70     		strb	r2, [r3]
 798:Generated_Source\PSoC5/cyfitter_cfg.c **** 	CY_SET_XTND_REG16((void CYFAR *)(CYREG_CLKDIST_DCFG6_CFG0), 0x000Bu);
 993              		.loc 1 798 0
 994 004e 494B     		ldr	r3, .L22+48
 995 0050 0B22     		movs	r2, #11
 996 0052 1A80     		strh	r2, [r3]	@ movhi
 799:Generated_Source\PSoC5/cyfitter_cfg.c **** 	CY_SET_XTND_REG8((void CYFAR *)(CYREG_CLKDIST_DCFG6_CFG0 + 0x2u), 0x18u);
 997              		.loc 1 799 0
 998 0054 484B     		ldr	r3, .L22+52
 999 0056 1822     		movs	r2, #24
 1000 0058 1A70     		strb	r2, [r3]
 800:Generated_Source\PSoC5/cyfitter_cfg.c **** 	CY_SET_XTND_REG16((void CYFAR *)(CYREG_CLKDIST_DCFG7_CFG0), 0x000Cu);
 1001              		.loc 1 800 0
 1002 005a 484B     		ldr	r3, .L22+56
 1003 005c 0C22     		movs	r2, #12
 1004 005e 1A80     		strh	r2, [r3]	@ movhi
 801:Generated_Source\PSoC5/cyfitter_cfg.c **** 	CY_SET_XTND_REG8((void CYFAR *)(CYREG_CLKDIST_DCFG7_CFG0 + 0x2u), 0x18u);
 1005              		.loc 1 801 0
 1006 0060 474B     		ldr	r3, .L22+60
 1007 0062 1822     		movs	r2, #24
 1008 0064 1A70     		strb	r2, [r3]
 802:Generated_Source\PSoC5/cyfitter_cfg.c **** 
 803:Generated_Source\PSoC5/cyfitter_cfg.c **** 	/* Configure Analog Clocks based on settings from Clock DWR */
 804:Generated_Source\PSoC5/cyfitter_cfg.c **** 	CYCONFIGCPY((void CYFAR *)(CYREG_CLKDIST_ACFG0_CFG0), (const void CYFAR *)(BS_CYDEV_CLKDIST_ACFG0_
 1009              		.loc 1 804 0
 1010 0066 0822     		movs	r2, #8
 1011 0068 4649     		ldr	r1, .L22+64
 1012 006a 4748     		ldr	r0, .L22+68
 1013 006c FFF7FEFF 		bl	CYCONFIGCPY
 805:Generated_Source\PSoC5/cyfitter_cfg.c **** 
 806:Generated_Source\PSoC5/cyfitter_cfg.c **** 	/* Configure ILO based on settings from Clock DWR */
 807:Generated_Source\PSoC5/cyfitter_cfg.c **** 	CY_SET_XTND_REG8((void CYFAR *)(CYREG_SLOWCLK_ILO_CR0), 0x02u);
 1014              		.loc 1 807 0
 1015 0070 464B     		ldr	r3, .L22+72
ARM GAS  C:\Users\Joe\AppData\Local\Temp\ccq3C9Cg.s 			page 33


 1016 0072 0222     		movs	r2, #2
 1017 0074 1A70     		strb	r2, [r3]
 808:Generated_Source\PSoC5/cyfitter_cfg.c **** 	CY_SET_XTND_REG8((void CYFAR *)(CYREG_CLKDIST_CR), 0x08u);
 1018              		.loc 1 808 0
 1019 0076 4FF04023 		mov	r3, #1073758208
 1020 007a 0822     		movs	r2, #8
 1021 007c 1A70     		strb	r2, [r3]
 809:Generated_Source\PSoC5/cyfitter_cfg.c **** 
 810:Generated_Source\PSoC5/cyfitter_cfg.c **** 	/* Configure IMO based on settings from Clock DWR */
 811:Generated_Source\PSoC5/cyfitter_cfg.c **** 	CY_SET_XTND_REG8((void CYFAR *)(CYREG_FASTCLK_IMO_CR), 0x03u);
 1022              		.loc 1 811 0
 1023 007e 444B     		ldr	r3, .L22+76
 1024 0080 0322     		movs	r2, #3
 1025 0082 1A70     		strb	r2, [r3]
 812:Generated_Source\PSoC5/cyfitter_cfg.c **** 	CY_SET_XTND_REG8((void CYFAR *)(CYREG_IMO_TR1), (CY_GET_XTND_REG8((void CYFAR *)CYREG_FLSHID_CUST_
 1026              		.loc 1 812 0
 1027 0084 434B     		ldr	r3, .L22+80
 1028 0086 444A     		ldr	r2, .L22+84
 1029 0088 1278     		ldrb	r2, [r2]
 1030 008a D2B2     		uxtb	r2, r2
 1031 008c 1A70     		strb	r2, [r3]
 813:Generated_Source\PSoC5/cyfitter_cfg.c **** 
 814:Generated_Source\PSoC5/cyfitter_cfg.c **** 	/* Configure PLL based on settings from Clock DWR */
 815:Generated_Source\PSoC5/cyfitter_cfg.c **** 	CY_SET_XTND_REG16((void CYFAR *)(CYREG_FASTCLK_PLL_P), 0x0008u);
 1032              		.loc 1 815 0
 1033 008e 434B     		ldr	r3, .L22+88
 1034 0090 0822     		movs	r2, #8
 1035 0092 1A80     		strh	r2, [r3]	@ movhi
 816:Generated_Source\PSoC5/cyfitter_cfg.c **** 	CY_SET_XTND_REG16((void CYFAR *)(CYREG_FASTCLK_PLL_CFG0), 0x1251u);
 1036              		.loc 1 816 0
 1037 0094 424B     		ldr	r3, .L22+92
 1038 0096 41F25122 		movw	r2, #4689
 1039 009a 1A80     		strh	r2, [r3]	@ movhi
 817:Generated_Source\PSoC5/cyfitter_cfg.c **** 	/* Wait up to 250us for the PLL to lock */
 818:Generated_Source\PSoC5/cyfitter_cfg.c **** 	pllLock = 0u;
 1040              		.loc 1 818 0
 1041 009c 0023     		movs	r3, #0
 1042 009e FB70     		strb	r3, [r7, #3]
 819:Generated_Source\PSoC5/cyfitter_cfg.c **** 	for (timeout = 250u / 10u; (timeout > 0u) && (pllLock != 0x03u); timeout--)
 1043              		.loc 1 819 0
 1044 00a0 1923     		movs	r3, #25
 1045 00a2 7B60     		str	r3, [r7, #4]
 1046 00a4 13E0     		b	.L18
 1047              	.L20:
 820:Generated_Source\PSoC5/cyfitter_cfg.c **** 	{ 
 821:Generated_Source\PSoC5/cyfitter_cfg.c **** 		pllLock = 0x03u & ((uint8)((uint8)pllLock << 1) | ((CY_GET_XTND_REG8((void CYFAR *)CYREG_FASTCLK_
 1048              		.loc 1 821 0 discriminator 4
 1049 00a6 FB78     		ldrb	r3, [r7, #3]
 1050 00a8 5B00     		lsls	r3, r3, #1
 1051 00aa DAB2     		uxtb	r2, r3
 1052 00ac 3D4B     		ldr	r3, .L22+96
 1053 00ae 1B78     		ldrb	r3, [r3]
 1054 00b0 DBB2     		uxtb	r3, r3
 1055 00b2 03F00103 		and	r3, r3, #1
 1056 00b6 DBB2     		uxtb	r3, r3
 1057 00b8 1343     		orrs	r3, r3, r2
 1058 00ba DBB2     		uxtb	r3, r3
ARM GAS  C:\Users\Joe\AppData\Local\Temp\ccq3C9Cg.s 			page 34


 1059 00bc 03F00303 		and	r3, r3, #3
 1060 00c0 FB70     		strb	r3, [r7, #3]
 822:Generated_Source\PSoC5/cyfitter_cfg.c **** 		CyDelayCycles(10u * 12u); /* Delay 10us based on 12MHz clock */
 1061              		.loc 1 822 0 discriminator 4
 1062 00c2 7820     		movs	r0, #120
 1063 00c4 FFF7FEFF 		bl	CyDelayCycles
 819:Generated_Source\PSoC5/cyfitter_cfg.c **** 	for (timeout = 250u / 10u; (timeout > 0u) && (pllLock != 0x03u); timeout--)
 1064              		.loc 1 819 0 discriminator 4
 1065 00c8 7B68     		ldr	r3, [r7, #4]
 1066 00ca 013B     		subs	r3, r3, #1
 1067 00cc 7B60     		str	r3, [r7, #4]
 1068              	.L18:
 819:Generated_Source\PSoC5/cyfitter_cfg.c **** 	for (timeout = 250u / 10u; (timeout > 0u) && (pllLock != 0x03u); timeout--)
 1069              		.loc 1 819 0 is_stmt 0 discriminator 1
 1070 00ce 7B68     		ldr	r3, [r7, #4]
 1071 00d0 002B     		cmp	r3, #0
 1072 00d2 02D0     		beq	.L19
 819:Generated_Source\PSoC5/cyfitter_cfg.c **** 	for (timeout = 250u / 10u; (timeout > 0u) && (pllLock != 0x03u); timeout--)
 1073              		.loc 1 819 0 discriminator 3
 1074 00d4 FB78     		ldrb	r3, [r7, #3]	@ zero_extendqisi2
 1075 00d6 032B     		cmp	r3, #3
 1076 00d8 E5D1     		bne	.L20
 1077              	.L19:
 823:Generated_Source\PSoC5/cyfitter_cfg.c **** 	}
 824:Generated_Source\PSoC5/cyfitter_cfg.c **** 	/* If we ran out of time the PLL didn't lock so go to the error function */
 825:Generated_Source\PSoC5/cyfitter_cfg.c **** 	if (timeout == 0u)
 1078              		.loc 1 825 0 is_stmt 1
 1079 00da 7B68     		ldr	r3, [r7, #4]
 1080 00dc 002B     		cmp	r3, #0
 1081 00de 02D1     		bne	.L21
 826:Generated_Source\PSoC5/cyfitter_cfg.c **** 	{
 827:Generated_Source\PSoC5/cyfitter_cfg.c **** 		CyClockStartupError(CYCLOCKSTART_PLL_ERROR);
 1082              		.loc 1 827 0
 1083 00e0 0320     		movs	r0, #3
 1084 00e2 FFF7FEFF 		bl	CyClockStartupError
 1085              	.L21:
 828:Generated_Source\PSoC5/cyfitter_cfg.c **** 	}
 829:Generated_Source\PSoC5/cyfitter_cfg.c **** 
 830:Generated_Source\PSoC5/cyfitter_cfg.c **** 	/* Configure Bus/Master Clock based on settings from Clock DWR */
 831:Generated_Source\PSoC5/cyfitter_cfg.c **** 	CY_SET_XTND_REG16((void CYFAR *)(CYREG_CLKDIST_MSTR0), 0x0100u);
 1086              		.loc 1 831 0
 1087 00e6 304B     		ldr	r3, .L22+100
 1088 00e8 4FF48072 		mov	r2, #256
 1089 00ec 1A80     		strh	r2, [r3]	@ movhi
 832:Generated_Source\PSoC5/cyfitter_cfg.c **** 	CY_SET_XTND_REG8((void CYFAR *)(CYREG_CLKDIST_MSTR0), 0x07u);
 1090              		.loc 1 832 0
 1091 00ee 2E4B     		ldr	r3, .L22+100
 1092 00f0 0722     		movs	r2, #7
 1093 00f2 1A70     		strb	r2, [r3]
 833:Generated_Source\PSoC5/cyfitter_cfg.c **** 	CY_SET_XTND_REG8((void CYFAR *)(CYREG_CLKDIST_BCFG0), 0x00u);
 1094              		.loc 1 833 0
 1095 00f4 2D4B     		ldr	r3, .L22+104
 1096 00f6 0022     		movs	r2, #0
 1097 00f8 1A70     		strb	r2, [r3]
 834:Generated_Source\PSoC5/cyfitter_cfg.c **** 	CY_SET_XTND_REG8((void CYFAR *)(CYREG_CLKDIST_BCFG2), 0x48u);
 1098              		.loc 1 834 0
 1099 00fa 2D4B     		ldr	r3, .L22+108
ARM GAS  C:\Users\Joe\AppData\Local\Temp\ccq3C9Cg.s 			page 35


 1100 00fc 4822     		movs	r2, #72
 1101 00fe 1A70     		strb	r2, [r3]
 835:Generated_Source\PSoC5/cyfitter_cfg.c **** 	CY_SET_XTND_REG8((void CYFAR *)(CYREG_CLKDIST_MSTR0), 0x00u);
 1102              		.loc 1 835 0
 1103 0100 294B     		ldr	r3, .L22+100
 1104 0102 0022     		movs	r2, #0
 1105 0104 1A70     		strb	r2, [r3]
 836:Generated_Source\PSoC5/cyfitter_cfg.c **** 	CY_SET_XTND_REG8((void CYFAR *)(CYREG_CLKDIST_LD), 0x02u);
 1106              		.loc 1 836 0
 1107 0106 2B4B     		ldr	r3, .L22+112
 1108 0108 0222     		movs	r2, #2
 1109 010a 1A70     		strb	r2, [r3]
 837:Generated_Source\PSoC5/cyfitter_cfg.c **** 	CY_SET_XTND_REG8((void CYFAR *)(CYREG_CLKDIST_DLY1), 0x04u);
 1110              		.loc 1 837 0
 1111 010c 2A4B     		ldr	r3, .L22+116
 1112 010e 0422     		movs	r2, #4
 1113 0110 1A70     		strb	r2, [r3]
 838:Generated_Source\PSoC5/cyfitter_cfg.c **** 
 839:Generated_Source\PSoC5/cyfitter_cfg.c **** 	CY_SET_XTND_REG8((void CYFAR *)(CYREG_PM_ACT_CFG2), ((CY_GET_XTND_REG8((void CYFAR *)CYREG_PM_ACT_
 1114              		.loc 1 839 0
 1115 0112 2A4B     		ldr	r3, .L22+120
 1116 0114 1B78     		ldrb	r3, [r3]
 1117 0116 294B     		ldr	r3, .L22+120
 1118 0118 FF22     		movs	r2, #255
 1119 011a 1A70     		strb	r2, [r3]
 840:Generated_Source\PSoC5/cyfitter_cfg.c **** 	CY_SET_XTND_REG8((void CYFAR *)(CYREG_PM_ACT_CFG1), ((CY_GET_XTND_REG8((void CYFAR *)CYREG_PM_ACT_
 1120              		.loc 1 840 0
 1121 011c 284A     		ldr	r2, .L22+124
 1122 011e 284B     		ldr	r3, .L22+124
 1123 0120 1B78     		ldrb	r3, [r3]
 1124 0122 DBB2     		uxtb	r3, r3
 1125 0124 43F00303 		orr	r3, r3, #3
 1126 0128 DBB2     		uxtb	r3, r3
 1127 012a 1370     		strb	r3, [r2]
 841:Generated_Source\PSoC5/cyfitter_cfg.c **** 	CY_SET_XTND_REG8((void CYFAR *)(CYREG_PM_ACT_CFG0), ((CY_GET_XTND_REG8((void CYFAR *)CYREG_PM_ACT_
 1128              		.loc 1 841 0
 1129 012c 254A     		ldr	r2, .L22+128
 1130 012e 254B     		ldr	r3, .L22+128
 1131 0130 1B78     		ldrb	r3, [r3]
 1132 0132 DBB2     		uxtb	r3, r3
 1133 0134 63F07F03 		orn	r3, r3, #127
 1134 0138 DBB2     		uxtb	r3, r3
 1135 013a 1370     		strb	r3, [r2]
 842:Generated_Source\PSoC5/cyfitter_cfg.c **** }
 1136              		.loc 1 842 0
 1137 013c 00BF     		nop
 1138 013e 0837     		adds	r7, r7, #8
 1139              		.cfi_def_cfa_offset 8
 1140 0140 BD46     		mov	sp, r7
 1141              		.cfi_def_cfa_register 13
 1142              		@ sp needed
 1143 0142 80BD     		pop	{r7, pc}
 1144              	.L23:
 1145              		.align	2
 1146              	.L22:
 1147 0144 80400040 		.word	1073758336
 1148 0148 82400040 		.word	1073758338
ARM GAS  C:\Users\Joe\AppData\Local\Temp\ccq3C9Cg.s 			page 36


 1149 014c 84400040 		.word	1073758340
 1150 0150 86400040 		.word	1073758342
 1151 0154 88400040 		.word	1073758344
 1152 0158 8A400040 		.word	1073758346
 1153 015c 8C400040 		.word	1073758348
 1154 0160 8E400040 		.word	1073758350
 1155 0164 90400040 		.word	1073758352
 1156 0168 92400040 		.word	1073758354
 1157 016c 94400040 		.word	1073758356
 1158 0170 96400040 		.word	1073758358
 1159 0174 98400040 		.word	1073758360
 1160 0178 9A400040 		.word	1073758362
 1161 017c 9C400040 		.word	1073758364
 1162 0180 9E400040 		.word	1073758366
 1163 0184 04240048 		.word	1207968772
 1164 0188 00410040 		.word	1073758464
 1165 018c 00430040 		.word	1073758976
 1166 0190 00420040 		.word	1073758720
 1167 0194 A1460040 		.word	1073759905
 1168 0198 08010049 		.word	1224737032
 1169 019c 22420040 		.word	1073758754
 1170 01a0 20420040 		.word	1073758752
 1171 01a4 25420040 		.word	1073758757
 1172 01a8 04400040 		.word	1073758212
 1173 01ac 06400040 		.word	1073758214
 1174 01b0 08400040 		.word	1073758216
 1175 01b4 01400040 		.word	1073758209
 1176 01b8 0B400040 		.word	1073758219
 1177 01bc A2430040 		.word	1073759138
 1178 01c0 A1430040 		.word	1073759137
 1179 01c4 A0430040 		.word	1073759136
 1180              		.cfi_endproc
 1181              	.LFE5:
 1182              		.size	ClockSetup, .-ClockSetup
 1183              		.section	.text.AnalogSetDefault,"ax",%progbits
 1184              		.align	2
 1185              		.thumb
 1186              		.thumb_func
 1187              		.type	AnalogSetDefault, %function
 1188              	AnalogSetDefault:
 1189              	.LFB6:
 843:Generated_Source\PSoC5/cyfitter_cfg.c **** 
 844:Generated_Source\PSoC5/cyfitter_cfg.c **** 
 845:Generated_Source\PSoC5/cyfitter_cfg.c **** /* Analog API Functions */
 846:Generated_Source\PSoC5/cyfitter_cfg.c **** 
 847:Generated_Source\PSoC5/cyfitter_cfg.c **** 
 848:Generated_Source\PSoC5/cyfitter_cfg.c **** /*******************************************************************************
 849:Generated_Source\PSoC5/cyfitter_cfg.c **** * Function Name: AnalogSetDefault
 850:Generated_Source\PSoC5/cyfitter_cfg.c **** ********************************************************************************
 851:Generated_Source\PSoC5/cyfitter_cfg.c **** *
 852:Generated_Source\PSoC5/cyfitter_cfg.c **** * Summary:
 853:Generated_Source\PSoC5/cyfitter_cfg.c **** *  Sets up the analog portions of the chip to default values based on chip
 854:Generated_Source\PSoC5/cyfitter_cfg.c **** *  configuration options from the project.
 855:Generated_Source\PSoC5/cyfitter_cfg.c **** *
 856:Generated_Source\PSoC5/cyfitter_cfg.c **** * Parameters:
 857:Generated_Source\PSoC5/cyfitter_cfg.c **** *  void
 858:Generated_Source\PSoC5/cyfitter_cfg.c **** *
ARM GAS  C:\Users\Joe\AppData\Local\Temp\ccq3C9Cg.s 			page 37


 859:Generated_Source\PSoC5/cyfitter_cfg.c **** * Return:
 860:Generated_Source\PSoC5/cyfitter_cfg.c **** *  void
 861:Generated_Source\PSoC5/cyfitter_cfg.c **** *
 862:Generated_Source\PSoC5/cyfitter_cfg.c **** *******************************************************************************/
 863:Generated_Source\PSoC5/cyfitter_cfg.c **** static void AnalogSetDefault(void);
 864:Generated_Source\PSoC5/cyfitter_cfg.c **** static void AnalogSetDefault(void)
 865:Generated_Source\PSoC5/cyfitter_cfg.c **** {
 1190              		.loc 1 865 0
 1191              		.cfi_startproc
 1192              		@ args = 0, pretend = 0, frame = 8
 1193              		@ frame_needed = 1, uses_anonymous_args = 0
 1194 0000 80B5     		push	{r7, lr}
 1195              		.cfi_def_cfa_offset 8
 1196              		.cfi_offset 7, -8
 1197              		.cfi_offset 14, -4
 1198 0002 82B0     		sub	sp, sp, #8
 1199              		.cfi_def_cfa_offset 16
 1200 0004 00AF     		add	r7, sp, #0
 1201              		.cfi_def_cfa_register 7
 866:Generated_Source\PSoC5/cyfitter_cfg.c **** 	uint8 bg_xover_inl_trim = CY_GET_XTND_REG8((void CYFAR *)(CYREG_FLSHID_MFG_CFG_BG_XOVER_INL_TRIM +
 1202              		.loc 1 866 0
 1203 0006 244B     		ldr	r3, .L25
 1204 0008 1B78     		ldrb	r3, [r3]
 1205 000a FB71     		strb	r3, [r7, #7]
 867:Generated_Source\PSoC5/cyfitter_cfg.c **** 	uint8 cr4 = CY_GET_XTND_REG8((void CYFAR *)(CYREG_RESET_CR4));
 1206              		.loc 1 867 0
 1207 000c 234B     		ldr	r3, .L25+4
 1208 000e 1B78     		ldrb	r3, [r3]
 1209 0010 BB71     		strb	r3, [r7, #6]
 868:Generated_Source\PSoC5/cyfitter_cfg.c **** 	uint8 cr5 = CY_GET_XTND_REG8((void CYFAR *)(CYREG_RESET_CR5));
 1210              		.loc 1 868 0
 1211 0012 234B     		ldr	r3, .L25+8
 1212 0014 1B78     		ldrb	r3, [r3]
 1213 0016 7B71     		strb	r3, [r7, #5]
 869:Generated_Source\PSoC5/cyfitter_cfg.c **** 	CY_SET_XTND_REG8((void CYFAR *)(CYREG_BG_DFT0), (bg_xover_inl_trim & 0x07u));
 1214              		.loc 1 869 0
 1215 0018 224A     		ldr	r2, .L25+12
 1216 001a FB79     		ldrb	r3, [r7, #7]
 1217 001c 03F00703 		and	r3, r3, #7
 1218 0020 DBB2     		uxtb	r3, r3
 1219 0022 1370     		strb	r3, [r2]
 870:Generated_Source\PSoC5/cyfitter_cfg.c **** 	CY_SET_XTND_REG8((void CYFAR *)(CYREG_BG_DFT1), ((bg_xover_inl_trim >> 4) & 0x0Fu));
 1220              		.loc 1 870 0
 1221 0024 204A     		ldr	r2, .L25+16
 1222 0026 FB79     		ldrb	r3, [r7, #7]	@ zero_extendqisi2
 1223 0028 1B09     		lsrs	r3, r3, #4
 1224 002a DBB2     		uxtb	r3, r3
 1225 002c 1370     		strb	r3, [r2]
 871:Generated_Source\PSoC5/cyfitter_cfg.c **** 	/* Disable PRES while setting up SAR voltage reference */
 872:Generated_Source\PSoC5/cyfitter_cfg.c **** 	CY_SET_XTND_REG8((void CYFAR *)(CYREG_RESET_CR4), (cr4 | 0x03u));
 1226              		.loc 1 872 0
 1227 002e 1B4A     		ldr	r2, .L25+4
 1228 0030 BB79     		ldrb	r3, [r7, #6]
 1229 0032 43F00303 		orr	r3, r3, #3
 1230 0036 DBB2     		uxtb	r3, r3
 1231 0038 1370     		strb	r3, [r2]
 873:Generated_Source\PSoC5/cyfitter_cfg.c **** 	CY_SET_XTND_REG8((void CYFAR *)(CYREG_RESET_CR5), (cr5 | 0x03u));
ARM GAS  C:\Users\Joe\AppData\Local\Temp\ccq3C9Cg.s 			page 38


 1232              		.loc 1 873 0
 1233 003a 194A     		ldr	r2, .L25+8
 1234 003c 7B79     		ldrb	r3, [r7, #5]
 1235 003e 43F00303 		orr	r3, r3, #3
 1236 0042 DBB2     		uxtb	r3, r3
 1237 0044 1370     		strb	r3, [r2]
 874:Generated_Source\PSoC5/cyfitter_cfg.c **** 	CY_SET_XTND_REG8((void CYFAR *)CYREG_PRT3_AG, 0x06u);
 1238              		.loc 1 874 0
 1239 0046 194B     		ldr	r3, .L25+20
 1240 0048 0622     		movs	r2, #6
 1241 004a 1A70     		strb	r2, [r3]
 875:Generated_Source\PSoC5/cyfitter_cfg.c **** 	CY_SET_XTND_REG8((void CYFAR *)CYREG_SAR1_CSR1, 0x40u);
 1242              		.loc 1 875 0
 1243 004c 184B     		ldr	r3, .L25+24
 1244 004e 4022     		movs	r2, #64
 1245 0050 1A70     		strb	r2, [r3]
 876:Generated_Source\PSoC5/cyfitter_cfg.c **** 	CY_SET_XTND_REG8((void CYFAR *)CYREG_SAR1_CSR3, 0x40u);
 1246              		.loc 1 876 0
 1247 0052 184B     		ldr	r3, .L25+28
 1248 0054 4022     		movs	r2, #64
 1249 0056 1A70     		strb	r2, [r3]
 877:Generated_Source\PSoC5/cyfitter_cfg.c **** 	CY_SET_XTND_REG8((void CYFAR *)CYREG_CMP3_SW0, 0x20u);
 1250              		.loc 1 877 0
 1251 0058 174B     		ldr	r3, .L25+32
 1252 005a 2022     		movs	r2, #32
 1253 005c 1A70     		strb	r2, [r3]
 878:Generated_Source\PSoC5/cyfitter_cfg.c **** 	CY_SET_XTND_REG8((void CYFAR *)CYREG_CMP3_SW3, 0x20u);
 1254              		.loc 1 878 0
 1255 005e 174B     		ldr	r3, .L25+36
 1256 0060 2022     		movs	r2, #32
 1257 0062 1A70     		strb	r2, [r3]
 879:Generated_Source\PSoC5/cyfitter_cfg.c **** 	CY_SET_XTND_REG8((void CYFAR *)CYREG_DSM0_SW0, 0x40u);
 1258              		.loc 1 879 0
 1259 0064 164B     		ldr	r3, .L25+40
 1260 0066 4022     		movs	r2, #64
 1261 0068 1A70     		strb	r2, [r3]
 880:Generated_Source\PSoC5/cyfitter_cfg.c **** 	CY_SET_XTND_REG8((void CYFAR *)CYREG_SAR1_SW3, 0x20u);
 1262              		.loc 1 880 0
 1263 006a 164B     		ldr	r3, .L25+44
 1264 006c 2022     		movs	r2, #32
 1265 006e 1A70     		strb	r2, [r3]
 881:Generated_Source\PSoC5/cyfitter_cfg.c **** 	CY_SET_XTND_REG8((void CYFAR *)CYREG_BUS_SW0, 0x41u);
 1266              		.loc 1 881 0
 1267 0070 154B     		ldr	r3, .L25+48
 1268 0072 4122     		movs	r2, #65
 1269 0074 1A70     		strb	r2, [r3]
 882:Generated_Source\PSoC5/cyfitter_cfg.c **** 	CyDelayUs(10u); /* Allow vref to settle before re-enabling PRES */
 1270              		.loc 1 882 0
 1271 0076 0A20     		movs	r0, #10
 1272 0078 FFF7FEFF 		bl	CyDelayUs
 883:Generated_Source\PSoC5/cyfitter_cfg.c **** 	CY_SET_XTND_REG8((void CYFAR *)(CYREG_RESET_CR5), (cr5));
 1273              		.loc 1 883 0
 1274 007c 084A     		ldr	r2, .L25+8
 1275 007e 7B79     		ldrb	r3, [r7, #5]
 1276 0080 1370     		strb	r3, [r2]
 884:Generated_Source\PSoC5/cyfitter_cfg.c **** 	CY_SET_XTND_REG8((void CYFAR *)(CYREG_RESET_CR4), (cr4));
 1277              		.loc 1 884 0
ARM GAS  C:\Users\Joe\AppData\Local\Temp\ccq3C9Cg.s 			page 39


 1278 0082 064A     		ldr	r2, .L25+4
 1279 0084 BB79     		ldrb	r3, [r7, #6]
 1280 0086 1370     		strb	r3, [r2]
 885:Generated_Source\PSoC5/cyfitter_cfg.c **** 	CY_SET_XTND_REG8((void CYFAR *)CYREG_PUMP_CR0, 0x44u);
 1281              		.loc 1 885 0
 1282 0088 104B     		ldr	r3, .L25+52
 1283 008a 4422     		movs	r2, #68
 1284 008c 1A70     		strb	r2, [r3]
 886:Generated_Source\PSoC5/cyfitter_cfg.c **** }
 1285              		.loc 1 886 0
 1286 008e 00BF     		nop
 1287 0090 0837     		adds	r7, r7, #8
 1288              		.cfi_def_cfa_offset 8
 1289 0092 BD46     		mov	sp, r7
 1290              		.cfi_def_cfa_register 13
 1291              		@ sp needed
 1292 0094 80BD     		pop	{r7, pc}
 1293              	.L26:
 1294 0096 00BF     		.align	2
 1295              	.L25:
 1296 0098 CF010049 		.word	1224737231
 1297 009c F8460040 		.word	1073759992
 1298 00a0 F9460040 		.word	1073759993
 1299 00a4 6E580040 		.word	1073764462
 1300 00a8 6F580040 		.word	1073764463
 1301 00ac 3D510040 		.word	1073762621
 1302 00b0 09590040 		.word	1073764617
 1303 00b4 0B590040 		.word	1073764619
 1304 00b8 D85A0040 		.word	1073765080
 1305 00bc DB5A0040 		.word	1073765083
 1306 00c0 005B0040 		.word	1073765120
 1307 00c4 2B5B0040 		.word	1073765163
 1308 00c8 585B0040 		.word	1073765208
 1309 00cc 76580040 		.word	1073764470
 1310              		.cfi_endproc
 1311              	.LFE6:
 1312              		.size	AnalogSetDefault, .-AnalogSetDefault
 1313              		.section	.text.SetAnalogRoutingPumps,"ax",%progbits
 1314              		.align	2
 1315              		.global	SetAnalogRoutingPumps
 1316              		.thumb
 1317              		.thumb_func
 1318              		.type	SetAnalogRoutingPumps, %function
 1319              	SetAnalogRoutingPumps:
 1320              	.LFB7:
 887:Generated_Source\PSoC5/cyfitter_cfg.c **** 
 888:Generated_Source\PSoC5/cyfitter_cfg.c **** 
 889:Generated_Source\PSoC5/cyfitter_cfg.c **** /*******************************************************************************
 890:Generated_Source\PSoC5/cyfitter_cfg.c **** * Function Name: SetAnalogRoutingPumps
 891:Generated_Source\PSoC5/cyfitter_cfg.c **** ********************************************************************************
 892:Generated_Source\PSoC5/cyfitter_cfg.c **** *
 893:Generated_Source\PSoC5/cyfitter_cfg.c **** * Summary:
 894:Generated_Source\PSoC5/cyfitter_cfg.c **** * Enables or disables the analog pumps feeding analog routing switches.
 895:Generated_Source\PSoC5/cyfitter_cfg.c **** * Intended to be called at startup, based on the Vdda system configuration;
 896:Generated_Source\PSoC5/cyfitter_cfg.c **** * may be called during operation when the user informs us that the Vdda voltage
 897:Generated_Source\PSoC5/cyfitter_cfg.c **** * crossed the pump threshold.
 898:Generated_Source\PSoC5/cyfitter_cfg.c **** *
ARM GAS  C:\Users\Joe\AppData\Local\Temp\ccq3C9Cg.s 			page 40


 899:Generated_Source\PSoC5/cyfitter_cfg.c **** * Parameters:
 900:Generated_Source\PSoC5/cyfitter_cfg.c **** *  enabled - 1 to enable the pumps, 0 to disable the pumps
 901:Generated_Source\PSoC5/cyfitter_cfg.c **** *
 902:Generated_Source\PSoC5/cyfitter_cfg.c **** * Return:
 903:Generated_Source\PSoC5/cyfitter_cfg.c **** *  void
 904:Generated_Source\PSoC5/cyfitter_cfg.c **** *
 905:Generated_Source\PSoC5/cyfitter_cfg.c **** *******************************************************************************/
 906:Generated_Source\PSoC5/cyfitter_cfg.c **** void SetAnalogRoutingPumps(uint8 enabled)
 907:Generated_Source\PSoC5/cyfitter_cfg.c **** {
 1321              		.loc 1 907 0
 1322              		.cfi_startproc
 1323              		@ args = 0, pretend = 0, frame = 16
 1324              		@ frame_needed = 1, uses_anonymous_args = 0
 1325              		@ link register save eliminated.
 1326 0000 80B4     		push	{r7}
 1327              		.cfi_def_cfa_offset 4
 1328              		.cfi_offset 7, -4
 1329 0002 85B0     		sub	sp, sp, #20
 1330              		.cfi_def_cfa_offset 24
 1331 0004 00AF     		add	r7, sp, #0
 1332              		.cfi_def_cfa_register 7
 1333 0006 0346     		mov	r3, r0
 1334 0008 FB71     		strb	r3, [r7, #7]
 908:Generated_Source\PSoC5/cyfitter_cfg.c **** 	uint8 regValue = CY_GET_XTND_REG8((void CYFAR *)CYREG_PUMP_CR0);
 1335              		.loc 1 908 0
 1336 000a 0B4B     		ldr	r3, .L30
 1337 000c 1B78     		ldrb	r3, [r3]
 1338 000e FB73     		strb	r3, [r7, #15]
 909:Generated_Source\PSoC5/cyfitter_cfg.c **** 	if (enabled != 0u)
 1339              		.loc 1 909 0
 1340 0010 FB79     		ldrb	r3, [r7, #7]	@ zero_extendqisi2
 1341 0012 002B     		cmp	r3, #0
 1342 0014 04D0     		beq	.L28
 910:Generated_Source\PSoC5/cyfitter_cfg.c **** 	{
 911:Generated_Source\PSoC5/cyfitter_cfg.c **** 		regValue |= 0x22u;
 1343              		.loc 1 911 0
 1344 0016 FB7B     		ldrb	r3, [r7, #15]
 1345 0018 43F02203 		orr	r3, r3, #34
 1346 001c FB73     		strb	r3, [r7, #15]
 1347 001e 03E0     		b	.L29
 1348              	.L28:
 912:Generated_Source\PSoC5/cyfitter_cfg.c **** 	}
 913:Generated_Source\PSoC5/cyfitter_cfg.c **** 	else
 914:Generated_Source\PSoC5/cyfitter_cfg.c **** 	{
 915:Generated_Source\PSoC5/cyfitter_cfg.c **** 		regValue &= (uint8)~0x22u;
 1349              		.loc 1 915 0
 1350 0020 FB7B     		ldrb	r3, [r7, #15]
 1351 0022 23F02203 		bic	r3, r3, #34
 1352 0026 FB73     		strb	r3, [r7, #15]
 1353              	.L29:
 916:Generated_Source\PSoC5/cyfitter_cfg.c **** 	}
 917:Generated_Source\PSoC5/cyfitter_cfg.c **** 	CY_SET_XTND_REG8((void CYFAR *)CYREG_PUMP_CR0, regValue);
 1354              		.loc 1 917 0
 1355 0028 034A     		ldr	r2, .L30
 1356 002a FB7B     		ldrb	r3, [r7, #15]
 1357 002c 1370     		strb	r3, [r2]
 918:Generated_Source\PSoC5/cyfitter_cfg.c **** }
ARM GAS  C:\Users\Joe\AppData\Local\Temp\ccq3C9Cg.s 			page 41


 1358              		.loc 1 918 0
 1359 002e 00BF     		nop
 1360 0030 1437     		adds	r7, r7, #20
 1361              		.cfi_def_cfa_offset 4
 1362 0032 BD46     		mov	sp, r7
 1363              		.cfi_def_cfa_register 13
 1364              		@ sp needed
 1365 0034 80BC     		pop	{r7}
 1366              		.cfi_restore 7
 1367              		.cfi_def_cfa_offset 0
 1368 0036 7047     		bx	lr
 1369              	.L31:
 1370              		.align	2
 1371              	.L30:
 1372 0038 76580040 		.word	1073764470
 1373              		.cfi_endproc
 1374              	.LFE7:
 1375              		.size	SetAnalogRoutingPumps, .-SetAnalogRoutingPumps
 1376              		.global	ADC_DelSig_1_AMux__addrTable
 1377              		.section	.rodata
 1378              		.align	2
 1379              		.type	ADC_DelSig_1_AMux__addrTable, %object
 1380              		.size	ADC_DelSig_1_AMux__addrTable, 8
 1381              	ADC_DelSig_1_AMux__addrTable:
 1382 0000 035B0040 		.word	1073765123
 1383 0004 24430040 		.word	1073759012
 1384              		.global	ADC_DelSig_1_AMux__maskTable
 1385              		.align	2
 1386              		.type	ADC_DelSig_1_AMux__maskTable, %object
 1387              		.size	ADC_DelSig_1_AMux__maskTable, 2
 1388              	ADC_DelSig_1_AMux__maskTable:
 1389 0008 40       		.byte	64
 1390 0009 00       		.byte	0
 1391              		.section	.text.ADC_DelSig_1_AMux_Set,"ax",%progbits
 1392              		.align	2
 1393              		.global	ADC_DelSig_1_AMux_Set
 1394              		.thumb
 1395              		.thumb_func
 1396              		.type	ADC_DelSig_1_AMux_Set, %function
 1397              	ADC_DelSig_1_AMux_Set:
 1398              	.LFB8:
 919:Generated_Source\PSoC5/cyfitter_cfg.c **** 
 920:Generated_Source\PSoC5/cyfitter_cfg.c **** 
 921:Generated_Source\PSoC5/cyfitter_cfg.c **** #define CY_AMUX_UNUSED CYREG_BOOST_SR
 922:Generated_Source\PSoC5/cyfitter_cfg.c **** /* This is an implementation detail of the AMux. Code that depends on it may be
 923:Generated_Source\PSoC5/cyfitter_cfg.c ****    incompatible with other versions of PSoC Creator. */
 924:Generated_Source\PSoC5/cyfitter_cfg.c **** uint8 CYXDATA * const CYCODE ADC_DelSig_1_AMux__addrTable[2] = {
 925:Generated_Source\PSoC5/cyfitter_cfg.c **** 	(uint8 CYXDATA *)CYREG_DSM0_SW3, 
 926:Generated_Source\PSoC5/cyfitter_cfg.c **** 	(uint8 CYXDATA *)CY_AMUX_UNUSED, 
 927:Generated_Source\PSoC5/cyfitter_cfg.c **** };
 928:Generated_Source\PSoC5/cyfitter_cfg.c **** 
 929:Generated_Source\PSoC5/cyfitter_cfg.c **** /* This is an implementation detail of the AMux. Code that depends on it may be
 930:Generated_Source\PSoC5/cyfitter_cfg.c ****    incompatible with other versions of PSoC Creator. */
 931:Generated_Source\PSoC5/cyfitter_cfg.c **** const uint8 CYCODE ADC_DelSig_1_AMux__maskTable[2] = {
 932:Generated_Source\PSoC5/cyfitter_cfg.c **** 	0x40u, 
 933:Generated_Source\PSoC5/cyfitter_cfg.c **** 	0x00u, 
 934:Generated_Source\PSoC5/cyfitter_cfg.c **** };
ARM GAS  C:\Users\Joe\AppData\Local\Temp\ccq3C9Cg.s 			page 42


 935:Generated_Source\PSoC5/cyfitter_cfg.c **** 
 936:Generated_Source\PSoC5/cyfitter_cfg.c **** /*******************************************************************************
 937:Generated_Source\PSoC5/cyfitter_cfg.c **** * Function Name: ADC_DelSig_1_AMux_Set
 938:Generated_Source\PSoC5/cyfitter_cfg.c **** ********************************************************************************
 939:Generated_Source\PSoC5/cyfitter_cfg.c **** * Summary:
 940:Generated_Source\PSoC5/cyfitter_cfg.c **** *  This function is used to set a particular channel as active on the AMux.
 941:Generated_Source\PSoC5/cyfitter_cfg.c **** *
 942:Generated_Source\PSoC5/cyfitter_cfg.c **** * Parameters:  
 943:Generated_Source\PSoC5/cyfitter_cfg.c **** *   channel - The mux channel input to set as active
 944:Generated_Source\PSoC5/cyfitter_cfg.c **** *
 945:Generated_Source\PSoC5/cyfitter_cfg.c **** * Return:
 946:Generated_Source\PSoC5/cyfitter_cfg.c **** *   void
 947:Generated_Source\PSoC5/cyfitter_cfg.c **** *
 948:Generated_Source\PSoC5/cyfitter_cfg.c **** *******************************************************************************/
 949:Generated_Source\PSoC5/cyfitter_cfg.c **** void ADC_DelSig_1_AMux_Set(uint8 channel)
 950:Generated_Source\PSoC5/cyfitter_cfg.c **** {
 1399              		.loc 1 950 0
 1400              		.cfi_startproc
 1401              		@ args = 0, pretend = 0, frame = 8
 1402              		@ frame_needed = 1, uses_anonymous_args = 0
 1403              		@ link register save eliminated.
 1404 0000 80B4     		push	{r7}
 1405              		.cfi_def_cfa_offset 4
 1406              		.cfi_offset 7, -4
 1407 0002 83B0     		sub	sp, sp, #12
 1408              		.cfi_def_cfa_offset 16
 1409 0004 00AF     		add	r7, sp, #0
 1410              		.cfi_def_cfa_register 7
 1411 0006 0346     		mov	r3, r0
 1412 0008 FB71     		strb	r3, [r7, #7]
 951:Generated_Source\PSoC5/cyfitter_cfg.c **** 	if (channel < 2)
 1413              		.loc 1 951 0
 1414 000a FB79     		ldrb	r3, [r7, #7]	@ zero_extendqisi2
 1415 000c 012B     		cmp	r3, #1
 1416 000e 0ED8     		bhi	.L34
 952:Generated_Source\PSoC5/cyfitter_cfg.c **** 	{
 953:Generated_Source\PSoC5/cyfitter_cfg.c **** 		*ADC_DelSig_1_AMux__addrTable[channel] |= ADC_DelSig_1_AMux__maskTable[channel];
 1417              		.loc 1 953 0
 1418 0010 FB79     		ldrb	r3, [r7, #7]	@ zero_extendqisi2
 1419 0012 094A     		ldr	r2, .L35
 1420 0014 52F82330 		ldr	r3, [r2, r3, lsl #2]
 1421 0018 FA79     		ldrb	r2, [r7, #7]	@ zero_extendqisi2
 1422 001a 0749     		ldr	r1, .L35
 1423 001c 51F82220 		ldr	r2, [r1, r2, lsl #2]
 1424 0020 1178     		ldrb	r1, [r2]	@ zero_extendqisi2
 1425 0022 FA79     		ldrb	r2, [r7, #7]	@ zero_extendqisi2
 1426 0024 0548     		ldr	r0, .L35+4
 1427 0026 825C     		ldrb	r2, [r0, r2]	@ zero_extendqisi2
 1428 0028 0A43     		orrs	r2, r2, r1
 1429 002a D2B2     		uxtb	r2, r2
 1430 002c 1A70     		strb	r2, [r3]
 1431              	.L34:
 954:Generated_Source\PSoC5/cyfitter_cfg.c **** 	}
 955:Generated_Source\PSoC5/cyfitter_cfg.c **** }
 1432              		.loc 1 955 0
 1433 002e 00BF     		nop
 1434 0030 0C37     		adds	r7, r7, #12
ARM GAS  C:\Users\Joe\AppData\Local\Temp\ccq3C9Cg.s 			page 43


 1435              		.cfi_def_cfa_offset 4
 1436 0032 BD46     		mov	sp, r7
 1437              		.cfi_def_cfa_register 13
 1438              		@ sp needed
 1439 0034 80BC     		pop	{r7}
 1440              		.cfi_restore 7
 1441              		.cfi_def_cfa_offset 0
 1442 0036 7047     		bx	lr
 1443              	.L36:
 1444              		.align	2
 1445              	.L35:
 1446 0038 00000000 		.word	ADC_DelSig_1_AMux__addrTable
 1447 003c 00000000 		.word	ADC_DelSig_1_AMux__maskTable
 1448              		.cfi_endproc
 1449              	.LFE8:
 1450              		.size	ADC_DelSig_1_AMux_Set, .-ADC_DelSig_1_AMux_Set
 1451              		.section	.text.ADC_DelSig_1_AMux_Unset,"ax",%progbits
 1452              		.align	2
 1453              		.global	ADC_DelSig_1_AMux_Unset
 1454              		.thumb
 1455              		.thumb_func
 1456              		.type	ADC_DelSig_1_AMux_Unset, %function
 1457              	ADC_DelSig_1_AMux_Unset:
 1458              	.LFB9:
 956:Generated_Source\PSoC5/cyfitter_cfg.c **** 
 957:Generated_Source\PSoC5/cyfitter_cfg.c **** /*******************************************************************************
 958:Generated_Source\PSoC5/cyfitter_cfg.c **** * Function Name: ADC_DelSig_1_AMux_Unset
 959:Generated_Source\PSoC5/cyfitter_cfg.c **** ********************************************************************************
 960:Generated_Source\PSoC5/cyfitter_cfg.c **** * Summary:
 961:Generated_Source\PSoC5/cyfitter_cfg.c **** *  This function is used to clear a particular channel from being active on the
 962:Generated_Source\PSoC5/cyfitter_cfg.c **** *  AMux.
 963:Generated_Source\PSoC5/cyfitter_cfg.c **** *
 964:Generated_Source\PSoC5/cyfitter_cfg.c **** * Parameters:  
 965:Generated_Source\PSoC5/cyfitter_cfg.c **** *   channel - The mux channel input to mark inactive
 966:Generated_Source\PSoC5/cyfitter_cfg.c **** *
 967:Generated_Source\PSoC5/cyfitter_cfg.c **** * Return:
 968:Generated_Source\PSoC5/cyfitter_cfg.c **** *   void
 969:Generated_Source\PSoC5/cyfitter_cfg.c **** *
 970:Generated_Source\PSoC5/cyfitter_cfg.c **** *******************************************************************************/
 971:Generated_Source\PSoC5/cyfitter_cfg.c **** void ADC_DelSig_1_AMux_Unset(uint8 channel)
 972:Generated_Source\PSoC5/cyfitter_cfg.c **** {
 1459              		.loc 1 972 0
 1460              		.cfi_startproc
 1461              		@ args = 0, pretend = 0, frame = 8
 1462              		@ frame_needed = 1, uses_anonymous_args = 0
 1463              		@ link register save eliminated.
 1464 0000 80B4     		push	{r7}
 1465              		.cfi_def_cfa_offset 4
 1466              		.cfi_offset 7, -4
 1467 0002 83B0     		sub	sp, sp, #12
 1468              		.cfi_def_cfa_offset 16
 1469 0004 00AF     		add	r7, sp, #0
 1470              		.cfi_def_cfa_register 7
 1471 0006 0346     		mov	r3, r0
 1472 0008 FB71     		strb	r3, [r7, #7]
 973:Generated_Source\PSoC5/cyfitter_cfg.c **** 	if (channel < 2)
 1473              		.loc 1 973 0
ARM GAS  C:\Users\Joe\AppData\Local\Temp\ccq3C9Cg.s 			page 44


 1474 000a FB79     		ldrb	r3, [r7, #7]	@ zero_extendqisi2
 1475 000c 012B     		cmp	r3, #1
 1476 000e 10D8     		bhi	.L39
 974:Generated_Source\PSoC5/cyfitter_cfg.c **** 	{
 975:Generated_Source\PSoC5/cyfitter_cfg.c **** 		*ADC_DelSig_1_AMux__addrTable[channel] &= (uint8)~ADC_DelSig_1_AMux__maskTable[channel];
 1477              		.loc 1 975 0
 1478 0010 FB79     		ldrb	r3, [r7, #7]	@ zero_extendqisi2
 1479 0012 0A4A     		ldr	r2, .L40
 1480 0014 52F82330 		ldr	r3, [r2, r3, lsl #2]
 1481 0018 FA79     		ldrb	r2, [r7, #7]	@ zero_extendqisi2
 1482 001a 0849     		ldr	r1, .L40
 1483 001c 51F82220 		ldr	r2, [r1, r2, lsl #2]
 1484 0020 1178     		ldrb	r1, [r2]	@ zero_extendqisi2
 1485 0022 FA79     		ldrb	r2, [r7, #7]	@ zero_extendqisi2
 1486 0024 0648     		ldr	r0, .L40+4
 1487 0026 825C     		ldrb	r2, [r0, r2]	@ zero_extendqisi2
 1488 0028 D243     		mvns	r2, r2
 1489 002a D2B2     		uxtb	r2, r2
 1490 002c 0A40     		ands	r2, r2, r1
 1491 002e D2B2     		uxtb	r2, r2
 1492 0030 1A70     		strb	r2, [r3]
 1493              	.L39:
 976:Generated_Source\PSoC5/cyfitter_cfg.c **** 	}
 977:Generated_Source\PSoC5/cyfitter_cfg.c **** }
 1494              		.loc 1 977 0
 1495 0032 00BF     		nop
 1496 0034 0C37     		adds	r7, r7, #12
 1497              		.cfi_def_cfa_offset 4
 1498 0036 BD46     		mov	sp, r7
 1499              		.cfi_def_cfa_register 13
 1500              		@ sp needed
 1501 0038 80BC     		pop	{r7}
 1502              		.cfi_restore 7
 1503              		.cfi_def_cfa_offset 0
 1504 003a 7047     		bx	lr
 1505              	.L41:
 1506              		.align	2
 1507              	.L40:
 1508 003c 00000000 		.word	ADC_DelSig_1_AMux__addrTable
 1509 0040 00000000 		.word	ADC_DelSig_1_AMux__maskTable
 1510              		.cfi_endproc
 1511              	.LFE9:
 1512              		.size	ADC_DelSig_1_AMux_Unset, .-ADC_DelSig_1_AMux_Unset
 1513              		.global	AMuxSeq_1_curChannel
 1514              		.data
 1515              		.type	AMuxSeq_1_curChannel, %object
 1516              		.size	AMuxSeq_1_curChannel, 1
 1517              	AMuxSeq_1_curChannel:
 1518 0000 FF       		.byte	-1
 1519              		.section	.text.AMuxSeq_1_DisconnectAll,"ax",%progbits
 1520              		.align	2
 1521              		.global	AMuxSeq_1_DisconnectAll
 1522              		.thumb
 1523              		.thumb_func
 1524              		.type	AMuxSeq_1_DisconnectAll, %function
 1525              	AMuxSeq_1_DisconnectAll:
 1526              	.LFB10:
ARM GAS  C:\Users\Joe\AppData\Local\Temp\ccq3C9Cg.s 			page 45


 978:Generated_Source\PSoC5/cyfitter_cfg.c **** 
 979:Generated_Source\PSoC5/cyfitter_cfg.c **** int8 AMuxSeq_1_curChannel = -1;
 980:Generated_Source\PSoC5/cyfitter_cfg.c **** 
 981:Generated_Source\PSoC5/cyfitter_cfg.c **** void AMuxSeq_1_DisconnectAll(void)
 982:Generated_Source\PSoC5/cyfitter_cfg.c **** {
 1527              		.loc 1 982 0
 1528              		.cfi_startproc
 1529              		@ args = 0, pretend = 0, frame = 0
 1530              		@ frame_needed = 1, uses_anonymous_args = 0
 1531              		@ link register save eliminated.
 1532 0000 80B4     		push	{r7}
 1533              		.cfi_def_cfa_offset 4
 1534              		.cfi_offset 7, -4
 1535 0002 00AF     		add	r7, sp, #0
 1536              		.cfi_def_cfa_register 7
 983:Generated_Source\PSoC5/cyfitter_cfg.c **** 	AMuxSeq_1_curChannel = -1;
 1537              		.loc 1 983 0
 1538 0004 094B     		ldr	r3, .L43
 1539 0006 FF22     		movs	r2, #255
 1540 0008 1A70     		strb	r2, [r3]
 984:Generated_Source\PSoC5/cyfitter_cfg.c **** 	CY_SET_REG8((void CYXDATA *)CYREG_PRT15_AG, 0x00u);
 1541              		.loc 1 984 0
 1542 000a 094B     		ldr	r3, .L43+4
 1543 000c 0022     		movs	r2, #0
 1544 000e 1A70     		strb	r2, [r3]
 985:Generated_Source\PSoC5/cyfitter_cfg.c **** 	CY_SET_REG8((void CYXDATA *)CYREG_SAR1_SW0, 0x00u);
 1545              		.loc 1 985 0
 1546 0010 084B     		ldr	r3, .L43+8
 1547 0012 0022     		movs	r2, #0
 1548 0014 1A70     		strb	r2, [r3]
 986:Generated_Source\PSoC5/cyfitter_cfg.c **** 	CY_SET_REG8((void CYXDATA *)CYREG_PRT15_AMUX, 0x00u);
 1549              		.loc 1 986 0
 1550 0016 084B     		ldr	r3, .L43+12
 1551 0018 0022     		movs	r2, #0
 1552 001a 1A70     		strb	r2, [r3]
 987:Generated_Source\PSoC5/cyfitter_cfg.c **** 	CY_SET_REG8((void CYXDATA *)CYREG_SAR1_SW3, 0x20u);
 1553              		.loc 1 987 0
 1554 001c 074B     		ldr	r3, .L43+16
 1555 001e 2022     		movs	r2, #32
 1556 0020 1A70     		strb	r2, [r3]
 988:Generated_Source\PSoC5/cyfitter_cfg.c **** }
 1557              		.loc 1 988 0
 1558 0022 00BF     		nop
 1559 0024 BD46     		mov	sp, r7
 1560              		.cfi_def_cfa_register 13
 1561              		@ sp needed
 1562 0026 80BC     		pop	{r7}
 1563              		.cfi_restore 7
 1564              		.cfi_def_cfa_offset 0
 1565 0028 7047     		bx	lr
 1566              	.L44:
 1567 002a 00BF     		.align	2
 1568              	.L43:
 1569 002c 00000000 		.word	AMuxSeq_1_curChannel
 1570 0030 FD510040 		.word	1073762813
 1571 0034 285B0040 		.word	1073765160
 1572 0038 FC510040 		.word	1073762812
ARM GAS  C:\Users\Joe\AppData\Local\Temp\ccq3C9Cg.s 			page 46


 1573 003c 2B5B0040 		.word	1073765163
 1574              		.cfi_endproc
 1575              	.LFE10:
 1576              		.size	AMuxSeq_1_DisconnectAll, .-AMuxSeq_1_DisconnectAll
 1577              		.section	.text.AMuxSeq_1_Next,"ax",%progbits
 1578              		.align	2
 1579              		.global	AMuxSeq_1_Next
 1580              		.thumb
 1581              		.thumb_func
 1582              		.type	AMuxSeq_1_Next, %function
 1583              	AMuxSeq_1_Next:
 1584              	.LFB11:
 989:Generated_Source\PSoC5/cyfitter_cfg.c **** 
 990:Generated_Source\PSoC5/cyfitter_cfg.c **** #if defined(__C51__) || defined(__CX51__)
 991:Generated_Source\PSoC5/cyfitter_cfg.c ****     #pragma OT(5, SPEED)
 992:Generated_Source\PSoC5/cyfitter_cfg.c **** #endif
 993:Generated_Source\PSoC5/cyfitter_cfg.c **** void AMuxSeq_1_Next(void)
 994:Generated_Source\PSoC5/cyfitter_cfg.c **** {
 1585              		.loc 1 994 0
 1586              		.cfi_startproc
 1587              		@ args = 0, pretend = 0, frame = 0
 1588              		@ frame_needed = 1, uses_anonymous_args = 0
 1589              		@ link register save eliminated.
 1590 0000 80B4     		push	{r7}
 1591              		.cfi_def_cfa_offset 4
 1592              		.cfi_offset 7, -4
 1593 0002 00AF     		add	r7, sp, #0
 1594              		.cfi_def_cfa_register 7
 995:Generated_Source\PSoC5/cyfitter_cfg.c **** 	AMuxSeq_1_curChannel++;
 1595              		.loc 1 995 0
 1596 0004 2C4B     		ldr	r3, .L56
 1597 0006 93F90030 		ldrsb	r3, [r3]
 1598 000a DBB2     		uxtb	r3, r3
 1599 000c 0133     		adds	r3, r3, #1
 1600 000e DBB2     		uxtb	r3, r3
 1601 0010 5AB2     		sxtb	r2, r3
 1602 0012 294B     		ldr	r3, .L56
 1603 0014 1A70     		strb	r2, [r3]
 996:Generated_Source\PSoC5/cyfitter_cfg.c **** 	switch (AMuxSeq_1_curChannel)
 1604              		.loc 1 996 0
 1605 0016 284B     		ldr	r3, .L56
 1606 0018 93F90030 		ldrsb	r3, [r3]
 1607 001c 072B     		cmp	r3, #7
 1608 001e 1CD8     		bhi	.L46
 1609 0020 01A2     		adr	r2, .L48
 1610 0022 52F823F0 		ldr	pc, [r2, r3, lsl #2]
 1611 0026 00BF     		.p2align 2
 1612              	.L48:
 1613 0028 61000000 		.word	.L47+1
 1614 002c 6F000000 		.word	.L49+1
 1615 0030 89000000 		.word	.L50+1
 1616 0034 A3000000 		.word	.L51+1
 1617 0038 5B000000 		.word	.L46+1
 1618 003c 49000000 		.word	.L52+1
 1619 0040 4F000000 		.word	.L53+1
 1620 0044 55000000 		.word	.L54+1
 1621              		.p2align 1
ARM GAS  C:\Users\Joe\AppData\Local\Temp\ccq3C9Cg.s 			page 47


 1622              	.L52:
 997:Generated_Source\PSoC5/cyfitter_cfg.c **** 	{
 998:Generated_Source\PSoC5/cyfitter_cfg.c **** 	case 5: /* to force jump table (not executed) */
 999:Generated_Source\PSoC5/cyfitter_cfg.c **** 		AMuxSeq_1_curChannel = 5;
 1623              		.loc 1 999 0
 1624 0048 1B4B     		ldr	r3, .L56
 1625 004a 0522     		movs	r2, #5
 1626 004c 1A70     		strb	r2, [r3]
 1627              	.L53:
1000:Generated_Source\PSoC5/cyfitter_cfg.c **** 	case 6: /* to force jump table (not executed) */
1001:Generated_Source\PSoC5/cyfitter_cfg.c **** 		AMuxSeq_1_curChannel = 6;
 1628              		.loc 1 1001 0
 1629 004e 1A4B     		ldr	r3, .L56
 1630 0050 0622     		movs	r2, #6
 1631 0052 1A70     		strb	r2, [r3]
 1632              	.L54:
1002:Generated_Source\PSoC5/cyfitter_cfg.c **** 	case 7: /* to force jump table (not executed) */
1003:Generated_Source\PSoC5/cyfitter_cfg.c **** 		AMuxSeq_1_curChannel = 7;
 1633              		.loc 1 1003 0
 1634 0054 184B     		ldr	r3, .L56
 1635 0056 0722     		movs	r2, #7
 1636 0058 1A70     		strb	r2, [r3]
 1637              	.L46:
1004:Generated_Source\PSoC5/cyfitter_cfg.c **** 	case 4:
1005:Generated_Source\PSoC5/cyfitter_cfg.c **** 	default:
1006:Generated_Source\PSoC5/cyfitter_cfg.c **** 		AMuxSeq_1_curChannel = 0;
 1638              		.loc 1 1006 0
 1639 005a 174B     		ldr	r3, .L56
 1640 005c 0022     		movs	r2, #0
 1641 005e 1A70     		strb	r2, [r3]
 1642              	.L47:
1007:Generated_Source\PSoC5/cyfitter_cfg.c **** 	case 0:
1008:Generated_Source\PSoC5/cyfitter_cfg.c **** 		CY_SET_REG8((void CYXDATA *)CYREG_PRT15_AG, 0x01u);
 1643              		.loc 1 1008 0
 1644 0060 164B     		ldr	r3, .L56+4
 1645 0062 0122     		movs	r2, #1
 1646 0064 1A70     		strb	r2, [r3]
1009:Generated_Source\PSoC5/cyfitter_cfg.c **** 		CY_SET_REG8((void CYXDATA *)CYREG_SAR1_SW0, 0x10u);
 1647              		.loc 1 1009 0
 1648 0066 164B     		ldr	r3, .L56+8
 1649 0068 1022     		movs	r2, #16
 1650 006a 1A70     		strb	r2, [r3]
1010:Generated_Source\PSoC5/cyfitter_cfg.c **** 		break;
 1651              		.loc 1 1010 0
 1652 006c 20E0     		b	.L55
 1653              	.L49:
1011:Generated_Source\PSoC5/cyfitter_cfg.c **** 	case 1:
1012:Generated_Source\PSoC5/cyfitter_cfg.c **** 		CY_SET_REG8((void CYXDATA *)CYREG_PRT15_AG, 0x00u);
 1654              		.loc 1 1012 0
 1655 006e 134B     		ldr	r3, .L56+4
 1656 0070 0022     		movs	r2, #0
 1657 0072 1A70     		strb	r2, [r3]
1013:Generated_Source\PSoC5/cyfitter_cfg.c **** 		CY_SET_REG8((void CYXDATA *)CYREG_SAR1_SW0, 0x00u);
 1658              		.loc 1 1013 0
 1659 0074 124B     		ldr	r3, .L56+8
 1660 0076 0022     		movs	r2, #0
 1661 0078 1A70     		strb	r2, [r3]
ARM GAS  C:\Users\Joe\AppData\Local\Temp\ccq3C9Cg.s 			page 48


1014:Generated_Source\PSoC5/cyfitter_cfg.c **** 		CY_SET_REG8((void CYXDATA *)CYREG_PRT15_AMUX, 0x04u);
 1662              		.loc 1 1014 0
 1663 007a 124B     		ldr	r3, .L56+12
 1664 007c 0422     		movs	r2, #4
 1665 007e 1A70     		strb	r2, [r3]
1015:Generated_Source\PSoC5/cyfitter_cfg.c **** 		CY_SET_REG8((void CYXDATA *)CYREG_SAR1_SW3, 0x20u | 0x01u);
 1666              		.loc 1 1015 0
 1667 0080 114B     		ldr	r3, .L56+16
 1668 0082 2122     		movs	r2, #33
 1669 0084 1A70     		strb	r2, [r3]
1016:Generated_Source\PSoC5/cyfitter_cfg.c **** 		break;
 1670              		.loc 1 1016 0
 1671 0086 13E0     		b	.L55
 1672              	.L50:
1017:Generated_Source\PSoC5/cyfitter_cfg.c **** 	case 2:
1018:Generated_Source\PSoC5/cyfitter_cfg.c **** 		CY_SET_REG8((void CYXDATA *)CYREG_PRT15_AMUX, 0x00u);
 1673              		.loc 1 1018 0
 1674 0088 0E4B     		ldr	r3, .L56+12
 1675 008a 0022     		movs	r2, #0
 1676 008c 1A70     		strb	r2, [r3]
1019:Generated_Source\PSoC5/cyfitter_cfg.c **** 		CY_SET_REG8((void CYXDATA *)CYREG_SAR1_SW3, 0x20u);
 1677              		.loc 1 1019 0
 1678 008e 0E4B     		ldr	r3, .L56+16
 1679 0090 2022     		movs	r2, #32
 1680 0092 1A70     		strb	r2, [r3]
1020:Generated_Source\PSoC5/cyfitter_cfg.c **** 		CY_SET_REG8((void CYXDATA *)CYREG_PRT15_AG, 0x08u);
 1681              		.loc 1 1020 0
 1682 0094 094B     		ldr	r3, .L56+4
 1683 0096 0822     		movs	r2, #8
 1684 0098 1A70     		strb	r2, [r3]
1021:Generated_Source\PSoC5/cyfitter_cfg.c **** 		CY_SET_REG8((void CYXDATA *)CYREG_SAR1_SW0, 0x80u);
 1685              		.loc 1 1021 0
 1686 009a 094B     		ldr	r3, .L56+8
 1687 009c 8022     		movs	r2, #128
 1688 009e 1A70     		strb	r2, [r3]
1022:Generated_Source\PSoC5/cyfitter_cfg.c **** 		break;
 1689              		.loc 1 1022 0
 1690 00a0 06E0     		b	.L55
 1691              	.L51:
1023:Generated_Source\PSoC5/cyfitter_cfg.c **** 	case 3:
1024:Generated_Source\PSoC5/cyfitter_cfg.c **** 		CY_SET_REG8((void CYXDATA *)CYREG_PRT15_AG, 0x10u);
 1692              		.loc 1 1024 0
 1693 00a2 064B     		ldr	r3, .L56+4
 1694 00a4 1022     		movs	r2, #16
 1695 00a6 1A70     		strb	r2, [r3]
1025:Generated_Source\PSoC5/cyfitter_cfg.c **** 		CY_SET_REG8((void CYXDATA *)CYREG_SAR1_SW0, 0x01u);
 1696              		.loc 1 1025 0
 1697 00a8 054B     		ldr	r3, .L56+8
 1698 00aa 0122     		movs	r2, #1
 1699 00ac 1A70     		strb	r2, [r3]
1026:Generated_Source\PSoC5/cyfitter_cfg.c **** 		break;
 1700              		.loc 1 1026 0
 1701 00ae 00BF     		nop
 1702              	.L55:
1027:Generated_Source\PSoC5/cyfitter_cfg.c **** 	}
1028:Generated_Source\PSoC5/cyfitter_cfg.c **** }
 1703              		.loc 1 1028 0
ARM GAS  C:\Users\Joe\AppData\Local\Temp\ccq3C9Cg.s 			page 49


 1704 00b0 00BF     		nop
 1705 00b2 BD46     		mov	sp, r7
 1706              		.cfi_def_cfa_register 13
 1707              		@ sp needed
 1708 00b4 80BC     		pop	{r7}
 1709              		.cfi_restore 7
 1710              		.cfi_def_cfa_offset 0
 1711 00b6 7047     		bx	lr
 1712              	.L57:
 1713              		.align	2
 1714              	.L56:
 1715 00b8 00000000 		.word	AMuxSeq_1_curChannel
 1716 00bc FD510040 		.word	1073762813
 1717 00c0 285B0040 		.word	1073765160
 1718 00c4 FC510040 		.word	1073762812
 1719 00c8 2B5B0040 		.word	1073765163
 1720              		.cfi_endproc
 1721              	.LFE11:
 1722              		.size	AMuxSeq_1_Next, .-AMuxSeq_1_Next
 1723              		.section	.text.cyfitter_cfg,"ax",%progbits
 1724              		.align	2
 1725              		.global	cyfitter_cfg
 1726              		.thumb
 1727              		.thumb_func
 1728              		.type	cyfitter_cfg, %function
 1729              	cyfitter_cfg:
 1730              	.LFB12:
1029:Generated_Source\PSoC5/cyfitter_cfg.c **** 
1030:Generated_Source\PSoC5/cyfitter_cfg.c **** 
1031:Generated_Source\PSoC5/cyfitter_cfg.c **** 
1032:Generated_Source\PSoC5/cyfitter_cfg.c **** /*******************************************************************************
1033:Generated_Source\PSoC5/cyfitter_cfg.c **** * Function Name: cyfitter_cfg
1034:Generated_Source\PSoC5/cyfitter_cfg.c **** ********************************************************************************
1035:Generated_Source\PSoC5/cyfitter_cfg.c **** * Summary:
1036:Generated_Source\PSoC5/cyfitter_cfg.c **** *  This function is called by the start-up code for the selected device. It
1037:Generated_Source\PSoC5/cyfitter_cfg.c **** *  performs all of the necessary device configuration based on the design
1038:Generated_Source\PSoC5/cyfitter_cfg.c **** *  settings.  This includes settings from the Design Wide Resources (DWR) such
1039:Generated_Source\PSoC5/cyfitter_cfg.c **** *  as Clocks and Pins as well as any component configuration that is necessary.
1040:Generated_Source\PSoC5/cyfitter_cfg.c **** *
1041:Generated_Source\PSoC5/cyfitter_cfg.c **** * Parameters:
1042:Generated_Source\PSoC5/cyfitter_cfg.c **** *   void
1043:Generated_Source\PSoC5/cyfitter_cfg.c **** *
1044:Generated_Source\PSoC5/cyfitter_cfg.c **** * Return:
1045:Generated_Source\PSoC5/cyfitter_cfg.c **** *   void
1046:Generated_Source\PSoC5/cyfitter_cfg.c **** *
1047:Generated_Source\PSoC5/cyfitter_cfg.c **** *******************************************************************************/
1048:Generated_Source\PSoC5/cyfitter_cfg.c **** 
1049:Generated_Source\PSoC5/cyfitter_cfg.c **** void cyfitter_cfg(void)
1050:Generated_Source\PSoC5/cyfitter_cfg.c **** {
 1731              		.loc 1 1050 0
 1732              		.cfi_startproc
 1733              		@ args = 0, pretend = 0, frame = 0
 1734              		@ frame_needed = 1, uses_anonymous_args = 0
 1735 0000 80B5     		push	{r7, lr}
 1736              		.cfi_def_cfa_offset 8
 1737              		.cfi_offset 7, -8
 1738              		.cfi_offset 14, -4
ARM GAS  C:\Users\Joe\AppData\Local\Temp\ccq3C9Cg.s 			page 50


 1739 0002 00AF     		add	r7, sp, #0
 1740              		.cfi_def_cfa_register 7
1051:Generated_Source\PSoC5/cyfitter_cfg.c **** #ifdef CYGlobalIntDisable
1052:Generated_Source\PSoC5/cyfitter_cfg.c **** 	/* Disable interrupts by default. Let user enable if/when they want. */
1053:Generated_Source\PSoC5/cyfitter_cfg.c **** 	CYGlobalIntDisable
 1741              		.loc 1 1053 0
 1742              		.syntax unified
 1743              	@ 1053 "Generated_Source\PSoC5\cyfitter_cfg.c" 1
 1744 0004 72B6     		CPSID   i
 1745              	@ 0 "" 2
1054:Generated_Source\PSoC5/cyfitter_cfg.c **** #endif
1055:Generated_Source\PSoC5/cyfitter_cfg.c **** 
1056:Generated_Source\PSoC5/cyfitter_cfg.c **** 
1057:Generated_Source\PSoC5/cyfitter_cfg.c **** 	/* Set Flash Cycles based on max possible frequency in case a glitch occurs during ClockSetup(). *
1058:Generated_Source\PSoC5/cyfitter_cfg.c **** 	CY_SET_XTND_REG8((void CYFAR *)(CYREG_CACHE_CC_CTL), (((CYDEV_INSTRUCT_CACHE_ENABLED) != 0) ? 0x61
 1746              		.loc 1 1058 0
 1747              		.thumb
 1748              		.syntax unified
 1749 0006 404B     		ldr	r3, .L59
 1750 0008 6122     		movs	r2, #97
 1751 000a 1A70     		strb	r2, [r3]
1059:Generated_Source\PSoC5/cyfitter_cfg.c **** 	/* Setup clocks based on selections from Clock DWR */
1060:Generated_Source\PSoC5/cyfitter_cfg.c **** 	ClockSetup();
 1752              		.loc 1 1060 0
 1753 000c FFF7FEFF 		bl	ClockSetup
1061:Generated_Source\PSoC5/cyfitter_cfg.c **** 	/* Set Flash Cycles based on newly configured 24.00MHz Bus Clock. */
1062:Generated_Source\PSoC5/cyfitter_cfg.c **** 	CY_SET_XTND_REG8((void CYFAR *)(CYREG_CACHE_CC_CTL), (((CYDEV_INSTRUCT_CACHE_ENABLED) != 0) ? 0x81
 1754              		.loc 1 1062 0
 1755 0010 3D4B     		ldr	r3, .L59
 1756 0012 8122     		movs	r2, #129
 1757 0014 1A70     		strb	r2, [r3]
1063:Generated_Source\PSoC5/cyfitter_cfg.c **** 	/* Enable/Disable Debug functionality based on settings from System DWR */
1064:Generated_Source\PSoC5/cyfitter_cfg.c **** 	CY_SET_XTND_REG8((void CYFAR *)CYREG_MLOGIC_DEBUG, (CY_GET_XTND_REG8((void CYFAR *)CYREG_MLOGIC_DE
 1758              		.loc 1 1064 0
 1759 0016 3D4A     		ldr	r2, .L59+4
 1760 0018 3C4B     		ldr	r3, .L59+4
 1761 001a 1B78     		ldrb	r3, [r3]
 1762 001c DBB2     		uxtb	r3, r3
 1763 001e 43F00403 		orr	r3, r3, #4
 1764 0022 DBB2     		uxtb	r3, r3
 1765 0024 1370     		strb	r3, [r2]
1065:Generated_Source\PSoC5/cyfitter_cfg.c **** 
1066:Generated_Source\PSoC5/cyfitter_cfg.c **** 	{
1067:Generated_Source\PSoC5/cyfitter_cfg.c **** 		cfg_dma_init();
 1766              		.loc 1 1067 0
 1767 0026 FFF7FEFF 		bl	cfg_dma_init
1068:Generated_Source\PSoC5/cyfitter_cfg.c **** 
1069:Generated_Source\PSoC5/cyfitter_cfg.c **** 		/* Perform normal device configuration. Order is not critical for these items. */
1070:Generated_Source\PSoC5/cyfitter_cfg.c **** 		CY_SET_XTND_REG8((void CYFAR *)(CYREG_DSM0_CR3), 0x0Au);
 1768              		.loc 1 1070 0
 1769 002a 394B     		ldr	r3, .L59+8
 1770 002c 0A22     		movs	r2, #10
 1771 002e 1A70     		strb	r2, [r3]
1071:Generated_Source\PSoC5/cyfitter_cfg.c **** 		CY_SET_XTND_REG16((void CYFAR *)(CYREG_LUT3_CR), 0x0303u);
 1772              		.loc 1 1071 0
 1773 0030 384B     		ldr	r3, .L59+12
 1774 0032 40F20332 		movw	r2, #771
ARM GAS  C:\Users\Joe\AppData\Local\Temp\ccq3C9Cg.s 			page 51


 1775 0036 1A80     		strh	r2, [r3]	@ movhi
1072:Generated_Source\PSoC5/cyfitter_cfg.c **** 		CY_SET_XTND_REG8((void CYFAR *)(CYREG_DSM0_CLK), 0x01u);
 1776              		.loc 1 1072 0
 1777 0038 374B     		ldr	r3, .L59+16
 1778 003a 0122     		movs	r2, #1
 1779 003c 1A70     		strb	r2, [r3]
1073:Generated_Source\PSoC5/cyfitter_cfg.c **** 		CYMEMZERO((void CYFAR *)(CYREG_PHUB_CFGMEM0_CFG0), 4u);
 1780              		.loc 1 1073 0
 1781 003e 0421     		movs	r1, #4
 1782 0040 3648     		ldr	r0, .L59+20
 1783 0042 FFF7FEFF 		bl	CYMEMZERO
1074:Generated_Source\PSoC5/cyfitter_cfg.c **** 		CYMEMZERO((void CYFAR *)(CYREG_PHUB_CFGMEM1_CFG0), 4u);
 1784              		.loc 1 1074 0
 1785 0046 0421     		movs	r1, #4
 1786 0048 3548     		ldr	r0, .L59+24
 1787 004a FFF7FEFF 		bl	CYMEMZERO
1075:Generated_Source\PSoC5/cyfitter_cfg.c **** 		CYMEMZERO((void CYFAR *)(CYREG_PHUB_CFGMEM2_CFG0), 4u);
 1788              		.loc 1 1075 0
 1789 004e 0421     		movs	r1, #4
 1790 0050 3448     		ldr	r0, .L59+28
 1791 0052 FFF7FEFF 		bl	CYMEMZERO
1076:Generated_Source\PSoC5/cyfitter_cfg.c **** 		CYMEMZERO((void CYFAR *)(CYREG_PHUB_CFGMEM3_CFG0), 4u);
 1792              		.loc 1 1076 0
 1793 0056 0421     		movs	r1, #4
 1794 0058 3348     		ldr	r0, .L59+32
 1795 005a FFF7FEFF 		bl	CYMEMZERO
1077:Generated_Source\PSoC5/cyfitter_cfg.c **** 
1078:Generated_Source\PSoC5/cyfitter_cfg.c **** 		/* B0_P5_U1_CFG24 Starting address: CYDEV_UCFG_B0_P5_U1_CFG24 */
1079:Generated_Source\PSoC5/cyfitter_cfg.c **** 		CY_SET_XTND_REG32((void CYFAR *)(CYREG_B0_P5_U1_CFG24), 0xE4000404u);
 1796              		.loc 1 1079 0
 1797 005e 334B     		ldr	r3, .L59+36
 1798 0060 334A     		ldr	r2, .L59+40
 1799 0062 1A60     		str	r2, [r3]
1080:Generated_Source\PSoC5/cyfitter_cfg.c **** 
1081:Generated_Source\PSoC5/cyfitter_cfg.c **** 		/* Enable digital routing */
1082:Generated_Source\PSoC5/cyfitter_cfg.c **** 		CY_SET_XTND_REG8((void CYFAR *)CYREG_BCTL0_BANK_CTL, CY_GET_XTND_REG8((void CYFAR *)CYREG_BCTL0_B
 1800              		.loc 1 1082 0
 1801 0064 334A     		ldr	r2, .L59+44
 1802 0066 334B     		ldr	r3, .L59+44
 1803 0068 1B78     		ldrb	r3, [r3]
 1804 006a DBB2     		uxtb	r3, r3
 1805 006c 43F00203 		orr	r3, r3, #2
 1806 0070 DBB2     		uxtb	r3, r3
 1807 0072 1370     		strb	r3, [r2]
1083:Generated_Source\PSoC5/cyfitter_cfg.c **** 		CY_SET_XTND_REG8((void CYFAR *)CYREG_BCTL1_BANK_CTL, CY_GET_XTND_REG8((void CYFAR *)CYREG_BCTL1_B
 1808              		.loc 1 1083 0
 1809 0074 304A     		ldr	r2, .L59+48
 1810 0076 304B     		ldr	r3, .L59+48
 1811 0078 1B78     		ldrb	r3, [r3]
 1812 007a DBB2     		uxtb	r3, r3
 1813 007c 43F00203 		orr	r3, r3, #2
 1814 0080 DBB2     		uxtb	r3, r3
 1815 0082 1370     		strb	r3, [r2]
1084:Generated_Source\PSoC5/cyfitter_cfg.c **** 
1085:Generated_Source\PSoC5/cyfitter_cfg.c **** 		/* Enable UDB array */
1086:Generated_Source\PSoC5/cyfitter_cfg.c **** 		CY_SET_XTND_REG8((void CYFAR *)CYREG_PM_ACT_CFG0, CY_GET_XTND_REG8((void CYFAR *)CYREG_PM_ACT_CFG
 1816              		.loc 1 1086 0
ARM GAS  C:\Users\Joe\AppData\Local\Temp\ccq3C9Cg.s 			page 52


 1817 0084 2D4A     		ldr	r2, .L59+52
 1818 0086 2D4B     		ldr	r3, .L59+52
 1819 0088 1B78     		ldrb	r3, [r3]
 1820 008a DBB2     		uxtb	r3, r3
 1821 008c 43F04003 		orr	r3, r3, #64
 1822 0090 DBB2     		uxtb	r3, r3
 1823 0092 1370     		strb	r3, [r2]
1087:Generated_Source\PSoC5/cyfitter_cfg.c **** 		CY_SET_XTND_REG8((void CYFAR *)CYREG_PM_AVAIL_CR2, CY_GET_XTND_REG8((void CYFAR *)CYREG_PM_AVAIL_
 1824              		.loc 1 1087 0
 1825 0094 2A4A     		ldr	r2, .L59+56
 1826 0096 2A4B     		ldr	r3, .L59+56
 1827 0098 1B78     		ldrb	r3, [r3]
 1828 009a DBB2     		uxtb	r3, r3
 1829 009c 43F01003 		orr	r3, r3, #16
 1830 00a0 DBB2     		uxtb	r3, r3
 1831 00a2 1370     		strb	r3, [r2]
1088:Generated_Source\PSoC5/cyfitter_cfg.c **** 	}
1089:Generated_Source\PSoC5/cyfitter_cfg.c **** 
1090:Generated_Source\PSoC5/cyfitter_cfg.c **** 
1091:Generated_Source\PSoC5/cyfitter_cfg.c **** 	/* Perform second pass device configuration. These items must be configured in specific order afte
1092:Generated_Source\PSoC5/cyfitter_cfg.c **** 	CYCONFIGCPY((void CYFAR *)(CYREG_PRT0_DM0), (const void CYFAR *)(BS_IOPINS0_0_VAL), 8u);
 1832              		.loc 1 1092 0
 1833 00a4 0822     		movs	r2, #8
 1834 00a6 2749     		ldr	r1, .L59+60
 1835 00a8 2748     		ldr	r0, .L59+64
 1836 00aa FFF7FEFF 		bl	CYCONFIGCPY
1093:Generated_Source\PSoC5/cyfitter_cfg.c **** 	CYCONFIGCPY((void CYFAR *)(CYREG_PRT12_DM0), (const void CYFAR *)(BS_IOPINS0_7_VAL), 8u);
 1837              		.loc 1 1093 0
 1838 00ae 0822     		movs	r2, #8
 1839 00b0 2649     		ldr	r1, .L59+68
 1840 00b2 2748     		ldr	r0, .L59+72
 1841 00b4 FFF7FEFF 		bl	CYCONFIGCPY
1094:Generated_Source\PSoC5/cyfitter_cfg.c **** 	CYCONFIGCPY((void CYFAR *)(CYREG_PRT15_DM0), (const void CYFAR *)(BS_IOPINS0_8_VAL), 8u);
 1842              		.loc 1 1094 0
 1843 00b8 0822     		movs	r2, #8
 1844 00ba 2649     		ldr	r1, .L59+76
 1845 00bc 2648     		ldr	r0, .L59+80
 1846 00be FFF7FEFF 		bl	CYCONFIGCPY
1095:Generated_Source\PSoC5/cyfitter_cfg.c **** 	CYCONFIGCPY((void CYFAR *)(CYREG_PRT1_DM0), (const void CYFAR *)(BS_IOPINS0_1_VAL), 8u);
 1847              		.loc 1 1095 0
 1848 00c2 0822     		movs	r2, #8
 1849 00c4 2549     		ldr	r1, .L59+84
 1850 00c6 2648     		ldr	r0, .L59+88
 1851 00c8 FFF7FEFF 		bl	CYCONFIGCPY
1096:Generated_Source\PSoC5/cyfitter_cfg.c **** 	CYCONFIGCPY((void CYFAR *)(CYREG_PRT2_DR), (const void CYFAR *)(BS_IOPINS0_2_VAL), 10u);
 1852              		.loc 1 1096 0
 1853 00cc 0A22     		movs	r2, #10
 1854 00ce 2549     		ldr	r1, .L59+92
 1855 00d0 2548     		ldr	r0, .L59+96
 1856 00d2 FFF7FEFF 		bl	CYCONFIGCPY
1097:Generated_Source\PSoC5/cyfitter_cfg.c **** 	CYCONFIGCPY((void CYFAR *)(CYREG_PRT3_DR), (const void CYFAR *)(BS_IOPINS0_3_VAL), 10u);
 1857              		.loc 1 1097 0
 1858 00d6 0A22     		movs	r2, #10
 1859 00d8 2449     		ldr	r1, .L59+100
 1860 00da 2548     		ldr	r0, .L59+104
 1861 00dc FFF7FEFF 		bl	CYCONFIGCPY
1098:Generated_Source\PSoC5/cyfitter_cfg.c **** 	/* Switch Boost to the precision bandgap reference from its internal reference */
ARM GAS  C:\Users\Joe\AppData\Local\Temp\ccq3C9Cg.s 			page 53


1099:Generated_Source\PSoC5/cyfitter_cfg.c **** 	CY_SET_REG8((void CYXDATA *)CYREG_BOOST_CR2, (CY_GET_REG8((void CYXDATA *)CYREG_BOOST_CR2) | 0x08u
 1862              		.loc 1 1099 0
 1863 00e0 244A     		ldr	r2, .L59+108
 1864 00e2 244B     		ldr	r3, .L59+108
 1865 00e4 1B78     		ldrb	r3, [r3]
 1866 00e6 DBB2     		uxtb	r3, r3
 1867 00e8 43F00803 		orr	r3, r3, #8
 1868 00ec DBB2     		uxtb	r3, r3
 1869 00ee 1370     		strb	r3, [r2]
1100:Generated_Source\PSoC5/cyfitter_cfg.c **** 	CY_SET_XTND_REG8((void CYFAR *)(CYREG_PANTHER_WAITPIPE), 0x01u);
 1870              		.loc 1 1100 0
 1871 00f0 214B     		ldr	r3, .L59+112
 1872 00f2 0122     		movs	r2, #1
 1873 00f4 1A70     		strb	r2, [r3]
1101:Generated_Source\PSoC5/cyfitter_cfg.c **** 
1102:Generated_Source\PSoC5/cyfitter_cfg.c **** 	/* Perform basic analog initialization to defaults */
1103:Generated_Source\PSoC5/cyfitter_cfg.c **** 	AnalogSetDefault();
 1874              		.loc 1 1103 0
 1875 00f6 FFF7FEFF 		bl	AnalogSetDefault
1104:Generated_Source\PSoC5/cyfitter_cfg.c **** 
1105:Generated_Source\PSoC5/cyfitter_cfg.c **** 	/* Configure alternate active mode */
1106:Generated_Source\PSoC5/cyfitter_cfg.c **** 	CYCONFIGCPY((void CYFAR *)CYDEV_PM_STBY_BASE, (const void CYFAR *)CYDEV_PM_ACT_BASE, 14u);
 1876              		.loc 1 1106 0
 1877 00fa 0E22     		movs	r2, #14
 1878 00fc 0F49     		ldr	r1, .L59+52
 1879 00fe 1F48     		ldr	r0, .L59+116
 1880 0100 FFF7FEFF 		bl	CYCONFIGCPY
1107:Generated_Source\PSoC5/cyfitter_cfg.c **** }
 1881              		.loc 1 1107 0
 1882 0104 00BF     		nop
 1883 0106 80BD     		pop	{r7, pc}
 1884              	.L60:
 1885              		.align	2
 1886              	.L59:
 1887 0108 00480040 		.word	1073760256
 1888 010c E8460040 		.word	1073759976
 1889 0110 83580040 		.word	1073764483
 1890 0114 4E580040 		.word	1073764430
 1891 0118 075B0040 		.word	1073765127
 1892 011c 00760040 		.word	1073772032
 1893 0120 08760040 		.word	1073772040
 1894 0124 10760040 		.word	1073772048
 1895 0128 18760040 		.word	1073772056
 1896 012c D80A0140 		.word	1073810136
 1897 0130 040400E4 		.word	-469761020
 1898 0134 03500140 		.word	1073827843
 1899 0138 13500140 		.word	1073827859
 1900 013c A0430040 		.word	1073759136
 1901 0140 C2430040 		.word	1073759170
 1902 0144 CC230048 		.word	1207968716
 1903 0148 02510040 		.word	1073762562
 1904 014c D4230048 		.word	1207968724
 1905 0150 C2510040 		.word	1073762754
 1906 0154 DC230048 		.word	1207968732
 1907 0158 F2510040 		.word	1073762802
 1908 015c E4230048 		.word	1207968740
 1909 0160 12510040 		.word	1073762578
ARM GAS  C:\Users\Joe\AppData\Local\Temp\ccq3C9Cg.s 			page 54


 1910 0164 EC230048 		.word	1207968748
 1911 0168 20510040 		.word	1073762592
 1912 016c F8230048 		.word	1207968760
 1913 0170 30510040 		.word	1073762608
 1914 0174 22430040 		.word	1073759010
 1915 0178 04000840 		.word	1074266116
 1916 017c B0430040 		.word	1073759152
 1917              		.cfi_endproc
 1918              	.LFE12:
 1919              		.size	cyfitter_cfg, .-cyfitter_cfg
 1920              		.bss
 1921              		.align	3
 1922              	DMA_ZERO_VAL.4982:
 1923 0000 00000000 		.space	4
 1924              		.section	.rodata
 1925 000a 0000     		.align	2
 1926              		.type	CFG_TD_ADDR0.4984, %object
 1927              		.size	CFG_TD_ADDR0.4984, 384
 1928              	CFG_TD_ADDR0.4984:
 1929 000c 00000000 		.word	CH1_ADDR_DATA0.4977
 1930 0010 08000000 		.word	CH2_ADDR_DATA0.4978
 1931 0014 10000000 		.word	CH5_ADDR_DATA0.4979
 1932 0018 18000000 		.word	CH6_ADDR_DATA0.4980
 1933 001c 20000000 		.word	DMA_TD_START_CMD.4981
 1934 0020 20000000 		.word	DMA_TD_START_CMD.4981
 1935 0024 20000000 		.word	DMA_TD_START_CMD.4981
 1936 0028 20000000 		.word	DMA_TD_START_CMD.4981
 1937 002c 00000000 		.word	DMA_ZERO_VAL.4982
 1938 0030 00000000 		.word	DMA_ZERO_VAL.4982
 1939 0034 08000048 		.word	1207959560
 1940 0038 10000048 		.word	1207959568
 1941 003c 18000048 		.word	1207959576
 1942 0040 20000048 		.word	1207959584
 1943 0044 28000048 		.word	1207959592
 1944 0048 30000048 		.word	1207959600
 1945 004c 40000048 		.word	1207959616
 1946 0050 4C000048 		.word	1207959628
 1947 0054 58000048 		.word	1207959640
 1948 0058 64000048 		.word	1207959652
 1949 005c 6C0B0048 		.word	1207962476
 1950 0060 AC0B0048 		.word	1207962540
 1951 0064 CC0B0048 		.word	1207962572
 1952 0068 0C0C0048 		.word	1207962636
 1953 006c 38000048 		.word	1207959608
 1954 0070 6C000048 		.word	1207959660
 1955 0074 EC000048 		.word	1207959788
 1956 0078 6C010048 		.word	1207959916
 1957 007c EC010048 		.word	1207960044
 1958 0080 6C020048 		.word	1207960172
 1959 0084 EC020048 		.word	1207960300
 1960 0088 6C030048 		.word	1207960428
 1961 008c EC030048 		.word	1207960556
 1962 0090 6C040048 		.word	1207960684
 1963 0094 EC040048 		.word	1207960812
 1964 0098 6C050048 		.word	1207960940
 1965 009c EC050048 		.word	1207961068
 1966 00a0 6C060048 		.word	1207961196
ARM GAS  C:\Users\Joe\AppData\Local\Temp\ccq3C9Cg.s 			page 55


 1967 00a4 EC060048 		.word	1207961324
 1968 00a8 6C070048 		.word	1207961452
 1969 00ac EC070048 		.word	1207961580
 1970 00b0 6C080048 		.word	1207961708
 1971 00b4 EC080048 		.word	1207961836
 1972 00b8 6C090048 		.word	1207961964
 1973 00bc EC090048 		.word	1207962092
 1974 00c0 6C0A0048 		.word	1207962220
 1975 00c4 EC0A0048 		.word	1207962348
 1976 00c8 2C0C0048 		.word	1207962668
 1977 00cc 3C0C0048 		.word	1207962684
 1978 00d0 4C0C0048 		.word	1207962700
 1979 00d4 CC0C0048 		.word	1207962828
 1980 00d8 4C0D0048 		.word	1207962956
 1981 00dc CC0D0048 		.word	1207963084
 1982 00e0 4C0E0048 		.word	1207963212
 1983 00e4 CC0E0048 		.word	1207963340
 1984 00e8 4C0F0048 		.word	1207963468
 1985 00ec CC0F0048 		.word	1207963596
 1986 00f0 4C100048 		.word	1207963724
 1987 00f4 CC100048 		.word	1207963852
 1988 00f8 4C110048 		.word	1207963980
 1989 00fc CC110048 		.word	1207964108
 1990 0100 4C120048 		.word	1207964236
 1991 0104 CC120048 		.word	1207964364
 1992 0108 4C130048 		.word	1207964492
 1993 010c CC130048 		.word	1207964620
 1994 0110 4C140048 		.word	1207964748
 1995 0114 CC140048 		.word	1207964876
 1996 0118 4C150048 		.word	1207965004
 1997 011c CC150048 		.word	1207965132
 1998 0120 4C160048 		.word	1207965260
 1999 0124 CC160048 		.word	1207965388
 2000 0128 4C170048 		.word	1207965516
 2001 012c CC170048 		.word	1207965644
 2002 0130 4C180048 		.word	1207965772
 2003 0134 CC180048 		.word	1207965900
 2004 0138 4C190048 		.word	1207966028
 2005 013c CC190048 		.word	1207966156
 2006 0140 4C1A0048 		.word	1207966284
 2007 0144 CC1A0048 		.word	1207966412
 2008 0148 4C1B0048 		.word	1207966540
 2009 014c CC1B0048 		.word	1207966668
 2010 0150 4C1C0048 		.word	1207966796
 2011 0154 CC1C0048 		.word	1207966924
 2012 0158 4C1D0048 		.word	1207967052
 2013 015c CC1D0048 		.word	1207967180
 2014 0160 4C1E0048 		.word	1207967308
 2015 0164 CC1E0048 		.word	1207967436
 2016 0168 4C1F0048 		.word	1207967564
 2017 016c CC1F0048 		.word	1207967692
 2018 0170 4C200048 		.word	1207967820
 2019 0174 CC200048 		.word	1207967948
 2020 0178 4C210048 		.word	1207968076
 2021 017c CC210048 		.word	1207968204
 2022 0180 4C220048 		.word	1207968332
 2023 0184 CC220048 		.word	1207968460
ARM GAS  C:\Users\Joe\AppData\Local\Temp\ccq3C9Cg.s 			page 56


 2024 0188 4C230048 		.word	1207968588
 2025              		.text
 2026              	.Letext0:
 2027              		.file 2 "c:\\program files (x86)\\cypress\\psoc creator\\4.1\\psoc creator\\import\\gnu\\arm\\5.4.
 2028              		.file 3 "Generated_Source\\PSoC5\\cytypes.h"