ARM GAS  C:\Users\Joe\AppData\Local\Temp\ccXHBT7j.s 			page 1


   1              		.syntax unified
   2              		.cpu cortex-m3
   3              		.fpu softvfp
   4              		.eabi_attribute 20, 1
   5              		.eabi_attribute 21, 1
   6              		.eabi_attribute 23, 3
   7              		.eabi_attribute 24, 1
   8              		.eabi_attribute 25, 1
   9              		.eabi_attribute 26, 1
  10              		.eabi_attribute 30, 6
  11              		.eabi_attribute 34, 1
  12              		.eabi_attribute 18, 4
  13              		.thumb
  14              		.syntax unified
  15              		.file	"cyfitter_cfg.c"
  16              		.text
  17              	.Ltext0:
  18              		.cfi_sections	.debug_frame
  19              		.section	.text.CYMEMZERO,"ax",%progbits
  20              		.align	2
  21              		.thumb
  22              		.thumb_func
  23              		.type	CYMEMZERO, %function
  24              	CYMEMZERO:
  25              	.LFB0:
  26              		.file 1 "Generated_Source\\PSoC5\\cyfitter_cfg.c"
   1:Generated_Source\PSoC5/cyfitter_cfg.c **** 
   2:Generated_Source\PSoC5/cyfitter_cfg.c **** /*******************************************************************************
   3:Generated_Source\PSoC5/cyfitter_cfg.c **** * File Name: cyfitter_cfg.c
   4:Generated_Source\PSoC5/cyfitter_cfg.c **** * 
   5:Generated_Source\PSoC5/cyfitter_cfg.c **** * PSoC Creator  4.1 Update 1
   6:Generated_Source\PSoC5/cyfitter_cfg.c **** *
   7:Generated_Source\PSoC5/cyfitter_cfg.c **** * Description:
   8:Generated_Source\PSoC5/cyfitter_cfg.c **** * This file contains device initialization code.
   9:Generated_Source\PSoC5/cyfitter_cfg.c **** * Except for the user defined sections in CyClockStartupError(), this file should not be modified.
  10:Generated_Source\PSoC5/cyfitter_cfg.c **** * This file is automatically generated by PSoC Creator.
  11:Generated_Source\PSoC5/cyfitter_cfg.c **** *
  12:Generated_Source\PSoC5/cyfitter_cfg.c **** ********************************************************************************
  13:Generated_Source\PSoC5/cyfitter_cfg.c **** * Copyright (c) 2007-2017 Cypress Semiconductor.  All rights reserved.
  14:Generated_Source\PSoC5/cyfitter_cfg.c **** * You may use this file only in accordance with the license, terms, conditions, 
  15:Generated_Source\PSoC5/cyfitter_cfg.c **** * disclaimers, and limitations in the end user license agreement accompanying 
  16:Generated_Source\PSoC5/cyfitter_cfg.c **** * the software package with which this file was provided.
  17:Generated_Source\PSoC5/cyfitter_cfg.c **** ********************************************************************************/
  18:Generated_Source\PSoC5/cyfitter_cfg.c **** 
  19:Generated_Source\PSoC5/cyfitter_cfg.c **** #include <string.h>
  20:Generated_Source\PSoC5/cyfitter_cfg.c **** #include "cytypes.h"
  21:Generated_Source\PSoC5/cyfitter_cfg.c **** #include "cydevice_trm.h"
  22:Generated_Source\PSoC5/cyfitter_cfg.c **** #include "cyfitter.h"
  23:Generated_Source\PSoC5/cyfitter_cfg.c **** #include "CyLib.h"
  24:Generated_Source\PSoC5/cyfitter_cfg.c **** #include "cyfitter_cfg.h"
  25:Generated_Source\PSoC5/cyfitter_cfg.c **** #include "cyapicallbacks.h"
  26:Generated_Source\PSoC5/cyfitter_cfg.c **** 
  27:Generated_Source\PSoC5/cyfitter_cfg.c **** #define CY_NEED_CYCLOCKSTARTUPERROR 1
  28:Generated_Source\PSoC5/cyfitter_cfg.c **** 
  29:Generated_Source\PSoC5/cyfitter_cfg.c **** 
  30:Generated_Source\PSoC5/cyfitter_cfg.c **** #if defined(__GNUC__) || defined(__ARMCC_VERSION)
  31:Generated_Source\PSoC5/cyfitter_cfg.c ****     #define CYPACKED 
ARM GAS  C:\Users\Joe\AppData\Local\Temp\ccXHBT7j.s 			page 2


  32:Generated_Source\PSoC5/cyfitter_cfg.c ****     #define CYPACKED_ATTR __attribute__ ((packed))
  33:Generated_Source\PSoC5/cyfitter_cfg.c ****     #define CYALIGNED __attribute__ ((aligned))
  34:Generated_Source\PSoC5/cyfitter_cfg.c ****     #define CY_CFG_UNUSED __attribute__ ((unused))
  35:Generated_Source\PSoC5/cyfitter_cfg.c ****     #ifndef CY_CFG_SECTION
  36:Generated_Source\PSoC5/cyfitter_cfg.c ****         #define CY_CFG_SECTION __attribute__ ((section(".psocinit")))
  37:Generated_Source\PSoC5/cyfitter_cfg.c ****     #endif
  38:Generated_Source\PSoC5/cyfitter_cfg.c ****     
  39:Generated_Source\PSoC5/cyfitter_cfg.c ****     #if CYDEV_CONFIGURATION_DMA
  40:Generated_Source\PSoC5/cyfitter_cfg.c ****         #if (defined(__ARMCC_VERSION) || defined(__GNUC__))
  41:Generated_Source\PSoC5/cyfitter_cfg.c ****             #ifndef DMAINITSEC
  42:Generated_Source\PSoC5/cyfitter_cfg.c ****                 #define DMAINITSEC __attribute__ ((section(".dma_init")))
  43:Generated_Source\PSoC5/cyfitter_cfg.c ****             #endif
  44:Generated_Source\PSoC5/cyfitter_cfg.c ****         #elif defined(__ICCARM__)
  45:Generated_Source\PSoC5/cyfitter_cfg.c ****             #define DMAINITSEC _Pragma("location=\".dma_init\"")
  46:Generated_Source\PSoC5/cyfitter_cfg.c ****         #endif
  47:Generated_Source\PSoC5/cyfitter_cfg.c ****     #else
  48:Generated_Source\PSoC5/cyfitter_cfg.c ****         #define DMAINITSEC
  49:Generated_Source\PSoC5/cyfitter_cfg.c ****     #endif
  50:Generated_Source\PSoC5/cyfitter_cfg.c **** 
  51:Generated_Source\PSoC5/cyfitter_cfg.c ****     #if defined(__ARMCC_VERSION)
  52:Generated_Source\PSoC5/cyfitter_cfg.c ****         #define CY_CFG_MEMORY_BARRIER() __memory_changed()
  53:Generated_Source\PSoC5/cyfitter_cfg.c ****     #else
  54:Generated_Source\PSoC5/cyfitter_cfg.c ****         #define CY_CFG_MEMORY_BARRIER() __sync_synchronize()
  55:Generated_Source\PSoC5/cyfitter_cfg.c ****     #endif
  56:Generated_Source\PSoC5/cyfitter_cfg.c ****     
  57:Generated_Source\PSoC5/cyfitter_cfg.c **** #elif defined(__ICCARM__)
  58:Generated_Source\PSoC5/cyfitter_cfg.c ****     #include <intrinsics.h>
  59:Generated_Source\PSoC5/cyfitter_cfg.c **** 
  60:Generated_Source\PSoC5/cyfitter_cfg.c ****     #define CYPACKED __packed
  61:Generated_Source\PSoC5/cyfitter_cfg.c ****     #define CYPACKED_ATTR 
  62:Generated_Source\PSoC5/cyfitter_cfg.c ****     #define CYALIGNED _Pragma("data_alignment=4")
  63:Generated_Source\PSoC5/cyfitter_cfg.c ****     #define CY_CFG_UNUSED _Pragma("diag_suppress=Pe177")
  64:Generated_Source\PSoC5/cyfitter_cfg.c ****     #define CY_CFG_SECTION _Pragma("location=\".psocinit\"")
  65:Generated_Source\PSoC5/cyfitter_cfg.c ****     
  66:Generated_Source\PSoC5/cyfitter_cfg.c ****     #if CYDEV_CONFIGURATION_DMA
  67:Generated_Source\PSoC5/cyfitter_cfg.c ****         #if (defined(__ARMCC_VERSION) || defined(__GNUC__))
  68:Generated_Source\PSoC5/cyfitter_cfg.c ****             #ifndef DMAINITSEC
  69:Generated_Source\PSoC5/cyfitter_cfg.c ****                 #define DMAINITSEC __attribute__ ((section(".dma_init")))
  70:Generated_Source\PSoC5/cyfitter_cfg.c ****             #endif
  71:Generated_Source\PSoC5/cyfitter_cfg.c ****         #elif defined(__ICCARM__)
  72:Generated_Source\PSoC5/cyfitter_cfg.c ****             #define DMAINITSEC _Pragma("location=\".dma_init\"")
  73:Generated_Source\PSoC5/cyfitter_cfg.c ****         #endif
  74:Generated_Source\PSoC5/cyfitter_cfg.c ****     #else
  75:Generated_Source\PSoC5/cyfitter_cfg.c ****         #define DMAINITSEC
  76:Generated_Source\PSoC5/cyfitter_cfg.c ****     #endif
  77:Generated_Source\PSoC5/cyfitter_cfg.c **** 
  78:Generated_Source\PSoC5/cyfitter_cfg.c ****     #define CY_CFG_MEMORY_BARRIER() __DMB()
  79:Generated_Source\PSoC5/cyfitter_cfg.c ****     
  80:Generated_Source\PSoC5/cyfitter_cfg.c **** #else
  81:Generated_Source\PSoC5/cyfitter_cfg.c ****     #error Unsupported toolchain
  82:Generated_Source\PSoC5/cyfitter_cfg.c **** #endif
  83:Generated_Source\PSoC5/cyfitter_cfg.c **** 
  84:Generated_Source\PSoC5/cyfitter_cfg.c **** #ifndef CYCODE
  85:Generated_Source\PSoC5/cyfitter_cfg.c ****     #define CYCODE
  86:Generated_Source\PSoC5/cyfitter_cfg.c **** #endif
  87:Generated_Source\PSoC5/cyfitter_cfg.c **** #ifndef CYDATA
  88:Generated_Source\PSoC5/cyfitter_cfg.c ****     #define CYDATA
ARM GAS  C:\Users\Joe\AppData\Local\Temp\ccXHBT7j.s 			page 3


  89:Generated_Source\PSoC5/cyfitter_cfg.c **** #endif
  90:Generated_Source\PSoC5/cyfitter_cfg.c **** #ifndef CYFAR
  91:Generated_Source\PSoC5/cyfitter_cfg.c ****     #define CYFAR
  92:Generated_Source\PSoC5/cyfitter_cfg.c **** #endif
  93:Generated_Source\PSoC5/cyfitter_cfg.c **** #ifndef CYXDATA
  94:Generated_Source\PSoC5/cyfitter_cfg.c ****     #define CYXDATA
  95:Generated_Source\PSoC5/cyfitter_cfg.c **** #endif
  96:Generated_Source\PSoC5/cyfitter_cfg.c **** 
  97:Generated_Source\PSoC5/cyfitter_cfg.c **** 
  98:Generated_Source\PSoC5/cyfitter_cfg.c **** CY_CFG_UNUSED
  99:Generated_Source\PSoC5/cyfitter_cfg.c **** static void CYMEMZERO(void *s, size_t n);
 100:Generated_Source\PSoC5/cyfitter_cfg.c **** CY_CFG_UNUSED
 101:Generated_Source\PSoC5/cyfitter_cfg.c **** static void CYMEMZERO(void *s, size_t n)
 102:Generated_Source\PSoC5/cyfitter_cfg.c **** {
  27              		.loc 1 102 0
  28              		.cfi_startproc
  29              		@ args = 0, pretend = 0, frame = 8
  30              		@ frame_needed = 1, uses_anonymous_args = 0
  31 0000 80B5     		push	{r7, lr}
  32              		.cfi_def_cfa_offset 8
  33              		.cfi_offset 7, -8
  34              		.cfi_offset 14, -4
  35 0002 82B0     		sub	sp, sp, #8
  36              		.cfi_def_cfa_offset 16
  37 0004 00AF     		add	r7, sp, #0
  38              		.cfi_def_cfa_register 7
  39 0006 7860     		str	r0, [r7, #4]
  40 0008 3960     		str	r1, [r7]
 103:Generated_Source\PSoC5/cyfitter_cfg.c **** 	(void)memset(s, 0, n);
  41              		.loc 1 103 0
  42 000a 3A68     		ldr	r2, [r7]
  43 000c 0021     		movs	r1, #0
  44 000e 7868     		ldr	r0, [r7, #4]
  45 0010 FFF7FEFF 		bl	memset
 104:Generated_Source\PSoC5/cyfitter_cfg.c **** }
  46              		.loc 1 104 0
  47 0014 00BF     		nop
  48 0016 0837     		adds	r7, r7, #8
  49              		.cfi_def_cfa_offset 8
  50 0018 BD46     		mov	sp, r7
  51              		.cfi_def_cfa_register 13
  52              		@ sp needed
  53 001a 80BD     		pop	{r7, pc}
  54              		.cfi_endproc
  55              	.LFE0:
  56              		.size	CYMEMZERO, .-CYMEMZERO
  57              		.section	.text.CYCONFIGCPY,"ax",%progbits
  58              		.align	2
  59              		.thumb
  60              		.thumb_func
  61              		.type	CYCONFIGCPY, %function
  62              	CYCONFIGCPY:
  63              	.LFB1:
 105:Generated_Source\PSoC5/cyfitter_cfg.c **** CY_CFG_UNUSED
 106:Generated_Source\PSoC5/cyfitter_cfg.c **** static void CYCONFIGCPY(void *dest, const void *src, size_t n);
 107:Generated_Source\PSoC5/cyfitter_cfg.c **** CY_CFG_UNUSED
 108:Generated_Source\PSoC5/cyfitter_cfg.c **** static void CYCONFIGCPY(void *dest, const void *src, size_t n)
ARM GAS  C:\Users\Joe\AppData\Local\Temp\ccXHBT7j.s 			page 4


 109:Generated_Source\PSoC5/cyfitter_cfg.c **** {
  64              		.loc 1 109 0
  65              		.cfi_startproc
  66              		@ args = 0, pretend = 0, frame = 16
  67              		@ frame_needed = 1, uses_anonymous_args = 0
  68 0000 80B5     		push	{r7, lr}
  69              		.cfi_def_cfa_offset 8
  70              		.cfi_offset 7, -8
  71              		.cfi_offset 14, -4
  72 0002 84B0     		sub	sp, sp, #16
  73              		.cfi_def_cfa_offset 24
  74 0004 00AF     		add	r7, sp, #0
  75              		.cfi_def_cfa_register 7
  76 0006 F860     		str	r0, [r7, #12]
  77 0008 B960     		str	r1, [r7, #8]
  78 000a 7A60     		str	r2, [r7, #4]
 110:Generated_Source\PSoC5/cyfitter_cfg.c **** 	(void)memcpy(dest, src, n);
  79              		.loc 1 110 0
  80 000c 7A68     		ldr	r2, [r7, #4]
  81 000e B968     		ldr	r1, [r7, #8]
  82 0010 F868     		ldr	r0, [r7, #12]
  83 0012 FFF7FEFF 		bl	memcpy
 111:Generated_Source\PSoC5/cyfitter_cfg.c **** }
  84              		.loc 1 111 0
  85 0016 00BF     		nop
  86 0018 1037     		adds	r7, r7, #16
  87              		.cfi_def_cfa_offset 8
  88 001a BD46     		mov	sp, r7
  89              		.cfi_def_cfa_register 13
  90              		@ sp needed
  91 001c 80BD     		pop	{r7, pc}
  92              		.cfi_endproc
  93              	.LFE1:
  94              		.size	CYCONFIGCPY, .-CYCONFIGCPY
  95 001e 00BF     		.section	.text.CYCONFIGCPYCODE,"ax",%progbits
  96              		.align	2
  97              		.thumb
  98              		.thumb_func
  99              		.type	CYCONFIGCPYCODE, %function
 100              	CYCONFIGCPYCODE:
 101              	.LFB2:
 112:Generated_Source\PSoC5/cyfitter_cfg.c **** CY_CFG_UNUSED
 113:Generated_Source\PSoC5/cyfitter_cfg.c **** static void CYCONFIGCPYCODE(void *dest, const void *src, size_t n);
 114:Generated_Source\PSoC5/cyfitter_cfg.c **** CY_CFG_UNUSED
 115:Generated_Source\PSoC5/cyfitter_cfg.c **** static void CYCONFIGCPYCODE(void *dest, const void *src, size_t n)
 116:Generated_Source\PSoC5/cyfitter_cfg.c **** {
 102              		.loc 1 116 0
 103              		.cfi_startproc
 104              		@ args = 0, pretend = 0, frame = 16
 105              		@ frame_needed = 1, uses_anonymous_args = 0
 106 0000 80B5     		push	{r7, lr}
 107              		.cfi_def_cfa_offset 8
 108              		.cfi_offset 7, -8
 109              		.cfi_offset 14, -4
 110 0002 84B0     		sub	sp, sp, #16
 111              		.cfi_def_cfa_offset 24
 112 0004 00AF     		add	r7, sp, #0
ARM GAS  C:\Users\Joe\AppData\Local\Temp\ccXHBT7j.s 			page 5


 113              		.cfi_def_cfa_register 7
 114 0006 F860     		str	r0, [r7, #12]
 115 0008 B960     		str	r1, [r7, #8]
 116 000a 7A60     		str	r2, [r7, #4]
 117:Generated_Source\PSoC5/cyfitter_cfg.c **** 	(void)memcpy(dest, src, n);
 117              		.loc 1 117 0
 118 000c 7A68     		ldr	r2, [r7, #4]
 119 000e B968     		ldr	r1, [r7, #8]
 120 0010 F868     		ldr	r0, [r7, #12]
 121 0012 FFF7FEFF 		bl	memcpy
 118:Generated_Source\PSoC5/cyfitter_cfg.c **** }
 122              		.loc 1 118 0
 123 0016 00BF     		nop
 124 0018 1037     		adds	r7, r7, #16
 125              		.cfi_def_cfa_offset 8
 126 001a BD46     		mov	sp, r7
 127              		.cfi_def_cfa_register 13
 128              		@ sp needed
 129 001c 80BD     		pop	{r7, pc}
 130              		.cfi_endproc
 131              	.LFE2:
 132              		.size	CYCONFIGCPYCODE, .-CYCONFIGCPYCODE
 133 001e 00BF     		.section	.text.CyClockStartupError,"ax",%progbits
 134              		.align	2
 135              		.thumb
 136              		.thumb_func
 137              		.type	CyClockStartupError, %function
 138              	CyClockStartupError:
 139              	.LFB3:
 119:Generated_Source\PSoC5/cyfitter_cfg.c **** 
 120:Generated_Source\PSoC5/cyfitter_cfg.c **** 
 121:Generated_Source\PSoC5/cyfitter_cfg.c **** 
 122:Generated_Source\PSoC5/cyfitter_cfg.c **** 
 123:Generated_Source\PSoC5/cyfitter_cfg.c **** /* Clock startup error codes                                                   */
 124:Generated_Source\PSoC5/cyfitter_cfg.c **** #define CYCLOCKSTART_NO_ERROR    0u
 125:Generated_Source\PSoC5/cyfitter_cfg.c **** #define CYCLOCKSTART_XTAL_ERROR  1u
 126:Generated_Source\PSoC5/cyfitter_cfg.c **** #define CYCLOCKSTART_32KHZ_ERROR 2u
 127:Generated_Source\PSoC5/cyfitter_cfg.c **** #define CYCLOCKSTART_PLL_ERROR   3u
 128:Generated_Source\PSoC5/cyfitter_cfg.c **** #define CYCLOCKSTART_FLL_ERROR   4u
 129:Generated_Source\PSoC5/cyfitter_cfg.c **** 
 130:Generated_Source\PSoC5/cyfitter_cfg.c **** 
 131:Generated_Source\PSoC5/cyfitter_cfg.c **** #ifdef CY_NEED_CYCLOCKSTARTUPERROR
 132:Generated_Source\PSoC5/cyfitter_cfg.c **** /*******************************************************************************
 133:Generated_Source\PSoC5/cyfitter_cfg.c **** * Function Name: CyClockStartupError
 134:Generated_Source\PSoC5/cyfitter_cfg.c **** ********************************************************************************
 135:Generated_Source\PSoC5/cyfitter_cfg.c **** * Summary:
 136:Generated_Source\PSoC5/cyfitter_cfg.c **** *  If an error is encountered during clock configuration (crystal startup error,
 137:Generated_Source\PSoC5/cyfitter_cfg.c **** *  PLL lock error, etc.), the system will end up here.  Unless reimplemented by
 138:Generated_Source\PSoC5/cyfitter_cfg.c **** *  the customer, this function will stop in an infinite loop.
 139:Generated_Source\PSoC5/cyfitter_cfg.c **** *
 140:Generated_Source\PSoC5/cyfitter_cfg.c **** * Parameters:
 141:Generated_Source\PSoC5/cyfitter_cfg.c **** *   void
 142:Generated_Source\PSoC5/cyfitter_cfg.c **** *
 143:Generated_Source\PSoC5/cyfitter_cfg.c **** * Return:
 144:Generated_Source\PSoC5/cyfitter_cfg.c **** *   void
 145:Generated_Source\PSoC5/cyfitter_cfg.c **** *
 146:Generated_Source\PSoC5/cyfitter_cfg.c **** *******************************************************************************/
ARM GAS  C:\Users\Joe\AppData\Local\Temp\ccXHBT7j.s 			page 6


 147:Generated_Source\PSoC5/cyfitter_cfg.c **** CY_CFG_UNUSED
 148:Generated_Source\PSoC5/cyfitter_cfg.c **** static void CyClockStartupError(uint8 errorCode);
 149:Generated_Source\PSoC5/cyfitter_cfg.c **** CY_CFG_UNUSED
 150:Generated_Source\PSoC5/cyfitter_cfg.c **** static void CyClockStartupError(uint8 errorCode)
 151:Generated_Source\PSoC5/cyfitter_cfg.c **** {
 140              		.loc 1 151 0
 141              		.cfi_startproc
 142              		@ args = 0, pretend = 0, frame = 8
 143              		@ frame_needed = 1, uses_anonymous_args = 0
 144              		@ link register save eliminated.
 145 0000 80B4     		push	{r7}
 146              		.cfi_def_cfa_offset 4
 147              		.cfi_offset 7, -4
 148 0002 83B0     		sub	sp, sp, #12
 149              		.cfi_def_cfa_offset 16
 150 0004 00AF     		add	r7, sp, #0
 151              		.cfi_def_cfa_register 7
 152 0006 0346     		mov	r3, r0
 153 0008 FB71     		strb	r3, [r7, #7]
 154              	.L5:
 152:Generated_Source\PSoC5/cyfitter_cfg.c ****     /* To remove the compiler warning if errorCode not used. */
 153:Generated_Source\PSoC5/cyfitter_cfg.c **** #if defined(CY_PSOC3) && (CY_PSOC3)
 154:Generated_Source\PSoC5/cyfitter_cfg.c ****     errorCode = errorCode;
 155:Generated_Source\PSoC5/cyfitter_cfg.c **** #else
 156:Generated_Source\PSoC5/cyfitter_cfg.c ****     (void)errorCode;
 157:Generated_Source\PSoC5/cyfitter_cfg.c **** #endif /* CY_PSOC3 */
 158:Generated_Source\PSoC5/cyfitter_cfg.c **** 
 159:Generated_Source\PSoC5/cyfitter_cfg.c ****     /* If we have a clock startup error (bad MHz crystal, PLL lock, etc.),  */
 160:Generated_Source\PSoC5/cyfitter_cfg.c ****     /* we will end up here to allow the customer to implement something to  */
 161:Generated_Source\PSoC5/cyfitter_cfg.c ****     /* deal with the clock condition.                                       */
 162:Generated_Source\PSoC5/cyfitter_cfg.c **** 
 163:Generated_Source\PSoC5/cyfitter_cfg.c **** #ifdef CY_CFG_CLOCK_STARTUP_ERROR_CALLBACK
 164:Generated_Source\PSoC5/cyfitter_cfg.c ****     CY_CFG_Clock_Startup_ErrorCallback();
 165:Generated_Source\PSoC5/cyfitter_cfg.c **** #else
 166:Generated_Source\PSoC5/cyfitter_cfg.c ****     /*  If not using CY_CFG_CLOCK_STARTUP_ERROR_CALLBACK, place your clock startup code here. */
 167:Generated_Source\PSoC5/cyfitter_cfg.c ****     /* `#START CyClockStartupError` */
 168:Generated_Source\PSoC5/cyfitter_cfg.c **** 
 169:Generated_Source\PSoC5/cyfitter_cfg.c **** 
 170:Generated_Source\PSoC5/cyfitter_cfg.c **** 
 171:Generated_Source\PSoC5/cyfitter_cfg.c ****     /* `#END` */
 172:Generated_Source\PSoC5/cyfitter_cfg.c **** 
 173:Generated_Source\PSoC5/cyfitter_cfg.c ****     while(1) {}
 155              		.loc 1 173 0 discriminator 1
 156 000a FEE7     		b	.L5
 157              		.cfi_endproc
 158              	.LFE3:
 159              		.size	CyClockStartupError, .-CyClockStartupError
 160              		.section	.dma_init,"a",%progbits
 161              		.align	2
 162              		.type	CH1_ADDR_DATA0.4966, %object
 163              		.size	CH1_ADDR_DATA0.4966, 8
 164              	CH1_ADDR_DATA0.4966:
 165 0000 01       		.byte	1
 166 0001 00       		.byte	0
 167 0002 00       		.byte	0
 168 0003 00       		.byte	0
 169 0004 00       		.byte	0
ARM GAS  C:\Users\Joe\AppData\Local\Temp\ccXHBT7j.s 			page 7


 170 0005 20       		.byte	32
 171 0006 00       		.byte	0
 172 0007 40       		.byte	64
 173              		.align	2
 174              		.type	CH2_ADDR_DATA0.4967, %object
 175              		.size	CH2_ADDR_DATA0.4967, 8
 176              	CH2_ADDR_DATA0.4967:
 177 0008 01       		.byte	1
 178 0009 00       		.byte	0
 179 000a 00       		.byte	0
 180 000b 00       		.byte	0
 181 000c 00       		.byte	0
 182 000d 20       		.byte	32
 183 000e 01       		.byte	1
 184 000f 40       		.byte	64
 185              		.align	2
 186              		.type	CH5_ADDR_DATA0.4968, %object
 187              		.size	CH5_ADDR_DATA0.4968, 8
 188              	CH5_ADDR_DATA0.4968:
 189 0010 01       		.byte	1
 190 0011 00       		.byte	0
 191 0012 00       		.byte	0
 192 0013 00       		.byte	0
 193 0014 00       		.byte	0
 194 0015 48       		.byte	72
 195 0016 00       		.byte	0
 196 0017 40       		.byte	64
 197              		.align	2
 198              		.type	CH6_ADDR_DATA0.4969, %object
 199              		.size	CH6_ADDR_DATA0.4969, 8
 200              	CH6_ADDR_DATA0.4969:
 201 0018 01       		.byte	1
 202 0019 00       		.byte	0
 203 001a 00       		.byte	0
 204 001b 00       		.byte	0
 205 001c 00       		.byte	0
 206 001d 48       		.byte	72
 207 001e 01       		.byte	1
 208 001f 40       		.byte	64
 209              		.align	2
 210              		.type	DMA_TD_START_CMD.4970, %object
 211              		.size	DMA_TD_START_CMD.4970, 5
 212              	DMA_TD_START_CMD.4970:
 213 0020 01       		.byte	1
 214 0021 00       		.byte	0
 215 0022 00       		.byte	0
 216 0023 00       		.byte	0
 217 0024 01       		.byte	1
 218 0025 000000   		.align	2
 219              		.type	CFG_TD_LIST0.4972, %object
 220              		.size	CFG_TD_LIST0.4972, 464
 221              	CFG_TD_LIST0.4972:
 222 0028 0800     		.short	8
 223 002a 02       		.byte	2
 224 002b 23       		.byte	35
 225 002c 0000     		.short	0
 226 002e 0876     		.short	30216
ARM GAS  C:\Users\Joe\AppData\Local\Temp\ccXHBT7j.s 			page 8


 227 0030 0800     		.short	8
 228 0032 03       		.byte	3
 229 0033 23       		.byte	35
 230 0034 0000     		.short	0
 231 0036 1076     		.short	30224
 232 0038 0800     		.short	8
 233 003a 04       		.byte	4
 234 003b 23       		.byte	35
 235 003c 0000     		.short	0
 236 003e 2876     		.short	30248
 237 0040 0800     		.short	8
 238 0042 05       		.byte	5
 239 0043 23       		.byte	35
 240 0044 0000     		.short	0
 241 0046 3076     		.short	30256
 242 0048 0500     		.short	5
 243 004a 06       		.byte	6
 244 004b 23       		.byte	35
 245 004c 0000     		.short	0
 246 004e 2070     		.short	28704
 247 0050 0500     		.short	5
 248 0052 07       		.byte	7
 249 0053 23       		.byte	35
 250 0054 0000     		.short	0
 251 0056 3070     		.short	28720
 252 0058 0500     		.short	5
 253 005a 08       		.byte	8
 254 005b 23       		.byte	35
 255 005c 0000     		.short	0
 256 005e 6070     		.short	28768
 257 0060 0500     		.short	5
 258 0062 FE       		.byte	-2
 259 0063 23       		.byte	35
 260 0064 0000     		.short	0
 261 0066 7070     		.short	28784
 262 0068 1000     		.short	16
 263 006a 0A       		.byte	10
 264 006b 22       		.byte	34
 265 006c 0000     		.short	0
 266 006e 0051     		.short	20736
 267 0070 3000     		.short	48
 268 0072 0B       		.byte	11
 269 0073 22       		.byte	34
 270 0074 0000     		.short	0
 271 0076 4051     		.short	20800
 272 0078 1000     		.short	16
 273 007a FE       		.byte	-2
 274 007b 22       		.byte	34
 275 007c 0000     		.short	0
 276 007e F051     		.short	20976
 277 0080 8003     		.short	896
 278 0082 0D       		.byte	13
 279 0083 22       		.byte	34
 280 0084 0000     		.short	0
 281 0086 0000     		.short	0
 282 0088 8003     		.short	896
 283 008a 0E       		.byte	14
ARM GAS  C:\Users\Joe\AppData\Local\Temp\ccXHBT7j.s 			page 9


 284 008b 22       		.byte	34
 285 008c 0000     		.short	0
 286 008e 0008     		.short	2048
 287 0090 0004     		.short	1024
 288 0092 0F       		.byte	15
 289 0093 22       		.byte	34
 290 0094 0000     		.short	0
 291 0096 000C     		.short	3072
 292 0098 8001     		.short	384
 293 009a 10       		.byte	16
 294 009b 22       		.byte	34
 295 009c 0000     		.short	0
 296 009e 0014     		.short	5120
 297 00a0 0004     		.short	1024
 298 00a2 11       		.byte	17
 299 00a3 22       		.byte	34
 300 00a4 0000     		.short	0
 301 00a6 0018     		.short	6144
 302 00a8 8000     		.short	128
 303 00aa 12       		.byte	18
 304 00ab 22       		.byte	34
 305 00ac 0000     		.short	0
 306 00ae 0041     		.short	16640
 307 00b0 8000     		.short	128
 308 00b2 13       		.byte	19
 309 00b3 22       		.byte	34
 310 00b4 0000     		.short	0
 311 00b6 0043     		.short	17152
 312 00b8 8000     		.short	128
 313 00ba 14       		.byte	20
 314 00bb 22       		.byte	34
 315 00bc 0000     		.short	0
 316 00be 0046     		.short	17920
 317 00c0 8001     		.short	384
 318 00c2 15       		.byte	21
 319 00c3 22       		.byte	34
 320 00c4 0000     		.short	0
 321 00c6 0047     		.short	18176
 322 00c8 0002     		.short	512
 323 00ca FE       		.byte	-2
 324 00cb 22       		.byte	34
 325 00cc 0000     		.short	0
 326 00ce 004C     		.short	19456
 327 00d0 0700     		.short	7
 328 00d2 17       		.byte	23
 329 00d3 23       		.byte	35
 330 00d4 0000     		.short	0
 331 00d6 1052     		.short	21008
 332 00d8 0700     		.short	7
 333 00da 18       		.byte	24
 334 00db 23       		.byte	35
 335 00dc 0000     		.short	0
 336 00de 1852     		.short	21016
 337 00e0 0600     		.short	6
 338 00e2 19       		.byte	25
 339 00e3 23       		.byte	35
 340 00e4 0000     		.short	0
ARM GAS  C:\Users\Joe\AppData\Local\Temp\ccXHBT7j.s 			page 10


 341 00e6 6052     		.short	21088
 342 00e8 4000     		.short	64
 343 00ea 1A       		.byte	26
 344 00eb 23       		.byte	35
 345 00ec 0000     		.short	0
 346 00ee 0064     		.short	25600
 347 00f0 2000     		.short	32
 348 00f2 FE       		.byte	-2
 349 00f3 23       		.byte	35
 350 00f4 0000     		.short	0
 351 00f6 7064     		.short	25712
 352 00f8 0800     		.short	8
 353 00fa 1C       		.byte	28
 354 00fb 23       		.byte	35
 355 00fc 0000     		.short	0
 356 00fe 0051     		.short	20736
 357 0100 8000     		.short	128
 358 0102 1D       		.byte	29
 359 0103 23       		.byte	35
 360 0104 0000     		.short	0
 361 0106 0004     		.short	1024
 362 0108 8000     		.short	128
 363 010a 1E       		.byte	30
 364 010b 23       		.byte	35
 365 010c 0000     		.short	0
 366 010e 8004     		.short	1152
 367 0110 8000     		.short	128
 368 0112 1F       		.byte	31
 369 0113 23       		.byte	35
 370 0114 0000     		.short	0
 371 0116 0006     		.short	1536
 372 0118 8000     		.short	128
 373 011a 20       		.byte	32
 374 011b 23       		.byte	35
 375 011c 0000     		.short	0
 376 011e 8006     		.short	1664
 377 0120 8000     		.short	128
 378 0122 21       		.byte	33
 379 0123 23       		.byte	35
 380 0124 0000     		.short	0
 381 0126 0016     		.short	5632
 382 0128 8000     		.short	128
 383 012a 22       		.byte	34
 384 012b 23       		.byte	35
 385 012c 0000     		.short	0
 386 012e 8016     		.short	5760
 387 0130 1000     		.short	16
 388 0132 23       		.byte	35
 389 0133 23       		.byte	35
 390 0134 0000     		.short	0
 391 0136 1050     		.short	20496
 392 0138 1000     		.short	16
 393 013a 24       		.byte	36
 394 013b 23       		.byte	35
 395 013c 0000     		.short	0
 396 013e 0050     		.short	20480
 397 0140 8000     		.short	128
ARM GAS  C:\Users\Joe\AppData\Local\Temp\ccXHBT7j.s 			page 11


 398 0142 25       		.byte	37
 399 0143 23       		.byte	35
 400 0144 0000     		.short	0
 401 0146 8046     		.short	18048
 402 0148 8000     		.short	128
 403 014a 26       		.byte	38
 404 014b 23       		.byte	35
 405 014c 0000     		.short	0
 406 014e 0045     		.short	17664
 407 0150 8000     		.short	128
 408 0152 27       		.byte	39
 409 0153 23       		.byte	35
 410 0154 0000     		.short	0
 411 0156 8045     		.short	17792
 412 0158 8000     		.short	128
 413 015a 28       		.byte	40
 414 015b 23       		.byte	35
 415 015c 0000     		.short	0
 416 015e 0044     		.short	17408
 417 0160 8000     		.short	128
 418 0162 29       		.byte	41
 419 0163 23       		.byte	35
 420 0164 0000     		.short	0
 421 0166 8044     		.short	17536
 422 0168 8000     		.short	128
 423 016a 2A       		.byte	42
 424 016b 23       		.byte	35
 425 016c 0000     		.short	0
 426 016e 8015     		.short	5504
 427 0170 8000     		.short	128
 428 0172 2B       		.byte	43
 429 0173 23       		.byte	35
 430 0174 0000     		.short	0
 431 0176 0017     		.short	5888
 432 0178 8000     		.short	128
 433 017a 2C       		.byte	44
 434 017b 23       		.byte	35
 435 017c 0000     		.short	0
 436 017e 8017     		.short	6016
 437 0180 8000     		.short	128
 438 0182 2D       		.byte	45
 439 0183 23       		.byte	35
 440 0184 0000     		.short	0
 441 0186 0007     		.short	1792
 442 0188 8000     		.short	128
 443 018a 2E       		.byte	46
 444 018b 23       		.byte	35
 445 018c 0000     		.short	0
 446 018e 8007     		.short	1920
 447 0190 8000     		.short	128
 448 0192 2F       		.byte	47
 449 0193 23       		.byte	35
 450 0194 0000     		.short	0
 451 0196 800B     		.short	2944
 452 0198 8000     		.short	128
 453 019a 30       		.byte	48
 454 019b 23       		.byte	35
ARM GAS  C:\Users\Joe\AppData\Local\Temp\ccXHBT7j.s 			page 12


 455 019c 0000     		.short	0
 456 019e 0005     		.short	1280
 457 01a0 8000     		.short	128
 458 01a2 31       		.byte	49
 459 01a3 23       		.byte	35
 460 01a4 0000     		.short	0
 461 01a6 8005     		.short	1408
 462 01a8 8000     		.short	128
 463 01aa 32       		.byte	50
 464 01ab 23       		.byte	35
 465 01ac 0000     		.short	0
 466 01ae 8003     		.short	896
 467 01b0 8000     		.short	128
 468 01b2 33       		.byte	51
 469 01b3 23       		.byte	35
 470 01b4 0000     		.short	0
 471 01b6 0049     		.short	18688
 472 01b8 8000     		.short	128
 473 01ba 34       		.byte	52
 474 01bb 23       		.byte	35
 475 01bc 0000     		.short	0
 476 01be 8049     		.short	18816
 477 01c0 8000     		.short	128
 478 01c2 35       		.byte	53
 479 01c3 23       		.byte	35
 480 01c4 0000     		.short	0
 481 01c6 8048     		.short	18560
 482 01c8 8000     		.short	128
 483 01ca 36       		.byte	54
 484 01cb 23       		.byte	35
 485 01cc 0000     		.short	0
 486 01ce 8043     		.short	17280
 487 01d0 8000     		.short	128
 488 01d2 37       		.byte	55
 489 01d3 23       		.byte	35
 490 01d4 0000     		.short	0
 491 01d6 0042     		.short	16896
 492 01d8 8000     		.short	128
 493 01da 38       		.byte	56
 494 01db 23       		.byte	35
 495 01dc 0000     		.short	0
 496 01de 8042     		.short	17024
 497 01e0 8000     		.short	128
 498 01e2 39       		.byte	57
 499 01e3 23       		.byte	35
 500 01e4 0000     		.short	0
 501 01e6 8041     		.short	16768
 502 01e8 8000     		.short	128
 503 01ea 3A       		.byte	58
 504 01eb 23       		.byte	35
 505 01ec 0000     		.short	0
 506 01ee 0040     		.short	16384
 507 01f0 8000     		.short	128
 508 01f2 FE       		.byte	-2
 509 01f3 23       		.byte	35
 510 01f4 0000     		.short	0
 511 01f6 8040     		.short	16512
ARM GAS  C:\Users\Joe\AppData\Local\Temp\ccXHBT7j.s 			page 13


 512              		.section	.text.cfg_dma_init,"ax",%progbits
 513              		.align	2
 514              		.thumb
 515              		.thumb_func
 516              		.type	cfg_dma_init, %function
 517              	cfg_dma_init:
 518              	.LFB4:
 174:Generated_Source\PSoC5/cyfitter_cfg.c **** #endif /* CY_CFG_CLOCK_STARTUP_ERROR_CALLBACK */
 175:Generated_Source\PSoC5/cyfitter_cfg.c **** }
 176:Generated_Source\PSoC5/cyfitter_cfg.c **** #endif
 177:Generated_Source\PSoC5/cyfitter_cfg.c **** 
 178:Generated_Source\PSoC5/cyfitter_cfg.c **** /* IOPORT_2 Address: CYDEV_PRTDSI_PRT2_BASE Size (bytes): 7 */
 179:Generated_Source\PSoC5/cyfitter_cfg.c **** #define BS_IOPORT_2_VAL ((const uint8 CYFAR *)0x48000000u)
 180:Generated_Source\PSoC5/cyfitter_cfg.c **** 
 181:Generated_Source\PSoC5/cyfitter_cfg.c **** /* IOPORT_3 Address: CYDEV_PRTDSI_PRT3_BASE Size (bytes): 7 */
 182:Generated_Source\PSoC5/cyfitter_cfg.c **** #define BS_IOPORT_3_VAL ((const uint8 CYFAR *)0x48000008u)
 183:Generated_Source\PSoC5/cyfitter_cfg.c **** 
 184:Generated_Source\PSoC5/cyfitter_cfg.c **** /* IOPORT_7 Address: CYDEV_PRTDSI_PRT12_BASE Size (bytes): 6 */
 185:Generated_Source\PSoC5/cyfitter_cfg.c **** #define BS_IOPORT_7_VAL ((const uint8 CYFAR *)0x48000010u)
 186:Generated_Source\PSoC5/cyfitter_cfg.c **** 
 187:Generated_Source\PSoC5/cyfitter_cfg.c **** /* IDMUX_IRQ Address: CYREG_IDMUX_IRQ_CTL0 Size (bytes): 8 */
 188:Generated_Source\PSoC5/cyfitter_cfg.c **** #define BS_IDMUX_IRQ_VAL ((const uint8 CYFAR *)0x48000018u)
 189:Generated_Source\PSoC5/cyfitter_cfg.c **** 
 190:Generated_Source\PSoC5/cyfitter_cfg.c **** /* UDB_1_3_0_CONFIG Address: CYDEV_UCFG_B0_P2_U0_BASE Size (bytes): 128 */
 191:Generated_Source\PSoC5/cyfitter_cfg.c **** #define BS_UDB_1_3_0_CONFIG_VAL ((const uint8 CYFAR *)0x48000020u)
 192:Generated_Source\PSoC5/cyfitter_cfg.c **** 
 193:Generated_Source\PSoC5/cyfitter_cfg.c **** /* UDB_1_3_1_CONFIG Address: CYDEV_UCFG_B0_P2_U1_BASE Size (bytes): 128 */
 194:Generated_Source\PSoC5/cyfitter_cfg.c **** #define BS_UDB_1_3_1_CONFIG_VAL ((const uint8 CYFAR *)0x480000A0u)
 195:Generated_Source\PSoC5/cyfitter_cfg.c **** 
 196:Generated_Source\PSoC5/cyfitter_cfg.c **** /* UDB_1_2_1_CONFIG Address: CYDEV_UCFG_B0_P3_U0_BASE Size (bytes): 128 */
 197:Generated_Source\PSoC5/cyfitter_cfg.c **** #define BS_UDB_1_2_1_CONFIG_VAL ((const uint8 CYFAR *)0x48000120u)
 198:Generated_Source\PSoC5/cyfitter_cfg.c **** 
 199:Generated_Source\PSoC5/cyfitter_cfg.c **** /* UDB_1_2_0_CONFIG Address: CYDEV_UCFG_B0_P3_U1_BASE Size (bytes): 128 */
 200:Generated_Source\PSoC5/cyfitter_cfg.c **** #define BS_UDB_1_2_0_CONFIG_VAL ((const uint8 CYFAR *)0x480001A0u)
 201:Generated_Source\PSoC5/cyfitter_cfg.c **** 
 202:Generated_Source\PSoC5/cyfitter_cfg.c **** /* UDB_1_1_1_CONFIG Address: CYDEV_UCFG_B1_P3_U0_BASE Size (bytes): 128 */
 203:Generated_Source\PSoC5/cyfitter_cfg.c **** #define BS_UDB_1_1_1_CONFIG_VAL ((const uint8 CYFAR *)0x48000220u)
 204:Generated_Source\PSoC5/cyfitter_cfg.c **** 
 205:Generated_Source\PSoC5/cyfitter_cfg.c **** /* UDB_1_1_0_CONFIG Address: CYDEV_UCFG_B1_P3_U1_BASE Size (bytes): 128 */
 206:Generated_Source\PSoC5/cyfitter_cfg.c **** #define BS_UDB_1_1_0_CONFIG_VAL ((const uint8 CYFAR *)0x480002A0u)
 207:Generated_Source\PSoC5/cyfitter_cfg.c **** 
 208:Generated_Source\PSoC5/cyfitter_cfg.c **** /* UWRK_B0_WRK_DP_BITS Address: CYDEV_UWRK_UWRK8_B0_BASE Size (bytes): 64 */
 209:Generated_Source\PSoC5/cyfitter_cfg.c **** #define BS_UWRK_B0_WRK_DP_BITS_VAL ((const uint8 CYFAR *)0x48000320u)
 210:Generated_Source\PSoC5/cyfitter_cfg.c **** 
 211:Generated_Source\PSoC5/cyfitter_cfg.c **** /* UWRK_B0_WRK_STATCTL_BITS Address: CYDEV_UWRK_UWRK8_B0_BASE + 0x00000070u Size (bytes): 32 */
 212:Generated_Source\PSoC5/cyfitter_cfg.c **** #define BS_UWRK_B0_WRK_STATCTL_BITS_VAL ((const uint8 CYFAR *)0x48000360u)
 213:Generated_Source\PSoC5/cyfitter_cfg.c **** 
 214:Generated_Source\PSoC5/cyfitter_cfg.c **** /* UCFG_BCTL1 Address: CYREG_BCTL1_MDCLK_EN Size (bytes): 16 */
 215:Generated_Source\PSoC5/cyfitter_cfg.c **** #define BS_UCFG_BCTL1_VAL ((const uint8 CYFAR *)0x48000380u)
 216:Generated_Source\PSoC5/cyfitter_cfg.c **** 
 217:Generated_Source\PSoC5/cyfitter_cfg.c **** /* UCFG_BCTL0 Address: CYREG_BCTL0_MDCLK_EN Size (bytes): 16 */
 218:Generated_Source\PSoC5/cyfitter_cfg.c **** #define BS_UCFG_BCTL0_VAL ((const uint8 CYFAR *)0x48000390u)
 219:Generated_Source\PSoC5/cyfitter_cfg.c **** 
 220:Generated_Source\PSoC5/cyfitter_cfg.c **** /* DSI0_3_HV_ROUTING Address: CYDEV_UCFG_DSI6_BASE + 0x00000080u Size (bytes): 128 */
 221:Generated_Source\PSoC5/cyfitter_cfg.c **** #define BS_DSI0_3_HV_ROUTING_VAL ((const uint8 CYFAR *)0x480003A0u)
 222:Generated_Source\PSoC5/cyfitter_cfg.c **** 
 223:Generated_Source\PSoC5/cyfitter_cfg.c **** /* DSISWITCH_0_4 Address: CYDEV_UCFG_DSI5_BASE Size (bytes): 128 */
ARM GAS  C:\Users\Joe\AppData\Local\Temp\ccXHBT7j.s 			page 14


 224:Generated_Source\PSoC5/cyfitter_cfg.c **** #define BS_DSISWITCH_0_4_VAL ((const uint8 CYFAR *)0x48000420u)
 225:Generated_Source\PSoC5/cyfitter_cfg.c **** 
 226:Generated_Source\PSoC5/cyfitter_cfg.c **** /* DSI0_4_HV_ROUTING Address: CYDEV_UCFG_DSI5_BASE + 0x00000080u Size (bytes): 128 */
 227:Generated_Source\PSoC5/cyfitter_cfg.c **** #define BS_DSI0_4_HV_ROUTING_VAL ((const uint8 CYFAR *)0x480004A0u)
 228:Generated_Source\PSoC5/cyfitter_cfg.c **** 
 229:Generated_Source\PSoC5/cyfitter_cfg.c **** /* DSISWITCH_0_5 Address: CYDEV_UCFG_DSI4_BASE Size (bytes): 128 */
 230:Generated_Source\PSoC5/cyfitter_cfg.c **** #define BS_DSISWITCH_0_5_VAL ((const uint8 CYFAR *)0x48000520u)
 231:Generated_Source\PSoC5/cyfitter_cfg.c **** 
 232:Generated_Source\PSoC5/cyfitter_cfg.c **** /* DSI0_5_HV_ROUTING Address: CYDEV_UCFG_DSI4_BASE + 0x00000080u Size (bytes): 128 */
 233:Generated_Source\PSoC5/cyfitter_cfg.c **** #define BS_DSI0_5_HV_ROUTING_VAL ((const uint8 CYFAR *)0x480005A0u)
 234:Generated_Source\PSoC5/cyfitter_cfg.c **** 
 235:Generated_Source\PSoC5/cyfitter_cfg.c **** /* UDB_2_0_HV_ROUTING Address: CYDEV_UCFG_B1_P2_ROUTE_BASE + 0x00000080u Size (bytes): 128 */
 236:Generated_Source\PSoC5/cyfitter_cfg.c **** #define BS_UDB_2_0_HV_ROUTING_VAL ((const uint8 CYFAR *)0x48000620u)
 237:Generated_Source\PSoC5/cyfitter_cfg.c **** 
 238:Generated_Source\PSoC5/cyfitter_cfg.c **** /* UDBSWITCH_1_1 Address: CYDEV_UCFG_B1_P3_ROUTE_BASE Size (bytes): 128 */
 239:Generated_Source\PSoC5/cyfitter_cfg.c **** #define BS_UDBSWITCH_1_1_VAL ((const uint8 CYFAR *)0x480006A0u)
 240:Generated_Source\PSoC5/cyfitter_cfg.c **** 
 241:Generated_Source\PSoC5/cyfitter_cfg.c **** /* UDB_2_1_HV_ROUTING Address: CYDEV_UCFG_B1_P3_ROUTE_BASE + 0x00000080u Size (bytes): 128 */
 242:Generated_Source\PSoC5/cyfitter_cfg.c **** #define BS_UDB_2_1_HV_ROUTING_VAL ((const uint8 CYFAR *)0x48000720u)
 243:Generated_Source\PSoC5/cyfitter_cfg.c **** 
 244:Generated_Source\PSoC5/cyfitter_cfg.c **** /* UDBSWITCH_1_2 Address: CYDEV_UCFG_B0_P3_ROUTE_BASE Size (bytes): 128 */
 245:Generated_Source\PSoC5/cyfitter_cfg.c **** #define BS_UDBSWITCH_1_2_VAL ((const uint8 CYFAR *)0x480007A0u)
 246:Generated_Source\PSoC5/cyfitter_cfg.c **** 
 247:Generated_Source\PSoC5/cyfitter_cfg.c **** /* UDB_2_2_HV_ROUTING Address: CYDEV_UCFG_B0_P3_ROUTE_BASE + 0x00000080u Size (bytes): 128 */
 248:Generated_Source\PSoC5/cyfitter_cfg.c **** #define BS_UDB_2_2_HV_ROUTING_VAL ((const uint8 CYFAR *)0x48000820u)
 249:Generated_Source\PSoC5/cyfitter_cfg.c **** 
 250:Generated_Source\PSoC5/cyfitter_cfg.c **** /* UDB_1_3_HV_ROUTING Address: CYDEV_UCFG_B0_P5_ROUTE_BASE + 0x00000080u Size (bytes): 128 */
 251:Generated_Source\PSoC5/cyfitter_cfg.c **** #define BS_UDB_1_3_HV_ROUTING_VAL ((const uint8 CYFAR *)0x480008A0u)
 252:Generated_Source\PSoC5/cyfitter_cfg.c **** 
 253:Generated_Source\PSoC5/cyfitter_cfg.c **** /* UDBSWITCH_1_3 Address: CYDEV_UCFG_B0_P2_ROUTE_BASE Size (bytes): 128 */
 254:Generated_Source\PSoC5/cyfitter_cfg.c **** #define BS_UDBSWITCH_1_3_VAL ((const uint8 CYFAR *)0x48000920u)
 255:Generated_Source\PSoC5/cyfitter_cfg.c **** 
 256:Generated_Source\PSoC5/cyfitter_cfg.c **** /* UDB_2_3_HV_ROUTING Address: CYDEV_UCFG_B0_P2_ROUTE_BASE + 0x00000080u Size (bytes): 128 */
 257:Generated_Source\PSoC5/cyfitter_cfg.c **** #define BS_UDB_2_3_HV_ROUTING_VAL ((const uint8 CYFAR *)0x480009A0u)
 258:Generated_Source\PSoC5/cyfitter_cfg.c **** 
 259:Generated_Source\PSoC5/cyfitter_cfg.c **** /* UDB_2_4_HV_ROUTING Address: CYDEV_UCFG_B0_P1_ROUTE_BASE + 0x00000080u Size (bytes): 128 */
 260:Generated_Source\PSoC5/cyfitter_cfg.c **** #define BS_UDB_2_4_HV_ROUTING_VAL ((const uint8 CYFAR *)0x48000A20u)
 261:Generated_Source\PSoC5/cyfitter_cfg.c **** 
 262:Generated_Source\PSoC5/cyfitter_cfg.c **** /* DSISWITCH_1_0 Address: CYDEV_UCFG_DSI9_BASE Size (bytes): 128 */
 263:Generated_Source\PSoC5/cyfitter_cfg.c **** #define BS_DSISWITCH_1_0_VAL ((const uint8 CYFAR *)0x48000AA0u)
 264:Generated_Source\PSoC5/cyfitter_cfg.c **** 
 265:Generated_Source\PSoC5/cyfitter_cfg.c **** /* DSI3_0_HV_ROUTING Address: CYDEV_UCFG_DSI9_BASE + 0x00000080u Size (bytes): 128 */
 266:Generated_Source\PSoC5/cyfitter_cfg.c **** #define BS_DSI3_0_HV_ROUTING_VAL ((const uint8 CYFAR *)0x48000B20u)
 267:Generated_Source\PSoC5/cyfitter_cfg.c **** 
 268:Generated_Source\PSoC5/cyfitter_cfg.c **** /* DSI3_1_HV_ROUTING Address: CYDEV_UCFG_DSI8_BASE + 0x00000080u Size (bytes): 128 */
 269:Generated_Source\PSoC5/cyfitter_cfg.c **** #define BS_DSI3_1_HV_ROUTING_VAL ((const uint8 CYFAR *)0x48000BA0u)
 270:Generated_Source\PSoC5/cyfitter_cfg.c **** 
 271:Generated_Source\PSoC5/cyfitter_cfg.c **** /* DSI3_2_HV_ROUTING Address: CYDEV_UCFG_DSI3_BASE + 0x00000080u Size (bytes): 128 */
 272:Generated_Source\PSoC5/cyfitter_cfg.c **** #define BS_DSI3_2_HV_ROUTING_VAL ((const uint8 CYFAR *)0x48000C20u)
 273:Generated_Source\PSoC5/cyfitter_cfg.c **** 
 274:Generated_Source\PSoC5/cyfitter_cfg.c **** /* DSISWITCH_1_3 Address: CYDEV_UCFG_DSI2_BASE Size (bytes): 128 */
 275:Generated_Source\PSoC5/cyfitter_cfg.c **** #define BS_DSISWITCH_1_3_VAL ((const uint8 CYFAR *)0x48000CA0u)
 276:Generated_Source\PSoC5/cyfitter_cfg.c **** 
 277:Generated_Source\PSoC5/cyfitter_cfg.c **** /* DSI3_3_HV_ROUTING Address: CYDEV_UCFG_DSI2_BASE + 0x00000080u Size (bytes): 128 */
 278:Generated_Source\PSoC5/cyfitter_cfg.c **** #define BS_DSI3_3_HV_ROUTING_VAL ((const uint8 CYFAR *)0x48000D20u)
 279:Generated_Source\PSoC5/cyfitter_cfg.c **** 
 280:Generated_Source\PSoC5/cyfitter_cfg.c **** /* DSI3_4_HV_ROUTING Address: CYDEV_UCFG_DSI1_BASE + 0x00000080u Size (bytes): 128 */
ARM GAS  C:\Users\Joe\AppData\Local\Temp\ccXHBT7j.s 			page 15


 281:Generated_Source\PSoC5/cyfitter_cfg.c **** #define BS_DSI3_4_HV_ROUTING_VAL ((const uint8 CYFAR *)0x48000DA0u)
 282:Generated_Source\PSoC5/cyfitter_cfg.c **** 
 283:Generated_Source\PSoC5/cyfitter_cfg.c **** /* DSISWITCH_1_5 Address: CYDEV_UCFG_DSI0_BASE Size (bytes): 128 */
 284:Generated_Source\PSoC5/cyfitter_cfg.c **** #define BS_DSISWITCH_1_5_VAL ((const uint8 CYFAR *)0x48000E20u)
 285:Generated_Source\PSoC5/cyfitter_cfg.c **** 
 286:Generated_Source\PSoC5/cyfitter_cfg.c **** /* DSI3_5_HV_ROUTING Address: CYDEV_UCFG_DSI0_BASE + 0x00000080u Size (bytes): 128 */
 287:Generated_Source\PSoC5/cyfitter_cfg.c **** #define BS_DSI3_5_HV_ROUTING_VAL ((const uint8 CYFAR *)0x48000EA0u)
 288:Generated_Source\PSoC5/cyfitter_cfg.c **** 
 289:Generated_Source\PSoC5/cyfitter_cfg.c **** /* IOPINS0_7 Address: CYREG_PRT12_DM0 Size (bytes): 8 */
 290:Generated_Source\PSoC5/cyfitter_cfg.c **** #define BS_IOPINS0_7_VAL ((const uint8 CYFAR *)0x48000F20u)
 291:Generated_Source\PSoC5/cyfitter_cfg.c **** 
 292:Generated_Source\PSoC5/cyfitter_cfg.c **** /* IOPINS0_1 Address: CYREG_PRT1_DM0 Size (bytes): 8 */
 293:Generated_Source\PSoC5/cyfitter_cfg.c **** #define BS_IOPINS0_1_VAL ((const uint8 CYFAR *)0x48000F28u)
 294:Generated_Source\PSoC5/cyfitter_cfg.c **** 
 295:Generated_Source\PSoC5/cyfitter_cfg.c **** /* IOPINS0_2 Address: CYREG_PRT2_DM0 Size (bytes): 8 */
 296:Generated_Source\PSoC5/cyfitter_cfg.c **** #define BS_IOPINS0_2_VAL ((const uint8 CYFAR *)0x48000F30u)
 297:Generated_Source\PSoC5/cyfitter_cfg.c **** 
 298:Generated_Source\PSoC5/cyfitter_cfg.c **** /* IOPINS0_3 Address: CYREG_PRT3_DM0 Size (bytes): 8 */
 299:Generated_Source\PSoC5/cyfitter_cfg.c **** #define BS_IOPINS0_3_VAL ((const uint8 CYFAR *)0x48000F38u)
 300:Generated_Source\PSoC5/cyfitter_cfg.c **** 
 301:Generated_Source\PSoC5/cyfitter_cfg.c **** 
 302:Generated_Source\PSoC5/cyfitter_cfg.c **** /*******************************************************************************
 303:Generated_Source\PSoC5/cyfitter_cfg.c **** * Function Name: cfg_dma_init
 304:Generated_Source\PSoC5/cyfitter_cfg.c **** ********************************************************************************
 305:Generated_Source\PSoC5/cyfitter_cfg.c **** * Summary:
 306:Generated_Source\PSoC5/cyfitter_cfg.c **** *  This function is used to copy device configuration data from constant values
 307:Generated_Source\PSoC5/cyfitter_cfg.c **** *  stored in memory into the proper chip configuration registers using DMA.  It
 308:Generated_Source\PSoC5/cyfitter_cfg.c **** *  pulls data out of the CFG_TD_LISTs to know exactly how/what to configure.
 309:Generated_Source\PSoC5/cyfitter_cfg.c **** *
 310:Generated_Source\PSoC5/cyfitter_cfg.c **** * Parameters:  
 311:Generated_Source\PSoC5/cyfitter_cfg.c **** *   void
 312:Generated_Source\PSoC5/cyfitter_cfg.c **** *
 313:Generated_Source\PSoC5/cyfitter_cfg.c **** * Return:
 314:Generated_Source\PSoC5/cyfitter_cfg.c **** *   void
 315:Generated_Source\PSoC5/cyfitter_cfg.c **** *
 316:Generated_Source\PSoC5/cyfitter_cfg.c **** *******************************************************************************/
 317:Generated_Source\PSoC5/cyfitter_cfg.c **** static void cfg_dma_init(void);
 318:Generated_Source\PSoC5/cyfitter_cfg.c **** static void cfg_dma_init(void)
 319:Generated_Source\PSoC5/cyfitter_cfg.c **** {
 519              		.loc 1 319 0
 520              		.cfi_startproc
 521              		@ args = 0, pretend = 0, frame = 8
 522              		@ frame_needed = 1, uses_anonymous_args = 0
 523              		@ link register save eliminated.
 524 0000 80B4     		push	{r7}
 525              		.cfi_def_cfa_offset 4
 526              		.cfi_offset 7, -4
 527 0002 83B0     		sub	sp, sp, #12
 528              		.cfi_def_cfa_offset 16
 529 0004 00AF     		add	r7, sp, #0
 530              		.cfi_def_cfa_register 7
 320:Generated_Source\PSoC5/cyfitter_cfg.c **** 	/* TD structure for little-endian systems. Does not require endian swap */
 321:Generated_Source\PSoC5/cyfitter_cfg.c **** 	CYPACKED struct td_t {
 322:Generated_Source\PSoC5/cyfitter_cfg.c **** 		uint16 size;
 323:Generated_Source\PSoC5/cyfitter_cfg.c **** 		uint8 next_td_ptr;
 324:Generated_Source\PSoC5/cyfitter_cfg.c **** 		uint8 flags;
 325:Generated_Source\PSoC5/cyfitter_cfg.c **** 		uint16 src;
ARM GAS  C:\Users\Joe\AppData\Local\Temp\ccXHBT7j.s 			page 16


 326:Generated_Source\PSoC5/cyfitter_cfg.c **** 		uint16 dest;
 327:Generated_Source\PSoC5/cyfitter_cfg.c **** 	} CYPACKED_ATTR;
 328:Generated_Source\PSoC5/cyfitter_cfg.c **** 
 329:Generated_Source\PSoC5/cyfitter_cfg.c **** 	/* PHUB_CH1_CFGMEM_CFG0/1 initialization data */
 330:Generated_Source\PSoC5/cyfitter_cfg.c **** 	DMAINITSEC static const uint8 CYCODE CH1_ADDR_DATA0[] = { 0x01u, 0x00u, 0x00u, 0x00u, 0x00u, 0x20u
 331:Generated_Source\PSoC5/cyfitter_cfg.c **** 
 332:Generated_Source\PSoC5/cyfitter_cfg.c **** 	/* PHUB_CH2_CFGMEM_CFG0/1 initialization data */
 333:Generated_Source\PSoC5/cyfitter_cfg.c **** 	DMAINITSEC static const uint8 CYCODE CH2_ADDR_DATA0[] = { 0x01u, 0x00u, 0x00u, 0x00u, 0x00u, 0x20u
 334:Generated_Source\PSoC5/cyfitter_cfg.c **** 
 335:Generated_Source\PSoC5/cyfitter_cfg.c **** 	/* PHUB_CH5_CFGMEM_CFG0/1 initialization data */
 336:Generated_Source\PSoC5/cyfitter_cfg.c **** 	DMAINITSEC static const uint8 CYCODE CH5_ADDR_DATA0[] = { 0x01u, 0x00u, 0x00u, 0x00u, 0x00u, 0x48u
 337:Generated_Source\PSoC5/cyfitter_cfg.c **** 
 338:Generated_Source\PSoC5/cyfitter_cfg.c **** 	/* PHUB_CH6_CFGMEM_CFG0/1 initialization data */
 339:Generated_Source\PSoC5/cyfitter_cfg.c **** 	DMAINITSEC static const uint8 CYCODE CH6_ADDR_DATA0[] = { 0x01u, 0x00u, 0x00u, 0x00u, 0x00u, 0x48u
 340:Generated_Source\PSoC5/cyfitter_cfg.c **** 
 341:Generated_Source\PSoC5/cyfitter_cfg.c **** 	/* Initialization data for each DMA channel's TD registers */
 342:Generated_Source\PSoC5/cyfitter_cfg.c **** 	DMAINITSEC static const uint8 CYCODE DMA_TD_START_CMD[] = { 0x01u, 0x00u, 0x00u, 0x00u, 0x01u };
 343:Generated_Source\PSoC5/cyfitter_cfg.c **** 
 344:Generated_Source\PSoC5/cyfitter_cfg.c **** 	CYALIGNED static uint32 CYXDATA DMA_ZERO_VAL;
 345:Generated_Source\PSoC5/cyfitter_cfg.c **** 
 346:Generated_Source\PSoC5/cyfitter_cfg.c **** 	/* This table holds all of the initialization data necessary for the DMA
 347:Generated_Source\PSoC5/cyfitter_cfg.c **** 	   process to transfer data from the source location to the destination. */
 348:Generated_Source\PSoC5/cyfitter_cfg.c **** 	/* Source addresses can be relocated, but only when in 32bit addresses.
 349:Generated_Source\PSoC5/cyfitter_cfg.c **** 	   Because the standard TD table only has 16bit addresses, we generate a
 350:Generated_Source\PSoC5/cyfitter_cfg.c **** 	   separate CFG_TD_ADDR table for the source addresses that supports 32bit
 351:Generated_Source\PSoC5/cyfitter_cfg.c **** 	   addresses. */
 352:Generated_Source\PSoC5/cyfitter_cfg.c **** 	DMAINITSEC static const struct td_t CYCODE CFG_TD_LIST0[] = {
 353:Generated_Source\PSoC5/cyfitter_cfg.c **** 		/* Size, Next, Flags, Source, Destination */
 354:Generated_Source\PSoC5/cyfitter_cfg.c **** 		{ 8u, 0x02u, 0x23u, (uint16)(uint32)(0u), (uint16)(CYREG_PHUB_CFGMEM1_CFG0) },	/* TD 1 */
 355:Generated_Source\PSoC5/cyfitter_cfg.c **** 		{ 8u, 0x03u, 0x23u, (uint16)(uint32)(0u), (uint16)(CYREG_PHUB_CFGMEM2_CFG0) },	/* TD 2 */
 356:Generated_Source\PSoC5/cyfitter_cfg.c **** 		{ 8u, 0x04u, 0x23u, (uint16)(uint32)(0u), (uint16)(CYREG_PHUB_CFGMEM5_CFG0) },	/* TD 3 */
 357:Generated_Source\PSoC5/cyfitter_cfg.c **** 		{ 8u, 0x05u, 0x23u, (uint16)(uint32)(0u), (uint16)(CYREG_PHUB_CFGMEM6_CFG0) },	/* TD 4 */
 358:Generated_Source\PSoC5/cyfitter_cfg.c **** 		{ 5u, 0x06u, 0x23u, (uint16)(uint32)(0u), (uint16)(CYREG_PHUB_CH1_BASIC_CFG) },	/* TD 5 */
 359:Generated_Source\PSoC5/cyfitter_cfg.c **** 		{ 5u, 0x07u, 0x23u, (uint16)(uint32)(0u), (uint16)(CYREG_PHUB_CH2_BASIC_CFG) },	/* TD 6 */
 360:Generated_Source\PSoC5/cyfitter_cfg.c **** 		{ 5u, 0x08u, 0x23u, (uint16)(uint32)(0u), (uint16)(CYREG_PHUB_CH5_BASIC_CFG) },	/* TD 7 */
 361:Generated_Source\PSoC5/cyfitter_cfg.c **** 		{ 5u, 0xFEu, 0x23u, (uint16)(uint32)(0u), (uint16)(CYREG_PHUB_CH6_BASIC_CFG) },	/* TD 8 */
 362:Generated_Source\PSoC5/cyfitter_cfg.c **** 		{ 16u, 0x0Au, 0x22u, (uint16)(uint32)(0u), (uint16)(CYREG_PRT0_DR) },	/* TD 9 */
 363:Generated_Source\PSoC5/cyfitter_cfg.c **** 		{ 48u, 0x0Bu, 0x22u, (uint16)(uint32)(0u), (uint16)(CYREG_PRT4_DR) },	/* TD 10 */
 364:Generated_Source\PSoC5/cyfitter_cfg.c **** 		{ 16u, 0xFEu, 0x22u, (uint16)(uint32)(0u), (uint16)(CYREG_PRT15_DR) },	/* TD 11 */
 365:Generated_Source\PSoC5/cyfitter_cfg.c **** 		{ 896u, 0x0Du, 0x22u, (uint16)(uint32)(0u), (uint16)(CYDEV_UCFG_B0_P0_U0_BASE) },	/* TD 12 */
 366:Generated_Source\PSoC5/cyfitter_cfg.c **** 		{ 896u, 0x0Eu, 0x22u, (uint16)(uint32)(0u), (uint16)(CYDEV_UCFG_B0_P4_U0_BASE) },	/* TD 13 */
 367:Generated_Source\PSoC5/cyfitter_cfg.c **** 		{ 1024u, 0x0Fu, 0x22u, (uint16)(uint32)(0u), (uint16)(CYDEV_UCFG_B0_P6_U0_BASE) },	/* TD 14 */
 368:Generated_Source\PSoC5/cyfitter_cfg.c **** 		{ 384u, 0x10u, 0x22u, (uint16)(uint32)(0u), (uint16)(CYDEV_UCFG_B1_P2_U0_BASE) },	/* TD 15 */
 369:Generated_Source\PSoC5/cyfitter_cfg.c **** 		{ 1024u, 0x11u, 0x22u, (uint16)(uint32)(0u), (uint16)(CYDEV_UCFG_B1_P4_U0_BASE) },	/* TD 16 */
 370:Generated_Source\PSoC5/cyfitter_cfg.c **** 		{ 128u, 0x12u, 0x22u, (uint16)(uint32)(0u), (uint16)(CYDEV_UCFG_DSI1_BASE) },	/* TD 17 */
 371:Generated_Source\PSoC5/cyfitter_cfg.c **** 		{ 128u, 0x13u, 0x22u, (uint16)(uint32)(0u), (uint16)(CYDEV_UCFG_DSI3_BASE) },	/* TD 18 */
 372:Generated_Source\PSoC5/cyfitter_cfg.c **** 		{ 128u, 0x14u, 0x22u, (uint16)(uint32)(0u), (uint16)(CYDEV_UCFG_DSI6_BASE) },	/* TD 19 */
 373:Generated_Source\PSoC5/cyfitter_cfg.c **** 		{ 384u, 0x15u, 0x22u, (uint16)(uint32)(0u), (uint16)(CYDEV_UCFG_DSI7_BASE) },	/* TD 20 */
 374:Generated_Source\PSoC5/cyfitter_cfg.c **** 		{ 512u, 0xFEu, 0x22u, (uint16)(uint32)(0u), (uint16)(CYDEV_UCFG_DSI12_BASE) },	/* TD 21 */
 375:Generated_Source\PSoC5/cyfitter_cfg.c **** 		{ 7u, 0x17u, 0x23u, (uint16)(uint32)(0u), (uint16)(CYDEV_PRTDSI_PRT2_BASE) },	/* TD 22 */
 376:Generated_Source\PSoC5/cyfitter_cfg.c **** 		{ 7u, 0x18u, 0x23u, (uint16)(uint32)(0u), (uint16)(CYDEV_PRTDSI_PRT3_BASE) },	/* TD 23 */
 377:Generated_Source\PSoC5/cyfitter_cfg.c **** 		{ 6u, 0x19u, 0x23u, (uint16)(uint32)(0u), (uint16)(CYDEV_PRTDSI_PRT12_BASE) },	/* TD 24 */
 378:Generated_Source\PSoC5/cyfitter_cfg.c **** 		{ 64u, 0x1Au, 0x23u, (uint16)(uint32)(0u), (uint16)(CYDEV_UWRK_UWRK8_B0_BASE) },	/* TD 25 */
 379:Generated_Source\PSoC5/cyfitter_cfg.c **** 		{ 32u, 0xFEu, 0x23u, (uint16)(uint32)(0u), (uint16)(CYDEV_UWRK_UWRK8_B0_BASE + 0x00000070u) },	/*
 380:Generated_Source\PSoC5/cyfitter_cfg.c **** 		{ 8u, 0x1Cu, 0x23u, (uint16)(uint32)(0u), (uint16)(CYREG_IDMUX_IRQ_CTL0) },	/* TD 27 */
 381:Generated_Source\PSoC5/cyfitter_cfg.c **** 		{ 128u, 0x1Du, 0x23u, (uint16)(uint32)(0u), (uint16)(CYDEV_UCFG_B0_P2_U0_BASE) },	/* TD 28 */
 382:Generated_Source\PSoC5/cyfitter_cfg.c **** 		{ 128u, 0x1Eu, 0x23u, (uint16)(uint32)(0u), (uint16)(CYDEV_UCFG_B0_P2_U1_BASE) },	/* TD 29 */
ARM GAS  C:\Users\Joe\AppData\Local\Temp\ccXHBT7j.s 			page 17


 383:Generated_Source\PSoC5/cyfitter_cfg.c **** 		{ 128u, 0x1Fu, 0x23u, (uint16)(uint32)(0u), (uint16)(CYDEV_UCFG_B0_P3_U0_BASE) },	/* TD 30 */
 384:Generated_Source\PSoC5/cyfitter_cfg.c **** 		{ 128u, 0x20u, 0x23u, (uint16)(uint32)(0u), (uint16)(CYDEV_UCFG_B0_P3_U1_BASE) },	/* TD 31 */
 385:Generated_Source\PSoC5/cyfitter_cfg.c **** 		{ 128u, 0x21u, 0x23u, (uint16)(uint32)(0u), (uint16)(CYDEV_UCFG_B1_P3_U0_BASE) },	/* TD 32 */
 386:Generated_Source\PSoC5/cyfitter_cfg.c **** 		{ 128u, 0x22u, 0x23u, (uint16)(uint32)(0u), (uint16)(CYDEV_UCFG_B1_P3_U1_BASE) },	/* TD 33 */
 387:Generated_Source\PSoC5/cyfitter_cfg.c **** 		{ 16u, 0x23u, 0x23u, (uint16)(uint32)(0u), (uint16)(CYREG_BCTL1_MDCLK_EN) },	/* TD 34 */
 388:Generated_Source\PSoC5/cyfitter_cfg.c **** 		{ 16u, 0x24u, 0x23u, (uint16)(uint32)(0u), (uint16)(CYREG_BCTL0_MDCLK_EN) },	/* TD 35 */
 389:Generated_Source\PSoC5/cyfitter_cfg.c **** 		{ 128u, 0x25u, 0x23u, (uint16)(uint32)(0u), (uint16)(CYDEV_UCFG_DSI6_BASE + 0x00000080u) },	/* TD
 390:Generated_Source\PSoC5/cyfitter_cfg.c **** 		{ 128u, 0x26u, 0x23u, (uint16)(uint32)(0u), (uint16)(CYDEV_UCFG_DSI5_BASE) },	/* TD 37 */
 391:Generated_Source\PSoC5/cyfitter_cfg.c **** 		{ 128u, 0x27u, 0x23u, (uint16)(uint32)(0u), (uint16)(CYDEV_UCFG_DSI5_BASE + 0x00000080u) },	/* TD
 392:Generated_Source\PSoC5/cyfitter_cfg.c **** 		{ 128u, 0x28u, 0x23u, (uint16)(uint32)(0u), (uint16)(CYDEV_UCFG_DSI4_BASE) },	/* TD 39 */
 393:Generated_Source\PSoC5/cyfitter_cfg.c **** 		{ 128u, 0x29u, 0x23u, (uint16)(uint32)(0u), (uint16)(CYDEV_UCFG_DSI4_BASE + 0x00000080u) },	/* TD
 394:Generated_Source\PSoC5/cyfitter_cfg.c **** 		{ 128u, 0x2Au, 0x23u, (uint16)(uint32)(0u), (uint16)(CYDEV_UCFG_B1_P2_ROUTE_BASE + 0x00000080u) }
 395:Generated_Source\PSoC5/cyfitter_cfg.c **** 		{ 128u, 0x2Bu, 0x23u, (uint16)(uint32)(0u), (uint16)(CYDEV_UCFG_B1_P3_ROUTE_BASE) },	/* TD 42 */
 396:Generated_Source\PSoC5/cyfitter_cfg.c **** 		{ 128u, 0x2Cu, 0x23u, (uint16)(uint32)(0u), (uint16)(CYDEV_UCFG_B1_P3_ROUTE_BASE + 0x00000080u) }
 397:Generated_Source\PSoC5/cyfitter_cfg.c **** 		{ 128u, 0x2Du, 0x23u, (uint16)(uint32)(0u), (uint16)(CYDEV_UCFG_B0_P3_ROUTE_BASE) },	/* TD 44 */
 398:Generated_Source\PSoC5/cyfitter_cfg.c **** 		{ 128u, 0x2Eu, 0x23u, (uint16)(uint32)(0u), (uint16)(CYDEV_UCFG_B0_P3_ROUTE_BASE + 0x00000080u) }
 399:Generated_Source\PSoC5/cyfitter_cfg.c **** 		{ 128u, 0x2Fu, 0x23u, (uint16)(uint32)(0u), (uint16)(CYDEV_UCFG_B0_P5_ROUTE_BASE + 0x00000080u) }
 400:Generated_Source\PSoC5/cyfitter_cfg.c **** 		{ 128u, 0x30u, 0x23u, (uint16)(uint32)(0u), (uint16)(CYDEV_UCFG_B0_P2_ROUTE_BASE) },	/* TD 47 */
 401:Generated_Source\PSoC5/cyfitter_cfg.c **** 		{ 128u, 0x31u, 0x23u, (uint16)(uint32)(0u), (uint16)(CYDEV_UCFG_B0_P2_ROUTE_BASE + 0x00000080u) }
 402:Generated_Source\PSoC5/cyfitter_cfg.c **** 		{ 128u, 0x32u, 0x23u, (uint16)(uint32)(0u), (uint16)(CYDEV_UCFG_B0_P1_ROUTE_BASE + 0x00000080u) }
 403:Generated_Source\PSoC5/cyfitter_cfg.c **** 		{ 128u, 0x33u, 0x23u, (uint16)(uint32)(0u), (uint16)(CYDEV_UCFG_DSI9_BASE) },	/* TD 50 */
 404:Generated_Source\PSoC5/cyfitter_cfg.c **** 		{ 128u, 0x34u, 0x23u, (uint16)(uint32)(0u), (uint16)(CYDEV_UCFG_DSI9_BASE + 0x00000080u) },	/* TD
 405:Generated_Source\PSoC5/cyfitter_cfg.c **** 		{ 128u, 0x35u, 0x23u, (uint16)(uint32)(0u), (uint16)(CYDEV_UCFG_DSI8_BASE + 0x00000080u) },	/* TD
 406:Generated_Source\PSoC5/cyfitter_cfg.c **** 		{ 128u, 0x36u, 0x23u, (uint16)(uint32)(0u), (uint16)(CYDEV_UCFG_DSI3_BASE + 0x00000080u) },	/* TD
 407:Generated_Source\PSoC5/cyfitter_cfg.c **** 		{ 128u, 0x37u, 0x23u, (uint16)(uint32)(0u), (uint16)(CYDEV_UCFG_DSI2_BASE) },	/* TD 54 */
 408:Generated_Source\PSoC5/cyfitter_cfg.c **** 		{ 128u, 0x38u, 0x23u, (uint16)(uint32)(0u), (uint16)(CYDEV_UCFG_DSI2_BASE + 0x00000080u) },	/* TD
 409:Generated_Source\PSoC5/cyfitter_cfg.c **** 		{ 128u, 0x39u, 0x23u, (uint16)(uint32)(0u), (uint16)(CYDEV_UCFG_DSI1_BASE + 0x00000080u) },	/* TD
 410:Generated_Source\PSoC5/cyfitter_cfg.c **** 		{ 128u, 0x3Au, 0x23u, (uint16)(uint32)(0u), (uint16)(CYDEV_UCFG_DSI0_BASE) },	/* TD 57 */
 411:Generated_Source\PSoC5/cyfitter_cfg.c **** 		{ 128u, 0xFEu, 0x23u, (uint16)(uint32)(0u), (uint16)(CYDEV_UCFG_DSI0_BASE + 0x00000080u) },	/* TD
 412:Generated_Source\PSoC5/cyfitter_cfg.c **** 	};
 413:Generated_Source\PSoC5/cyfitter_cfg.c **** 
 414:Generated_Source\PSoC5/cyfitter_cfg.c **** 	/* Source addresses can be relocated, but only when in 32bit addresses.
 415:Generated_Source\PSoC5/cyfitter_cfg.c **** 	   Because the standard TD table only has 16bit addresses, we generate a
 416:Generated_Source\PSoC5/cyfitter_cfg.c **** 	   separate table for the source addresses that does use 32bit addresses. This
 417:Generated_Source\PSoC5/cyfitter_cfg.c **** 	   table will be re-merged with the corresponding CFG_TD_LIST table during
 418:Generated_Source\PSoC5/cyfitter_cfg.c **** 	   initialization. */
 419:Generated_Source\PSoC5/cyfitter_cfg.c **** 	static const void * const CFG_TD_ADDR0[] = {
 420:Generated_Source\PSoC5/cyfitter_cfg.c **** 		(const void *)(CH1_ADDR_DATA0),	/* TD 1 */
 421:Generated_Source\PSoC5/cyfitter_cfg.c **** 		(const void *)(CH2_ADDR_DATA0),	/* TD 2 */
 422:Generated_Source\PSoC5/cyfitter_cfg.c **** 		(const void *)(CH5_ADDR_DATA0),	/* TD 3 */
 423:Generated_Source\PSoC5/cyfitter_cfg.c **** 		(const void *)(CH6_ADDR_DATA0),	/* TD 4 */
 424:Generated_Source\PSoC5/cyfitter_cfg.c **** 		(const void *)(DMA_TD_START_CMD),	/* TD 5 */
 425:Generated_Source\PSoC5/cyfitter_cfg.c **** 		(const void *)(DMA_TD_START_CMD),	/* TD 6 */
 426:Generated_Source\PSoC5/cyfitter_cfg.c **** 		(const void *)(DMA_TD_START_CMD),	/* TD 7 */
 427:Generated_Source\PSoC5/cyfitter_cfg.c **** 		(const void *)(DMA_TD_START_CMD),	/* TD 8 */
 428:Generated_Source\PSoC5/cyfitter_cfg.c **** 		(const void *)(&DMA_ZERO_VAL),	/* TD 9 */
 429:Generated_Source\PSoC5/cyfitter_cfg.c **** 		(const void *)(&DMA_ZERO_VAL),	/* TD 10 */
 430:Generated_Source\PSoC5/cyfitter_cfg.c **** 		(const void *)(&DMA_ZERO_VAL),	/* TD 11 */
 431:Generated_Source\PSoC5/cyfitter_cfg.c **** 		(const void *)(&DMA_ZERO_VAL),	/* TD 12 */
 432:Generated_Source\PSoC5/cyfitter_cfg.c **** 		(const void *)(&DMA_ZERO_VAL),	/* TD 13 */
 433:Generated_Source\PSoC5/cyfitter_cfg.c **** 		(const void *)(&DMA_ZERO_VAL),	/* TD 14 */
 434:Generated_Source\PSoC5/cyfitter_cfg.c **** 		(const void *)(&DMA_ZERO_VAL),	/* TD 15 */
 435:Generated_Source\PSoC5/cyfitter_cfg.c **** 		(const void *)(&DMA_ZERO_VAL),	/* TD 16 */
 436:Generated_Source\PSoC5/cyfitter_cfg.c **** 		(const void *)(&DMA_ZERO_VAL),	/* TD 17 */
 437:Generated_Source\PSoC5/cyfitter_cfg.c **** 		(const void *)(&DMA_ZERO_VAL),	/* TD 18 */
 438:Generated_Source\PSoC5/cyfitter_cfg.c **** 		(const void *)(&DMA_ZERO_VAL),	/* TD 19 */
 439:Generated_Source\PSoC5/cyfitter_cfg.c **** 		(const void *)(&DMA_ZERO_VAL),	/* TD 20 */
ARM GAS  C:\Users\Joe\AppData\Local\Temp\ccXHBT7j.s 			page 18


 440:Generated_Source\PSoC5/cyfitter_cfg.c **** 		(const void *)(&DMA_ZERO_VAL),	/* TD 21 */
 441:Generated_Source\PSoC5/cyfitter_cfg.c **** 		(const void *)(BS_IOPORT_2_VAL),	/* TD 22 */
 442:Generated_Source\PSoC5/cyfitter_cfg.c **** 		(const void *)(BS_IOPORT_3_VAL),	/* TD 23 */
 443:Generated_Source\PSoC5/cyfitter_cfg.c **** 		(const void *)(BS_IOPORT_7_VAL),	/* TD 24 */
 444:Generated_Source\PSoC5/cyfitter_cfg.c **** 		(const void *)(BS_UWRK_B0_WRK_DP_BITS_VAL),	/* TD 25 */
 445:Generated_Source\PSoC5/cyfitter_cfg.c **** 		(const void *)(BS_UWRK_B0_WRK_STATCTL_BITS_VAL),	/* TD 26 */
 446:Generated_Source\PSoC5/cyfitter_cfg.c **** 		(const void *)(BS_IDMUX_IRQ_VAL),	/* TD 27 */
 447:Generated_Source\PSoC5/cyfitter_cfg.c **** 		(const void *)(BS_UDB_1_3_0_CONFIG_VAL),	/* TD 28 */
 448:Generated_Source\PSoC5/cyfitter_cfg.c **** 		(const void *)(BS_UDB_1_3_1_CONFIG_VAL),	/* TD 29 */
 449:Generated_Source\PSoC5/cyfitter_cfg.c **** 		(const void *)(BS_UDB_1_2_1_CONFIG_VAL),	/* TD 30 */
 450:Generated_Source\PSoC5/cyfitter_cfg.c **** 		(const void *)(BS_UDB_1_2_0_CONFIG_VAL),	/* TD 31 */
 451:Generated_Source\PSoC5/cyfitter_cfg.c **** 		(const void *)(BS_UDB_1_1_1_CONFIG_VAL),	/* TD 32 */
 452:Generated_Source\PSoC5/cyfitter_cfg.c **** 		(const void *)(BS_UDB_1_1_0_CONFIG_VAL),	/* TD 33 */
 453:Generated_Source\PSoC5/cyfitter_cfg.c **** 		(const void *)(BS_UCFG_BCTL1_VAL),	/* TD 34 */
 454:Generated_Source\PSoC5/cyfitter_cfg.c **** 		(const void *)(BS_UCFG_BCTL0_VAL),	/* TD 35 */
 455:Generated_Source\PSoC5/cyfitter_cfg.c **** 		(const void *)(BS_DSI0_3_HV_ROUTING_VAL),	/* TD 36 */
 456:Generated_Source\PSoC5/cyfitter_cfg.c **** 		(const void *)(BS_DSISWITCH_0_4_VAL),	/* TD 37 */
 457:Generated_Source\PSoC5/cyfitter_cfg.c **** 		(const void *)(BS_DSI0_4_HV_ROUTING_VAL),	/* TD 38 */
 458:Generated_Source\PSoC5/cyfitter_cfg.c **** 		(const void *)(BS_DSISWITCH_0_5_VAL),	/* TD 39 */
 459:Generated_Source\PSoC5/cyfitter_cfg.c **** 		(const void *)(BS_DSI0_5_HV_ROUTING_VAL),	/* TD 40 */
 460:Generated_Source\PSoC5/cyfitter_cfg.c **** 		(const void *)(BS_UDB_2_0_HV_ROUTING_VAL),	/* TD 41 */
 461:Generated_Source\PSoC5/cyfitter_cfg.c **** 		(const void *)(BS_UDBSWITCH_1_1_VAL),	/* TD 42 */
 462:Generated_Source\PSoC5/cyfitter_cfg.c **** 		(const void *)(BS_UDB_2_1_HV_ROUTING_VAL),	/* TD 43 */
 463:Generated_Source\PSoC5/cyfitter_cfg.c **** 		(const void *)(BS_UDBSWITCH_1_2_VAL),	/* TD 44 */
 464:Generated_Source\PSoC5/cyfitter_cfg.c **** 		(const void *)(BS_UDB_2_2_HV_ROUTING_VAL),	/* TD 45 */
 465:Generated_Source\PSoC5/cyfitter_cfg.c **** 		(const void *)(BS_UDB_1_3_HV_ROUTING_VAL),	/* TD 46 */
 466:Generated_Source\PSoC5/cyfitter_cfg.c **** 		(const void *)(BS_UDBSWITCH_1_3_VAL),	/* TD 47 */
 467:Generated_Source\PSoC5/cyfitter_cfg.c **** 		(const void *)(BS_UDB_2_3_HV_ROUTING_VAL),	/* TD 48 */
 468:Generated_Source\PSoC5/cyfitter_cfg.c **** 		(const void *)(BS_UDB_2_4_HV_ROUTING_VAL),	/* TD 49 */
 469:Generated_Source\PSoC5/cyfitter_cfg.c **** 		(const void *)(BS_DSISWITCH_1_0_VAL),	/* TD 50 */
 470:Generated_Source\PSoC5/cyfitter_cfg.c **** 		(const void *)(BS_DSI3_0_HV_ROUTING_VAL),	/* TD 51 */
 471:Generated_Source\PSoC5/cyfitter_cfg.c **** 		(const void *)(BS_DSI3_1_HV_ROUTING_VAL),	/* TD 52 */
 472:Generated_Source\PSoC5/cyfitter_cfg.c **** 		(const void *)(BS_DSI3_2_HV_ROUTING_VAL),	/* TD 53 */
 473:Generated_Source\PSoC5/cyfitter_cfg.c **** 		(const void *)(BS_DSISWITCH_1_3_VAL),	/* TD 54 */
 474:Generated_Source\PSoC5/cyfitter_cfg.c **** 		(const void *)(BS_DSI3_3_HV_ROUTING_VAL),	/* TD 55 */
 475:Generated_Source\PSoC5/cyfitter_cfg.c **** 		(const void *)(BS_DSI3_4_HV_ROUTING_VAL),	/* TD 56 */
 476:Generated_Source\PSoC5/cyfitter_cfg.c **** 		(const void *)(BS_DSISWITCH_1_5_VAL),	/* TD 57 */
 477:Generated_Source\PSoC5/cyfitter_cfg.c **** 		(const void *)(BS_DSI3_5_HV_ROUTING_VAL),	/* TD 58 */
 478:Generated_Source\PSoC5/cyfitter_cfg.c **** 	};
 479:Generated_Source\PSoC5/cyfitter_cfg.c **** 
 480:Generated_Source\PSoC5/cyfitter_cfg.c **** 
 481:Generated_Source\PSoC5/cyfitter_cfg.c **** 	uint32 i;
 482:Generated_Source\PSoC5/cyfitter_cfg.c **** 
 483:Generated_Source\PSoC5/cyfitter_cfg.c **** 	DMA_ZERO_VAL = 0u;
 531              		.loc 1 483 0
 532 0006 434B     		ldr	r3, .L15
 533 0008 0022     		movs	r2, #0
 534 000a 1A60     		str	r2, [r3]
 484:Generated_Source\PSoC5/cyfitter_cfg.c **** 	CY_SET_REG8((void CYXDATA *)CYREG_PHUB_CFGMEM0_CFG0, 0x10u);	/* set burstcnt */
 535              		.loc 1 484 0
 536 000c 424B     		ldr	r3, .L15+4
 537 000e 1022     		movs	r2, #16
 538 0010 1A70     		strb	r2, [r3]
 485:Generated_Source\PSoC5/cyfitter_cfg.c **** 	CY_SET_REG8((void CYXDATA *)CYREG_PHUB_CH0_BASIC_CFG, 0x01u);	/* enable ch0 */
 539              		.loc 1 485 0
 540 0012 424B     		ldr	r3, .L15+8
 541 0014 0122     		movs	r2, #1
ARM GAS  C:\Users\Joe\AppData\Local\Temp\ccXHBT7j.s 			page 19


 542 0016 1A70     		strb	r2, [r3]
 486:Generated_Source\PSoC5/cyfitter_cfg.c **** 	CY_SET_REG8((void CYXDATA *)(CYREG_PHUB_CH0_BASIC_STATUS+1u), 0x00u);	/* set first TD to 0 */
 543              		.loc 1 486 0
 544 0018 414B     		ldr	r3, .L15+12
 545 001a 0022     		movs	r2, #0
 546 001c 1A70     		strb	r2, [r3]
 487:Generated_Source\PSoC5/cyfitter_cfg.c **** 	CY_SET_REG16((void CYXDATA *)CYREG_PHUB_TDMEM0_ORIG_TD0, 58u*8u);	/* transfer size */
 547              		.loc 1 487 0
 548 001e 414B     		ldr	r3, .L15+16
 549 0020 4FF4E872 		mov	r2, #464
 550 0024 1A80     		strh	r2, [r3]	@ movhi
 488:Generated_Source\PSoC5/cyfitter_cfg.c **** 	CY_SET_REG8((void CYXDATA *)(CYREG_PHUB_TDMEM0_ORIG_TD0+2u), 0x01u);	/* set next TD to 1 */
 551              		.loc 1 488 0
 552 0026 404B     		ldr	r3, .L15+20
 553 0028 0122     		movs	r2, #1
 554 002a 1A70     		strb	r2, [r3]
 489:Generated_Source\PSoC5/cyfitter_cfg.c **** 	CY_SET_REG8((void CYXDATA *)(CYREG_PHUB_TDMEM0_ORIG_TD0+3u), 0x03u);	/* set TD flags */
 555              		.loc 1 489 0
 556 002c 3F4B     		ldr	r3, .L15+24
 557 002e 0322     		movs	r2, #3
 558 0030 1A70     		strb	r2, [r3]
 490:Generated_Source\PSoC5/cyfitter_cfg.c **** 	CY_SET_REG16((void CYXDATA *)CYREG_PHUB_TDMEM0_ORIG_TD1, (uint16)((uint32)CFG_TD_LIST0 & 0x0000FFF
 559              		.loc 1 490 0
 560 0032 3F4B     		ldr	r3, .L15+28
 561 0034 3F4A     		ldr	r2, .L15+32
 562 0036 92B2     		uxth	r2, r2
 563 0038 1A80     		strh	r2, [r3]	@ movhi
 491:Generated_Source\PSoC5/cyfitter_cfg.c **** 	CY_SET_REG16((void CYXDATA *)(CYREG_PHUB_TDMEM0_ORIG_TD1+2u), CYDEV_PHUB_TDMEM1_BASE);	/* set td0'
 564              		.loc 1 491 0
 565 003a 3F4B     		ldr	r3, .L15+36
 566 003c 47F60802 		movw	r2, #30728
 567 0040 1A80     		strh	r2, [r3]	@ movhi
 492:Generated_Source\PSoC5/cyfitter_cfg.c **** 	CY_SET_REG16((void CYXDATA *)CYREG_PHUB_CFGMEM0_CFG1, (uint16)(CYDEV_FLASH_BASE >> 16));	/* set ch
 568              		.loc 1 492 0
 569 0042 3E4B     		ldr	r3, .L15+40
 570 0044 0022     		movs	r2, #0
 571 0046 1A80     		strh	r2, [r3]	@ movhi
 493:Generated_Source\PSoC5/cyfitter_cfg.c **** 	CY_SET_REG16((void CYXDATA *)(CYREG_PHUB_CFGMEM0_CFG1+2u), (uint16)(CYDEV_PHUB_TDMEM1_BASE >> 16))
 572              		.loc 1 493 0
 573 0048 3D4B     		ldr	r3, .L15+44
 574 004a 4FF48042 		mov	r2, #16384
 575 004e 1A80     		strh	r2, [r3]	@ movhi
 494:Generated_Source\PSoC5/cyfitter_cfg.c **** 	CY_SET_REG8((void CYXDATA *)(CYREG_PHUB_CH1_BASIC_STATUS+1u), 0x09u);	/* ch1 first TD: 9 */
 576              		.loc 1 494 0
 577 0050 3C4B     		ldr	r3, .L15+48
 578 0052 0922     		movs	r2, #9
 579 0054 1A70     		strb	r2, [r3]
 495:Generated_Source\PSoC5/cyfitter_cfg.c **** 	CY_SET_REG8((void CYXDATA *)(CYREG_PHUB_CH2_BASIC_STATUS+1u), 0x0Cu);	/* ch2 first TD: 12 */
 580              		.loc 1 495 0
 581 0056 3C4B     		ldr	r3, .L15+52
 582 0058 0C22     		movs	r2, #12
 583 005a 1A70     		strb	r2, [r3]
 496:Generated_Source\PSoC5/cyfitter_cfg.c **** 	CY_SET_REG8((void CYXDATA *)(CYREG_PHUB_CH5_BASIC_STATUS+1u), 0x16u);	/* ch5 first TD: 22 */
 584              		.loc 1 496 0
 585 005c 3B4B     		ldr	r3, .L15+56
 586 005e 1622     		movs	r2, #22
 587 0060 1A70     		strb	r2, [r3]
ARM GAS  C:\Users\Joe\AppData\Local\Temp\ccXHBT7j.s 			page 20


 497:Generated_Source\PSoC5/cyfitter_cfg.c **** 	CY_SET_REG8((void CYXDATA *)(CYREG_PHUB_CH6_BASIC_STATUS+1u), 0x1Bu);	/* ch6 first TD: 27 */
 588              		.loc 1 497 0
 589 0062 3B4B     		ldr	r3, .L15+60
 590 0064 1B22     		movs	r2, #27
 591 0066 1A70     		strb	r2, [r3]
 498:Generated_Source\PSoC5/cyfitter_cfg.c **** 
 499:Generated_Source\PSoC5/cyfitter_cfg.c **** 	CY_CFG_MEMORY_BARRIER();
 592              		.loc 1 499 0
 593 0068 BFF35F8F 		dmb	sy
 500:Generated_Source\PSoC5/cyfitter_cfg.c **** 	CY_SET_REG8((void CYXDATA *)CYREG_PHUB_CH0_ACTION, 0x01u); /* cpu_req */
 594              		.loc 1 500 0
 595 006c 394B     		ldr	r3, .L15+64
 596 006e 0122     		movs	r2, #1
 597 0070 1A70     		strb	r2, [r3]
 501:Generated_Source\PSoC5/cyfitter_cfg.c **** 	CY_CFG_MEMORY_BARRIER();
 598              		.loc 1 501 0
 599 0072 BFF35F8F 		dmb	sy
 502:Generated_Source\PSoC5/cyfitter_cfg.c **** 
 503:Generated_Source\PSoC5/cyfitter_cfg.c **** 	/* Wait for TDs to be copied into TDMEM */
 504:Generated_Source\PSoC5/cyfitter_cfg.c **** 	while (CY_GET_REG16((void CYXDATA *)CYREG_PHUB_TDMEM0_ORIG_TD0) != 0u) { }
 600              		.loc 1 504 0
 601 0076 00BF     		nop
 602              	.L7:
 603              		.loc 1 504 0 is_stmt 0 discriminator 1
 604 0078 2A4B     		ldr	r3, .L15+16
 605 007a 1B88     		ldrh	r3, [r3]	@ movhi
 606 007c 9BB2     		uxth	r3, r3
 607 007e 002B     		cmp	r3, #0
 608 0080 FAD1     		bne	.L7
 505:Generated_Source\PSoC5/cyfitter_cfg.c **** 
 506:Generated_Source\PSoC5/cyfitter_cfg.c **** 	/* Recombine TD source table (CFG_TD_ADDR0) with full TD table (CFG_TD_LIST0) */
 507:Generated_Source\PSoC5/cyfitter_cfg.c **** 	for (i = 0u; i < 58u; i++)
 609              		.loc 1 507 0 is_stmt 1
 610 0082 0023     		movs	r3, #0
 611 0084 7B60     		str	r3, [r7, #4]
 612 0086 0DE0     		b	.L8
 613              	.L9:
 508:Generated_Source\PSoC5/cyfitter_cfg.c **** 	{
 509:Generated_Source\PSoC5/cyfitter_cfg.c **** 		CY_SET_REG16((void CYXDATA *)(CYREG_PHUB_TDMEM1_ORIG_TD1 + (sizeof(struct td_t)*i)), (uint16)(uin
 614              		.loc 1 509 0 discriminator 3
 615 0088 7B68     		ldr	r3, [r7, #4]
 616 008a DA00     		lsls	r2, r3, #3
 617 008c 324B     		ldr	r3, .L15+68
 618 008e 1344     		add	r3, r3, r2
 619 0090 1946     		mov	r1, r3
 620 0092 324A     		ldr	r2, .L15+72
 621 0094 7B68     		ldr	r3, [r7, #4]
 622 0096 52F82330 		ldr	r3, [r2, r3, lsl #2]
 623 009a 9BB2     		uxth	r3, r3
 624 009c 0B80     		strh	r3, [r1]	@ movhi
 507:Generated_Source\PSoC5/cyfitter_cfg.c **** 	{
 625              		.loc 1 507 0 discriminator 3
 626 009e 7B68     		ldr	r3, [r7, #4]
 627 00a0 0133     		adds	r3, r3, #1
 628 00a2 7B60     		str	r3, [r7, #4]
 629              	.L8:
 507:Generated_Source\PSoC5/cyfitter_cfg.c **** 	{
ARM GAS  C:\Users\Joe\AppData\Local\Temp\ccXHBT7j.s 			page 21


 630              		.loc 1 507 0 is_stmt 0 discriminator 1
 631 00a4 7B68     		ldr	r3, [r7, #4]
 632 00a6 392B     		cmp	r3, #57
 633 00a8 EED9     		bls	.L9
 510:Generated_Source\PSoC5/cyfitter_cfg.c **** 	}
 511:Generated_Source\PSoC5/cyfitter_cfg.c **** 
 512:Generated_Source\PSoC5/cyfitter_cfg.c **** 	CY_CFG_MEMORY_BARRIER();
 634              		.loc 1 512 0 is_stmt 1
 635 00aa BFF35F8F 		dmb	sy
 513:Generated_Source\PSoC5/cyfitter_cfg.c **** 	CY_SET_REG8((void CYXDATA *)CYREG_PHUB_CH0_ACTION, 0x01u); /* cpu_req */
 636              		.loc 1 513 0
 637 00ae 294B     		ldr	r3, .L15+64
 638 00b0 0122     		movs	r2, #1
 639 00b2 1A70     		strb	r2, [r3]
 514:Generated_Source\PSoC5/cyfitter_cfg.c **** 	CY_CFG_MEMORY_BARRIER();
 640              		.loc 1 514 0
 641 00b4 BFF35F8F 		dmb	sy
 515:Generated_Source\PSoC5/cyfitter_cfg.c **** 
 516:Generated_Source\PSoC5/cyfitter_cfg.c **** 	/* Wait for all DMA transfers to complete */
 517:Generated_Source\PSoC5/cyfitter_cfg.c **** 	while(0u != (CY_GET_REG8((void CYXDATA *)CYREG_PHUB_CH0_BASIC_STATUS) & 0x01u)){}
 642              		.loc 1 517 0
 643 00b8 00BF     		nop
 644              	.L10:
 645              		.loc 1 517 0 is_stmt 0 discriminator 1
 646 00ba 294B     		ldr	r3, .L15+76
 647 00bc 1B78     		ldrb	r3, [r3]
 648 00be DBB2     		uxtb	r3, r3
 649 00c0 03F00103 		and	r3, r3, #1
 650 00c4 002B     		cmp	r3, #0
 651 00c6 F8D1     		bne	.L10
 518:Generated_Source\PSoC5/cyfitter_cfg.c **** 	while(0u != (CY_GET_REG8((void CYXDATA *)CYREG_PHUB_CH1_BASIC_STATUS) & 0x01u)){}
 652              		.loc 1 518 0 is_stmt 1
 653 00c8 00BF     		nop
 654              	.L11:
 655              		.loc 1 518 0 is_stmt 0 discriminator 1
 656 00ca 264B     		ldr	r3, .L15+80
 657 00cc 1B78     		ldrb	r3, [r3]
 658 00ce DBB2     		uxtb	r3, r3
 659 00d0 03F00103 		and	r3, r3, #1
 660 00d4 002B     		cmp	r3, #0
 661 00d6 F8D1     		bne	.L11
 519:Generated_Source\PSoC5/cyfitter_cfg.c **** 	while(0u != (CY_GET_REG8((void CYXDATA *)CYREG_PHUB_CH2_BASIC_STATUS) & 0x01u)){}
 662              		.loc 1 519 0 is_stmt 1
 663 00d8 00BF     		nop
 664              	.L12:
 665              		.loc 1 519 0 is_stmt 0 discriminator 1
 666 00da 234B     		ldr	r3, .L15+84
 667 00dc 1B78     		ldrb	r3, [r3]
 668 00de DBB2     		uxtb	r3, r3
 669 00e0 03F00103 		and	r3, r3, #1
 670 00e4 002B     		cmp	r3, #0
 671 00e6 F8D1     		bne	.L12
 520:Generated_Source\PSoC5/cyfitter_cfg.c **** 	while(0u != (CY_GET_REG8((void CYXDATA *)CYREG_PHUB_CH5_BASIC_STATUS) & 0x01u)){}
 672              		.loc 1 520 0 is_stmt 1
 673 00e8 00BF     		nop
 674              	.L13:
 675              		.loc 1 520 0 is_stmt 0 discriminator 1
ARM GAS  C:\Users\Joe\AppData\Local\Temp\ccXHBT7j.s 			page 22


 676 00ea 204B     		ldr	r3, .L15+88
 677 00ec 1B78     		ldrb	r3, [r3]
 678 00ee DBB2     		uxtb	r3, r3
 679 00f0 03F00103 		and	r3, r3, #1
 680 00f4 002B     		cmp	r3, #0
 681 00f6 F8D1     		bne	.L13
 521:Generated_Source\PSoC5/cyfitter_cfg.c **** 	while(0u != (CY_GET_REG8((void CYXDATA *)CYREG_PHUB_CH6_BASIC_STATUS) & 0x01u)){}
 682              		.loc 1 521 0 is_stmt 1
 683 00f8 00BF     		nop
 684              	.L14:
 685              		.loc 1 521 0 is_stmt 0 discriminator 1
 686 00fa 1D4B     		ldr	r3, .L15+92
 687 00fc 1B78     		ldrb	r3, [r3]
 688 00fe DBB2     		uxtb	r3, r3
 689 0100 03F00103 		and	r3, r3, #1
 690 0104 002B     		cmp	r3, #0
 691 0106 F8D1     		bne	.L14
 522:Generated_Source\PSoC5/cyfitter_cfg.c **** 
 523:Generated_Source\PSoC5/cyfitter_cfg.c **** 
 524:Generated_Source\PSoC5/cyfitter_cfg.c **** }
 692              		.loc 1 524 0 is_stmt 1
 693 0108 00BF     		nop
 694 010a 0C37     		adds	r7, r7, #12
 695              		.cfi_def_cfa_offset 4
 696 010c BD46     		mov	sp, r7
 697              		.cfi_def_cfa_register 13
 698              		@ sp needed
 699 010e 80BC     		pop	{r7}
 700              		.cfi_restore 7
 701              		.cfi_def_cfa_offset 0
 702 0110 7047     		bx	lr
 703              	.L16:
 704 0112 00BF     		.align	2
 705              	.L15:
 706 0114 00000000 		.word	DMA_ZERO_VAL.4971
 707 0118 00760040 		.word	1073772032
 708 011c 10700040 		.word	1073770512
 709 0120 19700040 		.word	1073770521
 710 0124 00780040 		.word	1073772544
 711 0128 02780040 		.word	1073772546
 712 012c 03780040 		.word	1073772547
 713 0130 04780040 		.word	1073772548
 714 0134 28000000 		.word	CFG_TD_LIST0.4972
 715 0138 06780040 		.word	1073772550
 716 013c 04760040 		.word	1073772036
 717 0140 06760040 		.word	1073772038
 718 0144 29700040 		.word	1073770537
 719 0148 39700040 		.word	1073770553
 720 014c 69700040 		.word	1073770601
 721 0150 79700040 		.word	1073770617
 722 0154 14700040 		.word	1073770516
 723 0158 0C780040 		.word	1073772556
 724 015c 00000000 		.word	CFG_TD_ADDR0.4973
 725 0160 18700040 		.word	1073770520
 726 0164 28700040 		.word	1073770536
 727 0168 38700040 		.word	1073770552
 728 016c 68700040 		.word	1073770600
ARM GAS  C:\Users\Joe\AppData\Local\Temp\ccXHBT7j.s 			page 23


 729 0170 78700040 		.word	1073770616
 730              		.cfi_endproc
 731              	.LFE4:
 732              		.size	cfg_dma_init, .-cfg_dma_init
 733              		.section	.text.ClockSetup,"ax",%progbits
 734              		.align	2
 735              		.thumb
 736              		.thumb_func
 737              		.type	ClockSetup, %function
 738              	ClockSetup:
 739              	.LFB5:
 525:Generated_Source\PSoC5/cyfitter_cfg.c **** /*******************************************************************************
 526:Generated_Source\PSoC5/cyfitter_cfg.c **** * Function Name: ClockSetup
 527:Generated_Source\PSoC5/cyfitter_cfg.c **** ********************************************************************************
 528:Generated_Source\PSoC5/cyfitter_cfg.c **** *
 529:Generated_Source\PSoC5/cyfitter_cfg.c **** * Summary:
 530:Generated_Source\PSoC5/cyfitter_cfg.c **** *  Performs the initialization of all of the clocks in the device based on the
 531:Generated_Source\PSoC5/cyfitter_cfg.c **** *  settings in the Clock tab of the DWR.  This includes enabling the requested
 532:Generated_Source\PSoC5/cyfitter_cfg.c **** *  clocks and setting the necessary dividers to produce the desired frequency. 
 533:Generated_Source\PSoC5/cyfitter_cfg.c **** *
 534:Generated_Source\PSoC5/cyfitter_cfg.c **** * Parameters:
 535:Generated_Source\PSoC5/cyfitter_cfg.c **** *  void
 536:Generated_Source\PSoC5/cyfitter_cfg.c **** *
 537:Generated_Source\PSoC5/cyfitter_cfg.c **** * Return:
 538:Generated_Source\PSoC5/cyfitter_cfg.c **** *  void
 539:Generated_Source\PSoC5/cyfitter_cfg.c **** *
 540:Generated_Source\PSoC5/cyfitter_cfg.c **** *******************************************************************************/
 541:Generated_Source\PSoC5/cyfitter_cfg.c **** static void ClockSetup(void);
 542:Generated_Source\PSoC5/cyfitter_cfg.c **** static void ClockSetup(void)
 543:Generated_Source\PSoC5/cyfitter_cfg.c **** {
 740              		.loc 1 543 0
 741              		.cfi_startproc
 742              		@ args = 0, pretend = 0, frame = 8
 743              		@ frame_needed = 1, uses_anonymous_args = 0
 744 0000 80B5     		push	{r7, lr}
 745              		.cfi_def_cfa_offset 8
 746              		.cfi_offset 7, -8
 747              		.cfi_offset 14, -4
 748 0002 82B0     		sub	sp, sp, #8
 749              		.cfi_def_cfa_offset 16
 750 0004 00AF     		add	r7, sp, #0
 751              		.cfi_def_cfa_register 7
 544:Generated_Source\PSoC5/cyfitter_cfg.c **** 	uint32 timeout;
 545:Generated_Source\PSoC5/cyfitter_cfg.c **** 	uint8 pllLock;
 546:Generated_Source\PSoC5/cyfitter_cfg.c **** 
 547:Generated_Source\PSoC5/cyfitter_cfg.c **** 
 548:Generated_Source\PSoC5/cyfitter_cfg.c **** 	/* Configure Digital Clocks based on settings from Clock DWR */
 549:Generated_Source\PSoC5/cyfitter_cfg.c **** 	CY_SET_XTND_REG16((void CYFAR *)(CYREG_CLKDIST_DCFG0_CFG0), 0x000Bu);
 752              		.loc 1 549 0
 753 0006 304B     		ldr	r3, .L22
 754 0008 0B22     		movs	r2, #11
 755 000a 1A80     		strh	r2, [r3]	@ movhi
 550:Generated_Source\PSoC5/cyfitter_cfg.c **** 	CY_SET_XTND_REG8((void CYFAR *)(CYREG_CLKDIST_DCFG0_CFG0 + 0x2u), 0x18u);
 756              		.loc 1 550 0
 757 000c 2F4B     		ldr	r3, .L22+4
 758 000e 1822     		movs	r2, #24
 759 0010 1A70     		strb	r2, [r3]
ARM GAS  C:\Users\Joe\AppData\Local\Temp\ccXHBT7j.s 			page 24


 551:Generated_Source\PSoC5/cyfitter_cfg.c **** 
 552:Generated_Source\PSoC5/cyfitter_cfg.c **** 	/* Configure ILO based on settings from Clock DWR */
 553:Generated_Source\PSoC5/cyfitter_cfg.c **** 	CY_SET_XTND_REG8((void CYFAR *)(CYREG_SLOWCLK_ILO_CR0), 0x02u);
 760              		.loc 1 553 0
 761 0012 2F4B     		ldr	r3, .L22+8
 762 0014 0222     		movs	r2, #2
 763 0016 1A70     		strb	r2, [r3]
 554:Generated_Source\PSoC5/cyfitter_cfg.c **** 	CY_SET_XTND_REG8((void CYFAR *)(CYREG_CLKDIST_CR), 0x08u);
 764              		.loc 1 554 0
 765 0018 4FF04023 		mov	r3, #1073758208
 766 001c 0822     		movs	r2, #8
 767 001e 1A70     		strb	r2, [r3]
 555:Generated_Source\PSoC5/cyfitter_cfg.c **** 
 556:Generated_Source\PSoC5/cyfitter_cfg.c **** 	/* Configure IMO based on settings from Clock DWR */
 557:Generated_Source\PSoC5/cyfitter_cfg.c **** 	CY_SET_XTND_REG8((void CYFAR *)(CYREG_FASTCLK_IMO_CR), 0x03u);
 768              		.loc 1 557 0
 769 0020 2C4B     		ldr	r3, .L22+12
 770 0022 0322     		movs	r2, #3
 771 0024 1A70     		strb	r2, [r3]
 558:Generated_Source\PSoC5/cyfitter_cfg.c **** 	CY_SET_XTND_REG8((void CYFAR *)(CYREG_IMO_TR1), (CY_GET_XTND_REG8((void CYFAR *)CYREG_FLSHID_CUST_
 772              		.loc 1 558 0
 773 0026 2C4B     		ldr	r3, .L22+16
 774 0028 2C4A     		ldr	r2, .L22+20
 775 002a 1278     		ldrb	r2, [r2]
 776 002c D2B2     		uxtb	r2, r2
 777 002e 1A70     		strb	r2, [r3]
 559:Generated_Source\PSoC5/cyfitter_cfg.c **** 
 560:Generated_Source\PSoC5/cyfitter_cfg.c **** 	/* Configure PLL based on settings from Clock DWR */
 561:Generated_Source\PSoC5/cyfitter_cfg.c **** 	CY_SET_XTND_REG16((void CYFAR *)(CYREG_FASTCLK_PLL_P), 0x0008u);
 778              		.loc 1 561 0
 779 0030 2B4B     		ldr	r3, .L22+24
 780 0032 0822     		movs	r2, #8
 781 0034 1A80     		strh	r2, [r3]	@ movhi
 562:Generated_Source\PSoC5/cyfitter_cfg.c **** 	CY_SET_XTND_REG16((void CYFAR *)(CYREG_FASTCLK_PLL_CFG0), 0x1251u);
 782              		.loc 1 562 0
 783 0036 2B4B     		ldr	r3, .L22+28
 784 0038 41F25122 		movw	r2, #4689
 785 003c 1A80     		strh	r2, [r3]	@ movhi
 563:Generated_Source\PSoC5/cyfitter_cfg.c **** 	/* Wait up to 250us for the PLL to lock */
 564:Generated_Source\PSoC5/cyfitter_cfg.c **** 	pllLock = 0u;
 786              		.loc 1 564 0
 787 003e 0023     		movs	r3, #0
 788 0040 FB70     		strb	r3, [r7, #3]
 565:Generated_Source\PSoC5/cyfitter_cfg.c **** 	for (timeout = 250u / 10u; (timeout > 0u) && (pllLock != 0x03u); timeout--)
 789              		.loc 1 565 0
 790 0042 1923     		movs	r3, #25
 791 0044 7B60     		str	r3, [r7, #4]
 792 0046 13E0     		b	.L18
 793              	.L20:
 566:Generated_Source\PSoC5/cyfitter_cfg.c **** 	{ 
 567:Generated_Source\PSoC5/cyfitter_cfg.c **** 		pllLock = 0x03u & ((uint8)((uint8)pllLock << 1) | ((CY_GET_XTND_REG8((void CYFAR *)CYREG_FASTCLK_
 794              		.loc 1 567 0 discriminator 4
 795 0048 FB78     		ldrb	r3, [r7, #3]
 796 004a 5B00     		lsls	r3, r3, #1
 797 004c DAB2     		uxtb	r2, r3
 798 004e 264B     		ldr	r3, .L22+32
 799 0050 1B78     		ldrb	r3, [r3]
ARM GAS  C:\Users\Joe\AppData\Local\Temp\ccXHBT7j.s 			page 25


 800 0052 DBB2     		uxtb	r3, r3
 801 0054 03F00103 		and	r3, r3, #1
 802 0058 DBB2     		uxtb	r3, r3
 803 005a 1343     		orrs	r3, r3, r2
 804 005c DBB2     		uxtb	r3, r3
 805 005e 03F00303 		and	r3, r3, #3
 806 0062 FB70     		strb	r3, [r7, #3]
 568:Generated_Source\PSoC5/cyfitter_cfg.c **** 		CyDelayCycles(10u * 12u); /* Delay 10us based on 12MHz clock */
 807              		.loc 1 568 0 discriminator 4
 808 0064 7820     		movs	r0, #120
 809 0066 FFF7FEFF 		bl	CyDelayCycles
 565:Generated_Source\PSoC5/cyfitter_cfg.c **** 	for (timeout = 250u / 10u; (timeout > 0u) && (pllLock != 0x03u); timeout--)
 810              		.loc 1 565 0 discriminator 4
 811 006a 7B68     		ldr	r3, [r7, #4]
 812 006c 013B     		subs	r3, r3, #1
 813 006e 7B60     		str	r3, [r7, #4]
 814              	.L18:
 565:Generated_Source\PSoC5/cyfitter_cfg.c **** 	for (timeout = 250u / 10u; (timeout > 0u) && (pllLock != 0x03u); timeout--)
 815              		.loc 1 565 0 is_stmt 0 discriminator 1
 816 0070 7B68     		ldr	r3, [r7, #4]
 817 0072 002B     		cmp	r3, #0
 818 0074 02D0     		beq	.L19
 565:Generated_Source\PSoC5/cyfitter_cfg.c **** 	for (timeout = 250u / 10u; (timeout > 0u) && (pllLock != 0x03u); timeout--)
 819              		.loc 1 565 0 discriminator 3
 820 0076 FB78     		ldrb	r3, [r7, #3]	@ zero_extendqisi2
 821 0078 032B     		cmp	r3, #3
 822 007a E5D1     		bne	.L20
 823              	.L19:
 569:Generated_Source\PSoC5/cyfitter_cfg.c **** 	}
 570:Generated_Source\PSoC5/cyfitter_cfg.c **** 	/* If we ran out of time the PLL didn't lock so go to the error function */
 571:Generated_Source\PSoC5/cyfitter_cfg.c **** 	if (timeout == 0u)
 824              		.loc 1 571 0 is_stmt 1
 825 007c 7B68     		ldr	r3, [r7, #4]
 826 007e 002B     		cmp	r3, #0
 827 0080 02D1     		bne	.L21
 572:Generated_Source\PSoC5/cyfitter_cfg.c **** 	{
 573:Generated_Source\PSoC5/cyfitter_cfg.c **** 		CyClockStartupError(CYCLOCKSTART_PLL_ERROR);
 828              		.loc 1 573 0
 829 0082 0320     		movs	r0, #3
 830 0084 FFF7FEFF 		bl	CyClockStartupError
 831              	.L21:
 574:Generated_Source\PSoC5/cyfitter_cfg.c **** 	}
 575:Generated_Source\PSoC5/cyfitter_cfg.c **** 
 576:Generated_Source\PSoC5/cyfitter_cfg.c **** 	/* Configure Bus/Master Clock based on settings from Clock DWR */
 577:Generated_Source\PSoC5/cyfitter_cfg.c **** 	CY_SET_XTND_REG16((void CYFAR *)(CYREG_CLKDIST_MSTR0), 0x0100u);
 832              		.loc 1 577 0
 833 0088 184B     		ldr	r3, .L22+36
 834 008a 4FF48072 		mov	r2, #256
 835 008e 1A80     		strh	r2, [r3]	@ movhi
 578:Generated_Source\PSoC5/cyfitter_cfg.c **** 	CY_SET_XTND_REG8((void CYFAR *)(CYREG_CLKDIST_MSTR0), 0x07u);
 836              		.loc 1 578 0
 837 0090 164B     		ldr	r3, .L22+36
 838 0092 0722     		movs	r2, #7
 839 0094 1A70     		strb	r2, [r3]
 579:Generated_Source\PSoC5/cyfitter_cfg.c **** 	CY_SET_XTND_REG8((void CYFAR *)(CYREG_CLKDIST_BCFG0), 0x00u);
 840              		.loc 1 579 0
 841 0096 164B     		ldr	r3, .L22+40
ARM GAS  C:\Users\Joe\AppData\Local\Temp\ccXHBT7j.s 			page 26


 842 0098 0022     		movs	r2, #0
 843 009a 1A70     		strb	r2, [r3]
 580:Generated_Source\PSoC5/cyfitter_cfg.c **** 	CY_SET_XTND_REG8((void CYFAR *)(CYREG_CLKDIST_BCFG2), 0x48u);
 844              		.loc 1 580 0
 845 009c 154B     		ldr	r3, .L22+44
 846 009e 4822     		movs	r2, #72
 847 00a0 1A70     		strb	r2, [r3]
 581:Generated_Source\PSoC5/cyfitter_cfg.c **** 	CY_SET_XTND_REG8((void CYFAR *)(CYREG_CLKDIST_MSTR0), 0x00u);
 848              		.loc 1 581 0
 849 00a2 124B     		ldr	r3, .L22+36
 850 00a4 0022     		movs	r2, #0
 851 00a6 1A70     		strb	r2, [r3]
 582:Generated_Source\PSoC5/cyfitter_cfg.c **** 	CY_SET_XTND_REG8((void CYFAR *)(CYREG_CLKDIST_LD), 0x02u);
 852              		.loc 1 582 0
 853 00a8 134B     		ldr	r3, .L22+48
 854 00aa 0222     		movs	r2, #2
 855 00ac 1A70     		strb	r2, [r3]
 583:Generated_Source\PSoC5/cyfitter_cfg.c **** 
 584:Generated_Source\PSoC5/cyfitter_cfg.c **** 	CY_SET_XTND_REG8((void CYFAR *)(CYREG_PM_ACT_CFG2), ((CY_GET_XTND_REG8((void CYFAR *)CYREG_PM_ACT_
 856              		.loc 1 584 0
 857 00ae 134A     		ldr	r2, .L22+52
 858 00b0 124B     		ldr	r3, .L22+52
 859 00b2 1B78     		ldrb	r3, [r3]
 860 00b4 DBB2     		uxtb	r3, r3
 861 00b6 43F00103 		orr	r3, r3, #1
 862 00ba DBB2     		uxtb	r3, r3
 863 00bc 1370     		strb	r3, [r2]
 585:Generated_Source\PSoC5/cyfitter_cfg.c **** }
 864              		.loc 1 585 0
 865 00be 00BF     		nop
 866 00c0 0837     		adds	r7, r7, #8
 867              		.cfi_def_cfa_offset 8
 868 00c2 BD46     		mov	sp, r7
 869              		.cfi_def_cfa_register 13
 870              		@ sp needed
 871 00c4 80BD     		pop	{r7, pc}
 872              	.L23:
 873 00c6 00BF     		.align	2
 874              	.L22:
 875 00c8 80400040 		.word	1073758336
 876 00cc 82400040 		.word	1073758338
 877 00d0 00430040 		.word	1073758976
 878 00d4 00420040 		.word	1073758720
 879 00d8 A1460040 		.word	1073759905
 880 00dc 08010049 		.word	1224737032
 881 00e0 22420040 		.word	1073758754
 882 00e4 20420040 		.word	1073758752
 883 00e8 25420040 		.word	1073758757
 884 00ec 04400040 		.word	1073758212
 885 00f0 06400040 		.word	1073758214
 886 00f4 08400040 		.word	1073758216
 887 00f8 01400040 		.word	1073758209
 888 00fc A2430040 		.word	1073759138
 889              		.cfi_endproc
 890              	.LFE5:
 891              		.size	ClockSetup, .-ClockSetup
 892              		.section	.text.AnalogSetDefault,"ax",%progbits
ARM GAS  C:\Users\Joe\AppData\Local\Temp\ccXHBT7j.s 			page 27


 893              		.align	2
 894              		.thumb
 895              		.thumb_func
 896              		.type	AnalogSetDefault, %function
 897              	AnalogSetDefault:
 898              	.LFB6:
 586:Generated_Source\PSoC5/cyfitter_cfg.c **** 
 587:Generated_Source\PSoC5/cyfitter_cfg.c **** 
 588:Generated_Source\PSoC5/cyfitter_cfg.c **** /* Analog API Functions */
 589:Generated_Source\PSoC5/cyfitter_cfg.c **** 
 590:Generated_Source\PSoC5/cyfitter_cfg.c **** 
 591:Generated_Source\PSoC5/cyfitter_cfg.c **** /*******************************************************************************
 592:Generated_Source\PSoC5/cyfitter_cfg.c **** * Function Name: AnalogSetDefault
 593:Generated_Source\PSoC5/cyfitter_cfg.c **** ********************************************************************************
 594:Generated_Source\PSoC5/cyfitter_cfg.c **** *
 595:Generated_Source\PSoC5/cyfitter_cfg.c **** * Summary:
 596:Generated_Source\PSoC5/cyfitter_cfg.c **** *  Sets up the analog portions of the chip to default values based on chip
 597:Generated_Source\PSoC5/cyfitter_cfg.c **** *  configuration options from the project.
 598:Generated_Source\PSoC5/cyfitter_cfg.c **** *
 599:Generated_Source\PSoC5/cyfitter_cfg.c **** * Parameters:
 600:Generated_Source\PSoC5/cyfitter_cfg.c **** *  void
 601:Generated_Source\PSoC5/cyfitter_cfg.c **** *
 602:Generated_Source\PSoC5/cyfitter_cfg.c **** * Return:
 603:Generated_Source\PSoC5/cyfitter_cfg.c **** *  void
 604:Generated_Source\PSoC5/cyfitter_cfg.c **** *
 605:Generated_Source\PSoC5/cyfitter_cfg.c **** *******************************************************************************/
 606:Generated_Source\PSoC5/cyfitter_cfg.c **** static void AnalogSetDefault(void);
 607:Generated_Source\PSoC5/cyfitter_cfg.c **** static void AnalogSetDefault(void)
 608:Generated_Source\PSoC5/cyfitter_cfg.c **** {
 899              		.loc 1 608 0
 900              		.cfi_startproc
 901              		@ args = 0, pretend = 0, frame = 8
 902              		@ frame_needed = 1, uses_anonymous_args = 0
 903              		@ link register save eliminated.
 904 0000 80B4     		push	{r7}
 905              		.cfi_def_cfa_offset 4
 906              		.cfi_offset 7, -4
 907 0002 83B0     		sub	sp, sp, #12
 908              		.cfi_def_cfa_offset 16
 909 0004 00AF     		add	r7, sp, #0
 910              		.cfi_def_cfa_register 7
 609:Generated_Source\PSoC5/cyfitter_cfg.c **** 	uint8 bg_xover_inl_trim = CY_GET_XTND_REG8((void CYFAR *)(CYREG_FLSHID_MFG_CFG_BG_XOVER_INL_TRIM +
 911              		.loc 1 609 0
 912 0006 0F4B     		ldr	r3, .L25
 913 0008 1B78     		ldrb	r3, [r3]
 914 000a FB71     		strb	r3, [r7, #7]
 610:Generated_Source\PSoC5/cyfitter_cfg.c **** 	CY_SET_XTND_REG8((void CYFAR *)(CYREG_BG_DFT0), (bg_xover_inl_trim & 0x07u));
 915              		.loc 1 610 0
 916 000c 0E4A     		ldr	r2, .L25+4
 917 000e FB79     		ldrb	r3, [r7, #7]
 918 0010 03F00703 		and	r3, r3, #7
 919 0014 DBB2     		uxtb	r3, r3
 920 0016 1370     		strb	r3, [r2]
 611:Generated_Source\PSoC5/cyfitter_cfg.c **** 	CY_SET_XTND_REG8((void CYFAR *)(CYREG_BG_DFT1), ((bg_xover_inl_trim >> 4) & 0x0Fu));
 921              		.loc 1 611 0
 922 0018 0C4A     		ldr	r2, .L25+8
 923 001a FB79     		ldrb	r3, [r7, #7]	@ zero_extendqisi2
ARM GAS  C:\Users\Joe\AppData\Local\Temp\ccXHBT7j.s 			page 28


 924 001c 1B09     		lsrs	r3, r3, #4
 925 001e DBB2     		uxtb	r3, r3
 926 0020 1370     		strb	r3, [r2]
 612:Generated_Source\PSoC5/cyfitter_cfg.c **** 	CY_SET_XTND_REG8((void CYFAR *)CYREG_PRT3_AG, 0x02u);
 927              		.loc 1 612 0
 928 0022 0B4B     		ldr	r3, .L25+12
 929 0024 0222     		movs	r2, #2
 930 0026 1A70     		strb	r2, [r3]
 613:Generated_Source\PSoC5/cyfitter_cfg.c **** 	CY_SET_XTND_REG8((void CYFAR *)CYREG_CMP1_SW0, 0x20u);
 931              		.loc 1 613 0
 932 0028 0A4B     		ldr	r3, .L25+16
 933 002a 2022     		movs	r2, #32
 934 002c 1A70     		strb	r2, [r3]
 614:Generated_Source\PSoC5/cyfitter_cfg.c **** 	CY_SET_XTND_REG8((void CYFAR *)CYREG_CMP1_SW3, 0x20u);
 935              		.loc 1 614 0
 936 002e 0A4B     		ldr	r3, .L25+20
 937 0030 2022     		movs	r2, #32
 938 0032 1A70     		strb	r2, [r3]
 615:Generated_Source\PSoC5/cyfitter_cfg.c **** 	CY_SET_XTND_REG8((void CYFAR *)CYREG_PUMP_CR0, 0x44u);
 939              		.loc 1 615 0
 940 0034 094B     		ldr	r3, .L25+24
 941 0036 4422     		movs	r2, #68
 942 0038 1A70     		strb	r2, [r3]
 616:Generated_Source\PSoC5/cyfitter_cfg.c **** }
 943              		.loc 1 616 0
 944 003a 00BF     		nop
 945 003c 0C37     		adds	r7, r7, #12
 946              		.cfi_def_cfa_offset 4
 947 003e BD46     		mov	sp, r7
 948              		.cfi_def_cfa_register 13
 949              		@ sp needed
 950 0040 80BC     		pop	{r7}
 951              		.cfi_restore 7
 952              		.cfi_def_cfa_offset 0
 953 0042 7047     		bx	lr
 954              	.L26:
 955              		.align	2
 956              	.L25:
 957 0044 CF010049 		.word	1224737231
 958 0048 6E580040 		.word	1073764462
 959 004c 6F580040 		.word	1073764463
 960 0050 3D510040 		.word	1073762621
 961 0054 C85A0040 		.word	1073765064
 962 0058 CB5A0040 		.word	1073765067
 963 005c 76580040 		.word	1073764470
 964              		.cfi_endproc
 965              	.LFE6:
 966              		.size	AnalogSetDefault, .-AnalogSetDefault
 967              		.section	.text.SetAnalogRoutingPumps,"ax",%progbits
 968              		.align	2
 969              		.global	SetAnalogRoutingPumps
 970              		.thumb
 971              		.thumb_func
 972              		.type	SetAnalogRoutingPumps, %function
 973              	SetAnalogRoutingPumps:
 974              	.LFB7:
 617:Generated_Source\PSoC5/cyfitter_cfg.c **** 
ARM GAS  C:\Users\Joe\AppData\Local\Temp\ccXHBT7j.s 			page 29


 618:Generated_Source\PSoC5/cyfitter_cfg.c **** 
 619:Generated_Source\PSoC5/cyfitter_cfg.c **** /*******************************************************************************
 620:Generated_Source\PSoC5/cyfitter_cfg.c **** * Function Name: SetAnalogRoutingPumps
 621:Generated_Source\PSoC5/cyfitter_cfg.c **** ********************************************************************************
 622:Generated_Source\PSoC5/cyfitter_cfg.c **** *
 623:Generated_Source\PSoC5/cyfitter_cfg.c **** * Summary:
 624:Generated_Source\PSoC5/cyfitter_cfg.c **** * Enables or disables the analog pumps feeding analog routing switches.
 625:Generated_Source\PSoC5/cyfitter_cfg.c **** * Intended to be called at startup, based on the Vdda system configuration;
 626:Generated_Source\PSoC5/cyfitter_cfg.c **** * may be called during operation when the user informs us that the Vdda voltage
 627:Generated_Source\PSoC5/cyfitter_cfg.c **** * crossed the pump threshold.
 628:Generated_Source\PSoC5/cyfitter_cfg.c **** *
 629:Generated_Source\PSoC5/cyfitter_cfg.c **** * Parameters:
 630:Generated_Source\PSoC5/cyfitter_cfg.c **** *  enabled - 1 to enable the pumps, 0 to disable the pumps
 631:Generated_Source\PSoC5/cyfitter_cfg.c **** *
 632:Generated_Source\PSoC5/cyfitter_cfg.c **** * Return:
 633:Generated_Source\PSoC5/cyfitter_cfg.c **** *  void
 634:Generated_Source\PSoC5/cyfitter_cfg.c **** *
 635:Generated_Source\PSoC5/cyfitter_cfg.c **** *******************************************************************************/
 636:Generated_Source\PSoC5/cyfitter_cfg.c **** void SetAnalogRoutingPumps(uint8 enabled)
 637:Generated_Source\PSoC5/cyfitter_cfg.c **** {
 975              		.loc 1 637 0
 976              		.cfi_startproc
 977              		@ args = 0, pretend = 0, frame = 16
 978              		@ frame_needed = 1, uses_anonymous_args = 0
 979              		@ link register save eliminated.
 980 0000 80B4     		push	{r7}
 981              		.cfi_def_cfa_offset 4
 982              		.cfi_offset 7, -4
 983 0002 85B0     		sub	sp, sp, #20
 984              		.cfi_def_cfa_offset 24
 985 0004 00AF     		add	r7, sp, #0
 986              		.cfi_def_cfa_register 7
 987 0006 0346     		mov	r3, r0
 988 0008 FB71     		strb	r3, [r7, #7]
 638:Generated_Source\PSoC5/cyfitter_cfg.c **** 	uint8 regValue = CY_GET_XTND_REG8((void CYFAR *)CYREG_PUMP_CR0);
 989              		.loc 1 638 0
 990 000a 0B4B     		ldr	r3, .L30
 991 000c 1B78     		ldrb	r3, [r3]
 992 000e FB73     		strb	r3, [r7, #15]
 639:Generated_Source\PSoC5/cyfitter_cfg.c **** 	if (enabled != 0u)
 993              		.loc 1 639 0
 994 0010 FB79     		ldrb	r3, [r7, #7]	@ zero_extendqisi2
 995 0012 002B     		cmp	r3, #0
 996 0014 04D0     		beq	.L28
 640:Generated_Source\PSoC5/cyfitter_cfg.c **** 	{
 641:Generated_Source\PSoC5/cyfitter_cfg.c **** 		regValue |= 0x22u;
 997              		.loc 1 641 0
 998 0016 FB7B     		ldrb	r3, [r7, #15]
 999 0018 43F02203 		orr	r3, r3, #34
 1000 001c FB73     		strb	r3, [r7, #15]
 1001 001e 03E0     		b	.L29
 1002              	.L28:
 642:Generated_Source\PSoC5/cyfitter_cfg.c **** 	}
 643:Generated_Source\PSoC5/cyfitter_cfg.c **** 	else
 644:Generated_Source\PSoC5/cyfitter_cfg.c **** 	{
 645:Generated_Source\PSoC5/cyfitter_cfg.c **** 		regValue &= (uint8)~0x22u;
 1003              		.loc 1 645 0
ARM GAS  C:\Users\Joe\AppData\Local\Temp\ccXHBT7j.s 			page 30


 1004 0020 FB7B     		ldrb	r3, [r7, #15]
 1005 0022 23F02203 		bic	r3, r3, #34
 1006 0026 FB73     		strb	r3, [r7, #15]
 1007              	.L29:
 646:Generated_Source\PSoC5/cyfitter_cfg.c **** 	}
 647:Generated_Source\PSoC5/cyfitter_cfg.c **** 	CY_SET_XTND_REG8((void CYFAR *)CYREG_PUMP_CR0, regValue);
 1008              		.loc 1 647 0
 1009 0028 034A     		ldr	r2, .L30
 1010 002a FB7B     		ldrb	r3, [r7, #15]
 1011 002c 1370     		strb	r3, [r2]
 648:Generated_Source\PSoC5/cyfitter_cfg.c **** }
 1012              		.loc 1 648 0
 1013 002e 00BF     		nop
 1014 0030 1437     		adds	r7, r7, #20
 1015              		.cfi_def_cfa_offset 4
 1016 0032 BD46     		mov	sp, r7
 1017              		.cfi_def_cfa_register 13
 1018              		@ sp needed
 1019 0034 80BC     		pop	{r7}
 1020              		.cfi_restore 7
 1021              		.cfi_def_cfa_offset 0
 1022 0036 7047     		bx	lr
 1023              	.L31:
 1024              		.align	2
 1025              	.L30:
 1026 0038 76580040 		.word	1073764470
 1027              		.cfi_endproc
 1028              	.LFE7:
 1029              		.size	SetAnalogRoutingPumps, .-SetAnalogRoutingPumps
 1030              		.section	.text.cyfitter_cfg,"ax",%progbits
 1031              		.align	2
 1032              		.global	cyfitter_cfg
 1033              		.thumb
 1034              		.thumb_func
 1035              		.type	cyfitter_cfg, %function
 1036              	cyfitter_cfg:
 1037              	.LFB8:
 649:Generated_Source\PSoC5/cyfitter_cfg.c **** 
 650:Generated_Source\PSoC5/cyfitter_cfg.c **** 
 651:Generated_Source\PSoC5/cyfitter_cfg.c **** 
 652:Generated_Source\PSoC5/cyfitter_cfg.c **** 
 653:Generated_Source\PSoC5/cyfitter_cfg.c **** /*******************************************************************************
 654:Generated_Source\PSoC5/cyfitter_cfg.c **** * Function Name: cyfitter_cfg
 655:Generated_Source\PSoC5/cyfitter_cfg.c **** ********************************************************************************
 656:Generated_Source\PSoC5/cyfitter_cfg.c **** * Summary:
 657:Generated_Source\PSoC5/cyfitter_cfg.c **** *  This function is called by the start-up code for the selected device. It
 658:Generated_Source\PSoC5/cyfitter_cfg.c **** *  performs all of the necessary device configuration based on the design
 659:Generated_Source\PSoC5/cyfitter_cfg.c **** *  settings.  This includes settings from the Design Wide Resources (DWR) such
 660:Generated_Source\PSoC5/cyfitter_cfg.c **** *  as Clocks and Pins as well as any component configuration that is necessary.
 661:Generated_Source\PSoC5/cyfitter_cfg.c **** *
 662:Generated_Source\PSoC5/cyfitter_cfg.c **** * Parameters:
 663:Generated_Source\PSoC5/cyfitter_cfg.c **** *   void
 664:Generated_Source\PSoC5/cyfitter_cfg.c **** *
 665:Generated_Source\PSoC5/cyfitter_cfg.c **** * Return:
 666:Generated_Source\PSoC5/cyfitter_cfg.c **** *   void
 667:Generated_Source\PSoC5/cyfitter_cfg.c **** *
 668:Generated_Source\PSoC5/cyfitter_cfg.c **** *******************************************************************************/
ARM GAS  C:\Users\Joe\AppData\Local\Temp\ccXHBT7j.s 			page 31


 669:Generated_Source\PSoC5/cyfitter_cfg.c **** 
 670:Generated_Source\PSoC5/cyfitter_cfg.c **** void cyfitter_cfg(void)
 671:Generated_Source\PSoC5/cyfitter_cfg.c **** {
 1038              		.loc 1 671 0
 1039              		.cfi_startproc
 1040              		@ args = 0, pretend = 0, frame = 0
 1041              		@ frame_needed = 1, uses_anonymous_args = 0
 1042 0000 80B5     		push	{r7, lr}
 1043              		.cfi_def_cfa_offset 8
 1044              		.cfi_offset 7, -8
 1045              		.cfi_offset 14, -4
 1046 0002 00AF     		add	r7, sp, #0
 1047              		.cfi_def_cfa_register 7
 672:Generated_Source\PSoC5/cyfitter_cfg.c **** #ifdef CYGlobalIntDisable
 673:Generated_Source\PSoC5/cyfitter_cfg.c **** 	/* Disable interrupts by default. Let user enable if/when they want. */
 674:Generated_Source\PSoC5/cyfitter_cfg.c **** 	CYGlobalIntDisable
 1048              		.loc 1 674 0
 1049              		.syntax unified
 1050              	@ 674 "Generated_Source\PSoC5\cyfitter_cfg.c" 1
 1051 0004 72B6     		CPSID   i
 1052              	@ 0 "" 2
 675:Generated_Source\PSoC5/cyfitter_cfg.c **** #endif
 676:Generated_Source\PSoC5/cyfitter_cfg.c **** 
 677:Generated_Source\PSoC5/cyfitter_cfg.c **** 
 678:Generated_Source\PSoC5/cyfitter_cfg.c **** 	/* Set Flash Cycles based on max possible frequency in case a glitch occurs during ClockSetup(). *
 679:Generated_Source\PSoC5/cyfitter_cfg.c **** 	CY_SET_XTND_REG8((void CYFAR *)(CYREG_CACHE_CC_CTL), (((CYDEV_INSTRUCT_CACHE_ENABLED) != 0) ? 0x61
 1053              		.loc 1 679 0
 1054              		.thumb
 1055              		.syntax unified
 1056 0006 2F4B     		ldr	r3, .L33
 1057 0008 6122     		movs	r2, #97
 1058 000a 1A70     		strb	r2, [r3]
 680:Generated_Source\PSoC5/cyfitter_cfg.c **** 	/* Setup clocks based on selections from Clock DWR */
 681:Generated_Source\PSoC5/cyfitter_cfg.c **** 	ClockSetup();
 1059              		.loc 1 681 0
 1060 000c FFF7FEFF 		bl	ClockSetup
 682:Generated_Source\PSoC5/cyfitter_cfg.c **** 	/* Set Flash Cycles based on newly configured 24.00MHz Bus Clock. */
 683:Generated_Source\PSoC5/cyfitter_cfg.c **** 	CY_SET_XTND_REG8((void CYFAR *)(CYREG_CACHE_CC_CTL), (((CYDEV_INSTRUCT_CACHE_ENABLED) != 0) ? 0x81
 1061              		.loc 1 683 0
 1062 0010 2C4B     		ldr	r3, .L33
 1063 0012 8122     		movs	r2, #129
 1064 0014 1A70     		strb	r2, [r3]
 684:Generated_Source\PSoC5/cyfitter_cfg.c **** 	/* Enable/Disable Debug functionality based on settings from System DWR */
 685:Generated_Source\PSoC5/cyfitter_cfg.c **** 	CY_SET_XTND_REG8((void CYFAR *)CYREG_MLOGIC_DEBUG, (CY_GET_XTND_REG8((void CYFAR *)CYREG_MLOGIC_DE
 1065              		.loc 1 685 0
 1066 0016 2C4A     		ldr	r2, .L33+4
 1067 0018 2B4B     		ldr	r3, .L33+4
 1068 001a 1B78     		ldrb	r3, [r3]
 1069 001c DBB2     		uxtb	r3, r3
 1070 001e 43F00403 		orr	r3, r3, #4
 1071 0022 DBB2     		uxtb	r3, r3
 1072 0024 1370     		strb	r3, [r2]
 686:Generated_Source\PSoC5/cyfitter_cfg.c **** 
 687:Generated_Source\PSoC5/cyfitter_cfg.c **** 	{
 688:Generated_Source\PSoC5/cyfitter_cfg.c **** 		cfg_dma_init();
 1073              		.loc 1 688 0
 1074 0026 FFF7FEFF 		bl	cfg_dma_init
ARM GAS  C:\Users\Joe\AppData\Local\Temp\ccXHBT7j.s 			page 32


 689:Generated_Source\PSoC5/cyfitter_cfg.c **** 
 690:Generated_Source\PSoC5/cyfitter_cfg.c **** 		/* Perform normal device configuration. Order is not critical for these items. */
 691:Generated_Source\PSoC5/cyfitter_cfg.c **** 		CY_SET_XTND_REG16((void CYFAR *)(CYREG_LUT1_CR), 0x0103u);
 1075              		.loc 1 691 0
 1076 002a 284B     		ldr	r3, .L33+8
 1077 002c 40F20312 		movw	r2, #259
 1078 0030 1A80     		strh	r2, [r3]	@ movhi
 692:Generated_Source\PSoC5/cyfitter_cfg.c **** 
 693:Generated_Source\PSoC5/cyfitter_cfg.c **** 		/* Enable digital routing */
 694:Generated_Source\PSoC5/cyfitter_cfg.c **** 		CY_SET_XTND_REG8((void CYFAR *)CYREG_BCTL0_BANK_CTL, CY_GET_XTND_REG8((void CYFAR *)CYREG_BCTL0_B
 1079              		.loc 1 694 0
 1080 0032 274A     		ldr	r2, .L33+12
 1081 0034 264B     		ldr	r3, .L33+12
 1082 0036 1B78     		ldrb	r3, [r3]
 1083 0038 DBB2     		uxtb	r3, r3
 1084 003a 43F00203 		orr	r3, r3, #2
 1085 003e DBB2     		uxtb	r3, r3
 1086 0040 1370     		strb	r3, [r2]
 695:Generated_Source\PSoC5/cyfitter_cfg.c **** 		CY_SET_XTND_REG8((void CYFAR *)CYREG_BCTL1_BANK_CTL, CY_GET_XTND_REG8((void CYFAR *)CYREG_BCTL1_B
 1087              		.loc 1 695 0
 1088 0042 244A     		ldr	r2, .L33+16
 1089 0044 234B     		ldr	r3, .L33+16
 1090 0046 1B78     		ldrb	r3, [r3]
 1091 0048 DBB2     		uxtb	r3, r3
 1092 004a 43F00203 		orr	r3, r3, #2
 1093 004e DBB2     		uxtb	r3, r3
 1094 0050 1370     		strb	r3, [r2]
 696:Generated_Source\PSoC5/cyfitter_cfg.c **** 
 697:Generated_Source\PSoC5/cyfitter_cfg.c **** 		/* Enable UDB array */
 698:Generated_Source\PSoC5/cyfitter_cfg.c **** 		CY_SET_XTND_REG8((void CYFAR *)CYREG_PM_ACT_CFG0, CY_GET_XTND_REG8((void CYFAR *)CYREG_PM_ACT_CFG
 1095              		.loc 1 698 0
 1096 0052 214A     		ldr	r2, .L33+20
 1097 0054 204B     		ldr	r3, .L33+20
 1098 0056 1B78     		ldrb	r3, [r3]
 1099 0058 DBB2     		uxtb	r3, r3
 1100 005a 43F04003 		orr	r3, r3, #64
 1101 005e DBB2     		uxtb	r3, r3
 1102 0060 1370     		strb	r3, [r2]
 699:Generated_Source\PSoC5/cyfitter_cfg.c **** 		CY_SET_XTND_REG8((void CYFAR *)CYREG_PM_AVAIL_CR2, CY_GET_XTND_REG8((void CYFAR *)CYREG_PM_AVAIL_
 1103              		.loc 1 699 0
 1104 0062 1E4A     		ldr	r2, .L33+24
 1105 0064 1D4B     		ldr	r3, .L33+24
 1106 0066 1B78     		ldrb	r3, [r3]
 1107 0068 DBB2     		uxtb	r3, r3
 1108 006a 43F01003 		orr	r3, r3, #16
 1109 006e DBB2     		uxtb	r3, r3
 1110 0070 1370     		strb	r3, [r2]
 700:Generated_Source\PSoC5/cyfitter_cfg.c **** 	}
 701:Generated_Source\PSoC5/cyfitter_cfg.c **** 
 702:Generated_Source\PSoC5/cyfitter_cfg.c **** 
 703:Generated_Source\PSoC5/cyfitter_cfg.c **** 	/* Perform second pass device configuration. These items must be configured in specific order afte
 704:Generated_Source\PSoC5/cyfitter_cfg.c **** 	CYCONFIGCPY((void CYFAR *)(CYREG_PRT12_DM0), (const void CYFAR *)(BS_IOPINS0_7_VAL), 8u);
 1111              		.loc 1 704 0
 1112 0072 0822     		movs	r2, #8
 1113 0074 1A49     		ldr	r1, .L33+28
 1114 0076 1B48     		ldr	r0, .L33+32
 1115 0078 FFF7FEFF 		bl	CYCONFIGCPY
ARM GAS  C:\Users\Joe\AppData\Local\Temp\ccXHBT7j.s 			page 33


 705:Generated_Source\PSoC5/cyfitter_cfg.c **** 	CYCONFIGCPY((void CYFAR *)(CYREG_PRT1_DM0), (const void CYFAR *)(BS_IOPINS0_1_VAL), 8u);
 1116              		.loc 1 705 0
 1117 007c 0822     		movs	r2, #8
 1118 007e 1A49     		ldr	r1, .L33+36
 1119 0080 1A48     		ldr	r0, .L33+40
 1120 0082 FFF7FEFF 		bl	CYCONFIGCPY
 706:Generated_Source\PSoC5/cyfitter_cfg.c **** 	CYCONFIGCPY((void CYFAR *)(CYREG_PRT2_DM0), (const void CYFAR *)(BS_IOPINS0_2_VAL), 8u);
 1121              		.loc 1 706 0
 1122 0086 0822     		movs	r2, #8
 1123 0088 1949     		ldr	r1, .L33+44
 1124 008a 1A48     		ldr	r0, .L33+48
 1125 008c FFF7FEFF 		bl	CYCONFIGCPY
 707:Generated_Source\PSoC5/cyfitter_cfg.c **** 	CYCONFIGCPY((void CYFAR *)(CYREG_PRT3_DM0), (const void CYFAR *)(BS_IOPINS0_3_VAL), 8u);
 1126              		.loc 1 707 0
 1127 0090 0822     		movs	r2, #8
 1128 0092 1949     		ldr	r1, .L33+52
 1129 0094 1948     		ldr	r0, .L33+56
 1130 0096 FFF7FEFF 		bl	CYCONFIGCPY
 708:Generated_Source\PSoC5/cyfitter_cfg.c **** 	/* Switch Boost to the precision bandgap reference from its internal reference */
 709:Generated_Source\PSoC5/cyfitter_cfg.c **** 	CY_SET_REG8((void CYXDATA *)CYREG_BOOST_CR2, (CY_GET_REG8((void CYXDATA *)CYREG_BOOST_CR2) | 0x08u
 1131              		.loc 1 709 0
 1132 009a 194A     		ldr	r2, .L33+60
 1133 009c 184B     		ldr	r3, .L33+60
 1134 009e 1B78     		ldrb	r3, [r3]
 1135 00a0 DBB2     		uxtb	r3, r3
 1136 00a2 43F00803 		orr	r3, r3, #8
 1137 00a6 DBB2     		uxtb	r3, r3
 1138 00a8 1370     		strb	r3, [r2]
 710:Generated_Source\PSoC5/cyfitter_cfg.c **** 	CY_SET_XTND_REG8((void CYFAR *)(CYREG_PANTHER_WAITPIPE), 0x01u);
 1139              		.loc 1 710 0
 1140 00aa 164B     		ldr	r3, .L33+64
 1141 00ac 0122     		movs	r2, #1
 1142 00ae 1A70     		strb	r2, [r3]
 711:Generated_Source\PSoC5/cyfitter_cfg.c **** 
 712:Generated_Source\PSoC5/cyfitter_cfg.c **** 	/* Perform basic analog initialization to defaults */
 713:Generated_Source\PSoC5/cyfitter_cfg.c **** 	AnalogSetDefault();
 1143              		.loc 1 713 0
 1144 00b0 FFF7FEFF 		bl	AnalogSetDefault
 714:Generated_Source\PSoC5/cyfitter_cfg.c **** 
 715:Generated_Source\PSoC5/cyfitter_cfg.c **** 	/* Configure alternate active mode */
 716:Generated_Source\PSoC5/cyfitter_cfg.c **** 	CYCONFIGCPY((void CYFAR *)CYDEV_PM_STBY_BASE, (const void CYFAR *)CYDEV_PM_ACT_BASE, 14u);
 1145              		.loc 1 716 0
 1146 00b4 0E22     		movs	r2, #14
 1147 00b6 0849     		ldr	r1, .L33+20
 1148 00b8 1348     		ldr	r0, .L33+68
 1149 00ba FFF7FEFF 		bl	CYCONFIGCPY
 717:Generated_Source\PSoC5/cyfitter_cfg.c **** }
 1150              		.loc 1 717 0
 1151 00be 00BF     		nop
 1152 00c0 80BD     		pop	{r7, pc}
 1153              	.L34:
 1154 00c2 00BF     		.align	2
 1155              	.L33:
 1156 00c4 00480040 		.word	1073760256
 1157 00c8 E8460040 		.word	1073759976
 1158 00cc 4A580040 		.word	1073764426
 1159 00d0 03500140 		.word	1073827843
ARM GAS  C:\Users\Joe\AppData\Local\Temp\ccXHBT7j.s 			page 34


 1160 00d4 13500140 		.word	1073827859
 1161 00d8 A0430040 		.word	1073759136
 1162 00dc C2430040 		.word	1073759170
 1163 00e0 200F0048 		.word	1207963424
 1164 00e4 C2510040 		.word	1073762754
 1165 00e8 280F0048 		.word	1207963432
 1166 00ec 12510040 		.word	1073762578
 1167 00f0 300F0048 		.word	1207963440
 1168 00f4 22510040 		.word	1073762594
 1169 00f8 380F0048 		.word	1207963448
 1170 00fc 32510040 		.word	1073762610
 1171 0100 22430040 		.word	1073759010
 1172 0104 04000840 		.word	1074266116
 1173 0108 B0430040 		.word	1073759152
 1174              		.cfi_endproc
 1175              	.LFE8:
 1176              		.size	cyfitter_cfg, .-cyfitter_cfg
 1177              		.bss
 1178              		.align	3
 1179              	DMA_ZERO_VAL.4971:
 1180 0000 00000000 		.space	4
 1181              		.section	.rodata
 1182              		.align	2
 1183              		.type	CFG_TD_ADDR0.4973, %object
 1184              		.size	CFG_TD_ADDR0.4973, 232
 1185              	CFG_TD_ADDR0.4973:
 1186 0000 00000000 		.word	CH1_ADDR_DATA0.4966
 1187 0004 08000000 		.word	CH2_ADDR_DATA0.4967
 1188 0008 10000000 		.word	CH5_ADDR_DATA0.4968
 1189 000c 18000000 		.word	CH6_ADDR_DATA0.4969
 1190 0010 20000000 		.word	DMA_TD_START_CMD.4970
 1191 0014 20000000 		.word	DMA_TD_START_CMD.4970
 1192 0018 20000000 		.word	DMA_TD_START_CMD.4970
 1193 001c 20000000 		.word	DMA_TD_START_CMD.4970
 1194 0020 00000000 		.word	DMA_ZERO_VAL.4971
 1195 0024 00000000 		.word	DMA_ZERO_VAL.4971
 1196 0028 00000000 		.word	DMA_ZERO_VAL.4971
 1197 002c 00000000 		.word	DMA_ZERO_VAL.4971
 1198 0030 00000000 		.word	DMA_ZERO_VAL.4971
 1199 0034 00000000 		.word	DMA_ZERO_VAL.4971
 1200 0038 00000000 		.word	DMA_ZERO_VAL.4971
 1201 003c 00000000 		.word	DMA_ZERO_VAL.4971
 1202 0040 00000000 		.word	DMA_ZERO_VAL.4971
 1203 0044 00000000 		.word	DMA_ZERO_VAL.4971
 1204 0048 00000000 		.word	DMA_ZERO_VAL.4971
 1205 004c 00000000 		.word	DMA_ZERO_VAL.4971
 1206 0050 00000000 		.word	DMA_ZERO_VAL.4971
 1207 0054 00000048 		.word	1207959552
 1208 0058 08000048 		.word	1207959560
 1209 005c 10000048 		.word	1207959568
 1210 0060 20030048 		.word	1207960352
 1211 0064 60030048 		.word	1207960416
 1212 0068 18000048 		.word	1207959576
 1213 006c 20000048 		.word	1207959584
 1214 0070 A0000048 		.word	1207959712
 1215 0074 20010048 		.word	1207959840
 1216 0078 A0010048 		.word	1207959968
ARM GAS  C:\Users\Joe\AppData\Local\Temp\ccXHBT7j.s 			page 35


 1217 007c 20020048 		.word	1207960096
 1218 0080 A0020048 		.word	1207960224
 1219 0084 80030048 		.word	1207960448
 1220 0088 90030048 		.word	1207960464
 1221 008c A0030048 		.word	1207960480
 1222 0090 20040048 		.word	1207960608
 1223 0094 A0040048 		.word	1207960736
 1224 0098 20050048 		.word	1207960864
 1225 009c A0050048 		.word	1207960992
 1226 00a0 20060048 		.word	1207961120
 1227 00a4 A0060048 		.word	1207961248
 1228 00a8 20070048 		.word	1207961376
 1229 00ac A0070048 		.word	1207961504
 1230 00b0 20080048 		.word	1207961632
 1231 00b4 A0080048 		.word	1207961760
 1232 00b8 20090048 		.word	1207961888
 1233 00bc A0090048 		.word	1207962016
 1234 00c0 200A0048 		.word	1207962144
 1235 00c4 A00A0048 		.word	1207962272
 1236 00c8 200B0048 		.word	1207962400
 1237 00cc A00B0048 		.word	1207962528
 1238 00d0 200C0048 		.word	1207962656
 1239 00d4 A00C0048 		.word	1207962784
 1240 00d8 200D0048 		.word	1207962912
 1241 00dc A00D0048 		.word	1207963040
 1242 00e0 200E0048 		.word	1207963168
 1243 00e4 A00E0048 		.word	1207963296
 1244              		.text
 1245              	.Letext0:
 1246              		.file 2 "c:\\program files (x86)\\cypress\\psoc creator\\4.1\\psoc creator\\import\\gnu\\arm\\5.4.
 1247              		.file 3 "Generated_Source\\PSoC5\\cytypes.h"