ARM GAS  C:\Users\Joe\AppData\Local\Temp\ccw2njQc.s 			page 1


   1              		.syntax unified
   2              		.cpu cortex-m3
   3              		.fpu softvfp
   4              		.eabi_attribute 20, 1
   5              		.eabi_attribute 21, 1
   6              		.eabi_attribute 23, 3
   7              		.eabi_attribute 24, 1
   8              		.eabi_attribute 25, 1
   9              		.eabi_attribute 26, 1
  10              		.eabi_attribute 30, 6
  11              		.eabi_attribute 34, 1
  12              		.eabi_attribute 18, 4
  13              		.thumb
  14              		.syntax unified
  15              		.file	"main.c"
  16              		.text
  17              	.Ltext0:
  18              		.cfi_sections	.debug_frame
  19              		.comm	i,1,1
  20              		.section	.text.main,"ax",%progbits
  21              		.align	2
  22              		.global	main
  23              		.thumb
  24              		.thumb_func
  25              		.type	main, %function
  26              	main:
  27              	.LFB63:
  28              		.file 1 "main.c"
   1:main.c        **** /*******************************************************************************
   2:main.c        **** * File Name: main.c
   3:main.c        **** *
   4:main.c        **** * Version: 1.10
   5:main.c        **** *
   6:main.c        **** * Description:
   7:main.c        **** *  This is source code for example project of the SPI Master component.
   8:main.c        **** *  Parameters used:
   9:main.c        **** *   Mode                CPHA == 0, CPOL == 0                
  10:main.c        **** *   Data lines          MOSI+MISO
  11:main.c        **** *   Shift direction     MSB First
  12:main.c        **** *   DataBits:           8 
  13:main.c        **** *   Bit Rate            1 Mbps
  14:main.c        **** *   Clock source        External 
  15:main.c        **** *
  16:main.c        **** *  SPI communication test using DMA. 8 bytes are transmitted
  17:main.c        **** *  between SPI Master and SPI Slave.
  18:main.c        **** *  Received data are displayed on LCD. 
  19:main.c        **** *
  20:main.c        **** ********************************************************************************
  21:main.c        **** * Copyright 2012-2015, Cypress Semiconductor Corporation. All rights reserved.
  22:main.c        **** * This software is owned by Cypress Semiconductor Corporation and is protected
  23:main.c        **** * by and subject to worldwide patent and copyright laws and treaties.
  24:main.c        **** * Therefore, you may use this software only as provided in the license agreement
  25:main.c        **** * accompanying the software package from which you obtained this software.
  26:main.c        **** * CYPRESS AND ITS SUPPLIERS MAKE NO WARRANTY OF ANY KIND, EXPRESS OR IMPLIED,
  27:main.c        **** * WITH REGARD TO THIS SOFTWARE, INCLUDING, BUT NOT LIMITED TO, NONINFRINGEMENT,
  28:main.c        **** * IMPLIED WARRANTIES OF MERCHANTABILITY AND FITNESS FOR A PARTICULAR PURPOSE.
  29:main.c        **** *******************************************************************************/
ARM GAS  C:\Users\Joe\AppData\Local\Temp\ccw2njQc.s 			page 2


  30:main.c        **** 
  31:main.c        **** #include <project.h>
  32:main.c        **** 
  33:main.c        **** CY_ISR_PROTO(ComparatorIsrHandler);
  34:main.c        **** 
  35:main.c        **** 
  36:main.c        **** 
  37:main.c        ****  uint8 i;
  38:main.c        **** 
  39:main.c        **** /*******************************************************************************
  40:main.c        **** * Function Name: main
  41:main.c        **** ********************************************************************************
  42:main.c        **** 
  43:main.c        **** *******************************************************************************/
  44:main.c        **** int main()
  45:main.c        **** {
  29              		.loc 1 45 0
  30              		.cfi_startproc
  31              		@ args = 0, pretend = 0, frame = 0
  32              		@ frame_needed = 1, uses_anonymous_args = 0
  33 0000 80B5     		push	{r7, lr}
  34              		.cfi_def_cfa_offset 8
  35              		.cfi_offset 7, -8
  36              		.cfi_offset 14, -4
  37 0002 00AF     		add	r7, sp, #0
  38              		.cfi_def_cfa_register 7
  46:main.c        ****     
  47:main.c        ****     isr_Comp1_StartEx(ComparatorIsrHandler);
  39              		.loc 1 47 0
  40 0004 1548     		ldr	r0, .L4
  41 0006 FFF7FEFF 		bl	isr_Comp1_StartEx
  48:main.c        ****     Comp_1_Start();
  42              		.loc 1 48 0
  43 000a FFF7FEFF 		bl	Comp_1_Start
  49:main.c        **** 
  50:main.c        ****     CyDelay(2000u);
  44              		.loc 1 50 0
  45 000e 4FF4FA60 		mov	r0, #2000
  46 0012 FFF7FEFF 		bl	CyDelay
  51:main.c        ****     /* Enable Battery Backup circuit and interface circuits between RPi and PSOC  */
  52:main.c        ****     EnableBattery_Write(3u);
  47              		.loc 1 52 0
  48 0016 0320     		movs	r0, #3
  49 0018 FFF7FEFF 		bl	EnableBattery_Write
  53:main.c        ****    isr_Comp1_ClearPending();  
  50              		.loc 1 53 0
  51 001c FFF7FEFF 		bl	isr_Comp1_ClearPending
  54:main.c        ****     isr_Comp1_Start();
  52              		.loc 1 54 0
  53 0020 FFF7FEFF 		bl	isr_Comp1_Start
  55:main.c        ****      
  56:main.c        ****     
  57:main.c        ****     SPIM_1_Start();
  54              		.loc 1 57 0
  55 0024 FFF7FEFF 		bl	SPIM_1_Start
  58:main.c        ****     SPIM_1_ClearFIFO();
  56              		.loc 1 58 0
ARM GAS  C:\Users\Joe\AppData\Local\Temp\ccw2njQc.s 			page 3


  57 0028 FFF7FEFF 		bl	SPIM_1_ClearFIFO
  59:main.c        ****     SPIM_1_ClearRxBuffer();
  58              		.loc 1 59 0
  59 002c FFF7FEFF 		bl	SPIM_1_ClearRxBuffer
  60:main.c        ****     SPIM_1_ClearTxBuffer();
  60              		.loc 1 60 0
  61 0030 FFF7FEFF 		bl	SPIM_1_ClearTxBuffer
  61:main.c        ****    
  62:main.c        ****     CyGlobalIntEnable; 
  62              		.loc 1 62 0
  63              		.syntax unified
  64              	@ 62 "main.c" 1
  65 0034 62B6     		CPSIE   i
  66              	@ 0 "" 2
  67              		.thumb
  68              		.syntax unified
  69              	.L3:
  63:main.c        **** 
  64:main.c        ****     while (1)  {
  65:main.c        ****      
  66:main.c        ****     SPIM_1_WriteTxData(0x10);
  70              		.loc 1 66 0
  71 0036 1020     		movs	r0, #16
  72 0038 FFF7FEFF 		bl	SPIM_1_WriteTxData
  67:main.c        ****         
  68:main.c        ****     /*  wait for transmit of first data is finished  */
  69:main.c        ****         
  70:main.c        ****     while(!(SPIM_1_ReadTxStatus() & SPIM_1_STS_SPI_DONE));
  73              		.loc 1 70 0
  74 003c 00BF     		nop
  75              	.L2:
  76              		.loc 1 70 0 is_stmt 0 discriminator 1
  77 003e FFF7FEFF 		bl	SPIM_1_ReadTxStatus
  78 0042 0346     		mov	r3, r0
  79 0044 03F00103 		and	r3, r3, #1
  80 0048 002B     		cmp	r3, #0
  81 004a F8D0     		beq	.L2
  71:main.c        ****               
  72:main.c        ****     SPIM_1_WriteTxData(0x13);       
  82              		.loc 1 72 0 is_stmt 1
  83 004c 1320     		movs	r0, #19
  84 004e FFF7FEFF 		bl	SPIM_1_WriteTxData
  73:main.c        ****           
  74:main.c        ****     CyDelay(200u);
  85              		.loc 1 74 0
  86 0052 C820     		movs	r0, #200
  87 0054 FFF7FEFF 		bl	CyDelay
  75:main.c        ****     }
  88              		.loc 1 75 0
  89 0058 EDE7     		b	.L3
  90              	.L5:
  91 005a 00BF     		.align	2
  92              	.L4:
  93 005c 00000000 		.word	ComparatorIsrHandler
  94              		.cfi_endproc
  95              	.LFE63:
  96              		.size	main, .-main
ARM GAS  C:\Users\Joe\AppData\Local\Temp\ccw2njQc.s 			page 4


  97              		.section	.text.ComparatorIsrHandler,"ax",%progbits
  98              		.align	2
  99              		.global	ComparatorIsrHandler
 100              		.thumb
 101              		.thumb_func
 102              		.type	ComparatorIsrHandler, %function
 103              	ComparatorIsrHandler:
 104              	.LFB64:
  76:main.c        **** }
  77:main.c        **** 
  78:main.c        **** 
  79:main.c        **** CY_ISR(ComparatorIsrHandler)
  80:main.c        **** {
 105              		.loc 1 80 0
 106              		.cfi_startproc
 107              		@ args = 0, pretend = 0, frame = 0
 108              		@ frame_needed = 1, uses_anonymous_args = 0
 109 0000 80B5     		push	{r7, lr}
 110              		.cfi_def_cfa_offset 8
 111              		.cfi_offset 7, -8
 112              		.cfi_offset 14, -4
 113 0002 00AF     		add	r7, sp, #0
 114              		.cfi_def_cfa_register 7
  81:main.c        ****     /*  this interrupt fires  when the 24V input supply has been turned off  */
  82:main.c        ****   
  83:main.c        ****    
  84:main.c        ****     /*  send  interrupt signal to RPi to signal it to shutdown */
  85:main.c        ****   
  86:main.c        ****     /*  Wait some time to allow RPi to perform shutdown   --  no real hurry   wait 30 seconds???   
  87:main.c        ****     CyDelay(5000u);
 115              		.loc 1 87 0
 116 0004 41F28830 		movw	r0, #5000
 117 0008 FFF7FEFF 		bl	CyDelay
  88:main.c        ****     EnableBattery_Write(0u);
 118              		.loc 1 88 0
 119 000c 0020     		movs	r0, #0
 120 000e FFF7FEFF 		bl	EnableBattery_Write
  89:main.c        ****      CyDelay(5000u);   
 121              		.loc 1 89 0
 122 0012 41F28830 		movw	r0, #5000
 123 0016 FFF7FEFF 		bl	CyDelay
  90:main.c        ****      CyGlobalIntDisable;
 124              		.loc 1 90 0
 125              		.syntax unified
 126              	@ 90 "main.c" 1
 127 001a 72B6     		CPSID   i
 128              	@ 0 "" 2
  91:main.c        **** }
 129              		.loc 1 91 0
 130              		.thumb
 131              		.syntax unified
 132 001c 00BF     		nop
 133 001e 80BD     		pop	{r7, pc}
 134              		.cfi_endproc
 135              	.LFE64:
 136              		.size	ComparatorIsrHandler, .-ComparatorIsrHandler
 137              		.text
ARM GAS  C:\Users\Joe\AppData\Local\Temp\ccw2njQc.s 			page 5


 138              	.Letext0:
 139              		.file 2 "c:\\program files (x86)\\cypress\\psoc creator\\4.1\\psoc creator\\import\\gnu\\arm\\5.4.
 140              		.file 3 "c:\\program files (x86)\\cypress\\psoc creator\\4.1\\psoc creator\\import\\gnu\\arm\\5.4.
 141              		.file 4 "Generated_Source\\PSoC5/cytypes.h"
 142              		.file 5 "Generated_Source\\PSoC5/core_cm3.h"