ARM GAS  C:\Users\Joe\AppData\Local\Temp\cc0Ovijc.s 			page 1


   1              		.syntax unified
   2              		.cpu cortex-m3
   3              		.fpu softvfp
   4              		.eabi_attribute 20, 1
   5              		.eabi_attribute 21, 1
   6              		.eabi_attribute 23, 3
   7              		.eabi_attribute 24, 1
   8              		.eabi_attribute 25, 1
   9              		.eabi_attribute 26, 1
  10              		.eabi_attribute 30, 4
  11              		.eabi_attribute 34, 1
  12              		.eabi_attribute 18, 4
  13              		.thumb
  14              		.syntax unified
  15              		.file	"I2C_1_MASTER.c"
  16              		.text
  17              	.Ltext0:
  18              		.cfi_sections	.debug_frame
  19              		.section	.text.I2C_1_MasterWriteBuf,"ax",%progbits
  20              		.align	1
  21              		.global	I2C_1_MasterWriteBuf
  22              		.thumb
  23              		.thumb_func
  24              		.type	I2C_1_MasterWriteBuf, %function
  25              	I2C_1_MasterWriteBuf:
  26              	.LFB0:
  27              		.file 1 "Generated_Source\\PSoC5\\I2C_1_MASTER.c"
   1:Generated_Source\PSoC5/I2C_1_MASTER.c **** /*******************************************************************************
   2:Generated_Source\PSoC5/I2C_1_MASTER.c **** * File Name: I2C_1_MASTER.c
   3:Generated_Source\PSoC5/I2C_1_MASTER.c **** * Version 3.50
   4:Generated_Source\PSoC5/I2C_1_MASTER.c **** *
   5:Generated_Source\PSoC5/I2C_1_MASTER.c **** * Description:
   6:Generated_Source\PSoC5/I2C_1_MASTER.c **** *  This file provides the source code of APIs for the I2C component master mode.
   7:Generated_Source\PSoC5/I2C_1_MASTER.c **** *
   8:Generated_Source\PSoC5/I2C_1_MASTER.c **** *******************************************************************************
   9:Generated_Source\PSoC5/I2C_1_MASTER.c **** * Copyright 2012-2015, Cypress Semiconductor Corporation. All rights reserved.
  10:Generated_Source\PSoC5/I2C_1_MASTER.c **** * You may use this file only in accordance with the license, terms, conditions,
  11:Generated_Source\PSoC5/I2C_1_MASTER.c **** * disclaimers, and limitations in the end user license agreement accompanying
  12:Generated_Source\PSoC5/I2C_1_MASTER.c **** * the software package with which this file was provided.
  13:Generated_Source\PSoC5/I2C_1_MASTER.c **** *******************************************************************************/
  14:Generated_Source\PSoC5/I2C_1_MASTER.c **** 
  15:Generated_Source\PSoC5/I2C_1_MASTER.c **** #include "I2C_1_PVT.h"
  16:Generated_Source\PSoC5/I2C_1_MASTER.c **** 
  17:Generated_Source\PSoC5/I2C_1_MASTER.c **** #if(I2C_1_MODE_MASTER_ENABLED)
  18:Generated_Source\PSoC5/I2C_1_MASTER.c **** 
  19:Generated_Source\PSoC5/I2C_1_MASTER.c **** /**********************************
  20:Generated_Source\PSoC5/I2C_1_MASTER.c **** *      System variables
  21:Generated_Source\PSoC5/I2C_1_MASTER.c **** **********************************/
  22:Generated_Source\PSoC5/I2C_1_MASTER.c **** 
  23:Generated_Source\PSoC5/I2C_1_MASTER.c **** volatile uint8 I2C_1_mstrStatus;     /* Master Status byte  */
  24:Generated_Source\PSoC5/I2C_1_MASTER.c **** volatile uint8 I2C_1_mstrControl;    /* Master Control byte */
  25:Generated_Source\PSoC5/I2C_1_MASTER.c **** 
  26:Generated_Source\PSoC5/I2C_1_MASTER.c **** /* Transmit buffer variables */
  27:Generated_Source\PSoC5/I2C_1_MASTER.c **** volatile uint8 * I2C_1_mstrRdBufPtr;     /* Pointer to Master Read buffer */
  28:Generated_Source\PSoC5/I2C_1_MASTER.c **** volatile uint8   I2C_1_mstrRdBufSize;    /* Master Read buffer size       */
  29:Generated_Source\PSoC5/I2C_1_MASTER.c **** volatile uint8   I2C_1_mstrRdBufIndex;   /* Master Read buffer Index      */
  30:Generated_Source\PSoC5/I2C_1_MASTER.c **** 
ARM GAS  C:\Users\Joe\AppData\Local\Temp\cc0Ovijc.s 			page 2


  31:Generated_Source\PSoC5/I2C_1_MASTER.c **** /* Receive buffer variables */
  32:Generated_Source\PSoC5/I2C_1_MASTER.c **** volatile uint8 * I2C_1_mstrWrBufPtr;     /* Pointer to Master Write buffer */
  33:Generated_Source\PSoC5/I2C_1_MASTER.c **** volatile uint8   I2C_1_mstrWrBufSize;    /* Master Write buffer size       */
  34:Generated_Source\PSoC5/I2C_1_MASTER.c **** volatile uint8   I2C_1_mstrWrBufIndex;   /* Master Write buffer Index      */
  35:Generated_Source\PSoC5/I2C_1_MASTER.c **** 
  36:Generated_Source\PSoC5/I2C_1_MASTER.c **** 
  37:Generated_Source\PSoC5/I2C_1_MASTER.c **** /*******************************************************************************
  38:Generated_Source\PSoC5/I2C_1_MASTER.c **** * Function Name: I2C_1_MasterWriteBuf
  39:Generated_Source\PSoC5/I2C_1_MASTER.c **** ********************************************************************************
  40:Generated_Source\PSoC5/I2C_1_MASTER.c **** *
  41:Generated_Source\PSoC5/I2C_1_MASTER.c **** * Summary:
  42:Generated_Source\PSoC5/I2C_1_MASTER.c **** *  Automatically writes an entire buffer of data to a slave device. Once the
  43:Generated_Source\PSoC5/I2C_1_MASTER.c **** *  data transfer is initiated by this function, further data transfer is handled
  44:Generated_Source\PSoC5/I2C_1_MASTER.c **** *  by the included ISR in byte by byte mode.
  45:Generated_Source\PSoC5/I2C_1_MASTER.c **** *
  46:Generated_Source\PSoC5/I2C_1_MASTER.c **** * Parameters:
  47:Generated_Source\PSoC5/I2C_1_MASTER.c **** *  slaveAddr: 7-bit slave address.
  48:Generated_Source\PSoC5/I2C_1_MASTER.c **** *  xferData:  Pointer to buffer of data to be sent.
  49:Generated_Source\PSoC5/I2C_1_MASTER.c **** *  cnt:       Size of buffer to send.
  50:Generated_Source\PSoC5/I2C_1_MASTER.c **** *  mode:      Transfer mode defines: start or restart condition generation at
  51:Generated_Source\PSoC5/I2C_1_MASTER.c **** *             begin of the transfer and complete the transfer or halt before
  52:Generated_Source\PSoC5/I2C_1_MASTER.c **** *             generating a stop.
  53:Generated_Source\PSoC5/I2C_1_MASTER.c **** *
  54:Generated_Source\PSoC5/I2C_1_MASTER.c **** * Return:
  55:Generated_Source\PSoC5/I2C_1_MASTER.c **** *  Status error - Zero means no errors.
  56:Generated_Source\PSoC5/I2C_1_MASTER.c **** *
  57:Generated_Source\PSoC5/I2C_1_MASTER.c **** * Side Effects:
  58:Generated_Source\PSoC5/I2C_1_MASTER.c **** *  The included ISR will start a transfer after a start or restart condition is
  59:Generated_Source\PSoC5/I2C_1_MASTER.c **** *  generated.
  60:Generated_Source\PSoC5/I2C_1_MASTER.c **** *
  61:Generated_Source\PSoC5/I2C_1_MASTER.c **** * Global variables:
  62:Generated_Source\PSoC5/I2C_1_MASTER.c **** *  I2C_1_mstrStatus  - The global variable used to store a current
  63:Generated_Source\PSoC5/I2C_1_MASTER.c **** *                                 status of the I2C Master.
  64:Generated_Source\PSoC5/I2C_1_MASTER.c **** *  I2C_1_state       - The global variable used to store a current
  65:Generated_Source\PSoC5/I2C_1_MASTER.c **** *                                 state of the software FSM.
  66:Generated_Source\PSoC5/I2C_1_MASTER.c **** *  I2C_1_mstrControl - The global variable used to control the master
  67:Generated_Source\PSoC5/I2C_1_MASTER.c **** *                                 end of a transaction with or without Stop
  68:Generated_Source\PSoC5/I2C_1_MASTER.c **** *                                 generation.
  69:Generated_Source\PSoC5/I2C_1_MASTER.c **** *  I2C_1_mstrWrBufPtr - The global variable used to store a pointer
  70:Generated_Source\PSoC5/I2C_1_MASTER.c **** *                                  to the master write buffer.
  71:Generated_Source\PSoC5/I2C_1_MASTER.c **** *  I2C_1_mstrWrBufIndex - The global variable used to store current
  72:Generated_Source\PSoC5/I2C_1_MASTER.c **** *                                    index within the master write buffer.
  73:Generated_Source\PSoC5/I2C_1_MASTER.c **** *  I2C_1_mstrWrBufSize - The global variable used to store a master
  74:Generated_Source\PSoC5/I2C_1_MASTER.c **** *                                   write buffer size.
  75:Generated_Source\PSoC5/I2C_1_MASTER.c **** *
  76:Generated_Source\PSoC5/I2C_1_MASTER.c **** * Reentrant:
  77:Generated_Source\PSoC5/I2C_1_MASTER.c **** *  No
  78:Generated_Source\PSoC5/I2C_1_MASTER.c **** *
  79:Generated_Source\PSoC5/I2C_1_MASTER.c **** *******************************************************************************/
  80:Generated_Source\PSoC5/I2C_1_MASTER.c **** uint8 I2C_1_MasterWriteBuf(uint8 slaveAddress, uint8 * wrData, uint8 cnt, uint8 mode)
  81:Generated_Source\PSoC5/I2C_1_MASTER.c ****       
  82:Generated_Source\PSoC5/I2C_1_MASTER.c **** {
  28              		.loc 1 82 0
  29              		.cfi_startproc
  30              		@ args = 0, pretend = 0, frame = 0
  31              		@ frame_needed = 0, uses_anonymous_args = 0
  32              	.LVL0:
ARM GAS  C:\Users\Joe\AppData\Local\Temp\cc0Ovijc.s 			page 3


  33 0000 70B5     		push	{r4, r5, r6, lr}
  34              		.cfi_def_cfa_offset 16
  35              		.cfi_offset 4, -16
  36              		.cfi_offset 5, -12
  37              		.cfi_offset 6, -8
  38              		.cfi_offset 14, -4
  83:Generated_Source\PSoC5/I2C_1_MASTER.c ****     uint8 errStatus;
  84:Generated_Source\PSoC5/I2C_1_MASTER.c **** 
  85:Generated_Source\PSoC5/I2C_1_MASTER.c ****     errStatus = I2C_1_MSTR_NOT_READY;
  86:Generated_Source\PSoC5/I2C_1_MASTER.c **** 
  87:Generated_Source\PSoC5/I2C_1_MASTER.c ****     if(NULL != wrData)
  39              		.loc 1 87 0
  40 0002 A9B1     		cbz	r1, .L10
  88:Generated_Source\PSoC5/I2C_1_MASTER.c ****     {
  89:Generated_Source\PSoC5/I2C_1_MASTER.c ****         /* Check I2C state to allow transfer: valid states are IDLE or HALT */
  90:Generated_Source\PSoC5/I2C_1_MASTER.c ****         if(I2C_1_SM_IDLE == I2C_1_state)
  41              		.loc 1 90 0
  42 0004 214C     		ldr	r4, .L18
  43 0006 2578     		ldrb	r5, [r4]	@ zero_extendqisi2
  44 0008 102D     		cmp	r5, #16
  45 000a 05D1     		bne	.L3
  91:Generated_Source\PSoC5/I2C_1_MASTER.c ****         {
  92:Generated_Source\PSoC5/I2C_1_MASTER.c ****             /* Master is ready for transaction: check if bus is free */
  93:Generated_Source\PSoC5/I2C_1_MASTER.c ****             if(I2C_1_CHECK_BUS_FREE(I2C_1_MCSR_REG))
  46              		.loc 1 93 0
  47 000c 204D     		ldr	r5, .L18+4
  48 000e 2D78     		ldrb	r5, [r5]	@ zero_extendqisi2
  49 0010 ED06     		lsls	r5, r5, #27
  50 0012 0FD5     		bpl	.L4
  94:Generated_Source\PSoC5/I2C_1_MASTER.c ****             {
  95:Generated_Source\PSoC5/I2C_1_MASTER.c ****                 errStatus = I2C_1_MSTR_NO_ERROR;
  96:Generated_Source\PSoC5/I2C_1_MASTER.c ****             }
  97:Generated_Source\PSoC5/I2C_1_MASTER.c ****             else
  98:Generated_Source\PSoC5/I2C_1_MASTER.c ****             {
  99:Generated_Source\PSoC5/I2C_1_MASTER.c ****                 errStatus = I2C_1_MSTR_BUS_BUSY;
  51              		.loc 1 99 0
  52 0014 0120     		movs	r0, #1
  53              	.LVL1:
  54 0016 70BD     		pop	{r4, r5, r6, pc}
  55              	.LVL2:
  56              	.L3:
 100:Generated_Source\PSoC5/I2C_1_MASTER.c ****             }
 101:Generated_Source\PSoC5/I2C_1_MASTER.c ****         }
 102:Generated_Source\PSoC5/I2C_1_MASTER.c ****         else if(I2C_1_SM_MSTR_HALT == I2C_1_state)
  57              		.loc 1 102 0
  58 0018 2578     		ldrb	r5, [r4]	@ zero_extendqisi2
  59 001a 602D     		cmp	r5, #96
  60 001c 08D1     		bne	.L10
  61              	.LVL3:
 103:Generated_Source\PSoC5/I2C_1_MASTER.c ****         {
 104:Generated_Source\PSoC5/I2C_1_MASTER.c ****             /* Master is ready and waiting for ReStart */
 105:Generated_Source\PSoC5/I2C_1_MASTER.c ****             errStatus = I2C_1_MSTR_NO_ERROR;
 106:Generated_Source\PSoC5/I2C_1_MASTER.c **** 
 107:Generated_Source\PSoC5/I2C_1_MASTER.c ****             I2C_1_ClearPendingInt();
  62              		.loc 1 107 0
  63 001e 1D4D     		ldr	r5, .L18+8
  64 0020 0126     		movs	r6, #1
ARM GAS  C:\Users\Joe\AppData\Local\Temp\cc0Ovijc.s 			page 4


  65 0022 2E60     		str	r6, [r5]
 108:Generated_Source\PSoC5/I2C_1_MASTER.c ****             I2C_1_mstrStatus &= (uint8) ~I2C_1_MSTAT_XFER_HALT;
  66              		.loc 1 108 0
  67 0024 1C4E     		ldr	r6, .L18+12
  68 0026 3578     		ldrb	r5, [r6]	@ zero_extendqisi2
  69 0028 05F0F705 		and	r5, r5, #247
  70 002c 3570     		strb	r5, [r6]
  71 002e 01E0     		b	.L4
  72              	.LVL4:
  73              	.L10:
  85:Generated_Source\PSoC5/I2C_1_MASTER.c **** 
  74              		.loc 1 85 0
  75 0030 0220     		movs	r0, #2
  76              	.LVL5:
 109:Generated_Source\PSoC5/I2C_1_MASTER.c ****         }
 110:Generated_Source\PSoC5/I2C_1_MASTER.c ****         else
 111:Generated_Source\PSoC5/I2C_1_MASTER.c ****         {
 112:Generated_Source\PSoC5/I2C_1_MASTER.c ****             /* errStatus = I2C_1_MSTR_NOT_READY was send before */
 113:Generated_Source\PSoC5/I2C_1_MASTER.c ****         }
 114:Generated_Source\PSoC5/I2C_1_MASTER.c **** 
 115:Generated_Source\PSoC5/I2C_1_MASTER.c ****         if(I2C_1_MSTR_NO_ERROR == errStatus)
 116:Generated_Source\PSoC5/I2C_1_MASTER.c ****         {
 117:Generated_Source\PSoC5/I2C_1_MASTER.c ****             /* Set state to start write transaction */
 118:Generated_Source\PSoC5/I2C_1_MASTER.c ****             I2C_1_state = I2C_1_SM_MSTR_WR_ADDR;
 119:Generated_Source\PSoC5/I2C_1_MASTER.c **** 
 120:Generated_Source\PSoC5/I2C_1_MASTER.c ****             /* Prepare write buffer */
 121:Generated_Source\PSoC5/I2C_1_MASTER.c ****             I2C_1_mstrWrBufIndex = 0u;
 122:Generated_Source\PSoC5/I2C_1_MASTER.c ****             I2C_1_mstrWrBufSize  = cnt;
 123:Generated_Source\PSoC5/I2C_1_MASTER.c ****             I2C_1_mstrWrBufPtr   = (volatile uint8 *) wrData;
 124:Generated_Source\PSoC5/I2C_1_MASTER.c **** 
 125:Generated_Source\PSoC5/I2C_1_MASTER.c ****             /* Set end of transaction flag: Stop or Halt (following ReStart) */
 126:Generated_Source\PSoC5/I2C_1_MASTER.c ****             I2C_1_mstrControl = mode;
 127:Generated_Source\PSoC5/I2C_1_MASTER.c **** 
 128:Generated_Source\PSoC5/I2C_1_MASTER.c ****             /* Clear write status history */
 129:Generated_Source\PSoC5/I2C_1_MASTER.c ****             I2C_1_mstrStatus &= (uint8) ~I2C_1_MSTAT_WR_CMPLT;
 130:Generated_Source\PSoC5/I2C_1_MASTER.c **** 
 131:Generated_Source\PSoC5/I2C_1_MASTER.c ****             /* Hardware actions: write address and generate Start or ReStart */
 132:Generated_Source\PSoC5/I2C_1_MASTER.c ****             I2C_1_DATA_REG = (uint8) (slaveAddress << I2C_1_SLAVE_ADDR_SHIFT);
 133:Generated_Source\PSoC5/I2C_1_MASTER.c **** 
 134:Generated_Source\PSoC5/I2C_1_MASTER.c ****             if(I2C_1_CHECK_RESTART(mode))
 135:Generated_Source\PSoC5/I2C_1_MASTER.c ****             {
 136:Generated_Source\PSoC5/I2C_1_MASTER.c ****                 I2C_1_GENERATE_RESTART;
 137:Generated_Source\PSoC5/I2C_1_MASTER.c ****             }
 138:Generated_Source\PSoC5/I2C_1_MASTER.c ****             else
 139:Generated_Source\PSoC5/I2C_1_MASTER.c ****             {
 140:Generated_Source\PSoC5/I2C_1_MASTER.c ****                 I2C_1_GENERATE_START;
 141:Generated_Source\PSoC5/I2C_1_MASTER.c ****             }
 142:Generated_Source\PSoC5/I2C_1_MASTER.c **** 
 143:Generated_Source\PSoC5/I2C_1_MASTER.c ****             /* Enable interrupt to complete transfer */
 144:Generated_Source\PSoC5/I2C_1_MASTER.c ****             I2C_1_EnableInt();
 145:Generated_Source\PSoC5/I2C_1_MASTER.c ****         }
 146:Generated_Source\PSoC5/I2C_1_MASTER.c ****     }
 147:Generated_Source\PSoC5/I2C_1_MASTER.c **** 
 148:Generated_Source\PSoC5/I2C_1_MASTER.c ****     return(errStatus);
  77              		.loc 1 148 0
  78 0032 70BD     		pop	{r4, r5, r6, pc}
  79              	.LVL6:
ARM GAS  C:\Users\Joe\AppData\Local\Temp\cc0Ovijc.s 			page 5


  80              	.L4:
 118:Generated_Source\PSoC5/I2C_1_MASTER.c **** 
  81              		.loc 1 118 0
  82 0034 4525     		movs	r5, #69
  83 0036 2570     		strb	r5, [r4]
 121:Generated_Source\PSoC5/I2C_1_MASTER.c ****             I2C_1_mstrWrBufSize  = cnt;
  84              		.loc 1 121 0
  85 0038 184D     		ldr	r5, .L18+16
  86 003a 0024     		movs	r4, #0
  87 003c 2C70     		strb	r4, [r5]
 122:Generated_Source\PSoC5/I2C_1_MASTER.c ****             I2C_1_mstrWrBufPtr   = (volatile uint8 *) wrData;
  88              		.loc 1 122 0
  89 003e 184D     		ldr	r5, .L18+20
 132:Generated_Source\PSoC5/I2C_1_MASTER.c **** 
  90              		.loc 1 132 0
  91 0040 4000     		lsls	r0, r0, #1
  92              	.LVL7:
 122:Generated_Source\PSoC5/I2C_1_MASTER.c ****             I2C_1_mstrWrBufPtr   = (volatile uint8 *) wrData;
  93              		.loc 1 122 0
  94 0042 2A70     		strb	r2, [r5]
 123:Generated_Source\PSoC5/I2C_1_MASTER.c **** 
  95              		.loc 1 123 0
  96 0044 174A     		ldr	r2, .L18+24
  97              	.LVL8:
 132:Generated_Source\PSoC5/I2C_1_MASTER.c **** 
  98              		.loc 1 132 0
  99 0046 C0B2     		uxtb	r0, r0
 123:Generated_Source\PSoC5/I2C_1_MASTER.c **** 
 100              		.loc 1 123 0
 101 0048 1160     		str	r1, [r2]
 126:Generated_Source\PSoC5/I2C_1_MASTER.c **** 
 102              		.loc 1 126 0
 103 004a 174A     		ldr	r2, .L18+28
 129:Generated_Source\PSoC5/I2C_1_MASTER.c **** 
 104              		.loc 1 129 0
 105 004c 1249     		ldr	r1, .L18+12
 106              	.LVL9:
 126:Generated_Source\PSoC5/I2C_1_MASTER.c **** 
 107              		.loc 1 126 0
 108 004e 1370     		strb	r3, [r2]
 109              	.LVL10:
 129:Generated_Source\PSoC5/I2C_1_MASTER.c **** 
 110              		.loc 1 129 0
 111 0050 0A78     		ldrb	r2, [r1]	@ zero_extendqisi2
 134:Generated_Source\PSoC5/I2C_1_MASTER.c ****             {
 112              		.loc 1 134 0
 113 0052 13F00103 		ands	r3, r3, #1
 114              	.LVL11:
 129:Generated_Source\PSoC5/I2C_1_MASTER.c **** 
 115              		.loc 1 129 0
 116 0056 02F0FD02 		and	r2, r2, #253
 117 005a 0A70     		strb	r2, [r1]
 118              	.LVL12:
 132:Generated_Source\PSoC5/I2C_1_MASTER.c **** 
 119              		.loc 1 132 0
 120 005c 134A     		ldr	r2, .L18+32
 121 005e 1449     		ldr	r1, .L18+36
ARM GAS  C:\Users\Joe\AppData\Local\Temp\cc0Ovijc.s 			page 6


 122 0060 1070     		strb	r0, [r2]
 123              	.LVL13:
 124 0062 02F17102 		add	r2, r2, #113
 125 0066 1348     		ldr	r0, .L18+40
 134:Generated_Source\PSoC5/I2C_1_MASTER.c ****             {
 126              		.loc 1 134 0
 127 0068 05D0     		beq	.L17
 136:Generated_Source\PSoC5/I2C_1_MASTER.c ****             }
 128              		.loc 1 136 0
 129 006a 3223     		movs	r3, #50
 130 006c 1370     		strb	r3, [r2]
 131 006e FF23     		movs	r3, #255
 132 0070 0B70     		strb	r3, [r1]
 133 0072 0470     		strb	r4, [r0]
 134 0074 04E0     		b	.L6
 135              	.L17:
 140:Generated_Source\PSoC5/I2C_1_MASTER.c ****             }
 136              		.loc 1 140 0
 137 0076 8224     		movs	r4, #130
 138 0078 1470     		strb	r4, [r2]
 139 007a FF22     		movs	r2, #255
 140 007c 0A70     		strb	r2, [r1]
 141 007e 0370     		strb	r3, [r0]
 142              	.L6:
 144:Generated_Source\PSoC5/I2C_1_MASTER.c ****         }
 143              		.loc 1 144 0
 144 0080 0D4B     		ldr	r3, .L18+44
 145 0082 0122     		movs	r2, #1
 146 0084 1A60     		str	r2, [r3]
 147 0086 0020     		movs	r0, #0
 148 0088 70BD     		pop	{r4, r5, r6, pc}
 149              	.L19:
 150 008a 00BF     		.align	2
 151              	.L18:
 152 008c 00000000 		.word	I2C_1_state
 153 0090 65640040 		.word	1073767525
 154 0094 80E200E0 		.word	-536812928
 155 0098 00000000 		.word	I2C_1_mstrStatus
 156 009c 00000000 		.word	I2C_1_mstrWrBufIndex
 157 00a0 00000000 		.word	I2C_1_mstrWrBufSize
 158 00a4 00000000 		.word	I2C_1_mstrWrBufPtr
 159 00a8 00000000 		.word	I2C_1_mstrControl
 160 00ac 04640040 		.word	1073767428
 161 00b0 14640040 		.word	1073767444
 162 00b4 54640040 		.word	1073767508
 163 00b8 00E100E0 		.word	-536813312
 164              		.cfi_endproc
 165              	.LFE0:
 166              		.size	I2C_1_MasterWriteBuf, .-I2C_1_MasterWriteBuf
 167              		.section	.text.I2C_1_MasterReadBuf,"ax",%progbits
 168              		.align	1
 169              		.global	I2C_1_MasterReadBuf
 170              		.thumb
 171              		.thumb_func
 172              		.type	I2C_1_MasterReadBuf, %function
 173              	I2C_1_MasterReadBuf:
 174              	.LFB1:
ARM GAS  C:\Users\Joe\AppData\Local\Temp\cc0Ovijc.s 			page 7


 149:Generated_Source\PSoC5/I2C_1_MASTER.c **** }
 150:Generated_Source\PSoC5/I2C_1_MASTER.c **** 
 151:Generated_Source\PSoC5/I2C_1_MASTER.c **** 
 152:Generated_Source\PSoC5/I2C_1_MASTER.c **** /*******************************************************************************
 153:Generated_Source\PSoC5/I2C_1_MASTER.c **** * Function Name: I2C_1_MasterReadBuf
 154:Generated_Source\PSoC5/I2C_1_MASTER.c **** ********************************************************************************
 155:Generated_Source\PSoC5/I2C_1_MASTER.c **** *
 156:Generated_Source\PSoC5/I2C_1_MASTER.c **** * Summary:
 157:Generated_Source\PSoC5/I2C_1_MASTER.c **** *  Automatically writes an entire buffer of data to a slave device. Once the
 158:Generated_Source\PSoC5/I2C_1_MASTER.c **** *  data transfer is initiated by this function, further data transfer is handled
 159:Generated_Source\PSoC5/I2C_1_MASTER.c **** *  by the included ISR in byte by byte mode.
 160:Generated_Source\PSoC5/I2C_1_MASTER.c **** *
 161:Generated_Source\PSoC5/I2C_1_MASTER.c **** * Parameters:
 162:Generated_Source\PSoC5/I2C_1_MASTER.c **** *  slaveAddr: 7-bit slave address.
 163:Generated_Source\PSoC5/I2C_1_MASTER.c **** *  xferData:  Pointer to buffer where to put data from slave.
 164:Generated_Source\PSoC5/I2C_1_MASTER.c **** *  cnt:       Size of buffer to read.
 165:Generated_Source\PSoC5/I2C_1_MASTER.c **** *  mode:      Transfer mode defines: start or restart condition generation at
 166:Generated_Source\PSoC5/I2C_1_MASTER.c **** *             begin of the transfer and complete the transfer or halt before
 167:Generated_Source\PSoC5/I2C_1_MASTER.c **** *             generating a stop.
 168:Generated_Source\PSoC5/I2C_1_MASTER.c **** *
 169:Generated_Source\PSoC5/I2C_1_MASTER.c **** * Return:
 170:Generated_Source\PSoC5/I2C_1_MASTER.c **** *  Status error - Zero means no errors.
 171:Generated_Source\PSoC5/I2C_1_MASTER.c **** *
 172:Generated_Source\PSoC5/I2C_1_MASTER.c **** * Side Effects:
 173:Generated_Source\PSoC5/I2C_1_MASTER.c **** *  The included ISR will start a transfer after start or restart condition is
 174:Generated_Source\PSoC5/I2C_1_MASTER.c **** *  generated.
 175:Generated_Source\PSoC5/I2C_1_MASTER.c **** *
 176:Generated_Source\PSoC5/I2C_1_MASTER.c **** * Global variables:
 177:Generated_Source\PSoC5/I2C_1_MASTER.c **** *  I2C_1_mstrStatus  - The global variable used to store a current
 178:Generated_Source\PSoC5/I2C_1_MASTER.c **** *                                 status of the I2C Master.
 179:Generated_Source\PSoC5/I2C_1_MASTER.c **** *  I2C_1_state       - The global variable used to store a current
 180:Generated_Source\PSoC5/I2C_1_MASTER.c **** *                                 state of the software FSM.
 181:Generated_Source\PSoC5/I2C_1_MASTER.c **** *  I2C_1_mstrControl - The global variable used to control the master
 182:Generated_Source\PSoC5/I2C_1_MASTER.c **** *                                 end of a transaction with or without
 183:Generated_Source\PSoC5/I2C_1_MASTER.c **** *                                 Stop generation.
 184:Generated_Source\PSoC5/I2C_1_MASTER.c **** *  I2C_1_mstrRdBufPtr - The global variable used to store a pointer
 185:Generated_Source\PSoC5/I2C_1_MASTER.c **** *                                  to the master write buffer.
 186:Generated_Source\PSoC5/I2C_1_MASTER.c **** *  I2C_1_mstrRdBufIndex - The global variable  used to store a
 187:Generated_Source\PSoC5/I2C_1_MASTER.c **** *                                    current index within the master
 188:Generated_Source\PSoC5/I2C_1_MASTER.c **** *                                    write buffer.
 189:Generated_Source\PSoC5/I2C_1_MASTER.c **** *  I2C_1_mstrRdBufSize - The global variable used to store a master
 190:Generated_Source\PSoC5/I2C_1_MASTER.c **** *                                   write buffer size.
 191:Generated_Source\PSoC5/I2C_1_MASTER.c **** *
 192:Generated_Source\PSoC5/I2C_1_MASTER.c **** * Reentrant:
 193:Generated_Source\PSoC5/I2C_1_MASTER.c **** *  No.
 194:Generated_Source\PSoC5/I2C_1_MASTER.c **** *
 195:Generated_Source\PSoC5/I2C_1_MASTER.c **** *******************************************************************************/
 196:Generated_Source\PSoC5/I2C_1_MASTER.c **** uint8 I2C_1_MasterReadBuf(uint8 slaveAddress, uint8 * rdData, uint8 cnt, uint8 mode)
 197:Generated_Source\PSoC5/I2C_1_MASTER.c ****       
 198:Generated_Source\PSoC5/I2C_1_MASTER.c **** {
 175              		.loc 1 198 0
 176              		.cfi_startproc
 177              		@ args = 0, pretend = 0, frame = 0
 178              		@ frame_needed = 0, uses_anonymous_args = 0
 179              	.LVL14:
 180 0000 70B5     		push	{r4, r5, r6, lr}
 181              		.cfi_def_cfa_offset 16
ARM GAS  C:\Users\Joe\AppData\Local\Temp\cc0Ovijc.s 			page 8


 182              		.cfi_offset 4, -16
 183              		.cfi_offset 5, -12
 184              		.cfi_offset 6, -8
 185              		.cfi_offset 14, -4
 199:Generated_Source\PSoC5/I2C_1_MASTER.c ****     uint8 errStatus;
 200:Generated_Source\PSoC5/I2C_1_MASTER.c **** 
 201:Generated_Source\PSoC5/I2C_1_MASTER.c ****     errStatus = I2C_1_MSTR_NOT_READY;
 202:Generated_Source\PSoC5/I2C_1_MASTER.c **** 
 203:Generated_Source\PSoC5/I2C_1_MASTER.c ****     if(NULL != rdData)
 186              		.loc 1 203 0
 187 0002 A9B1     		cbz	r1, .L29
 204:Generated_Source\PSoC5/I2C_1_MASTER.c ****     {
 205:Generated_Source\PSoC5/I2C_1_MASTER.c ****         /* Check I2C state to allow transfer: valid states are IDLE or HALT */
 206:Generated_Source\PSoC5/I2C_1_MASTER.c ****         if(I2C_1_SM_IDLE == I2C_1_state)
 188              		.loc 1 206 0
 189 0004 224C     		ldr	r4, .L36
 190 0006 2578     		ldrb	r5, [r4]	@ zero_extendqisi2
 191 0008 102D     		cmp	r5, #16
 192 000a 05D1     		bne	.L22
 207:Generated_Source\PSoC5/I2C_1_MASTER.c ****         {
 208:Generated_Source\PSoC5/I2C_1_MASTER.c ****             /* Master is ready to transaction: check if bus is free */
 209:Generated_Source\PSoC5/I2C_1_MASTER.c ****             if(I2C_1_CHECK_BUS_FREE(I2C_1_MCSR_REG))
 193              		.loc 1 209 0
 194 000c 214D     		ldr	r5, .L36+4
 195 000e 2D78     		ldrb	r5, [r5]	@ zero_extendqisi2
 196 0010 ED06     		lsls	r5, r5, #27
 197 0012 0FD5     		bpl	.L23
 210:Generated_Source\PSoC5/I2C_1_MASTER.c ****             {
 211:Generated_Source\PSoC5/I2C_1_MASTER.c ****                 errStatus = I2C_1_MSTR_NO_ERROR;
 212:Generated_Source\PSoC5/I2C_1_MASTER.c ****             }
 213:Generated_Source\PSoC5/I2C_1_MASTER.c ****             else
 214:Generated_Source\PSoC5/I2C_1_MASTER.c ****             {
 215:Generated_Source\PSoC5/I2C_1_MASTER.c ****                 errStatus = I2C_1_MSTR_BUS_BUSY;
 198              		.loc 1 215 0
 199 0014 0120     		movs	r0, #1
 200              	.LVL15:
 201 0016 70BD     		pop	{r4, r5, r6, pc}
 202              	.LVL16:
 203              	.L22:
 216:Generated_Source\PSoC5/I2C_1_MASTER.c ****             }
 217:Generated_Source\PSoC5/I2C_1_MASTER.c ****         }
 218:Generated_Source\PSoC5/I2C_1_MASTER.c ****         else if(I2C_1_SM_MSTR_HALT == I2C_1_state)
 204              		.loc 1 218 0
 205 0018 2578     		ldrb	r5, [r4]	@ zero_extendqisi2
 206 001a 602D     		cmp	r5, #96
 207 001c 08D1     		bne	.L29
 208              	.LVL17:
 219:Generated_Source\PSoC5/I2C_1_MASTER.c ****         {
 220:Generated_Source\PSoC5/I2C_1_MASTER.c ****             /* Master is ready and waiting for ReStart */
 221:Generated_Source\PSoC5/I2C_1_MASTER.c ****             errStatus = I2C_1_MSTR_NO_ERROR;
 222:Generated_Source\PSoC5/I2C_1_MASTER.c **** 
 223:Generated_Source\PSoC5/I2C_1_MASTER.c ****             I2C_1_ClearPendingInt();
 209              		.loc 1 223 0
 210 001e 1E4D     		ldr	r5, .L36+8
 211 0020 0126     		movs	r6, #1
 212 0022 2E60     		str	r6, [r5]
 224:Generated_Source\PSoC5/I2C_1_MASTER.c ****             I2C_1_mstrStatus &= (uint8) ~I2C_1_MSTAT_XFER_HALT;
ARM GAS  C:\Users\Joe\AppData\Local\Temp\cc0Ovijc.s 			page 9


 213              		.loc 1 224 0
 214 0024 1D4E     		ldr	r6, .L36+12
 215 0026 3578     		ldrb	r5, [r6]	@ zero_extendqisi2
 216 0028 05F0F705 		and	r5, r5, #247
 217 002c 3570     		strb	r5, [r6]
 218 002e 01E0     		b	.L23
 219              	.LVL18:
 220              	.L29:
 201:Generated_Source\PSoC5/I2C_1_MASTER.c **** 
 221              		.loc 1 201 0
 222 0030 0220     		movs	r0, #2
 223              	.LVL19:
 225:Generated_Source\PSoC5/I2C_1_MASTER.c ****         }
 226:Generated_Source\PSoC5/I2C_1_MASTER.c ****         else
 227:Generated_Source\PSoC5/I2C_1_MASTER.c ****         {
 228:Generated_Source\PSoC5/I2C_1_MASTER.c ****             /* errStatus = I2C_1_MSTR_NOT_READY was set before */
 229:Generated_Source\PSoC5/I2C_1_MASTER.c ****         }
 230:Generated_Source\PSoC5/I2C_1_MASTER.c **** 
 231:Generated_Source\PSoC5/I2C_1_MASTER.c ****         if(I2C_1_MSTR_NO_ERROR == errStatus)
 232:Generated_Source\PSoC5/I2C_1_MASTER.c ****         {
 233:Generated_Source\PSoC5/I2C_1_MASTER.c ****             /* Set state to start write transaction */
 234:Generated_Source\PSoC5/I2C_1_MASTER.c ****             I2C_1_state = I2C_1_SM_MSTR_RD_ADDR;
 235:Generated_Source\PSoC5/I2C_1_MASTER.c **** 
 236:Generated_Source\PSoC5/I2C_1_MASTER.c ****             /* Prepare read buffer */
 237:Generated_Source\PSoC5/I2C_1_MASTER.c ****             I2C_1_mstrRdBufIndex  = 0u;
 238:Generated_Source\PSoC5/I2C_1_MASTER.c ****             I2C_1_mstrRdBufSize   = cnt;
 239:Generated_Source\PSoC5/I2C_1_MASTER.c ****             I2C_1_mstrRdBufPtr    = (volatile uint8 *) rdData;
 240:Generated_Source\PSoC5/I2C_1_MASTER.c **** 
 241:Generated_Source\PSoC5/I2C_1_MASTER.c ****             /* Set end of transaction flag: Stop or Halt (following ReStart) */
 242:Generated_Source\PSoC5/I2C_1_MASTER.c ****             I2C_1_mstrControl = mode;
 243:Generated_Source\PSoC5/I2C_1_MASTER.c **** 
 244:Generated_Source\PSoC5/I2C_1_MASTER.c ****             /* Clear read status history */
 245:Generated_Source\PSoC5/I2C_1_MASTER.c ****             I2C_1_mstrStatus &= (uint8) ~I2C_1_MSTAT_RD_CMPLT;
 246:Generated_Source\PSoC5/I2C_1_MASTER.c **** 
 247:Generated_Source\PSoC5/I2C_1_MASTER.c ****             /* Hardware actions: write address and generate Start or ReStart */
 248:Generated_Source\PSoC5/I2C_1_MASTER.c ****             I2C_1_DATA_REG = ((uint8) (slaveAddress << I2C_1_SLAVE_ADDR_SHIFT) |
 249:Generated_Source\PSoC5/I2C_1_MASTER.c ****                                                   I2C_1_READ_FLAG);
 250:Generated_Source\PSoC5/I2C_1_MASTER.c **** 
 251:Generated_Source\PSoC5/I2C_1_MASTER.c ****             if(I2C_1_CHECK_RESTART(mode))
 252:Generated_Source\PSoC5/I2C_1_MASTER.c ****             {
 253:Generated_Source\PSoC5/I2C_1_MASTER.c ****                 I2C_1_GENERATE_RESTART;
 254:Generated_Source\PSoC5/I2C_1_MASTER.c ****             }
 255:Generated_Source\PSoC5/I2C_1_MASTER.c ****             else
 256:Generated_Source\PSoC5/I2C_1_MASTER.c ****             {
 257:Generated_Source\PSoC5/I2C_1_MASTER.c ****                 I2C_1_GENERATE_START;
 258:Generated_Source\PSoC5/I2C_1_MASTER.c ****             }
 259:Generated_Source\PSoC5/I2C_1_MASTER.c **** 
 260:Generated_Source\PSoC5/I2C_1_MASTER.c ****             /* Enable interrupt to complete transfer */
 261:Generated_Source\PSoC5/I2C_1_MASTER.c ****             I2C_1_EnableInt();
 262:Generated_Source\PSoC5/I2C_1_MASTER.c ****         }
 263:Generated_Source\PSoC5/I2C_1_MASTER.c ****     }
 264:Generated_Source\PSoC5/I2C_1_MASTER.c **** 
 265:Generated_Source\PSoC5/I2C_1_MASTER.c ****     return(errStatus);
 224              		.loc 1 265 0
 225 0032 70BD     		pop	{r4, r5, r6, pc}
 226              	.LVL20:
 227              	.L23:
ARM GAS  C:\Users\Joe\AppData\Local\Temp\cc0Ovijc.s 			page 10


 234:Generated_Source\PSoC5/I2C_1_MASTER.c **** 
 228              		.loc 1 234 0
 229 0034 4925     		movs	r5, #73
 230 0036 2570     		strb	r5, [r4]
 237:Generated_Source\PSoC5/I2C_1_MASTER.c ****             I2C_1_mstrRdBufSize   = cnt;
 231              		.loc 1 237 0
 232 0038 194D     		ldr	r5, .L36+16
 233 003a 0024     		movs	r4, #0
 234 003c 2C70     		strb	r4, [r5]
 238:Generated_Source\PSoC5/I2C_1_MASTER.c ****             I2C_1_mstrRdBufPtr    = (volatile uint8 *) rdData;
 235              		.loc 1 238 0
 236 003e 194D     		ldr	r5, .L36+20
 248:Generated_Source\PSoC5/I2C_1_MASTER.c ****                                                   I2C_1_READ_FLAG);
 237              		.loc 1 248 0
 238 0040 4000     		lsls	r0, r0, #1
 239              	.LVL21:
 238:Generated_Source\PSoC5/I2C_1_MASTER.c ****             I2C_1_mstrRdBufPtr    = (volatile uint8 *) rdData;
 240              		.loc 1 238 0
 241 0042 2A70     		strb	r2, [r5]
 239:Generated_Source\PSoC5/I2C_1_MASTER.c **** 
 242              		.loc 1 239 0
 243 0044 184A     		ldr	r2, .L36+24
 244              	.LVL22:
 248:Generated_Source\PSoC5/I2C_1_MASTER.c ****                                                   I2C_1_READ_FLAG);
 245              		.loc 1 248 0
 246 0046 40F00100 		orr	r0, r0, #1
 239:Generated_Source\PSoC5/I2C_1_MASTER.c **** 
 247              		.loc 1 239 0
 248 004a 1160     		str	r1, [r2]
 242:Generated_Source\PSoC5/I2C_1_MASTER.c **** 
 249              		.loc 1 242 0
 250 004c 174A     		ldr	r2, .L36+28
 245:Generated_Source\PSoC5/I2C_1_MASTER.c **** 
 251              		.loc 1 245 0
 252 004e 1349     		ldr	r1, .L36+12
 253              	.LVL23:
 242:Generated_Source\PSoC5/I2C_1_MASTER.c **** 
 254              		.loc 1 242 0
 255 0050 1370     		strb	r3, [r2]
 256              	.LVL24:
 245:Generated_Source\PSoC5/I2C_1_MASTER.c **** 
 257              		.loc 1 245 0
 258 0052 0A78     		ldrb	r2, [r1]	@ zero_extendqisi2
 248:Generated_Source\PSoC5/I2C_1_MASTER.c ****                                                   I2C_1_READ_FLAG);
 259              		.loc 1 248 0
 260 0054 C0B2     		uxtb	r0, r0
 245:Generated_Source\PSoC5/I2C_1_MASTER.c **** 
 261              		.loc 1 245 0
 262 0056 02F0FE02 		and	r2, r2, #254
 263 005a 0A70     		strb	r2, [r1]
 248:Generated_Source\PSoC5/I2C_1_MASTER.c ****                                                   I2C_1_READ_FLAG);
 264              		.loc 1 248 0
 265 005c 144A     		ldr	r2, .L36+32
 251:Generated_Source\PSoC5/I2C_1_MASTER.c ****             {
 266              		.loc 1 251 0
 267 005e 13F00103 		ands	r3, r3, #1
 268              	.LVL25:
ARM GAS  C:\Users\Joe\AppData\Local\Temp\cc0Ovijc.s 			page 11


 248:Generated_Source\PSoC5/I2C_1_MASTER.c ****                                                   I2C_1_READ_FLAG);
 269              		.loc 1 248 0
 270 0062 1070     		strb	r0, [r2]
 271              	.LVL26:
 272 0064 1349     		ldr	r1, .L36+36
 273 0066 02F17102 		add	r2, r2, #113
 274 006a 1348     		ldr	r0, .L36+40
 251:Generated_Source\PSoC5/I2C_1_MASTER.c ****             {
 275              		.loc 1 251 0
 276 006c 05D0     		beq	.L35
 253:Generated_Source\PSoC5/I2C_1_MASTER.c ****             }
 277              		.loc 1 253 0
 278 006e 3223     		movs	r3, #50
 279 0070 1370     		strb	r3, [r2]
 280 0072 FF23     		movs	r3, #255
 281 0074 0B70     		strb	r3, [r1]
 282 0076 0470     		strb	r4, [r0]
 283 0078 04E0     		b	.L25
 284              	.L35:
 257:Generated_Source\PSoC5/I2C_1_MASTER.c ****             }
 285              		.loc 1 257 0
 286 007a 8224     		movs	r4, #130
 287 007c 1470     		strb	r4, [r2]
 288 007e FF22     		movs	r2, #255
 289 0080 0A70     		strb	r2, [r1]
 290 0082 0370     		strb	r3, [r0]
 291              	.L25:
 261:Generated_Source\PSoC5/I2C_1_MASTER.c ****         }
 292              		.loc 1 261 0
 293 0084 0D4B     		ldr	r3, .L36+44
 294 0086 0122     		movs	r2, #1
 295 0088 1A60     		str	r2, [r3]
 296 008a 0020     		movs	r0, #0
 297 008c 70BD     		pop	{r4, r5, r6, pc}
 298              	.L37:
 299 008e 00BF     		.align	2
 300              	.L36:
 301 0090 00000000 		.word	I2C_1_state
 302 0094 65640040 		.word	1073767525
 303 0098 80E200E0 		.word	-536812928
 304 009c 00000000 		.word	I2C_1_mstrStatus
 305 00a0 00000000 		.word	I2C_1_mstrRdBufIndex
 306 00a4 00000000 		.word	I2C_1_mstrRdBufSize
 307 00a8 00000000 		.word	I2C_1_mstrRdBufPtr
 308 00ac 00000000 		.word	I2C_1_mstrControl
 309 00b0 04640040 		.word	1073767428
 310 00b4 14640040 		.word	1073767444
 311 00b8 54640040 		.word	1073767508
 312 00bc 00E100E0 		.word	-536813312
 313              		.cfi_endproc
 314              	.LFE1:
 315              		.size	I2C_1_MasterReadBuf, .-I2C_1_MasterReadBuf
 316              		.section	.text.I2C_1_MasterSendStart,"ax",%progbits
 317              		.align	1
 318              		.global	I2C_1_MasterSendStart
 319              		.thumb
 320              		.thumb_func
ARM GAS  C:\Users\Joe\AppData\Local\Temp\cc0Ovijc.s 			page 12


 321              		.type	I2C_1_MasterSendStart, %function
 322              	I2C_1_MasterSendStart:
 323              	.LFB2:
 266:Generated_Source\PSoC5/I2C_1_MASTER.c **** }
 267:Generated_Source\PSoC5/I2C_1_MASTER.c **** 
 268:Generated_Source\PSoC5/I2C_1_MASTER.c **** 
 269:Generated_Source\PSoC5/I2C_1_MASTER.c **** /*******************************************************************************
 270:Generated_Source\PSoC5/I2C_1_MASTER.c **** * Function Name: I2C_1_MasterSendStart
 271:Generated_Source\PSoC5/I2C_1_MASTER.c **** ********************************************************************************
 272:Generated_Source\PSoC5/I2C_1_MASTER.c **** *
 273:Generated_Source\PSoC5/I2C_1_MASTER.c **** * Summary:
 274:Generated_Source\PSoC5/I2C_1_MASTER.c **** *  Generates Start condition and sends slave address with read/write bit.
 275:Generated_Source\PSoC5/I2C_1_MASTER.c **** *
 276:Generated_Source\PSoC5/I2C_1_MASTER.c **** * Parameters:
 277:Generated_Source\PSoC5/I2C_1_MASTER.c **** *  slaveAddress:  7-bit slave address.
 278:Generated_Source\PSoC5/I2C_1_MASTER.c **** *  R_nW:          Zero, send write command, non-zero send read command.
 279:Generated_Source\PSoC5/I2C_1_MASTER.c **** *
 280:Generated_Source\PSoC5/I2C_1_MASTER.c **** * Return:
 281:Generated_Source\PSoC5/I2C_1_MASTER.c **** *  Status error - Zero means no errors.
 282:Generated_Source\PSoC5/I2C_1_MASTER.c **** *
 283:Generated_Source\PSoC5/I2C_1_MASTER.c **** * Side Effects:
 284:Generated_Source\PSoC5/I2C_1_MASTER.c **** *  This function is entered without a "byte complete" bit set in the I2C_CSR
 285:Generated_Source\PSoC5/I2C_1_MASTER.c **** *  register. It does not exit until it is set.
 286:Generated_Source\PSoC5/I2C_1_MASTER.c **** *
 287:Generated_Source\PSoC5/I2C_1_MASTER.c **** * Global variables:
 288:Generated_Source\PSoC5/I2C_1_MASTER.c **** *  I2C_1_state - The global variable used to store a current state of
 289:Generated_Source\PSoC5/I2C_1_MASTER.c **** *                           the software FSM.
 290:Generated_Source\PSoC5/I2C_1_MASTER.c **** *
 291:Generated_Source\PSoC5/I2C_1_MASTER.c **** * Reentrant:
 292:Generated_Source\PSoC5/I2C_1_MASTER.c **** *  No.
 293:Generated_Source\PSoC5/I2C_1_MASTER.c **** *
 294:Generated_Source\PSoC5/I2C_1_MASTER.c **** *******************************************************************************/
 295:Generated_Source\PSoC5/I2C_1_MASTER.c **** uint8 I2C_1_MasterSendStart(uint8 slaveAddress, uint8 R_nW)
 296:Generated_Source\PSoC5/I2C_1_MASTER.c ****       
 297:Generated_Source\PSoC5/I2C_1_MASTER.c **** {
 324              		.loc 1 297 0
 325              		.cfi_startproc
 326              		@ args = 0, pretend = 0, frame = 0
 327              		@ frame_needed = 0, uses_anonymous_args = 0
 328              	.LVL27:
 329 0000 30B5     		push	{r4, r5, lr}
 330              		.cfi_def_cfa_offset 12
 331              		.cfi_offset 4, -12
 332              		.cfi_offset 5, -8
 333              		.cfi_offset 14, -4
 298:Generated_Source\PSoC5/I2C_1_MASTER.c ****     uint8 errStatus;
 299:Generated_Source\PSoC5/I2C_1_MASTER.c **** 
 300:Generated_Source\PSoC5/I2C_1_MASTER.c ****     errStatus = I2C_1_MSTR_NOT_READY;
 301:Generated_Source\PSoC5/I2C_1_MASTER.c **** 
 302:Generated_Source\PSoC5/I2C_1_MASTER.c ****     /* If IDLE, check if bus is free */
 303:Generated_Source\PSoC5/I2C_1_MASTER.c ****     if(I2C_1_SM_IDLE == I2C_1_state)
 334              		.loc 1 303 0
 335 0002 1B4A     		ldr	r2, .L51
 336 0004 1378     		ldrb	r3, [r2]	@ zero_extendqisi2
 337 0006 102B     		cmp	r3, #16
 338 0008 2CD1     		bne	.L44
 304:Generated_Source\PSoC5/I2C_1_MASTER.c ****     {
ARM GAS  C:\Users\Joe\AppData\Local\Temp\cc0Ovijc.s 			page 13


 305:Generated_Source\PSoC5/I2C_1_MASTER.c ****         /* If bus is free, generate Start condition */
 306:Generated_Source\PSoC5/I2C_1_MASTER.c ****         if(I2C_1_CHECK_BUS_FREE(I2C_1_MCSR_REG))
 339              		.loc 1 306 0
 340 000a 1A4B     		ldr	r3, .L51+4
 341 000c 1C78     		ldrb	r4, [r3]	@ zero_extendqisi2
 342 000e 14F0100F 		tst	r4, #16
 343 0012 1C46     		mov	r4, r3
 344 0014 4FF00103 		mov	r3, #1
 345 0018 26D1     		bne	.L45
 307:Generated_Source\PSoC5/I2C_1_MASTER.c ****         {
 308:Generated_Source\PSoC5/I2C_1_MASTER.c ****             /* Disable interrupt for manual master operation */
 309:Generated_Source\PSoC5/I2C_1_MASTER.c ****             I2C_1_DisableInt();
 346              		.loc 1 309 0
 347 001a 174D     		ldr	r5, .L51+8
 310:Generated_Source\PSoC5/I2C_1_MASTER.c **** 
 311:Generated_Source\PSoC5/I2C_1_MASTER.c ****             /* Set address and read/write flag */
 312:Generated_Source\PSoC5/I2C_1_MASTER.c ****             slaveAddress = (uint8) (slaveAddress << I2C_1_SLAVE_ADDR_SHIFT);
 348              		.loc 1 312 0
 349 001c 9840     		lsls	r0, r0, r3
 350              	.LVL28:
 309:Generated_Source\PSoC5/I2C_1_MASTER.c **** 
 351              		.loc 1 309 0
 352 001e 2B60     		str	r3, [r5]
 353              		.loc 1 312 0
 354 0020 C0B2     		uxtb	r0, r0
 355              	.LVL29:
 313:Generated_Source\PSoC5/I2C_1_MASTER.c ****             if(0u != R_nW)
 356              		.loc 1 313 0
 357 0022 11B1     		cbz	r1, .L40
 314:Generated_Source\PSoC5/I2C_1_MASTER.c ****             {
 315:Generated_Source\PSoC5/I2C_1_MASTER.c ****                 slaveAddress |= I2C_1_READ_FLAG;
 358              		.loc 1 315 0
 359 0024 1843     		orrs	r0, r0, r3
 360              	.LVL30:
 316:Generated_Source\PSoC5/I2C_1_MASTER.c ****                 I2C_1_state = I2C_1_SM_MSTR_RD_ADDR;
 361              		.loc 1 316 0
 362 0026 4923     		movs	r3, #73
 363 0028 00E0     		b	.L50
 364              	.L40:
 317:Generated_Source\PSoC5/I2C_1_MASTER.c ****             }
 318:Generated_Source\PSoC5/I2C_1_MASTER.c ****             else
 319:Generated_Source\PSoC5/I2C_1_MASTER.c ****             {
 320:Generated_Source\PSoC5/I2C_1_MASTER.c ****                 I2C_1_state = I2C_1_SM_MSTR_WR_ADDR;
 365              		.loc 1 320 0
 366 002a 4523     		movs	r3, #69
 367              	.L50:
 368 002c 1370     		strb	r3, [r2]
 321:Generated_Source\PSoC5/I2C_1_MASTER.c ****             }
 322:Generated_Source\PSoC5/I2C_1_MASTER.c **** 
 323:Generated_Source\PSoC5/I2C_1_MASTER.c ****             /* Hardware actions: write address and generate Start */
 324:Generated_Source\PSoC5/I2C_1_MASTER.c ****             I2C_1_DATA_REG = slaveAddress;
 369              		.loc 1 324 0
 370 002e 134B     		ldr	r3, .L51+12
 325:Generated_Source\PSoC5/I2C_1_MASTER.c ****             I2C_1_GENERATE_START_MANUAL;
 371              		.loc 1 325 0
 372 0030 8221     		movs	r1, #130
 373              	.LVL31:
ARM GAS  C:\Users\Joe\AppData\Local\Temp\cc0Ovijc.s 			page 14


 324:Generated_Source\PSoC5/I2C_1_MASTER.c ****             I2C_1_GENERATE_START_MANUAL;
 374              		.loc 1 324 0
 375 0032 1870     		strb	r0, [r3]
 376              		.loc 1 325 0
 377 0034 83F87110 		strb	r1, [r3, #113]
 378 0038 FF21     		movs	r1, #255
 379 003a 1033     		adds	r3, r3, #16
 380 003c 1970     		strb	r1, [r3]
 381 003e 1049     		ldr	r1, .L51+16
 382 0040 0020     		movs	r0, #0
 383              	.LVL32:
 384 0042 0870     		strb	r0, [r1]
 385              	.L42:
 386              		.loc 1 325 0 is_stmt 0 discriminator 2
 387 0044 1978     		ldrb	r1, [r3]	@ zero_extendqisi2
 388 0046 0029     		cmp	r1, #0
 389 0048 FCD1     		bne	.L42
 390              	.L43:
 326:Generated_Source\PSoC5/I2C_1_MASTER.c **** 
 327:Generated_Source\PSoC5/I2C_1_MASTER.c ****             /* Wait until address is transferred */
 328:Generated_Source\PSoC5/I2C_1_MASTER.c ****             while(I2C_1_WAIT_BYTE_COMPLETE(I2C_1_CSR_REG))
 391              		.loc 1 328 0 is_stmt 1 discriminator 1
 392 004a 2378     		ldrb	r3, [r4]	@ zero_extendqisi2
 393 004c DB07     		lsls	r3, r3, #31
 394 004e FCD5     		bpl	.L43
 329:Generated_Source\PSoC5/I2C_1_MASTER.c ****             {
 330:Generated_Source\PSoC5/I2C_1_MASTER.c ****             }
 331:Generated_Source\PSoC5/I2C_1_MASTER.c **** 
 332:Generated_Source\PSoC5/I2C_1_MASTER.c ****         #if(I2C_1_MODE_MULTI_MASTER_SLAVE_ENABLED)
 333:Generated_Source\PSoC5/I2C_1_MASTER.c ****             if(I2C_1_CHECK_START_GEN(I2C_1_MCSR_REG))
 334:Generated_Source\PSoC5/I2C_1_MASTER.c ****             {
 335:Generated_Source\PSoC5/I2C_1_MASTER.c ****                 I2C_1_CLEAR_START_GEN;
 336:Generated_Source\PSoC5/I2C_1_MASTER.c **** 
 337:Generated_Source\PSoC5/I2C_1_MASTER.c ****                 /* Start condition was not generated: reset FSM to IDLE */
 338:Generated_Source\PSoC5/I2C_1_MASTER.c ****                 I2C_1_state = I2C_1_SM_IDLE;
 339:Generated_Source\PSoC5/I2C_1_MASTER.c ****                 errStatus = I2C_1_MSTR_ERR_ABORT_START_GEN;
 340:Generated_Source\PSoC5/I2C_1_MASTER.c ****             }
 341:Generated_Source\PSoC5/I2C_1_MASTER.c ****             else
 342:Generated_Source\PSoC5/I2C_1_MASTER.c ****         #endif /* (I2C_1_MODE_MULTI_MASTER_SLAVE_ENABLED) */
 343:Generated_Source\PSoC5/I2C_1_MASTER.c **** 
 344:Generated_Source\PSoC5/I2C_1_MASTER.c ****         #if(I2C_1_MODE_MULTI_MASTER_ENABLED)
 345:Generated_Source\PSoC5/I2C_1_MASTER.c ****             if(I2C_1_CHECK_LOST_ARB(I2C_1_CSR_REG))
 346:Generated_Source\PSoC5/I2C_1_MASTER.c ****             {
 347:Generated_Source\PSoC5/I2C_1_MASTER.c ****                 I2C_1_BUS_RELEASE_MANUAL;
 348:Generated_Source\PSoC5/I2C_1_MASTER.c **** 
 349:Generated_Source\PSoC5/I2C_1_MASTER.c ****                 /* Master lost arbitrage: reset FSM to IDLE */
 350:Generated_Source\PSoC5/I2C_1_MASTER.c ****                 I2C_1_state = I2C_1_SM_IDLE;
 351:Generated_Source\PSoC5/I2C_1_MASTER.c ****                 errStatus = I2C_1_MSTR_ERR_ARB_LOST;
 352:Generated_Source\PSoC5/I2C_1_MASTER.c ****             }
 353:Generated_Source\PSoC5/I2C_1_MASTER.c ****             else
 354:Generated_Source\PSoC5/I2C_1_MASTER.c ****         #endif /* (I2C_1_MODE_MULTI_MASTER_ENABLED) */
 355:Generated_Source\PSoC5/I2C_1_MASTER.c **** 
 356:Generated_Source\PSoC5/I2C_1_MASTER.c ****             if(I2C_1_CHECK_ADDR_NAK(I2C_1_CSR_REG))
 395              		.loc 1 356 0
 396 0050 084B     		ldr	r3, .L51+4
 397 0052 1B78     		ldrb	r3, [r3]	@ zero_extendqisi2
 398 0054 03F00A03 		and	r3, r3, #10
ARM GAS  C:\Users\Joe\AppData\Local\Temp\cc0Ovijc.s 			page 15


 399 0058 0A2B     		cmp	r3, #10
 400 005a 07D1     		bne	.L46
 357:Generated_Source\PSoC5/I2C_1_MASTER.c ****             {
 358:Generated_Source\PSoC5/I2C_1_MASTER.c ****                 /* Address has been NACKed: reset FSM to IDLE */
 359:Generated_Source\PSoC5/I2C_1_MASTER.c ****                 I2C_1_state = I2C_1_SM_IDLE;
 401              		.loc 1 359 0
 402 005c 1023     		movs	r3, #16
 403 005e 1370     		strb	r3, [r2]
 404              	.LVL33:
 360:Generated_Source\PSoC5/I2C_1_MASTER.c ****                 errStatus = I2C_1_MSTR_ERR_LB_NAK;
 405              		.loc 1 360 0
 406 0060 0320     		movs	r0, #3
 407 0062 30BD     		pop	{r4, r5, pc}
 408              	.LVL34:
 409              	.L44:
 300:Generated_Source\PSoC5/I2C_1_MASTER.c **** 
 410              		.loc 1 300 0
 411 0064 0220     		movs	r0, #2
 412              	.LVL35:
 413 0066 30BD     		pop	{r4, r5, pc}
 414              	.LVL36:
 415              	.L45:
 361:Generated_Source\PSoC5/I2C_1_MASTER.c ****             }
 362:Generated_Source\PSoC5/I2C_1_MASTER.c ****             else
 363:Generated_Source\PSoC5/I2C_1_MASTER.c ****             {
 364:Generated_Source\PSoC5/I2C_1_MASTER.c ****                 /* Start was sent without errors */
 365:Generated_Source\PSoC5/I2C_1_MASTER.c ****                 errStatus = I2C_1_MSTR_NO_ERROR;
 366:Generated_Source\PSoC5/I2C_1_MASTER.c ****             }
 367:Generated_Source\PSoC5/I2C_1_MASTER.c ****         }
 368:Generated_Source\PSoC5/I2C_1_MASTER.c ****         else
 369:Generated_Source\PSoC5/I2C_1_MASTER.c ****         {
 370:Generated_Source\PSoC5/I2C_1_MASTER.c ****             errStatus = I2C_1_MSTR_BUS_BUSY;
 416              		.loc 1 370 0
 417 0068 1846     		mov	r0, r3
 418              	.LVL37:
 419 006a 30BD     		pop	{r4, r5, pc}
 420              	.LVL38:
 421              	.L46:
 365:Generated_Source\PSoC5/I2C_1_MASTER.c ****             }
 422              		.loc 1 365 0
 423 006c 0020     		movs	r0, #0
 424              	.LVL39:
 371:Generated_Source\PSoC5/I2C_1_MASTER.c ****         }
 372:Generated_Source\PSoC5/I2C_1_MASTER.c ****     }
 373:Generated_Source\PSoC5/I2C_1_MASTER.c **** 
 374:Generated_Source\PSoC5/I2C_1_MASTER.c ****     return(errStatus);
 375:Generated_Source\PSoC5/I2C_1_MASTER.c **** }
 425              		.loc 1 375 0
 426 006e 30BD     		pop	{r4, r5, pc}
 427              	.L52:
 428              		.align	2
 429              	.L51:
 430 0070 00000000 		.word	I2C_1_state
 431 0074 65640040 		.word	1073767525
 432 0078 80E100E0 		.word	-536813184
 433 007c 04640040 		.word	1073767428
 434 0080 54640040 		.word	1073767508
ARM GAS  C:\Users\Joe\AppData\Local\Temp\cc0Ovijc.s 			page 16


 435              		.cfi_endproc
 436              	.LFE2:
 437              		.size	I2C_1_MasterSendStart, .-I2C_1_MasterSendStart
 438              		.section	.text.I2C_1_MasterSendRestart,"ax",%progbits
 439              		.align	1
 440              		.global	I2C_1_MasterSendRestart
 441              		.thumb
 442              		.thumb_func
 443              		.type	I2C_1_MasterSendRestart, %function
 444              	I2C_1_MasterSendRestart:
 445              	.LFB3:
 376:Generated_Source\PSoC5/I2C_1_MASTER.c **** 
 377:Generated_Source\PSoC5/I2C_1_MASTER.c **** 
 378:Generated_Source\PSoC5/I2C_1_MASTER.c **** /*******************************************************************************
 379:Generated_Source\PSoC5/I2C_1_MASTER.c **** * Function Name: I2C_1_MasterSendRestart
 380:Generated_Source\PSoC5/I2C_1_MASTER.c **** ********************************************************************************
 381:Generated_Source\PSoC5/I2C_1_MASTER.c **** *
 382:Generated_Source\PSoC5/I2C_1_MASTER.c **** * Summary:
 383:Generated_Source\PSoC5/I2C_1_MASTER.c **** *  Generates ReStart condition and sends slave address with read/write bit.
 384:Generated_Source\PSoC5/I2C_1_MASTER.c **** *
 385:Generated_Source\PSoC5/I2C_1_MASTER.c **** * Parameters:
 386:Generated_Source\PSoC5/I2C_1_MASTER.c **** *  slaveAddress:  7-bit slave address.
 387:Generated_Source\PSoC5/I2C_1_MASTER.c **** *  R_nW:          Zero, send write command, non-zero send read command.
 388:Generated_Source\PSoC5/I2C_1_MASTER.c **** *
 389:Generated_Source\PSoC5/I2C_1_MASTER.c **** * Return:
 390:Generated_Source\PSoC5/I2C_1_MASTER.c **** *  Status error - Zero means no errors.
 391:Generated_Source\PSoC5/I2C_1_MASTER.c **** *
 392:Generated_Source\PSoC5/I2C_1_MASTER.c **** * Side Effects:
 393:Generated_Source\PSoC5/I2C_1_MASTER.c **** *  This function is entered without a "byte complete" bit set in the I2C_CSR
 394:Generated_Source\PSoC5/I2C_1_MASTER.c **** *  register. It does not exit until it is set.
 395:Generated_Source\PSoC5/I2C_1_MASTER.c **** *
 396:Generated_Source\PSoC5/I2C_1_MASTER.c **** * Global variables:
 397:Generated_Source\PSoC5/I2C_1_MASTER.c **** *  I2C_1_state - The global variable used to store a current state of
 398:Generated_Source\PSoC5/I2C_1_MASTER.c **** *                           the software FSM.
 399:Generated_Source\PSoC5/I2C_1_MASTER.c **** *
 400:Generated_Source\PSoC5/I2C_1_MASTER.c **** * Reentrant:
 401:Generated_Source\PSoC5/I2C_1_MASTER.c **** *  No.
 402:Generated_Source\PSoC5/I2C_1_MASTER.c **** *
 403:Generated_Source\PSoC5/I2C_1_MASTER.c **** *******************************************************************************/
 404:Generated_Source\PSoC5/I2C_1_MASTER.c **** uint8 I2C_1_MasterSendRestart(uint8 slaveAddress, uint8 R_nW)
 405:Generated_Source\PSoC5/I2C_1_MASTER.c ****       
 406:Generated_Source\PSoC5/I2C_1_MASTER.c **** {
 446              		.loc 1 406 0
 447              		.cfi_startproc
 448              		@ args = 0, pretend = 0, frame = 0
 449              		@ frame_needed = 0, uses_anonymous_args = 0
 450              	.LVL40:
 451 0000 10B5     		push	{r4, lr}
 452              		.cfi_def_cfa_offset 8
 453              		.cfi_offset 4, -8
 454              		.cfi_offset 14, -4
 407:Generated_Source\PSoC5/I2C_1_MASTER.c ****     uint8 errStatus;
 408:Generated_Source\PSoC5/I2C_1_MASTER.c **** 
 409:Generated_Source\PSoC5/I2C_1_MASTER.c ****     errStatus = I2C_1_MSTR_NOT_READY;
 410:Generated_Source\PSoC5/I2C_1_MASTER.c **** 
 411:Generated_Source\PSoC5/I2C_1_MASTER.c ****     /* Check if START condition was generated */
 412:Generated_Source\PSoC5/I2C_1_MASTER.c ****     if(I2C_1_CHECK_MASTER_MODE(I2C_1_MCSR_REG))
ARM GAS  C:\Users\Joe\AppData\Local\Temp\cc0Ovijc.s 			page 17


 455              		.loc 1 412 0
 456 0002 174B     		ldr	r3, .L65
 457 0004 1A78     		ldrb	r2, [r3]	@ zero_extendqisi2
 458 0006 12F0040F 		tst	r2, #4
 459 000a 1A46     		mov	r2, r3
 460 000c 24D0     		beq	.L59
 413:Generated_Source\PSoC5/I2C_1_MASTER.c ****     {
 414:Generated_Source\PSoC5/I2C_1_MASTER.c ****         /* Set address and read/write flag */
 415:Generated_Source\PSoC5/I2C_1_MASTER.c ****         slaveAddress = (uint8) (slaveAddress << I2C_1_SLAVE_ADDR_SHIFT);
 461              		.loc 1 415 0
 462 000e 4000     		lsls	r0, r0, #1
 463              	.LVL41:
 464 0010 C0B2     		uxtb	r0, r0
 465              	.LVL42:
 466 0012 144C     		ldr	r4, .L65+4
 416:Generated_Source\PSoC5/I2C_1_MASTER.c ****         if(0u != R_nW)
 467              		.loc 1 416 0
 468 0014 19B1     		cbz	r1, .L55
 417:Generated_Source\PSoC5/I2C_1_MASTER.c ****         {
 418:Generated_Source\PSoC5/I2C_1_MASTER.c ****             slaveAddress |= I2C_1_READ_FLAG;
 469              		.loc 1 418 0
 470 0016 40F00100 		orr	r0, r0, #1
 471              	.LVL43:
 419:Generated_Source\PSoC5/I2C_1_MASTER.c ****             I2C_1_state = I2C_1_SM_MSTR_RD_ADDR;
 472              		.loc 1 419 0
 473 001a 4923     		movs	r3, #73
 474 001c 00E0     		b	.L64
 475              	.L55:
 420:Generated_Source\PSoC5/I2C_1_MASTER.c ****         }
 421:Generated_Source\PSoC5/I2C_1_MASTER.c ****         else
 422:Generated_Source\PSoC5/I2C_1_MASTER.c ****         {
 423:Generated_Source\PSoC5/I2C_1_MASTER.c ****             I2C_1_state = I2C_1_SM_MSTR_WR_ADDR;
 476              		.loc 1 423 0
 477 001e 4523     		movs	r3, #69
 478              	.L64:
 479 0020 2370     		strb	r3, [r4]
 424:Generated_Source\PSoC5/I2C_1_MASTER.c ****         }
 425:Generated_Source\PSoC5/I2C_1_MASTER.c **** 
 426:Generated_Source\PSoC5/I2C_1_MASTER.c ****         /* Hardware actions: write address and generate ReStart */
 427:Generated_Source\PSoC5/I2C_1_MASTER.c ****         I2C_1_DATA_REG = slaveAddress;
 480              		.loc 1 427 0
 481 0022 114B     		ldr	r3, .L65+8
 428:Generated_Source\PSoC5/I2C_1_MASTER.c ****         I2C_1_GENERATE_RESTART_MANUAL;
 482              		.loc 1 428 0
 483 0024 3221     		movs	r1, #50
 484              	.LVL44:
 427:Generated_Source\PSoC5/I2C_1_MASTER.c ****         I2C_1_GENERATE_RESTART_MANUAL;
 485              		.loc 1 427 0
 486 0026 1870     		strb	r0, [r3]
 487              		.loc 1 428 0
 488 0028 83F87110 		strb	r1, [r3, #113]
 489 002c FF21     		movs	r1, #255
 490 002e 1033     		adds	r3, r3, #16
 491 0030 1970     		strb	r1, [r3]
 492 0032 0E49     		ldr	r1, .L65+12
 493 0034 0020     		movs	r0, #0
 494              	.LVL45:
ARM GAS  C:\Users\Joe\AppData\Local\Temp\cc0Ovijc.s 			page 18


 495 0036 0870     		strb	r0, [r1]
 496              	.L57:
 497              		.loc 1 428 0 is_stmt 0 discriminator 2
 498 0038 1978     		ldrb	r1, [r3]	@ zero_extendqisi2
 499 003a 0029     		cmp	r1, #0
 500 003c FCD1     		bne	.L57
 501              	.L58:
 429:Generated_Source\PSoC5/I2C_1_MASTER.c **** 
 430:Generated_Source\PSoC5/I2C_1_MASTER.c ****         /* Wait until address has been transferred */
 431:Generated_Source\PSoC5/I2C_1_MASTER.c ****         while(I2C_1_WAIT_BYTE_COMPLETE(I2C_1_CSR_REG))
 502              		.loc 1 431 0 is_stmt 1 discriminator 1
 503 003e 1378     		ldrb	r3, [r2]	@ zero_extendqisi2
 504 0040 DB07     		lsls	r3, r3, #31
 505 0042 FCD5     		bpl	.L58
 432:Generated_Source\PSoC5/I2C_1_MASTER.c ****         {
 433:Generated_Source\PSoC5/I2C_1_MASTER.c ****         }
 434:Generated_Source\PSoC5/I2C_1_MASTER.c **** 
 435:Generated_Source\PSoC5/I2C_1_MASTER.c ****     #if(I2C_1_MODE_MULTI_MASTER_ENABLED)
 436:Generated_Source\PSoC5/I2C_1_MASTER.c ****         if(I2C_1_CHECK_LOST_ARB(I2C_1_CSR_REG))
 437:Generated_Source\PSoC5/I2C_1_MASTER.c ****         {
 438:Generated_Source\PSoC5/I2C_1_MASTER.c ****             I2C_1_BUS_RELEASE_MANUAL;
 439:Generated_Source\PSoC5/I2C_1_MASTER.c **** 
 440:Generated_Source\PSoC5/I2C_1_MASTER.c ****             /* Master lost arbitrage: reset FSM to IDLE */
 441:Generated_Source\PSoC5/I2C_1_MASTER.c ****             I2C_1_state = I2C_1_SM_IDLE;
 442:Generated_Source\PSoC5/I2C_1_MASTER.c ****             errStatus = I2C_1_MSTR_ERR_ARB_LOST;
 443:Generated_Source\PSoC5/I2C_1_MASTER.c ****         }
 444:Generated_Source\PSoC5/I2C_1_MASTER.c ****         else
 445:Generated_Source\PSoC5/I2C_1_MASTER.c ****     #endif /* (I2C_1_MODE_MULTI_MASTER_ENABLED) */
 446:Generated_Source\PSoC5/I2C_1_MASTER.c **** 
 447:Generated_Source\PSoC5/I2C_1_MASTER.c ****         if(I2C_1_CHECK_ADDR_NAK(I2C_1_CSR_REG))
 506              		.loc 1 447 0
 507 0044 064B     		ldr	r3, .L65
 508 0046 1B78     		ldrb	r3, [r3]	@ zero_extendqisi2
 509 0048 03F00A03 		and	r3, r3, #10
 510 004c 0A2B     		cmp	r3, #10
 511 004e 05D1     		bne	.L60
 448:Generated_Source\PSoC5/I2C_1_MASTER.c ****         {
 449:Generated_Source\PSoC5/I2C_1_MASTER.c ****             /* Address has been NACKed: reset FSM to IDLE */
 450:Generated_Source\PSoC5/I2C_1_MASTER.c ****             I2C_1_state = I2C_1_SM_IDLE;
 512              		.loc 1 450 0
 513 0050 1023     		movs	r3, #16
 514 0052 2370     		strb	r3, [r4]
 515              	.LVL46:
 451:Generated_Source\PSoC5/I2C_1_MASTER.c ****             errStatus = I2C_1_MSTR_ERR_LB_NAK;
 516              		.loc 1 451 0
 517 0054 0320     		movs	r0, #3
 518 0056 10BD     		pop	{r4, pc}
 519              	.LVL47:
 520              	.L59:
 409:Generated_Source\PSoC5/I2C_1_MASTER.c **** 
 521              		.loc 1 409 0
 522 0058 0220     		movs	r0, #2
 523              	.LVL48:
 524 005a 10BD     		pop	{r4, pc}
 525              	.LVL49:
 526              	.L60:
 452:Generated_Source\PSoC5/I2C_1_MASTER.c ****         }
ARM GAS  C:\Users\Joe\AppData\Local\Temp\cc0Ovijc.s 			page 19


 453:Generated_Source\PSoC5/I2C_1_MASTER.c ****         else
 454:Generated_Source\PSoC5/I2C_1_MASTER.c ****         {
 455:Generated_Source\PSoC5/I2C_1_MASTER.c ****             /* ReStart was sent without errors */
 456:Generated_Source\PSoC5/I2C_1_MASTER.c ****             errStatus = I2C_1_MSTR_NO_ERROR;
 527              		.loc 1 456 0
 528 005c 0020     		movs	r0, #0
 529              	.LVL50:
 457:Generated_Source\PSoC5/I2C_1_MASTER.c ****         }
 458:Generated_Source\PSoC5/I2C_1_MASTER.c ****     }
 459:Generated_Source\PSoC5/I2C_1_MASTER.c **** 
 460:Generated_Source\PSoC5/I2C_1_MASTER.c ****     return(errStatus);
 461:Generated_Source\PSoC5/I2C_1_MASTER.c **** }
 530              		.loc 1 461 0
 531 005e 10BD     		pop	{r4, pc}
 532              	.L66:
 533              		.align	2
 534              	.L65:
 535 0060 65640040 		.word	1073767525
 536 0064 00000000 		.word	I2C_1_state
 537 0068 04640040 		.word	1073767428
 538 006c 54640040 		.word	1073767508
 539              		.cfi_endproc
 540              	.LFE3:
 541              		.size	I2C_1_MasterSendRestart, .-I2C_1_MasterSendRestart
 542              		.section	.text.I2C_1_MasterSendStop,"ax",%progbits
 543              		.align	1
 544              		.global	I2C_1_MasterSendStop
 545              		.thumb
 546              		.thumb_func
 547              		.type	I2C_1_MasterSendStop, %function
 548              	I2C_1_MasterSendStop:
 549              	.LFB4:
 462:Generated_Source\PSoC5/I2C_1_MASTER.c **** 
 463:Generated_Source\PSoC5/I2C_1_MASTER.c **** 
 464:Generated_Source\PSoC5/I2C_1_MASTER.c **** /*******************************************************************************
 465:Generated_Source\PSoC5/I2C_1_MASTER.c **** * Function Name: I2C_1_MasterSendStop
 466:Generated_Source\PSoC5/I2C_1_MASTER.c **** ********************************************************************************
 467:Generated_Source\PSoC5/I2C_1_MASTER.c **** *
 468:Generated_Source\PSoC5/I2C_1_MASTER.c **** * Summary:
 469:Generated_Source\PSoC5/I2C_1_MASTER.c **** *  Generates I2C Stop condition on bus. Function do nothing if Start or Restart
 470:Generated_Source\PSoC5/I2C_1_MASTER.c **** *  condition was failed before call this function.
 471:Generated_Source\PSoC5/I2C_1_MASTER.c **** *
 472:Generated_Source\PSoC5/I2C_1_MASTER.c **** * Parameters:
 473:Generated_Source\PSoC5/I2C_1_MASTER.c **** *  None.
 474:Generated_Source\PSoC5/I2C_1_MASTER.c **** *
 475:Generated_Source\PSoC5/I2C_1_MASTER.c **** * Return:
 476:Generated_Source\PSoC5/I2C_1_MASTER.c **** *  Status error - Zero means no errors.
 477:Generated_Source\PSoC5/I2C_1_MASTER.c **** *
 478:Generated_Source\PSoC5/I2C_1_MASTER.c **** * Side Effects:
 479:Generated_Source\PSoC5/I2C_1_MASTER.c **** *  Stop generation is required to complete the transaction.
 480:Generated_Source\PSoC5/I2C_1_MASTER.c **** *  This function does not wait until a Stop condition is generated.
 481:Generated_Source\PSoC5/I2C_1_MASTER.c **** *
 482:Generated_Source\PSoC5/I2C_1_MASTER.c **** * Global variables:
 483:Generated_Source\PSoC5/I2C_1_MASTER.c **** *  I2C_1_state - The global variable used to store a current state of
 484:Generated_Source\PSoC5/I2C_1_MASTER.c **** *                           the software FSM.
 485:Generated_Source\PSoC5/I2C_1_MASTER.c **** *
 486:Generated_Source\PSoC5/I2C_1_MASTER.c **** * Reentrant:
ARM GAS  C:\Users\Joe\AppData\Local\Temp\cc0Ovijc.s 			page 20


 487:Generated_Source\PSoC5/I2C_1_MASTER.c **** *  No.
 488:Generated_Source\PSoC5/I2C_1_MASTER.c **** *
 489:Generated_Source\PSoC5/I2C_1_MASTER.c **** *******************************************************************************/
 490:Generated_Source\PSoC5/I2C_1_MASTER.c **** uint8 I2C_1_MasterSendStop(void) 
 491:Generated_Source\PSoC5/I2C_1_MASTER.c **** {
 550              		.loc 1 491 0
 551              		.cfi_startproc
 552              		@ args = 0, pretend = 0, frame = 0
 553              		@ frame_needed = 0, uses_anonymous_args = 0
 554              		@ link register save eliminated.
 555              	.LVL51:
 492:Generated_Source\PSoC5/I2C_1_MASTER.c ****     uint8 errStatus;
 493:Generated_Source\PSoC5/I2C_1_MASTER.c **** 
 494:Generated_Source\PSoC5/I2C_1_MASTER.c ****     errStatus = I2C_1_MSTR_NOT_READY;
 495:Generated_Source\PSoC5/I2C_1_MASTER.c **** 
 496:Generated_Source\PSoC5/I2C_1_MASTER.c ****     /* Check if master is active on bus */
 497:Generated_Source\PSoC5/I2C_1_MASTER.c ****     if(I2C_1_CHECK_MASTER_MODE(I2C_1_MCSR_REG))
 556              		.loc 1 497 0
 557 0000 0D4B     		ldr	r3, .L75
 558 0002 1A78     		ldrb	r2, [r3]	@ zero_extendqisi2
 559 0004 5207     		lsls	r2, r2, #29
 560 0006 14D5     		bpl	.L71
 498:Generated_Source\PSoC5/I2C_1_MASTER.c ****     {
 499:Generated_Source\PSoC5/I2C_1_MASTER.c ****         I2C_1_GENERATE_STOP_MANUAL;
 561              		.loc 1 499 0
 562 0008 0C4A     		ldr	r2, .L75+4
 563 000a 5221     		movs	r1, #82
 564 000c 1170     		strb	r1, [r2]
 565 000e FF21     		movs	r1, #255
 566 0010 613A     		subs	r2, r2, #97
 567 0012 1170     		strb	r1, [r2]
 568 0014 0A49     		ldr	r1, .L75+8
 569 0016 0020     		movs	r0, #0
 570 0018 0870     		strb	r0, [r1]
 571              	.L69:
 572              		.loc 1 499 0 is_stmt 0 discriminator 2
 573 001a 1178     		ldrb	r1, [r2]	@ zero_extendqisi2
 574 001c 0029     		cmp	r1, #0
 575 001e FCD1     		bne	.L69
 500:Generated_Source\PSoC5/I2C_1_MASTER.c ****         I2C_1_state = I2C_1_SM_IDLE;
 576              		.loc 1 500 0 is_stmt 1
 577 0020 084A     		ldr	r2, .L75+12
 578 0022 1021     		movs	r1, #16
 579 0024 1170     		strb	r1, [r2]
 580              	.L70:
 501:Generated_Source\PSoC5/I2C_1_MASTER.c **** 
 502:Generated_Source\PSoC5/I2C_1_MASTER.c ****         /* Wait until stop has been generated */
 503:Generated_Source\PSoC5/I2C_1_MASTER.c ****         while(I2C_1_WAIT_STOP_COMPLETE(I2C_1_CSR_REG))
 581              		.loc 1 503 0 discriminator 1
 582 0026 1A78     		ldrb	r2, [r3]	@ zero_extendqisi2
 583 0028 12F0210F 		tst	r2, #33
 584 002c FBD0     		beq	.L70
 504:Generated_Source\PSoC5/I2C_1_MASTER.c ****         {
 505:Generated_Source\PSoC5/I2C_1_MASTER.c ****         }
 506:Generated_Source\PSoC5/I2C_1_MASTER.c **** 
 507:Generated_Source\PSoC5/I2C_1_MASTER.c ****         errStatus = I2C_1_MSTR_NO_ERROR;
 585              		.loc 1 507 0
ARM GAS  C:\Users\Joe\AppData\Local\Temp\cc0Ovijc.s 			page 21


 586 002e 0020     		movs	r0, #0
 587 0030 7047     		bx	lr
 588              	.L71:
 494:Generated_Source\PSoC5/I2C_1_MASTER.c **** 
 589              		.loc 1 494 0
 590 0032 0220     		movs	r0, #2
 591              	.LVL52:
 508:Generated_Source\PSoC5/I2C_1_MASTER.c **** 
 509:Generated_Source\PSoC5/I2C_1_MASTER.c ****     #if(I2C_1_MODE_MULTI_MASTER_ENABLED)
 510:Generated_Source\PSoC5/I2C_1_MASTER.c ****         if(I2C_1_CHECK_LOST_ARB(I2C_1_CSR_REG))
 511:Generated_Source\PSoC5/I2C_1_MASTER.c ****         {
 512:Generated_Source\PSoC5/I2C_1_MASTER.c ****             I2C_1_BUS_RELEASE_MANUAL;
 513:Generated_Source\PSoC5/I2C_1_MASTER.c **** 
 514:Generated_Source\PSoC5/I2C_1_MASTER.c ****             /* NACK was generated by instead Stop */
 515:Generated_Source\PSoC5/I2C_1_MASTER.c ****             errStatus = I2C_1_MSTR_ERR_ARB_LOST;
 516:Generated_Source\PSoC5/I2C_1_MASTER.c ****         }
 517:Generated_Source\PSoC5/I2C_1_MASTER.c ****     #endif /* (I2C_1_MODE_MULTI_MASTER_ENABLED) */
 518:Generated_Source\PSoC5/I2C_1_MASTER.c ****     }
 519:Generated_Source\PSoC5/I2C_1_MASTER.c **** 
 520:Generated_Source\PSoC5/I2C_1_MASTER.c ****     return(errStatus);
 521:Generated_Source\PSoC5/I2C_1_MASTER.c **** }
 592              		.loc 1 521 0
 593 0034 7047     		bx	lr
 594              	.L76:
 595 0036 00BF     		.align	2
 596              	.L75:
 597 0038 65640040 		.word	1073767525
 598 003c 75640040 		.word	1073767541
 599 0040 54640040 		.word	1073767508
 600 0044 00000000 		.word	I2C_1_state
 601              		.cfi_endproc
 602              	.LFE4:
 603              		.size	I2C_1_MasterSendStop, .-I2C_1_MasterSendStop
 604              		.section	.text.I2C_1_MasterWriteByte,"ax",%progbits
 605              		.align	1
 606              		.global	I2C_1_MasterWriteByte
 607              		.thumb
 608              		.thumb_func
 609              		.type	I2C_1_MasterWriteByte, %function
 610              	I2C_1_MasterWriteByte:
 611              	.LFB5:
 522:Generated_Source\PSoC5/I2C_1_MASTER.c **** 
 523:Generated_Source\PSoC5/I2C_1_MASTER.c **** 
 524:Generated_Source\PSoC5/I2C_1_MASTER.c **** /*******************************************************************************
 525:Generated_Source\PSoC5/I2C_1_MASTER.c **** * Function Name: I2C_1_MasterWriteByte
 526:Generated_Source\PSoC5/I2C_1_MASTER.c **** ********************************************************************************
 527:Generated_Source\PSoC5/I2C_1_MASTER.c **** *
 528:Generated_Source\PSoC5/I2C_1_MASTER.c **** * Summary:
 529:Generated_Source\PSoC5/I2C_1_MASTER.c **** *  Sends one byte to a slave. A valid Start or ReStart condition must be
 530:Generated_Source\PSoC5/I2C_1_MASTER.c **** *  generated before this call this function. Function do nothing if Start or
 531:Generated_Source\PSoC5/I2C_1_MASTER.c **** *  Restart condition was failed before call this function.
 532:Generated_Source\PSoC5/I2C_1_MASTER.c **** *
 533:Generated_Source\PSoC5/I2C_1_MASTER.c **** * Parameters:
 534:Generated_Source\PSoC5/I2C_1_MASTER.c **** *  data:  The data byte to send to the slave.
 535:Generated_Source\PSoC5/I2C_1_MASTER.c **** *
 536:Generated_Source\PSoC5/I2C_1_MASTER.c **** * Return:
 537:Generated_Source\PSoC5/I2C_1_MASTER.c **** *  Status error - Zero means no errors.
ARM GAS  C:\Users\Joe\AppData\Local\Temp\cc0Ovijc.s 			page 22


 538:Generated_Source\PSoC5/I2C_1_MASTER.c **** *
 539:Generated_Source\PSoC5/I2C_1_MASTER.c **** * Side Effects:
 540:Generated_Source\PSoC5/I2C_1_MASTER.c **** *  This function is entered without a "byte complete" bit set in the I2C_CSR
 541:Generated_Source\PSoC5/I2C_1_MASTER.c **** *  register. It does not exit until it is set.
 542:Generated_Source\PSoC5/I2C_1_MASTER.c **** *
 543:Generated_Source\PSoC5/I2C_1_MASTER.c **** * Global variables:
 544:Generated_Source\PSoC5/I2C_1_MASTER.c **** *  I2C_1_state - The global variable used to store a current state of
 545:Generated_Source\PSoC5/I2C_1_MASTER.c **** *                           the software FSM.
 546:Generated_Source\PSoC5/I2C_1_MASTER.c **** *
 547:Generated_Source\PSoC5/I2C_1_MASTER.c **** *******************************************************************************/
 548:Generated_Source\PSoC5/I2C_1_MASTER.c **** uint8 I2C_1_MasterWriteByte(uint8 theByte) 
 549:Generated_Source\PSoC5/I2C_1_MASTER.c **** {
 612              		.loc 1 549 0
 613              		.cfi_startproc
 614              		@ args = 0, pretend = 0, frame = 0
 615              		@ frame_needed = 0, uses_anonymous_args = 0
 616              		@ link register save eliminated.
 617              	.LVL53:
 550:Generated_Source\PSoC5/I2C_1_MASTER.c ****     uint8 errStatus;
 551:Generated_Source\PSoC5/I2C_1_MASTER.c **** 
 552:Generated_Source\PSoC5/I2C_1_MASTER.c ****     errStatus = I2C_1_MSTR_NOT_READY;
 553:Generated_Source\PSoC5/I2C_1_MASTER.c **** 
 554:Generated_Source\PSoC5/I2C_1_MASTER.c ****     /* Check if START condition was generated */
 555:Generated_Source\PSoC5/I2C_1_MASTER.c ****     if(I2C_1_CHECK_MASTER_MODE(I2C_1_MCSR_REG))
 618              		.loc 1 555 0
 619 0000 134B     		ldr	r3, .L86
 620 0002 1A78     		ldrb	r2, [r3]	@ zero_extendqisi2
 621 0004 12F0040F 		tst	r2, #4
 622 0008 1A46     		mov	r2, r3
 623 000a 1ED0     		beq	.L82
 556:Generated_Source\PSoC5/I2C_1_MASTER.c ****     {
 557:Generated_Source\PSoC5/I2C_1_MASTER.c ****         I2C_1_DATA_REG = theByte;   /* Write DATA register */
 558:Generated_Source\PSoC5/I2C_1_MASTER.c ****         I2C_1_TRANSMIT_DATA_MANUAL; /* Set transmit mode   */
 624              		.loc 1 558 0
 625 000c 0621     		movs	r1, #6
 557:Generated_Source\PSoC5/I2C_1_MASTER.c ****         I2C_1_TRANSMIT_DATA_MANUAL; /* Set transmit mode   */
 626              		.loc 1 557 0
 627 000e 03F8610C 		strb	r0, [r3, #-97]
 628              		.loc 1 558 0
 629 0012 1974     		strb	r1, [r3, #16]
 630 0014 FF21     		movs	r1, #255
 631 0016 513B     		subs	r3, r3, #81
 632 0018 1970     		strb	r1, [r3]
 633 001a 0E49     		ldr	r1, .L86+4
 634 001c 0020     		movs	r0, #0
 635              	.LVL54:
 636 001e 0870     		strb	r0, [r1]
 637              	.L79:
 638              		.loc 1 558 0 is_stmt 0 discriminator 2
 639 0020 1978     		ldrb	r1, [r3]	@ zero_extendqisi2
 640 0022 0029     		cmp	r1, #0
 641 0024 FCD1     		bne	.L79
 559:Generated_Source\PSoC5/I2C_1_MASTER.c ****         I2C_1_state = I2C_1_SM_MSTR_WR_DATA;
 642              		.loc 1 559 0 is_stmt 1
 643 0026 0C4B     		ldr	r3, .L86+8
 644 0028 4621     		movs	r1, #70
 645 002a 1970     		strb	r1, [r3]
ARM GAS  C:\Users\Joe\AppData\Local\Temp\cc0Ovijc.s 			page 23


 646              	.L80:
 560:Generated_Source\PSoC5/I2C_1_MASTER.c **** 
 561:Generated_Source\PSoC5/I2C_1_MASTER.c ****         /* Wait until data byte has been transmitted */
 562:Generated_Source\PSoC5/I2C_1_MASTER.c ****         while(I2C_1_WAIT_BYTE_COMPLETE(I2C_1_CSR_REG))
 647              		.loc 1 562 0 discriminator 1
 648 002c 1178     		ldrb	r1, [r2]	@ zero_extendqisi2
 649 002e C907     		lsls	r1, r1, #31
 650 0030 FCD5     		bpl	.L80
 563:Generated_Source\PSoC5/I2C_1_MASTER.c ****         {
 564:Generated_Source\PSoC5/I2C_1_MASTER.c ****         }
 565:Generated_Source\PSoC5/I2C_1_MASTER.c **** 
 566:Generated_Source\PSoC5/I2C_1_MASTER.c ****     #if(I2C_1_MODE_MULTI_MASTER_ENABLED)
 567:Generated_Source\PSoC5/I2C_1_MASTER.c ****         if(I2C_1_CHECK_LOST_ARB(I2C_1_CSR_REG))
 568:Generated_Source\PSoC5/I2C_1_MASTER.c ****         {
 569:Generated_Source\PSoC5/I2C_1_MASTER.c ****             I2C_1_BUS_RELEASE_MANUAL;
 570:Generated_Source\PSoC5/I2C_1_MASTER.c **** 
 571:Generated_Source\PSoC5/I2C_1_MASTER.c ****             /* Master lost arbitrage: reset FSM to IDLE */
 572:Generated_Source\PSoC5/I2C_1_MASTER.c ****             I2C_1_state = I2C_1_SM_IDLE;
 573:Generated_Source\PSoC5/I2C_1_MASTER.c ****             errStatus = I2C_1_MSTR_ERR_ARB_LOST;
 574:Generated_Source\PSoC5/I2C_1_MASTER.c ****         }
 575:Generated_Source\PSoC5/I2C_1_MASTER.c ****         /* Check LRB bit */
 576:Generated_Source\PSoC5/I2C_1_MASTER.c ****         else
 577:Generated_Source\PSoC5/I2C_1_MASTER.c ****     #endif /* (I2C_1_MODE_MULTI_MASTER_ENABLED) */
 578:Generated_Source\PSoC5/I2C_1_MASTER.c **** 
 579:Generated_Source\PSoC5/I2C_1_MASTER.c ****         if(I2C_1_CHECK_DATA_ACK(I2C_1_CSR_REG))
 651              		.loc 1 579 0
 652 0032 074A     		ldr	r2, .L86
 653 0034 6021     		movs	r1, #96
 654 0036 1278     		ldrb	r2, [r2]	@ zero_extendqisi2
 580:Generated_Source\PSoC5/I2C_1_MASTER.c ****         {
 581:Generated_Source\PSoC5/I2C_1_MASTER.c ****             I2C_1_state = I2C_1_SM_MSTR_HALT;
 655              		.loc 1 581 0
 656 0038 1970     		strb	r1, [r3]
 579:Generated_Source\PSoC5/I2C_1_MASTER.c ****         {
 657              		.loc 1 579 0
 658 003a 02F00202 		and	r2, r2, #2
 659 003e 02F0FF00 		and	r0, r2, #255
 660 0042 02B9     		cbnz	r2, .L81
 661              	.LVL55:
 662 0044 7047     		bx	lr
 663              	.LVL56:
 664              	.L81:
 582:Generated_Source\PSoC5/I2C_1_MASTER.c ****             errStatus = I2C_1_MSTR_NO_ERROR;
 583:Generated_Source\PSoC5/I2C_1_MASTER.c ****         }
 584:Generated_Source\PSoC5/I2C_1_MASTER.c ****         else
 585:Generated_Source\PSoC5/I2C_1_MASTER.c ****         {
 586:Generated_Source\PSoC5/I2C_1_MASTER.c ****             I2C_1_state = I2C_1_SM_MSTR_HALT;
 587:Generated_Source\PSoC5/I2C_1_MASTER.c ****             errStatus = I2C_1_MSTR_ERR_LB_NAK;
 665              		.loc 1 587 0
 666 0046 0320     		movs	r0, #3
 667 0048 7047     		bx	lr
 668              	.LVL57:
 669              	.L82:
 552:Generated_Source\PSoC5/I2C_1_MASTER.c **** 
 670              		.loc 1 552 0
 671 004a 0220     		movs	r0, #2
 672              	.LVL58:
ARM GAS  C:\Users\Joe\AppData\Local\Temp\cc0Ovijc.s 			page 24


 588:Generated_Source\PSoC5/I2C_1_MASTER.c ****         }
 589:Generated_Source\PSoC5/I2C_1_MASTER.c ****     }
 590:Generated_Source\PSoC5/I2C_1_MASTER.c **** 
 591:Generated_Source\PSoC5/I2C_1_MASTER.c ****     return(errStatus);
 592:Generated_Source\PSoC5/I2C_1_MASTER.c **** }
 673              		.loc 1 592 0
 674 004c 7047     		bx	lr
 675              	.L87:
 676 004e 00BF     		.align	2
 677              	.L86:
 678 0050 65640040 		.word	1073767525
 679 0054 54640040 		.word	1073767508
 680 0058 00000000 		.word	I2C_1_state
 681              		.cfi_endproc
 682              	.LFE5:
 683              		.size	I2C_1_MasterWriteByte, .-I2C_1_MasterWriteByte
 684              		.section	.text.I2C_1_MasterReadByte,"ax",%progbits
 685              		.align	1
 686              		.global	I2C_1_MasterReadByte
 687              		.thumb
 688              		.thumb_func
 689              		.type	I2C_1_MasterReadByte, %function
 690              	I2C_1_MasterReadByte:
 691              	.LFB6:
 593:Generated_Source\PSoC5/I2C_1_MASTER.c **** 
 594:Generated_Source\PSoC5/I2C_1_MASTER.c **** 
 595:Generated_Source\PSoC5/I2C_1_MASTER.c **** /*******************************************************************************
 596:Generated_Source\PSoC5/I2C_1_MASTER.c **** * Function Name: I2C_1_MasterReadByte
 597:Generated_Source\PSoC5/I2C_1_MASTER.c **** ********************************************************************************
 598:Generated_Source\PSoC5/I2C_1_MASTER.c **** *
 599:Generated_Source\PSoC5/I2C_1_MASTER.c **** * Summary:
 600:Generated_Source\PSoC5/I2C_1_MASTER.c **** *  Reads one byte from a slave and ACK or NACK the transfer. A valid Start or
 601:Generated_Source\PSoC5/I2C_1_MASTER.c **** *  ReStart condition must be generated before this call this function. Function
 602:Generated_Source\PSoC5/I2C_1_MASTER.c **** *  do nothing if Start or Restart condition was failed before call this
 603:Generated_Source\PSoC5/I2C_1_MASTER.c **** *  function.
 604:Generated_Source\PSoC5/I2C_1_MASTER.c **** *
 605:Generated_Source\PSoC5/I2C_1_MASTER.c **** * Parameters:
 606:Generated_Source\PSoC5/I2C_1_MASTER.c **** *  acknNack:  Zero, response with NACK, if non-zero response with ACK.
 607:Generated_Source\PSoC5/I2C_1_MASTER.c **** *
 608:Generated_Source\PSoC5/I2C_1_MASTER.c **** * Return:
 609:Generated_Source\PSoC5/I2C_1_MASTER.c **** *  Byte read from slave.
 610:Generated_Source\PSoC5/I2C_1_MASTER.c **** *
 611:Generated_Source\PSoC5/I2C_1_MASTER.c **** * Side Effects:
 612:Generated_Source\PSoC5/I2C_1_MASTER.c **** *  This function is entered without a "byte complete" bit set in the I2C_CSR
 613:Generated_Source\PSoC5/I2C_1_MASTER.c **** *  register. It does not exit until it is set.
 614:Generated_Source\PSoC5/I2C_1_MASTER.c **** *
 615:Generated_Source\PSoC5/I2C_1_MASTER.c **** * Global variables:
 616:Generated_Source\PSoC5/I2C_1_MASTER.c **** *  I2C_1_state - The global variable used to store a current
 617:Generated_Source\PSoC5/I2C_1_MASTER.c **** *                           state of the software FSM.
 618:Generated_Source\PSoC5/I2C_1_MASTER.c **** *
 619:Generated_Source\PSoC5/I2C_1_MASTER.c **** * Reentrant:
 620:Generated_Source\PSoC5/I2C_1_MASTER.c **** *  No.
 621:Generated_Source\PSoC5/I2C_1_MASTER.c **** *
 622:Generated_Source\PSoC5/I2C_1_MASTER.c **** *******************************************************************************/
 623:Generated_Source\PSoC5/I2C_1_MASTER.c **** uint8 I2C_1_MasterReadByte(uint8 acknNak) 
 624:Generated_Source\PSoC5/I2C_1_MASTER.c **** {
 692              		.loc 1 624 0
ARM GAS  C:\Users\Joe\AppData\Local\Temp\cc0Ovijc.s 			page 25


 693              		.cfi_startproc
 694              		@ args = 0, pretend = 0, frame = 0
 695              		@ frame_needed = 0, uses_anonymous_args = 0
 696              	.LVL59:
 697 0000 30B5     		push	{r4, r5, lr}
 698              		.cfi_def_cfa_offset 12
 699              		.cfi_offset 4, -12
 700              		.cfi_offset 5, -8
 701              		.cfi_offset 14, -4
 625:Generated_Source\PSoC5/I2C_1_MASTER.c ****     uint8 theByte;
 626:Generated_Source\PSoC5/I2C_1_MASTER.c **** 
 627:Generated_Source\PSoC5/I2C_1_MASTER.c ****     theByte = 0u;
 628:Generated_Source\PSoC5/I2C_1_MASTER.c **** 
 629:Generated_Source\PSoC5/I2C_1_MASTER.c ****     /* Check if START condition was generated */
 630:Generated_Source\PSoC5/I2C_1_MASTER.c ****     if(I2C_1_CHECK_MASTER_MODE(I2C_1_MCSR_REG))
 702              		.loc 1 630 0
 703 0002 1949     		ldr	r1, .L100
 624:Generated_Source\PSoC5/I2C_1_MASTER.c ****     uint8 theByte;
 704              		.loc 1 624 0
 705 0004 0446     		mov	r4, r0
 706              		.loc 1 630 0
 707 0006 0A78     		ldrb	r2, [r1]	@ zero_extendqisi2
 708 0008 02F00402 		and	r2, r2, #4
 709 000c 02F0FF03 		and	r3, r2, #255
 710 0010 42B3     		cbz	r2, .L95
 631:Generated_Source\PSoC5/I2C_1_MASTER.c ****     {
 632:Generated_Source\PSoC5/I2C_1_MASTER.c ****         /* When address phase needs to release bus and receive byte,
 633:Generated_Source\PSoC5/I2C_1_MASTER.c ****         * then decide ACK or NACK
 634:Generated_Source\PSoC5/I2C_1_MASTER.c ****         */
 635:Generated_Source\PSoC5/I2C_1_MASTER.c ****         if(I2C_1_SM_MSTR_RD_ADDR == I2C_1_state)
 711              		.loc 1 635 0
 712 0012 164A     		ldr	r2, .L100+4
 713 0014 1378     		ldrb	r3, [r2]	@ zero_extendqisi2
 714 0016 492B     		cmp	r3, #73
 715 0018 0DD1     		bne	.L92
 636:Generated_Source\PSoC5/I2C_1_MASTER.c ****         {
 637:Generated_Source\PSoC5/I2C_1_MASTER.c ****             I2C_1_READY_TO_READ_MANUAL;
 716              		.loc 1 637 0
 717 001a 154B     		ldr	r3, .L100+8
 718 001c 0220     		movs	r0, #2
 719              	.LVL60:
 720 001e 1870     		strb	r0, [r3]
 721 0020 FF20     		movs	r0, #255
 722 0022 613B     		subs	r3, r3, #97
 723 0024 1870     		strb	r0, [r3]
 724 0026 1348     		ldr	r0, .L100+12
 725 0028 0025     		movs	r5, #0
 726 002a 0570     		strb	r5, [r0]
 727              	.L91:
 728              		.loc 1 637 0 is_stmt 0 discriminator 2
 729 002c 1878     		ldrb	r0, [r3]	@ zero_extendqisi2
 730 002e 0028     		cmp	r0, #0
 731 0030 FCD1     		bne	.L91
 638:Generated_Source\PSoC5/I2C_1_MASTER.c ****             I2C_1_state = I2C_1_SM_MSTR_RD_DATA;
 732              		.loc 1 638 0 is_stmt 1
 733 0032 4A23     		movs	r3, #74
 734 0034 1370     		strb	r3, [r2]
ARM GAS  C:\Users\Joe\AppData\Local\Temp\cc0Ovijc.s 			page 26


 735              	.L92:
 639:Generated_Source\PSoC5/I2C_1_MASTER.c ****         }
 640:Generated_Source\PSoC5/I2C_1_MASTER.c **** 
 641:Generated_Source\PSoC5/I2C_1_MASTER.c ****         /* Wait until data byte has been received */
 642:Generated_Source\PSoC5/I2C_1_MASTER.c ****         while(I2C_1_WAIT_BYTE_COMPLETE(I2C_1_CSR_REG))
 736              		.loc 1 642 0 discriminator 1
 737 0036 0B78     		ldrb	r3, [r1]	@ zero_extendqisi2
 738 0038 DB07     		lsls	r3, r3, #31
 739 003a FCD5     		bpl	.L92
 643:Generated_Source\PSoC5/I2C_1_MASTER.c ****         {
 644:Generated_Source\PSoC5/I2C_1_MASTER.c ****         }
 645:Generated_Source\PSoC5/I2C_1_MASTER.c **** 
 646:Generated_Source\PSoC5/I2C_1_MASTER.c ****         theByte = I2C_1_DATA_REG;
 740              		.loc 1 646 0
 741 003c 0E4B     		ldr	r3, .L100+16
 742 003e 1B78     		ldrb	r3, [r3]	@ zero_extendqisi2
 743 0040 D8B2     		uxtb	r0, r3
 744              	.LVL61:
 647:Generated_Source\PSoC5/I2C_1_MASTER.c **** 
 648:Generated_Source\PSoC5/I2C_1_MASTER.c ****         /* Command ACK to receive next byte and continue transfer.
 649:Generated_Source\PSoC5/I2C_1_MASTER.c ****         *  Do nothing for NACK. The NACK will be generated by
 650:Generated_Source\PSoC5/I2C_1_MASTER.c ****         *  Stop or ReStart routine.
 651:Generated_Source\PSoC5/I2C_1_MASTER.c ****         */
 652:Generated_Source\PSoC5/I2C_1_MASTER.c ****         if(acknNak != 0u) /* Generate ACK */
 745              		.loc 1 652 0
 746 0042 64B1     		cbz	r4, .L93
 653:Generated_Source\PSoC5/I2C_1_MASTER.c ****         {
 654:Generated_Source\PSoC5/I2C_1_MASTER.c ****             I2C_1_ACK_AND_RECEIVE_MANUAL;
 747              		.loc 1 654 0
 748 0044 0A4B     		ldr	r3, .L100+8
 749 0046 0222     		movs	r2, #2
 750 0048 1A70     		strb	r2, [r3]
 751 004a FF22     		movs	r2, #255
 752 004c 613B     		subs	r3, r3, #97
 753 004e 1A70     		strb	r2, [r3]
 754 0050 084A     		ldr	r2, .L100+12
 755 0052 0021     		movs	r1, #0
 756 0054 1170     		strb	r1, [r2]
 757              	.L94:
 758              		.loc 1 654 0 is_stmt 0 discriminator 2
 759 0056 1A78     		ldrb	r2, [r3]	@ zero_extendqisi2
 760 0058 002A     		cmp	r2, #0
 761 005a FCD1     		bne	.L94
 762 005c 30BD     		pop	{r4, r5, pc}
 763              	.L93:
 655:Generated_Source\PSoC5/I2C_1_MASTER.c ****         }
 656:Generated_Source\PSoC5/I2C_1_MASTER.c ****         else              /* Do nothing for the follwong NACK */
 657:Generated_Source\PSoC5/I2C_1_MASTER.c ****         {
 658:Generated_Source\PSoC5/I2C_1_MASTER.c ****             I2C_1_state = I2C_1_SM_MSTR_HALT;
 764              		.loc 1 658 0 is_stmt 1
 765 005e 6023     		movs	r3, #96
 766 0060 1370     		strb	r3, [r2]
 767 0062 30BD     		pop	{r4, r5, pc}
 768              	.LVL62:
 769              	.L95:
 627:Generated_Source\PSoC5/I2C_1_MASTER.c **** 
 770              		.loc 1 627 0
ARM GAS  C:\Users\Joe\AppData\Local\Temp\cc0Ovijc.s 			page 27


 771 0064 1846     		mov	r0, r3
 772              	.LVL63:
 659:Generated_Source\PSoC5/I2C_1_MASTER.c ****         }
 660:Generated_Source\PSoC5/I2C_1_MASTER.c ****     }
 661:Generated_Source\PSoC5/I2C_1_MASTER.c **** 
 662:Generated_Source\PSoC5/I2C_1_MASTER.c ****     return(theByte);
 663:Generated_Source\PSoC5/I2C_1_MASTER.c **** }
 773              		.loc 1 663 0
 774 0066 30BD     		pop	{r4, r5, pc}
 775              	.L101:
 776              		.align	2
 777              	.L100:
 778 0068 65640040 		.word	1073767525
 779 006c 00000000 		.word	I2C_1_state
 780 0070 75640040 		.word	1073767541
 781 0074 54640040 		.word	1073767508
 782 0078 04640040 		.word	1073767428
 783              		.cfi_endproc
 784              	.LFE6:
 785              		.size	I2C_1_MasterReadByte, .-I2C_1_MasterReadByte
 786              		.section	.text.I2C_1_MasterStatus,"ax",%progbits
 787              		.align	1
 788              		.global	I2C_1_MasterStatus
 789              		.thumb
 790              		.thumb_func
 791              		.type	I2C_1_MasterStatus, %function
 792              	I2C_1_MasterStatus:
 793              	.LFB7:
 664:Generated_Source\PSoC5/I2C_1_MASTER.c **** 
 665:Generated_Source\PSoC5/I2C_1_MASTER.c **** 
 666:Generated_Source\PSoC5/I2C_1_MASTER.c **** /*******************************************************************************
 667:Generated_Source\PSoC5/I2C_1_MASTER.c **** * Function Name: I2C_1_MasterStatus
 668:Generated_Source\PSoC5/I2C_1_MASTER.c **** ********************************************************************************
 669:Generated_Source\PSoC5/I2C_1_MASTER.c **** *
 670:Generated_Source\PSoC5/I2C_1_MASTER.c **** * Summary:
 671:Generated_Source\PSoC5/I2C_1_MASTER.c **** *  Returns the master's communication status.
 672:Generated_Source\PSoC5/I2C_1_MASTER.c **** *
 673:Generated_Source\PSoC5/I2C_1_MASTER.c **** * Parameters:
 674:Generated_Source\PSoC5/I2C_1_MASTER.c **** *  None.
 675:Generated_Source\PSoC5/I2C_1_MASTER.c **** *
 676:Generated_Source\PSoC5/I2C_1_MASTER.c **** * Return:
 677:Generated_Source\PSoC5/I2C_1_MASTER.c **** *  Current status of I2C master.
 678:Generated_Source\PSoC5/I2C_1_MASTER.c **** *
 679:Generated_Source\PSoC5/I2C_1_MASTER.c **** * Global variables:
 680:Generated_Source\PSoC5/I2C_1_MASTER.c **** *  I2C_1_mstrStatus - The global variable used to store a current
 681:Generated_Source\PSoC5/I2C_1_MASTER.c **** *                                status of the I2C Master.
 682:Generated_Source\PSoC5/I2C_1_MASTER.c **** *
 683:Generated_Source\PSoC5/I2C_1_MASTER.c **** *******************************************************************************/
 684:Generated_Source\PSoC5/I2C_1_MASTER.c **** uint8 I2C_1_MasterStatus(void) 
 685:Generated_Source\PSoC5/I2C_1_MASTER.c **** {
 794              		.loc 1 685 0
 795              		.cfi_startproc
 796              		@ args = 0, pretend = 0, frame = 0
 797              		@ frame_needed = 0, uses_anonymous_args = 0
 798              		@ link register save eliminated.
 686:Generated_Source\PSoC5/I2C_1_MASTER.c ****     uint8 status;
 687:Generated_Source\PSoC5/I2C_1_MASTER.c **** 
ARM GAS  C:\Users\Joe\AppData\Local\Temp\cc0Ovijc.s 			page 28


 688:Generated_Source\PSoC5/I2C_1_MASTER.c ****     I2C_1_DisableInt(); /* Lock from interrupt */
 799              		.loc 1 688 0
 800 0000 074A     		ldr	r2, .L107
 801 0002 0123     		movs	r3, #1
 802 0004 1360     		str	r3, [r2]
 689:Generated_Source\PSoC5/I2C_1_MASTER.c **** 
 690:Generated_Source\PSoC5/I2C_1_MASTER.c ****     /* Read master status */
 691:Generated_Source\PSoC5/I2C_1_MASTER.c ****     status = I2C_1_mstrStatus;
 803              		.loc 1 691 0
 804 0006 074A     		ldr	r2, .L107+4
 805 0008 1078     		ldrb	r0, [r2]	@ zero_extendqisi2
 692:Generated_Source\PSoC5/I2C_1_MASTER.c **** 
 693:Generated_Source\PSoC5/I2C_1_MASTER.c ****     if (I2C_1_CHECK_SM_MASTER)
 806              		.loc 1 693 0
 807 000a 074A     		ldr	r2, .L107+8
 691:Generated_Source\PSoC5/I2C_1_MASTER.c **** 
 808              		.loc 1 691 0
 809 000c C0B2     		uxtb	r0, r0
 810              	.LVL64:
 811              		.loc 1 693 0
 812 000e 1278     		ldrb	r2, [r2]	@ zero_extendqisi2
 813 0010 5206     		lsls	r2, r2, #25
 694:Generated_Source\PSoC5/I2C_1_MASTER.c ****     {
 695:Generated_Source\PSoC5/I2C_1_MASTER.c ****         /* Set transfer in progress flag in status */
 696:Generated_Source\PSoC5/I2C_1_MASTER.c ****         status |= I2C_1_MSTAT_XFER_INP;
 697:Generated_Source\PSoC5/I2C_1_MASTER.c ****     }
 698:Generated_Source\PSoC5/I2C_1_MASTER.c **** 
 699:Generated_Source\PSoC5/I2C_1_MASTER.c ****     I2C_1_EnableInt(); /* Release lock */
 814              		.loc 1 699 0
 815 0012 064A     		ldr	r2, .L107+12
 696:Generated_Source\PSoC5/I2C_1_MASTER.c ****     }
 816              		.loc 1 696 0
 817 0014 48BF     		it	mi
 818 0016 40F00400 		orrmi	r0, r0, #4
 819              	.LVL65:
 820              		.loc 1 699 0
 821 001a 1360     		str	r3, [r2]
 700:Generated_Source\PSoC5/I2C_1_MASTER.c **** 
 701:Generated_Source\PSoC5/I2C_1_MASTER.c ****     return (status);
 702:Generated_Source\PSoC5/I2C_1_MASTER.c **** }
 822              		.loc 1 702 0
 823 001c 7047     		bx	lr
 824              	.L108:
 825 001e 00BF     		.align	2
 826              	.L107:
 827 0020 80E100E0 		.word	-536813184
 828 0024 00000000 		.word	I2C_1_mstrStatus
 829 0028 00000000 		.word	I2C_1_state
 830 002c 00E100E0 		.word	-536813312
 831              		.cfi_endproc
 832              	.LFE7:
 833              		.size	I2C_1_MasterStatus, .-I2C_1_MasterStatus
 834              		.section	.text.I2C_1_MasterClearStatus,"ax",%progbits
 835              		.align	1
 836              		.global	I2C_1_MasterClearStatus
 837              		.thumb
 838              		.thumb_func
ARM GAS  C:\Users\Joe\AppData\Local\Temp\cc0Ovijc.s 			page 29


 839              		.type	I2C_1_MasterClearStatus, %function
 840              	I2C_1_MasterClearStatus:
 841              	.LFB8:
 703:Generated_Source\PSoC5/I2C_1_MASTER.c **** 
 704:Generated_Source\PSoC5/I2C_1_MASTER.c **** 
 705:Generated_Source\PSoC5/I2C_1_MASTER.c **** /*******************************************************************************
 706:Generated_Source\PSoC5/I2C_1_MASTER.c **** * Function Name: I2C_1_MasterClearStatus
 707:Generated_Source\PSoC5/I2C_1_MASTER.c **** ********************************************************************************
 708:Generated_Source\PSoC5/I2C_1_MASTER.c **** *
 709:Generated_Source\PSoC5/I2C_1_MASTER.c **** * Summary:
 710:Generated_Source\PSoC5/I2C_1_MASTER.c **** *  Clears all status flags and returns the master status.
 711:Generated_Source\PSoC5/I2C_1_MASTER.c **** *
 712:Generated_Source\PSoC5/I2C_1_MASTER.c **** * Parameters:
 713:Generated_Source\PSoC5/I2C_1_MASTER.c **** *  None.
 714:Generated_Source\PSoC5/I2C_1_MASTER.c **** *
 715:Generated_Source\PSoC5/I2C_1_MASTER.c **** * Return:
 716:Generated_Source\PSoC5/I2C_1_MASTER.c **** *  Current status of I2C master.
 717:Generated_Source\PSoC5/I2C_1_MASTER.c **** *
 718:Generated_Source\PSoC5/I2C_1_MASTER.c **** * Global variables:
 719:Generated_Source\PSoC5/I2C_1_MASTER.c **** *  I2C_1_mstrStatus - The global variable used to store a current
 720:Generated_Source\PSoC5/I2C_1_MASTER.c **** *                                status of the I2C Master.
 721:Generated_Source\PSoC5/I2C_1_MASTER.c **** *
 722:Generated_Source\PSoC5/I2C_1_MASTER.c **** * Reentrant:
 723:Generated_Source\PSoC5/I2C_1_MASTER.c **** *  No.
 724:Generated_Source\PSoC5/I2C_1_MASTER.c **** *
 725:Generated_Source\PSoC5/I2C_1_MASTER.c **** *******************************************************************************/
 726:Generated_Source\PSoC5/I2C_1_MASTER.c **** uint8 I2C_1_MasterClearStatus(void) 
 727:Generated_Source\PSoC5/I2C_1_MASTER.c **** {
 842              		.loc 1 727 0
 843              		.cfi_startproc
 844              		@ args = 0, pretend = 0, frame = 0
 845              		@ frame_needed = 0, uses_anonymous_args = 0
 846              		@ link register save eliminated.
 728:Generated_Source\PSoC5/I2C_1_MASTER.c ****     uint8 status;
 729:Generated_Source\PSoC5/I2C_1_MASTER.c **** 
 730:Generated_Source\PSoC5/I2C_1_MASTER.c ****     I2C_1_DisableInt(); /* Lock from interrupt */
 847              		.loc 1 730 0
 848 0000 044A     		ldr	r2, .L110
 849 0002 0123     		movs	r3, #1
 850 0004 1360     		str	r3, [r2]
 731:Generated_Source\PSoC5/I2C_1_MASTER.c **** 
 732:Generated_Source\PSoC5/I2C_1_MASTER.c ****     /* Read and clear master status */
 733:Generated_Source\PSoC5/I2C_1_MASTER.c ****     status = I2C_1_mstrStatus;
 851              		.loc 1 733 0
 852 0006 044A     		ldr	r2, .L110+4
 734:Generated_Source\PSoC5/I2C_1_MASTER.c ****     I2C_1_mstrStatus = I2C_1_MSTAT_CLEAR;
 853              		.loc 1 734 0
 854 0008 0021     		movs	r1, #0
 733:Generated_Source\PSoC5/I2C_1_MASTER.c ****     I2C_1_mstrStatus = I2C_1_MSTAT_CLEAR;
 855              		.loc 1 733 0
 856 000a 1078     		ldrb	r0, [r2]	@ zero_extendqisi2
 857              	.LVL66:
 858              		.loc 1 734 0
 859 000c 1170     		strb	r1, [r2]
 735:Generated_Source\PSoC5/I2C_1_MASTER.c **** 
 736:Generated_Source\PSoC5/I2C_1_MASTER.c ****     I2C_1_EnableInt(); /* Release lock */
 860              		.loc 1 736 0
ARM GAS  C:\Users\Joe\AppData\Local\Temp\cc0Ovijc.s 			page 30


 861 000e 034A     		ldr	r2, .L110+8
 862 0010 1360     		str	r3, [r2]
 737:Generated_Source\PSoC5/I2C_1_MASTER.c **** 
 738:Generated_Source\PSoC5/I2C_1_MASTER.c ****     return (status);
 739:Generated_Source\PSoC5/I2C_1_MASTER.c **** }
 863              		.loc 1 739 0
 864 0012 7047     		bx	lr
 865              	.L111:
 866              		.align	2
 867              	.L110:
 868 0014 80E100E0 		.word	-536813184
 869 0018 00000000 		.word	I2C_1_mstrStatus
 870 001c 00E100E0 		.word	-536813312
 871              		.cfi_endproc
 872              	.LFE8:
 873              		.size	I2C_1_MasterClearStatus, .-I2C_1_MasterClearStatus
 874              		.section	.text.I2C_1_MasterGetReadBufSize,"ax",%progbits
 875              		.align	1
 876              		.global	I2C_1_MasterGetReadBufSize
 877              		.thumb
 878              		.thumb_func
 879              		.type	I2C_1_MasterGetReadBufSize, %function
 880              	I2C_1_MasterGetReadBufSize:
 881              	.LFB9:
 740:Generated_Source\PSoC5/I2C_1_MASTER.c **** 
 741:Generated_Source\PSoC5/I2C_1_MASTER.c **** 
 742:Generated_Source\PSoC5/I2C_1_MASTER.c **** /*******************************************************************************
 743:Generated_Source\PSoC5/I2C_1_MASTER.c **** * Function Name: I2C_1_MasterGetReadBufSize
 744:Generated_Source\PSoC5/I2C_1_MASTER.c **** ********************************************************************************
 745:Generated_Source\PSoC5/I2C_1_MASTER.c **** *
 746:Generated_Source\PSoC5/I2C_1_MASTER.c **** * Summary:
 747:Generated_Source\PSoC5/I2C_1_MASTER.c **** *  Returns the amount of bytes that has been transferred with an
 748:Generated_Source\PSoC5/I2C_1_MASTER.c **** *  I2C_MasterReadBuf command.
 749:Generated_Source\PSoC5/I2C_1_MASTER.c **** *
 750:Generated_Source\PSoC5/I2C_1_MASTER.c **** * Parameters:
 751:Generated_Source\PSoC5/I2C_1_MASTER.c **** *  None.
 752:Generated_Source\PSoC5/I2C_1_MASTER.c **** *
 753:Generated_Source\PSoC5/I2C_1_MASTER.c **** * Return:
 754:Generated_Source\PSoC5/I2C_1_MASTER.c **** *  Byte count of transfer. If the transfer is not yet complete, it will return
 755:Generated_Source\PSoC5/I2C_1_MASTER.c **** *  the byte count transferred so far.
 756:Generated_Source\PSoC5/I2C_1_MASTER.c **** *
 757:Generated_Source\PSoC5/I2C_1_MASTER.c **** * Global variables:
 758:Generated_Source\PSoC5/I2C_1_MASTER.c **** *  I2C_1_mstrRdBufIndex - The global variable stores current index
 759:Generated_Source\PSoC5/I2C_1_MASTER.c **** *                                    within the master read buffer.
 760:Generated_Source\PSoC5/I2C_1_MASTER.c **** *
 761:Generated_Source\PSoC5/I2C_1_MASTER.c **** *******************************************************************************/
 762:Generated_Source\PSoC5/I2C_1_MASTER.c **** uint8 I2C_1_MasterGetReadBufSize(void) 
 763:Generated_Source\PSoC5/I2C_1_MASTER.c **** {
 882              		.loc 1 763 0
 883              		.cfi_startproc
 884              		@ args = 0, pretend = 0, frame = 0
 885              		@ frame_needed = 0, uses_anonymous_args = 0
 886              		@ link register save eliminated.
 764:Generated_Source\PSoC5/I2C_1_MASTER.c ****     return (I2C_1_mstrRdBufIndex);
 887              		.loc 1 764 0
 888 0000 014B     		ldr	r3, .L113
 889 0002 1878     		ldrb	r0, [r3]	@ zero_extendqisi2
ARM GAS  C:\Users\Joe\AppData\Local\Temp\cc0Ovijc.s 			page 31


 765:Generated_Source\PSoC5/I2C_1_MASTER.c **** }
 890              		.loc 1 765 0
 891 0004 7047     		bx	lr
 892              	.L114:
 893 0006 00BF     		.align	2
 894              	.L113:
 895 0008 00000000 		.word	I2C_1_mstrRdBufIndex
 896              		.cfi_endproc
 897              	.LFE9:
 898              		.size	I2C_1_MasterGetReadBufSize, .-I2C_1_MasterGetReadBufSize
 899              		.section	.text.I2C_1_MasterGetWriteBufSize,"ax",%progbits
 900              		.align	1
 901              		.global	I2C_1_MasterGetWriteBufSize
 902              		.thumb
 903              		.thumb_func
 904              		.type	I2C_1_MasterGetWriteBufSize, %function
 905              	I2C_1_MasterGetWriteBufSize:
 906              	.LFB10:
 766:Generated_Source\PSoC5/I2C_1_MASTER.c **** 
 767:Generated_Source\PSoC5/I2C_1_MASTER.c **** 
 768:Generated_Source\PSoC5/I2C_1_MASTER.c **** /*******************************************************************************
 769:Generated_Source\PSoC5/I2C_1_MASTER.c **** * Function Name: I2C_1_MasterGetWriteBufSize
 770:Generated_Source\PSoC5/I2C_1_MASTER.c **** ********************************************************************************
 771:Generated_Source\PSoC5/I2C_1_MASTER.c **** *
 772:Generated_Source\PSoC5/I2C_1_MASTER.c **** * Summary:
 773:Generated_Source\PSoC5/I2C_1_MASTER.c **** *  Returns the amount of bytes that has been transferred with an
 774:Generated_Source\PSoC5/I2C_1_MASTER.c **** *  I2C_MasterWriteBuf command.
 775:Generated_Source\PSoC5/I2C_1_MASTER.c **** *
 776:Generated_Source\PSoC5/I2C_1_MASTER.c **** * Parameters:
 777:Generated_Source\PSoC5/I2C_1_MASTER.c **** *  None.
 778:Generated_Source\PSoC5/I2C_1_MASTER.c **** *
 779:Generated_Source\PSoC5/I2C_1_MASTER.c **** * Return:
 780:Generated_Source\PSoC5/I2C_1_MASTER.c **** *  Byte count of transfer. If the transfer is not yet complete, it will return
 781:Generated_Source\PSoC5/I2C_1_MASTER.c **** *  the byte count transferred so far.
 782:Generated_Source\PSoC5/I2C_1_MASTER.c **** *
 783:Generated_Source\PSoC5/I2C_1_MASTER.c **** * Global variables:
 784:Generated_Source\PSoC5/I2C_1_MASTER.c **** *  I2C_1_mstrWrBufIndex -  The global variable used to stores current
 785:Generated_Source\PSoC5/I2C_1_MASTER.c **** *                                     index within master write buffer.
 786:Generated_Source\PSoC5/I2C_1_MASTER.c **** *
 787:Generated_Source\PSoC5/I2C_1_MASTER.c **** *******************************************************************************/
 788:Generated_Source\PSoC5/I2C_1_MASTER.c **** uint8 I2C_1_MasterGetWriteBufSize(void) 
 789:Generated_Source\PSoC5/I2C_1_MASTER.c **** {
 907              		.loc 1 789 0
 908              		.cfi_startproc
 909              		@ args = 0, pretend = 0, frame = 0
 910              		@ frame_needed = 0, uses_anonymous_args = 0
 911              		@ link register save eliminated.
 790:Generated_Source\PSoC5/I2C_1_MASTER.c ****     return (I2C_1_mstrWrBufIndex);
 912              		.loc 1 790 0
 913 0000 014B     		ldr	r3, .L116
 914 0002 1878     		ldrb	r0, [r3]	@ zero_extendqisi2
 791:Generated_Source\PSoC5/I2C_1_MASTER.c **** }
 915              		.loc 1 791 0
 916 0004 7047     		bx	lr
 917              	.L117:
 918 0006 00BF     		.align	2
 919              	.L116:
ARM GAS  C:\Users\Joe\AppData\Local\Temp\cc0Ovijc.s 			page 32


 920 0008 00000000 		.word	I2C_1_mstrWrBufIndex
 921              		.cfi_endproc
 922              	.LFE10:
 923              		.size	I2C_1_MasterGetWriteBufSize, .-I2C_1_MasterGetWriteBufSize
 924              		.section	.text.I2C_1_MasterClearReadBuf,"ax",%progbits
 925              		.align	1
 926              		.global	I2C_1_MasterClearReadBuf
 927              		.thumb
 928              		.thumb_func
 929              		.type	I2C_1_MasterClearReadBuf, %function
 930              	I2C_1_MasterClearReadBuf:
 931              	.LFB11:
 792:Generated_Source\PSoC5/I2C_1_MASTER.c **** 
 793:Generated_Source\PSoC5/I2C_1_MASTER.c **** 
 794:Generated_Source\PSoC5/I2C_1_MASTER.c **** /*******************************************************************************
 795:Generated_Source\PSoC5/I2C_1_MASTER.c **** * Function Name: I2C_1_MasterClearReadBuf
 796:Generated_Source\PSoC5/I2C_1_MASTER.c **** ********************************************************************************
 797:Generated_Source\PSoC5/I2C_1_MASTER.c **** *
 798:Generated_Source\PSoC5/I2C_1_MASTER.c **** * Summary:
 799:Generated_Source\PSoC5/I2C_1_MASTER.c **** *  Resets the read buffer pointer back to the first byte in the buffer.
 800:Generated_Source\PSoC5/I2C_1_MASTER.c **** *
 801:Generated_Source\PSoC5/I2C_1_MASTER.c **** * Parameters:
 802:Generated_Source\PSoC5/I2C_1_MASTER.c **** *  None.
 803:Generated_Source\PSoC5/I2C_1_MASTER.c **** *
 804:Generated_Source\PSoC5/I2C_1_MASTER.c **** * Return:
 805:Generated_Source\PSoC5/I2C_1_MASTER.c **** *  None.
 806:Generated_Source\PSoC5/I2C_1_MASTER.c **** *
 807:Generated_Source\PSoC5/I2C_1_MASTER.c **** * Global variables:
 808:Generated_Source\PSoC5/I2C_1_MASTER.c **** *  I2C_1_mstrRdBufIndex - The global variable used to stores current
 809:Generated_Source\PSoC5/I2C_1_MASTER.c **** *                                    index within master read buffer.
 810:Generated_Source\PSoC5/I2C_1_MASTER.c **** *  I2C_1_mstrStatus - The global variable used to store a current
 811:Generated_Source\PSoC5/I2C_1_MASTER.c **** *                                status of the I2C Master.
 812:Generated_Source\PSoC5/I2C_1_MASTER.c **** *
 813:Generated_Source\PSoC5/I2C_1_MASTER.c **** * Reentrant:
 814:Generated_Source\PSoC5/I2C_1_MASTER.c **** *  No.
 815:Generated_Source\PSoC5/I2C_1_MASTER.c **** *
 816:Generated_Source\PSoC5/I2C_1_MASTER.c **** *******************************************************************************/
 817:Generated_Source\PSoC5/I2C_1_MASTER.c **** void I2C_1_MasterClearReadBuf(void) 
 818:Generated_Source\PSoC5/I2C_1_MASTER.c **** {
 932              		.loc 1 818 0
 933              		.cfi_startproc
 934              		@ args = 0, pretend = 0, frame = 0
 935              		@ frame_needed = 0, uses_anonymous_args = 0
 936              		@ link register save eliminated.
 819:Generated_Source\PSoC5/I2C_1_MASTER.c ****     I2C_1_DisableInt(); /* Lock from interrupt */
 937              		.loc 1 819 0
 938 0000 064B     		ldr	r3, .L119
 939 0002 0122     		movs	r2, #1
 940 0004 1A60     		str	r2, [r3]
 820:Generated_Source\PSoC5/I2C_1_MASTER.c **** 
 821:Generated_Source\PSoC5/I2C_1_MASTER.c ****     I2C_1_mstrRdBufIndex = 0u;
 941              		.loc 1 821 0
 942 0006 064B     		ldr	r3, .L119+4
 943 0008 0021     		movs	r1, #0
 944 000a 1970     		strb	r1, [r3]
 822:Generated_Source\PSoC5/I2C_1_MASTER.c ****     I2C_1_mstrStatus    &= (uint8) ~I2C_1_MSTAT_RD_CMPLT;
 945              		.loc 1 822 0
ARM GAS  C:\Users\Joe\AppData\Local\Temp\cc0Ovijc.s 			page 33


 946 000c 0549     		ldr	r1, .L119+8
 947 000e 0B78     		ldrb	r3, [r1]	@ zero_extendqisi2
 948 0010 03F0FE03 		and	r3, r3, #254
 949 0014 0B70     		strb	r3, [r1]
 823:Generated_Source\PSoC5/I2C_1_MASTER.c **** 
 824:Generated_Source\PSoC5/I2C_1_MASTER.c ****     I2C_1_EnableInt(); /* Release lock */
 950              		.loc 1 824 0
 951 0016 044B     		ldr	r3, .L119+12
 952 0018 1A60     		str	r2, [r3]
 953 001a 7047     		bx	lr
 954              	.L120:
 955              		.align	2
 956              	.L119:
 957 001c 80E100E0 		.word	-536813184
 958 0020 00000000 		.word	I2C_1_mstrRdBufIndex
 959 0024 00000000 		.word	I2C_1_mstrStatus
 960 0028 00E100E0 		.word	-536813312
 961              		.cfi_endproc
 962              	.LFE11:
 963              		.size	I2C_1_MasterClearReadBuf, .-I2C_1_MasterClearReadBuf
 964              		.section	.text.I2C_1_MasterClearWriteBuf,"ax",%progbits
 965              		.align	1
 966              		.global	I2C_1_MasterClearWriteBuf
 967              		.thumb
 968              		.thumb_func
 969              		.type	I2C_1_MasterClearWriteBuf, %function
 970              	I2C_1_MasterClearWriteBuf:
 971              	.LFB12:
 825:Generated_Source\PSoC5/I2C_1_MASTER.c **** }
 826:Generated_Source\PSoC5/I2C_1_MASTER.c **** 
 827:Generated_Source\PSoC5/I2C_1_MASTER.c **** 
 828:Generated_Source\PSoC5/I2C_1_MASTER.c **** /*******************************************************************************
 829:Generated_Source\PSoC5/I2C_1_MASTER.c **** * Function Name: I2C_1_MasterClearWriteBuf
 830:Generated_Source\PSoC5/I2C_1_MASTER.c **** ********************************************************************************
 831:Generated_Source\PSoC5/I2C_1_MASTER.c **** *
 832:Generated_Source\PSoC5/I2C_1_MASTER.c **** * Summary:
 833:Generated_Source\PSoC5/I2C_1_MASTER.c **** *  Resets the write buffer pointer back to the first byte in the buffer.
 834:Generated_Source\PSoC5/I2C_1_MASTER.c **** *
 835:Generated_Source\PSoC5/I2C_1_MASTER.c **** * Parameters:
 836:Generated_Source\PSoC5/I2C_1_MASTER.c **** *  None.
 837:Generated_Source\PSoC5/I2C_1_MASTER.c **** *
 838:Generated_Source\PSoC5/I2C_1_MASTER.c **** * Return:
 839:Generated_Source\PSoC5/I2C_1_MASTER.c **** *  None.
 840:Generated_Source\PSoC5/I2C_1_MASTER.c **** *
 841:Generated_Source\PSoC5/I2C_1_MASTER.c **** * Global variables:
 842:Generated_Source\PSoC5/I2C_1_MASTER.c **** *  I2C_1_mstrRdBufIndex - The global variable used to stote current
 843:Generated_Source\PSoC5/I2C_1_MASTER.c **** *                                    index within master read buffer.
 844:Generated_Source\PSoC5/I2C_1_MASTER.c **** *  I2C_1_mstrStatus - The global variable used to store a current
 845:Generated_Source\PSoC5/I2C_1_MASTER.c **** *                                status of the I2C Master.
 846:Generated_Source\PSoC5/I2C_1_MASTER.c **** *
 847:Generated_Source\PSoC5/I2C_1_MASTER.c **** * Reentrant:
 848:Generated_Source\PSoC5/I2C_1_MASTER.c **** *  No.
 849:Generated_Source\PSoC5/I2C_1_MASTER.c **** *
 850:Generated_Source\PSoC5/I2C_1_MASTER.c **** *******************************************************************************/
 851:Generated_Source\PSoC5/I2C_1_MASTER.c **** void I2C_1_MasterClearWriteBuf(void) 
 852:Generated_Source\PSoC5/I2C_1_MASTER.c **** {
 972              		.loc 1 852 0
ARM GAS  C:\Users\Joe\AppData\Local\Temp\cc0Ovijc.s 			page 34


 973              		.cfi_startproc
 974              		@ args = 0, pretend = 0, frame = 0
 975              		@ frame_needed = 0, uses_anonymous_args = 0
 976              		@ link register save eliminated.
 853:Generated_Source\PSoC5/I2C_1_MASTER.c ****     I2C_1_DisableInt(); /* Lock from interrupt */
 977              		.loc 1 853 0
 978 0000 064B     		ldr	r3, .L122
 979 0002 0122     		movs	r2, #1
 980 0004 1A60     		str	r2, [r3]
 854:Generated_Source\PSoC5/I2C_1_MASTER.c **** 
 855:Generated_Source\PSoC5/I2C_1_MASTER.c ****     I2C_1_mstrWrBufIndex = 0u;
 981              		.loc 1 855 0
 982 0006 064B     		ldr	r3, .L122+4
 983 0008 0021     		movs	r1, #0
 984 000a 1970     		strb	r1, [r3]
 856:Generated_Source\PSoC5/I2C_1_MASTER.c ****     I2C_1_mstrStatus    &= (uint8) ~I2C_1_MSTAT_WR_CMPLT;
 985              		.loc 1 856 0
 986 000c 0549     		ldr	r1, .L122+8
 987 000e 0B78     		ldrb	r3, [r1]	@ zero_extendqisi2
 988 0010 03F0FD03 		and	r3, r3, #253
 989 0014 0B70     		strb	r3, [r1]
 857:Generated_Source\PSoC5/I2C_1_MASTER.c **** 
 858:Generated_Source\PSoC5/I2C_1_MASTER.c ****     I2C_1_EnableInt(); /* Release lock */
 990              		.loc 1 858 0
 991 0016 044B     		ldr	r3, .L122+12
 992 0018 1A60     		str	r2, [r3]
 993 001a 7047     		bx	lr
 994              	.L123:
 995              		.align	2
 996              	.L122:
 997 001c 80E100E0 		.word	-536813184
 998 0020 00000000 		.word	I2C_1_mstrWrBufIndex
 999 0024 00000000 		.word	I2C_1_mstrStatus
 1000 0028 00E100E0 		.word	-536813312
 1001              		.cfi_endproc
 1002              	.LFE12:
 1003              		.size	I2C_1_MasterClearWriteBuf, .-I2C_1_MasterClearWriteBuf
 1004              		.comm	I2C_1_mstrWrBufIndex,1,1
 1005              		.comm	I2C_1_mstrWrBufSize,1,1
 1006              		.comm	I2C_1_mstrWrBufPtr,4,4
 1007              		.comm	I2C_1_mstrRdBufIndex,1,1
 1008              		.comm	I2C_1_mstrRdBufSize,1,1
 1009              		.comm	I2C_1_mstrRdBufPtr,4,4
 1010              		.comm	I2C_1_mstrControl,1,1
 1011              		.comm	I2C_1_mstrStatus,1,1
 1012              		.text
 1013              	.Letext0:
 1014              		.file 2 "Generated_Source\\PSoC5\\cytypes.h"
 1015              		.file 3 "Generated_Source\\PSoC5\\I2C_1_PVT.h"