ARM GAS  C:\Users\Joe\AppData\Local\Temp\cconBnlg.s 			page 1


   1              		.syntax unified
   2              		.cpu cortex-m3
   3              		.fpu softvfp
   4              		.eabi_attribute 20, 1
   5              		.eabi_attribute 21, 1
   6              		.eabi_attribute 23, 3
   7              		.eabi_attribute 24, 1
   8              		.eabi_attribute 25, 1
   9              		.eabi_attribute 26, 1
  10              		.eabi_attribute 30, 4
  11              		.eabi_attribute 34, 1
  12              		.eabi_attribute 18, 4
  13              		.thumb
  14              		.syntax unified
  15              		.file	"SPIS_1_PM.c"
  16              		.text
  17              	.Ltext0:
  18              		.cfi_sections	.debug_frame
  19              		.section	.text.SPIS_1_SaveConfig,"ax",%progbits
  20              		.align	1
  21              		.global	SPIS_1_SaveConfig
  22              		.thumb
  23              		.thumb_func
  24              		.type	SPIS_1_SaveConfig, %function
  25              	SPIS_1_SaveConfig:
  26              	.LFB5:
  27              		.cfi_startproc
  28              		@ args = 0, pretend = 0, frame = 0
  29              		@ frame_needed = 0, uses_anonymous_args = 0
  30              		@ link register save eliminated.
  31 0000 7047     		bx	lr
  32              		.cfi_endproc
  33              	.LFE5:
  34              		.size	SPIS_1_SaveConfig, .-SPIS_1_SaveConfig
  35              		.section	.text.SPIS_1_RestoreConfig,"ax",%progbits
  36              		.align	1
  37              		.global	SPIS_1_RestoreConfig
  38              		.thumb
  39              		.thumb_func
  40              		.type	SPIS_1_RestoreConfig, %function
  41              	SPIS_1_RestoreConfig:
  42              	.LFB1:
  43              		.file 1 "Generated_Source\\PSoC5\\SPIS_1_PM.c"
   1:Generated_Source\PSoC5/SPIS_1_PM.c **** /*******************************************************************************
   2:Generated_Source\PSoC5/SPIS_1_PM.c **** * File Name: SPIS_1_PM.c
   3:Generated_Source\PSoC5/SPIS_1_PM.c **** * Version 2.70
   4:Generated_Source\PSoC5/SPIS_1_PM.c **** *
   5:Generated_Source\PSoC5/SPIS_1_PM.c **** * Description:
   6:Generated_Source\PSoC5/SPIS_1_PM.c **** *  This file contains the setup, control and status commands to support
   7:Generated_Source\PSoC5/SPIS_1_PM.c **** *  component operations in low power mode.
   8:Generated_Source\PSoC5/SPIS_1_PM.c **** *
   9:Generated_Source\PSoC5/SPIS_1_PM.c **** * Note:
  10:Generated_Source\PSoC5/SPIS_1_PM.c **** *
  11:Generated_Source\PSoC5/SPIS_1_PM.c **** ********************************************************************************
  12:Generated_Source\PSoC5/SPIS_1_PM.c **** * Copyright 2008-2015, Cypress Semiconductor Corporation.  All rights reserved.
  13:Generated_Source\PSoC5/SPIS_1_PM.c **** * You may use this file only in accordance with the license, terms, conditions,
  14:Generated_Source\PSoC5/SPIS_1_PM.c **** * disclaimers, and limitations in the end user license agreement accompanying
ARM GAS  C:\Users\Joe\AppData\Local\Temp\cconBnlg.s 			page 2


  15:Generated_Source\PSoC5/SPIS_1_PM.c **** * the software package with which this file was provided.
  16:Generated_Source\PSoC5/SPIS_1_PM.c **** *******************************************************************************/
  17:Generated_Source\PSoC5/SPIS_1_PM.c **** 
  18:Generated_Source\PSoC5/SPIS_1_PM.c **** #include "SPIS_1_PVT.h"
  19:Generated_Source\PSoC5/SPIS_1_PM.c **** 
  20:Generated_Source\PSoC5/SPIS_1_PM.c **** static SPIS_1_BACKUP_STRUCT SPIS_1_backup = 
  21:Generated_Source\PSoC5/SPIS_1_PM.c **** {
  22:Generated_Source\PSoC5/SPIS_1_PM.c ****     SPIS_1_DISABLED,
  23:Generated_Source\PSoC5/SPIS_1_PM.c ****     SPIS_1_BITCTR_INIT,
  24:Generated_Source\PSoC5/SPIS_1_PM.c **** };
  25:Generated_Source\PSoC5/SPIS_1_PM.c **** 
  26:Generated_Source\PSoC5/SPIS_1_PM.c **** 
  27:Generated_Source\PSoC5/SPIS_1_PM.c **** /*******************************************************************************
  28:Generated_Source\PSoC5/SPIS_1_PM.c **** * Function Name: SPIS_1_SaveConfig
  29:Generated_Source\PSoC5/SPIS_1_PM.c **** ********************************************************************************
  30:Generated_Source\PSoC5/SPIS_1_PM.c **** *
  31:Generated_Source\PSoC5/SPIS_1_PM.c **** * Summary:
  32:Generated_Source\PSoC5/SPIS_1_PM.c **** *  Empty function. Included for consistency with other components.
  33:Generated_Source\PSoC5/SPIS_1_PM.c **** *
  34:Generated_Source\PSoC5/SPIS_1_PM.c **** * Parameters:
  35:Generated_Source\PSoC5/SPIS_1_PM.c **** *  None.
  36:Generated_Source\PSoC5/SPIS_1_PM.c **** *
  37:Generated_Source\PSoC5/SPIS_1_PM.c **** * Return:
  38:Generated_Source\PSoC5/SPIS_1_PM.c **** *  None.
  39:Generated_Source\PSoC5/SPIS_1_PM.c **** *
  40:Generated_Source\PSoC5/SPIS_1_PM.c **** *******************************************************************************/
  41:Generated_Source\PSoC5/SPIS_1_PM.c **** void SPIS_1_SaveConfig(void) 
  42:Generated_Source\PSoC5/SPIS_1_PM.c **** {
  43:Generated_Source\PSoC5/SPIS_1_PM.c **** 
  44:Generated_Source\PSoC5/SPIS_1_PM.c **** }
  45:Generated_Source\PSoC5/SPIS_1_PM.c **** 
  46:Generated_Source\PSoC5/SPIS_1_PM.c **** 
  47:Generated_Source\PSoC5/SPIS_1_PM.c **** /*******************************************************************************
  48:Generated_Source\PSoC5/SPIS_1_PM.c **** * Function Name: SPIS_1_RestoreConfig
  49:Generated_Source\PSoC5/SPIS_1_PM.c **** ********************************************************************************
  50:Generated_Source\PSoC5/SPIS_1_PM.c **** *
  51:Generated_Source\PSoC5/SPIS_1_PM.c **** * Summary:
  52:Generated_Source\PSoC5/SPIS_1_PM.c **** *  Empty function. Included for consistency with other components.
  53:Generated_Source\PSoC5/SPIS_1_PM.c **** *
  54:Generated_Source\PSoC5/SPIS_1_PM.c **** * Parameters:
  55:Generated_Source\PSoC5/SPIS_1_PM.c **** *  None.
  56:Generated_Source\PSoC5/SPIS_1_PM.c **** *
  57:Generated_Source\PSoC5/SPIS_1_PM.c **** * Return:
  58:Generated_Source\PSoC5/SPIS_1_PM.c **** *  None.
  59:Generated_Source\PSoC5/SPIS_1_PM.c **** *
  60:Generated_Source\PSoC5/SPIS_1_PM.c **** *******************************************************************************/
  61:Generated_Source\PSoC5/SPIS_1_PM.c **** void SPIS_1_RestoreConfig(void) 
  62:Generated_Source\PSoC5/SPIS_1_PM.c **** {
  44              		.loc 1 62 0
  45              		.cfi_startproc
  46              		@ args = 0, pretend = 0, frame = 0
  47              		@ frame_needed = 0, uses_anonymous_args = 0
  48              		@ link register save eliminated.
  49 0000 7047     		bx	lr
  50              		.cfi_endproc
  51              	.LFE1:
  52              		.size	SPIS_1_RestoreConfig, .-SPIS_1_RestoreConfig
ARM GAS  C:\Users\Joe\AppData\Local\Temp\cconBnlg.s 			page 3


  53              		.section	.text.SPIS_1_Sleep,"ax",%progbits
  54              		.align	1
  55              		.global	SPIS_1_Sleep
  56              		.thumb
  57              		.thumb_func
  58              		.type	SPIS_1_Sleep, %function
  59              	SPIS_1_Sleep:
  60              	.LFB2:
  63:Generated_Source\PSoC5/SPIS_1_PM.c **** 
  64:Generated_Source\PSoC5/SPIS_1_PM.c **** }
  65:Generated_Source\PSoC5/SPIS_1_PM.c **** 
  66:Generated_Source\PSoC5/SPIS_1_PM.c **** 
  67:Generated_Source\PSoC5/SPIS_1_PM.c **** /*******************************************************************************
  68:Generated_Source\PSoC5/SPIS_1_PM.c **** * Function Name: SPIS_1_Sleep
  69:Generated_Source\PSoC5/SPIS_1_PM.c **** ********************************************************************************
  70:Generated_Source\PSoC5/SPIS_1_PM.c **** *
  71:Generated_Source\PSoC5/SPIS_1_PM.c **** * Summary:
  72:Generated_Source\PSoC5/SPIS_1_PM.c **** *  Prepare SPI Slave Component goes to sleep.
  73:Generated_Source\PSoC5/SPIS_1_PM.c **** *
  74:Generated_Source\PSoC5/SPIS_1_PM.c **** * Parameters:
  75:Generated_Source\PSoC5/SPIS_1_PM.c **** *  None.
  76:Generated_Source\PSoC5/SPIS_1_PM.c **** *
  77:Generated_Source\PSoC5/SPIS_1_PM.c **** * Return:
  78:Generated_Source\PSoC5/SPIS_1_PM.c **** *  None.
  79:Generated_Source\PSoC5/SPIS_1_PM.c **** *
  80:Generated_Source\PSoC5/SPIS_1_PM.c **** * Global Variables:
  81:Generated_Source\PSoC5/SPIS_1_PM.c **** *  SPIS_1_backup - modified when non-retention registers are saved.
  82:Generated_Source\PSoC5/SPIS_1_PM.c **** *
  83:Generated_Source\PSoC5/SPIS_1_PM.c **** * Reentrant:
  84:Generated_Source\PSoC5/SPIS_1_PM.c **** *  No.
  85:Generated_Source\PSoC5/SPIS_1_PM.c **** *
  86:Generated_Source\PSoC5/SPIS_1_PM.c **** *******************************************************************************/
  87:Generated_Source\PSoC5/SPIS_1_PM.c **** void SPIS_1_Sleep(void) 
  88:Generated_Source\PSoC5/SPIS_1_PM.c **** {
  61              		.loc 1 88 0
  62              		.cfi_startproc
  63              		@ args = 0, pretend = 0, frame = 0
  64              		@ frame_needed = 0, uses_anonymous_args = 0
  65              		@ link register save eliminated.
  89:Generated_Source\PSoC5/SPIS_1_PM.c ****     /* Save components enable state */
  90:Generated_Source\PSoC5/SPIS_1_PM.c ****     if ((SPIS_1_TX_STATUS_ACTL_REG & SPIS_1_INT_ENABLE) != 0u)
  66              		.loc 1 90 0
  67 0000 064B     		ldr	r3, .L7
  68 0002 074A     		ldr	r2, .L7+4
  69 0004 1B78     		ldrb	r3, [r3]	@ zero_extendqisi2
  70 0006 03F01003 		and	r3, r3, #16
  71 000a 03F0FF01 		and	r1, r3, #255
  72 000e 13B1     		cbz	r3, .L4
  91:Generated_Source\PSoC5/SPIS_1_PM.c ****     {
  92:Generated_Source\PSoC5/SPIS_1_PM.c ****         SPIS_1_backup.enableState = 1u;
  73              		.loc 1 92 0
  74 0010 0123     		movs	r3, #1
  75 0012 1370     		strb	r3, [r2]
  76 0014 00E0     		b	.L5
  77              	.L4:
  93:Generated_Source\PSoC5/SPIS_1_PM.c ****     }
  94:Generated_Source\PSoC5/SPIS_1_PM.c ****     else /* Components block is disabled */
ARM GAS  C:\Users\Joe\AppData\Local\Temp\cconBnlg.s 			page 4


  95:Generated_Source\PSoC5/SPIS_1_PM.c ****     {
  96:Generated_Source\PSoC5/SPIS_1_PM.c ****         SPIS_1_backup.enableState = 0u;
  78              		.loc 1 96 0
  79 0016 1170     		strb	r1, [r2]
  80              	.L5:
  97:Generated_Source\PSoC5/SPIS_1_PM.c ****     }
  98:Generated_Source\PSoC5/SPIS_1_PM.c **** 
  99:Generated_Source\PSoC5/SPIS_1_PM.c ****     SPIS_1_Stop();
  81              		.loc 1 99 0
  82 0018 FFF7FEBF 		b	SPIS_1_Stop
  83              	.LVL0:
  84              	.L8:
  85              		.align	2
  86              	.L7:
  87 001c 97640040 		.word	1073767575
  88 0020 00000000 		.word	.LANCHOR0
  89              		.cfi_endproc
  90              	.LFE2:
  91              		.size	SPIS_1_Sleep, .-SPIS_1_Sleep
  92              		.section	.text.SPIS_1_Wakeup,"ax",%progbits
  93              		.align	1
  94              		.global	SPIS_1_Wakeup
  95              		.thumb
  96              		.thumb_func
  97              		.type	SPIS_1_Wakeup, %function
  98              	SPIS_1_Wakeup:
  99              	.LFB3:
 100:Generated_Source\PSoC5/SPIS_1_PM.c **** 
 101:Generated_Source\PSoC5/SPIS_1_PM.c **** }
 102:Generated_Source\PSoC5/SPIS_1_PM.c **** 
 103:Generated_Source\PSoC5/SPIS_1_PM.c **** 
 104:Generated_Source\PSoC5/SPIS_1_PM.c **** /*******************************************************************************
 105:Generated_Source\PSoC5/SPIS_1_PM.c **** * Function Name: SPIS_1_Wakeup
 106:Generated_Source\PSoC5/SPIS_1_PM.c **** ********************************************************************************
 107:Generated_Source\PSoC5/SPIS_1_PM.c **** *
 108:Generated_Source\PSoC5/SPIS_1_PM.c **** * Summary:
 109:Generated_Source\PSoC5/SPIS_1_PM.c **** *  Prepare SPIM Component to wake up.
 110:Generated_Source\PSoC5/SPIS_1_PM.c **** *
 111:Generated_Source\PSoC5/SPIS_1_PM.c **** * Parameters:
 112:Generated_Source\PSoC5/SPIS_1_PM.c **** *  None.
 113:Generated_Source\PSoC5/SPIS_1_PM.c **** *
 114:Generated_Source\PSoC5/SPIS_1_PM.c **** * Return:
 115:Generated_Source\PSoC5/SPIS_1_PM.c **** *  None.
 116:Generated_Source\PSoC5/SPIS_1_PM.c **** *
 117:Generated_Source\PSoC5/SPIS_1_PM.c **** * Global Variables:
 118:Generated_Source\PSoC5/SPIS_1_PM.c **** *  SPIS_1_backup - used when non-retention registers are restored.
 119:Generated_Source\PSoC5/SPIS_1_PM.c **** *  SPIS_1_txBufferWrite - modified every function call - resets to
 120:Generated_Source\PSoC5/SPIS_1_PM.c **** *  zero.
 121:Generated_Source\PSoC5/SPIS_1_PM.c **** *  SPIS_1_txBufferRead - modified every function call - resets to
 122:Generated_Source\PSoC5/SPIS_1_PM.c **** *  zero.
 123:Generated_Source\PSoC5/SPIS_1_PM.c **** *  SPIS_1_rxBufferWrite - modified every function call - resets to
 124:Generated_Source\PSoC5/SPIS_1_PM.c **** *  zero.
 125:Generated_Source\PSoC5/SPIS_1_PM.c **** *  SPIS_1_rxBufferRead - modified every function call - resets to
 126:Generated_Source\PSoC5/SPIS_1_PM.c **** *  zero.
 127:Generated_Source\PSoC5/SPIS_1_PM.c **** *
 128:Generated_Source\PSoC5/SPIS_1_PM.c **** * Reentrant:
 129:Generated_Source\PSoC5/SPIS_1_PM.c **** *  No.
ARM GAS  C:\Users\Joe\AppData\Local\Temp\cconBnlg.s 			page 5


 130:Generated_Source\PSoC5/SPIS_1_PM.c **** *
 131:Generated_Source\PSoC5/SPIS_1_PM.c **** *******************************************************************************/
 132:Generated_Source\PSoC5/SPIS_1_PM.c **** void SPIS_1_Wakeup(void) 
 133:Generated_Source\PSoC5/SPIS_1_PM.c **** {
 100              		.loc 1 133 0
 101              		.cfi_startproc
 102              		@ args = 0, pretend = 0, frame = 0
 103              		@ frame_needed = 0, uses_anonymous_args = 0
 134:Generated_Source\PSoC5/SPIS_1_PM.c ****     #if (SPIS_1_TX_SOFTWARE_BUF_ENABLED)
 135:Generated_Source\PSoC5/SPIS_1_PM.c ****         SPIS_1_txBufferFull = 0u;
 104              		.loc 1 135 0
 105 0000 0B4A     		ldr	r2, .L11
 133:Generated_Source\PSoC5/SPIS_1_PM.c ****     #if (SPIS_1_TX_SOFTWARE_BUF_ENABLED)
 106              		.loc 1 133 0
 107 0002 08B5     		push	{r3, lr}
 108              		.cfi_def_cfa_offset 8
 109              		.cfi_offset 3, -8
 110              		.cfi_offset 14, -4
 111              		.loc 1 135 0
 112 0004 0023     		movs	r3, #0
 113 0006 1370     		strb	r3, [r2]
 136:Generated_Source\PSoC5/SPIS_1_PM.c ****         SPIS_1_txBufferRead = 0u;
 114              		.loc 1 136 0
 115 0008 0A4A     		ldr	r2, .L11+4
 116 000a 1370     		strb	r3, [r2]
 137:Generated_Source\PSoC5/SPIS_1_PM.c ****         SPIS_1_txBufferWrite = 0u;
 117              		.loc 1 137 0
 118 000c 0A4A     		ldr	r2, .L11+8
 119 000e 1370     		strb	r3, [r2]
 138:Generated_Source\PSoC5/SPIS_1_PM.c ****     #endif /* SPIS_1_TX_SOFTWARE_BUF_ENABLED */
 139:Generated_Source\PSoC5/SPIS_1_PM.c **** 
 140:Generated_Source\PSoC5/SPIS_1_PM.c ****     #if (SPIS_1_RX_SOFTWARE_BUF_ENABLED)
 141:Generated_Source\PSoC5/SPIS_1_PM.c ****         SPIS_1_rxBufferFull = 0u;
 120              		.loc 1 141 0
 121 0010 0A4A     		ldr	r2, .L11+12
 122 0012 1370     		strb	r3, [r2]
 142:Generated_Source\PSoC5/SPIS_1_PM.c ****         SPIS_1_rxBufferRead = 0u;
 123              		.loc 1 142 0
 124 0014 0A4A     		ldr	r2, .L11+16
 125 0016 1370     		strb	r3, [r2]
 143:Generated_Source\PSoC5/SPIS_1_PM.c ****         SPIS_1_rxBufferWrite = 0u;
 126              		.loc 1 143 0
 127 0018 0A4A     		ldr	r2, .L11+20
 128 001a 1370     		strb	r3, [r2]
 144:Generated_Source\PSoC5/SPIS_1_PM.c ****     #endif /* SPIS_1_RX_SOFTWARE_BUF_ENABLED */
 145:Generated_Source\PSoC5/SPIS_1_PM.c **** 
 146:Generated_Source\PSoC5/SPIS_1_PM.c ****     SPIS_1_ClearFIFO();
 129              		.loc 1 146 0
 130 001c FFF7FEFF 		bl	SPIS_1_ClearFIFO
 131              	.LVL1:
 147:Generated_Source\PSoC5/SPIS_1_PM.c **** 
 148:Generated_Source\PSoC5/SPIS_1_PM.c ****     /* Restore components block enable state */
 149:Generated_Source\PSoC5/SPIS_1_PM.c ****     if (SPIS_1_backup.enableState != 0u)
 132              		.loc 1 149 0
 133 0020 094B     		ldr	r3, .L11+24
 134 0022 1B78     		ldrb	r3, [r3]	@ zero_extendqisi2
 135 0024 1BB1     		cbz	r3, .L9
ARM GAS  C:\Users\Joe\AppData\Local\Temp\cconBnlg.s 			page 6


 150:Generated_Source\PSoC5/SPIS_1_PM.c ****     {
 151:Generated_Source\PSoC5/SPIS_1_PM.c ****          /* Components block was enabled */
 152:Generated_Source\PSoC5/SPIS_1_PM.c ****          SPIS_1_Enable();
 153:Generated_Source\PSoC5/SPIS_1_PM.c ****     } /* Do nothing if components block was disabled */
 154:Generated_Source\PSoC5/SPIS_1_PM.c **** }
 136              		.loc 1 154 0
 137 0026 BDE80840 		pop	{r3, lr}
 138              		.cfi_remember_state
 139              		.cfi_restore 14
 140              		.cfi_restore 3
 141              		.cfi_def_cfa_offset 0
 152:Generated_Source\PSoC5/SPIS_1_PM.c ****     } /* Do nothing if components block was disabled */
 142              		.loc 1 152 0
 143 002a FFF7FEBF 		b	SPIS_1_Enable
 144              	.LVL2:
 145              	.L9:
 146              		.cfi_restore_state
 147 002e 08BD     		pop	{r3, pc}
 148              	.L12:
 149              		.align	2
 150              	.L11:
 151 0030 00000000 		.word	SPIS_1_txBufferFull
 152 0034 00000000 		.word	SPIS_1_txBufferRead
 153 0038 00000000 		.word	SPIS_1_txBufferWrite
 154 003c 00000000 		.word	SPIS_1_rxBufferFull
 155 0040 00000000 		.word	SPIS_1_rxBufferRead
 156 0044 00000000 		.word	SPIS_1_rxBufferWrite
 157 0048 00000000 		.word	.LANCHOR0
 158              		.cfi_endproc
 159              	.LFE3:
 160              		.size	SPIS_1_Wakeup, .-SPIS_1_Wakeup
 161              		.data
 162              		.set	.LANCHOR0,. + 0
 163              		.type	SPIS_1_backup, %object
 164              		.size	SPIS_1_backup, 2
 165              	SPIS_1_backup:
 166 0000 00       		.byte	0
 167 0001 07       		.byte	7
 168              		.text
 169              	.Letext0:
 170              		.file 2 "Generated_Source\\PSoC5\\cytypes.h"
 171              		.file 3 "Generated_Source\\PSoC5\\SPIS_1.h"
 172              		.file 4 "Generated_Source\\PSoC5\\SPIS_1_PVT.h"