ARM GAS  C:\Users\Joe\AppData\Local\Temp\ccb73LtY.s 			page 1


   1              		.syntax unified
   2              		.cpu cortex-m3
   3              		.fpu softvfp
   4              		.eabi_attribute 20, 1
   5              		.eabi_attribute 21, 1
   6              		.eabi_attribute 23, 3
   7              		.eabi_attribute 24, 1
   8              		.eabi_attribute 25, 1
   9              		.eabi_attribute 26, 1
  10              		.eabi_attribute 30, 6
  11              		.eabi_attribute 34, 1
  12              		.eabi_attribute 18, 4
  13              		.thumb
  14              		.syntax unified
  15              		.file	"main.c"
  16              		.text
  17              	.Ltext0:
  18              		.cfi_sections	.debug_frame
  19              		.section	.text.Timer_Interrupt_Handler,"ax",%progbits
  20              		.align	2
  21              		.global	Timer_Interrupt_Handler
  22              		.thumb
  23              		.thumb_func
  24              		.type	Timer_Interrupt_Handler, %function
  25              	Timer_Interrupt_Handler:
  26              	.LFB63:
  27              		.file 1 "main.c"
   1:main.c        **** /******************************************************************************
   2:main.c        **** * File Name: main.c
   3:main.c        **** *
   4:main.c        **** * Version: 1.10
   5:main.c        **** *
   6:main.c        **** * Description: This is the source code for the Blinking LED code example.
   7:main.c        **** *
   8:main.c        **** * Related Document: CE195352_PSoC_5LP_Blinking_LED.pdf
   9:main.c        **** *
  10:main.c        **** * Hardware Dependency: See CE195352_PSoC_5LP_Blinking_LED.pdf
  11:main.c        **** *
  12:main.c        **** *******************************************************************************
  13:main.c        **** * Copyright (2018), Cypress Semiconductor Corporation. All rights reserved.
  14:main.c        **** *******************************************************************************
  15:main.c        **** * This software, including source code, documentation and related materials
  16:main.c        **** * (“Software”), is owned by Cypress Semiconductor Corporation or one of its
  17:main.c        **** * subsidiaries (“Cypress”) and is protected by and subject to worldwide patent
  18:main.c        **** * protection (United States and foreign), United States copyright laws and
  19:main.c        **** * international treaty provisions. Therefore, you may use this Software only
  20:main.c        **** * as provided in the license agreement accompanying the software package from
  21:main.c        **** * which you obtained this Software (“EULA”).
  22:main.c        **** *
  23:main.c        **** * If no EULA applies, Cypress hereby grants you a personal, nonexclusive,
  24:main.c        **** * non-transferable license to copy, modify, and compile the Software source
  25:main.c        **** * code solely for use in connection with Cypress’s integrated circuit products.
  26:main.c        **** * Any reproduction, modification, translation, compilation, or representation
  27:main.c        **** * of this Software except as specified above is prohibited without the express
  28:main.c        **** * written permission of Cypress.
  29:main.c        **** *
  30:main.c        **** * Disclaimer: THIS SOFTWARE IS PROVIDED AS-IS, WITH NO WARRANTY OF ANY KIND, 
ARM GAS  C:\Users\Joe\AppData\Local\Temp\ccb73LtY.s 			page 2


  31:main.c        **** * EXPRESS OR IMPLIED, INCLUDING, BUT NOT LIMITED TO, NONINFRINGEMENT, IMPLIED 
  32:main.c        **** * WARRANTIES OF MERCHANTABILITY AND FITNESS FOR A PARTICULAR PURPOSE. Cypress 
  33:main.c        **** * reserves the right to make changes to the Software without notice. Cypress 
  34:main.c        **** * does not assume any liability arising out of the application or use of the 
  35:main.c        **** * Software or any product or circuit described in the Software. Cypress does 
  36:main.c        **** * not authorize its products for use in any products where a malfunction or 
  37:main.c        **** * failure of the Cypress product may reasonably be expected to result in 
  38:main.c        **** * significant property damage, injury or death (“High Risk Product”). By 
  39:main.c        **** * including Cypress’s product in a High Risk Product, the manufacturer of such 
  40:main.c        **** * system or application assumes all risk of such use and in doing so agrees to 
  41:main.c        **** * indemnify Cypress against all liability.
  42:main.c        **** *******************************************************************************/
  43:main.c        **** 
  44:main.c        **** #include <project.h>
  45:main.c        **** 
  46:main.c        **** 
  47:main.c        **** CY_ISR(Timer_Interrupt_Handler){
  28              		.loc 1 47 0
  29              		.cfi_startproc
  30              		@ args = 0, pretend = 0, frame = 0
  31              		@ frame_needed = 1, uses_anonymous_args = 0
  32 0000 80B5     		push	{r7, lr}
  33              		.cfi_def_cfa_offset 8
  34              		.cfi_offset 7, -8
  35              		.cfi_offset 14, -4
  36 0002 00AF     		add	r7, sp, #0
  37              		.cfi_def_cfa_register 7
  48:main.c        ****     Timer_ReadStatusRegister();
  38              		.loc 1 48 0
  39 0004 FFF7FEFF 		bl	Timer_ReadStatusRegister
  49:main.c        ****     
  50:main.c        ****     
  51:main.c        ****     PWM_Out_Write( ~PWM_Out_Read());
  40              		.loc 1 51 0
  41 0008 FFF7FEFF 		bl	PWM_Out_Read
  42 000c 0346     		mov	r3, r0
  43 000e DB43     		mvns	r3, r3
  44 0010 DBB2     		uxtb	r3, r3
  45 0012 1846     		mov	r0, r3
  46 0014 FFF7FEFF 		bl	PWM_Out_Write
  52:main.c        ****     
  53:main.c        ****     isr_1_ClearPending();
  47              		.loc 1 53 0
  48 0018 FFF7FEFF 		bl	isr_1_ClearPending
  54:main.c        **** }
  49              		.loc 1 54 0
  50 001c 00BF     		nop
  51 001e 80BD     		pop	{r7, pc}
  52              		.cfi_endproc
  53              	.LFE63:
  54              		.size	Timer_Interrupt_Handler, .-Timer_Interrupt_Handler
  55              		.section	.text.main,"ax",%progbits
  56              		.align	2
  57              		.global	main
  58              		.thumb
  59              		.thumb_func
  60              		.type	main, %function
ARM GAS  C:\Users\Joe\AppData\Local\Temp\ccb73LtY.s 			page 3


  61              	main:
  62              	.LFB64:
  55:main.c        **** 
  56:main.c        **** 
  57:main.c        **** /*******************************************************************************
  58:main.c        **** * Function Name: main
  59:main.c        **** ********************************************************************************
  60:main.c        **** *
  61:main.c        **** * Summary:
  62:main.c        **** *  The PWM is configured and started in the PWM_1_Start() function.
  63:main.c        **** *  The firmware then enters an idle loop, leaving control of the project
  64:main.c        **** *  to the fixed function PWM peripheral.
  65:main.c        **** *
  66:main.c        **** * Parameters:
  67:main.c        **** *  None.
  68:main.c        **** *
  69:main.c        **** * Return:
  70:main.c        **** *  None.
  71:main.c        **** *
  72:main.c        **** *******************************************************************************/
  73:main.c        **** int main()
  74:main.c        **** {
  63              		.loc 1 74 0
  64              		.cfi_startproc
  65              		@ args = 0, pretend = 0, frame = 0
  66              		@ frame_needed = 1, uses_anonymous_args = 0
  67 0000 80B5     		push	{r7, lr}
  68              		.cfi_def_cfa_offset 8
  69              		.cfi_offset 7, -8
  70              		.cfi_offset 14, -4
  71 0002 00AF     		add	r7, sp, #0
  72              		.cfi_def_cfa_register 7
  75:main.c        ****     
  76:main.c        ****     isr_1_StartEx( Timer_Interrupt_Handler );
  73              		.loc 1 76 0
  74 0004 0248     		ldr	r0, .L4
  75 0006 FFF7FEFF 		bl	isr_1_StartEx
  77:main.c        ****    
  78:main.c        ****     /* Prepare components */
  79:main.c        ****     Timer_Start();
  76              		.loc 1 79 0
  77 000a FFF7FEFF 		bl	Timer_Start
  78              	.L3:
  80:main.c        ****     
  81:main.c        ****     for (;;)
  82:main.c        ****     {}
  79              		.loc 1 82 0 discriminator 1
  80 000e FEE7     		b	.L3
  81              	.L5:
  82              		.align	2
  83              	.L4:
  84 0010 00000000 		.word	Timer_Interrupt_Handler
  85              		.cfi_endproc
  86              	.LFE64:
  87              		.size	main, .-main
  88              		.text
  89              	.Letext0:
ARM GAS  C:\Users\Joe\AppData\Local\Temp\ccb73LtY.s 			page 4


  90              		.file 2 "c:\\program files (x86)\\cypress\\psoc creator\\4.2\\psoc creator\\import\\gnu\\arm\\5.4.
  91              		.file 3 "c:\\program files (x86)\\cypress\\psoc creator\\4.2\\psoc creator\\import\\gnu\\arm\\5.4.
  92              		.file 4 "Generated_Source\\PSoC5/core_cm3.h"